LX51 LINKER/LOCATER V4.66.41.0                                                          02/15/2019  15:28:07  PAGE 1


LX51 LINKER/LOCATER V4.66.41.0, INVOKED BY:
C:\KEIL_V5\C51\BIN\LX51.EXE .\Output\Usr_Main.obj, .\Output\appTimer.obj, .\Output\dataManage.obj, .\Output\Tips.obj, .\
>> Output\devlopeDebug.obj, .\Output\dataTrans.obj, .\Output\usrKin.obj, .\Output\DS18B20.obj, .\Output\Relay.obj, .\Out
>> put\timerAct.obj, .\Output\touchPad.obj, .\Output\driver_I2C_HXD019D.obj, .\Output\USART.obj, .\Output\delay.obj, .\O
>> utput\EEPROM.obj, .\Output\pars_Method.obj TO .\Output\swZigbNode_L7dev PRINT (.\Listings\swZigbNode_L7dev.map) REMOV
>> EUNUSED


CPU MODE:     8051 MODE
MEMORY MODEL: SMALL


INPUT MODULES INCLUDED:
  .\Output\Usr_Main.obj (USR_MAIN)
         COMMENT TYPE 0: C51 V9.54
  .\Output\appTimer.obj (APPTIMER)
         COMMENT TYPE 0: C51 V9.54
  .\Output\dataManage.obj (DATAMANAGE)
         COMMENT TYPE 0: C51 V9.54
  .\Output\Tips.obj (TIPS)
         COMMENT TYPE 0: C51 V9.54
  .\Output\devlopeDebug.obj (DEVLOPEDEBUG)
         COMMENT TYPE 0: C51 V9.54
  .\Output\dataTrans.obj (DATATRANS)
         COMMENT TYPE 0: C51 V9.54
  .\Output\usrKin.obj (USRKIN)
         COMMENT TYPE 0: C51 V9.54
  .\Output\DS18B20.obj (DS18B20)
         COMMENT TYPE 0: C51 V9.54
  .\Output\Relay.obj (RELAY)
         COMMENT TYPE 0: C51 V9.54
  .\Output\timerAct.obj (TIMERACT)
         COMMENT TYPE 0: C51 V9.54
  .\Output\touchPad.obj (TOUCHPAD)
         COMMENT TYPE 0: C51 V9.54
  .\Output\driver_I2C_HXD019D.obj (DRIVER_I2C_HXD019D)
         COMMENT TYPE 0: C51 V9.54
  .\Output\USART.obj (USART)
         COMMENT TYPE 0: C51 V9.54
  .\Output\delay.obj (DELAY)
         COMMENT TYPE 0: C51 V9.54
  .\Output\EEPROM.obj (EEPROM)
         COMMENT TYPE 0: C51 V9.54
  .\Output\pars_Method.obj (PARS_METHOD)
         COMMENT TYPE 0: C51 V9.54
  C:\KEIL_V5\C51\LIB\C51S.LIB (?C_STARTUP)
         COMMENT TYPE 1: A51 / ASM51 Assembler
  C:\KEIL_V5\C51\LIB\C51S.LIB (?C?COPY)
         COMMENT TYPE 1: A51 / ASM51 Assembler
  C:\KEIL_V5\C51\LIB\C51S.LIB (?C?CLDPTR)
         COMMENT TYPE 1: A51 / ASM51 Assembler
  C:\KEIL_V5\C51\LIB\C51S.LIB (?C?CLDOPTR)
         COMMENT TYPE 1: A51 / ASM51 Assembler
  C:\KEIL_V5\C51\LIB\C51S.LIB (?C?CSTPTR)
         COMMENT TYPE 1: A51 / ASM51 Assembler
  C:\KEIL_V5\C51\LIB\C51S.LIB (?C?CSTOPTR)
         COMMENT TYPE 1: A51 / ASM51 Assembler
  C:\KEIL_V5\C51\LIB\C51S.LIB (?C?IMUL)
         COMMENT TYPE 1: A51 / ASM51 Assembler
  C:\KEIL_V5\C51\LIB\C51S.LIB (?C?UIDIV)
         COMMENT TYPE 1: A51 / ASM51 Assembler
  C:\KEIL_V5\C51\LIB\C51S.LIB (?C?LMUL)
         COMMENT TYPE 1: A51 / ASM51 Assembler
  C:\KEIL_V5\C51\LIB\C51S.LIB (?C?ULCMP)
         COMMENT TYPE 1: A51 / ASM51 Assembler
  C:\KEIL_V5\C51\LIB\C51S.LIB (?C?ULSHR)
LX51 LINKER/LOCATER V4.66.41.0                                                        02/15/2019  15:28:07  PAGE 2


         COMMENT TYPE 1: A51 / ASM51 Assembler
  C:\KEIL_V5\C51\LIB\C51S.LIB (?C?LSHL)
         COMMENT TYPE 1: A51 / ASM51 Assembler
  C:\KEIL_V5\C51\LIB\C51S.LIB (?C?OFFXADD)
         COMMENT TYPE 1: A51 / ASM51 Assembler
  C:\KEIL_V5\C51\LIB\C51S.LIB (?C?CCASE)
         COMMENT TYPE 1: A51 / ASM51 Assembler
  C:\KEIL_V5\C51\LIB\C51S.LIB (?C?ICALL)
         COMMENT TYPE 1: A51 / ASM51 Assembler
  C:\KEIL_V5\C51\LIB\C51S.LIB (PRINTF)
         COMMENT TYPE 1: A51 / ASM51 Assembler
  C:\KEIL_V5\C51\LIB\C51S.LIB (?C?MEMCMP)
         COMMENT TYPE 1: A51 / ASM51 Assembler
  C:\KEIL_V5\C51\LIB\C51S.LIB (?C?MEMSET)
         COMMENT TYPE 1: A51 / ASM51 Assembler
  C:\KEIL_V5\C51\LIB\C51S.LIB (?C_INIT)
         COMMENT TYPE 1: A51 / ASM51 Assembler
  C:\KEIL_V5\C51\LIB\C51S.LIB (?C?PLDIIDATA)
         COMMENT TYPE 1: A51 / ASM51 Assembler
  C:\KEIL_V5\C51\LIB\C51S.LIB (PUTCHAR)
         COMMENT TYPE 1: A51 / ASM51 Assembler


ACTIVE MEMORY CLASSES OF MODULE:  .\Output\swZigbNode_L7dev (USR_MAIN)

BASE        START       END         USED      MEMORY CLASS
==========================================================
C:000000H   C:000000H   C:00FFFFH   007637H   CODE
X:000000H   X:000000H   X:00FFFFH   0006F6H   XDATA
I:000020H.0 I:000020H.0 I:00002FH.7 000006H.3 BIT
I:000000H   I:000000H   I:00007FH   000077H   DATA
C:000000H   C:000000H   C:00FFFFH   000087H   CONST
I:000000H   I:000000H   I:0000FFH   00005FH   IDATA


MEMORY MAP OF MODULE:  .\Output\swZigbNode_L7dev (USR_MAIN)


START     STOP      LENGTH    ALIGN  RELOC    MEMORY CLASS   SEGMENT NAME
=========================================================================

* * * * * * * * * * *   D A T A   M E M O R Y   * * * * * * * * * * * * *
000000H   000007H   000008H   ---    AT..     DATA           "REG BANK 0"
000008H   00001FH   000018H   BYTE   UNIT     DATA           ?DT?TIPS
000020H.0 000021H.6 000001H.7 BIT    UNIT     BIT            _BIT_GROUP_
000021H.7 000023H.0 000001H.2 BIT    UNIT     BIT            ?BI?USRKIN
000023H.1 000024H.1 000001H.1 BIT    UNIT     BIT            ?BI?DATATRANS
000024H.2 000025H.0 000000H.7 BIT    UNIT     BIT            ?BI?TIPS
000025H.1 000025H.4 000000H.4 BIT    UNIT     BIT            ?BI?TIMERACT
000025H.5 000025H.7 000000H.3 BIT    UNIT     BIT            ?BI?RELAY
000026H.0 000026H.1 000000H.2 BIT    UNIT     BIT            ?BI?DATAMANAGE
000026H.2 000026H.2 000000H.1 BIT    UNIT     BIT            ?BI?APPTIMER
000026H.3 000026H   000000H.5 ---    ---      **GAP**
000027H   000055H   00002FH   BYTE   UNIT     DATA           _DATA_GROUP_
000056H   000060H   00000BH   BYTE   UNIT     DATA           ?DT?DATATRANS
000061H   000068H   000008H   BYTE   UNIT     DATA           ?DT?USRKIN
000069H   00006FH   000007H   BYTE   UNIT     DATA           ?DT?APPTIMER
000070H   000076H   000007H   BYTE   UNIT     DATA           ?DT?DATAMANAGE
000077H   00007DH   000007H   BYTE   UNIT     DATA           ?DT?USART
00007EH   0000BDH   000040H   BYTE   UNIT     IDATA          ?ID?DATAMANAGE
0000BEH   0000CBH   00000EH   BYTE   UNIT     IDATA          _IDATA_GROUP_
0000CCH   0000D8H   00000DH   BYTE   UNIT     IDATA          ?ID?TIMERACT
0000D9H   0000DAH   000002H   BYTE   UNIT     IDATA          ?ID?DATATRANS
0000DBH   0000DBH   000001H   BYTE   UNIT     IDATA          ?ID?USRKIN
0000DCH   0000DCH   000001H   BYTE   UNIT     IDATA          ?STACK
LX51 LINKER/LOCATER V4.66.41.0                                                        02/15/2019  15:28:07  PAGE 3



* * * * * * * * * * *   C O D E   M E M O R Y   * * * * * * * * * * * * *
000000H   000002H   000003H   ---    OFFS..   CODE           ?CO??C_STARTUP?0
000003H   00000AH   000008H   BYTE   UNIT     CODE           ?PR?TIPS_SYSSTANDBY?TIPS
00000BH   00000DH   000003H   BYTE   OFFS..   CODE           ?APPTIMER?0000B
00000EH   000022H   000015H   BYTE   UNIT     CODE           ?PR?APPTIMER0_INIT?APPTIMER
000023H   000025H   000003H   BYTE   OFFS..   CODE           ?DATATRANS?00023
000026H   0000A0H   00007BH   BYTE   UNIT     CODE           ?PR?_MEMMEM?PARS_METHOD
0000A1H   0000A1H   000001H   BYTE   UNIT     CODE           ?PR?TIMER0_ROUNTINE?APPTIMER
0000A2H   0000A2H   000001H   ---    ---      **GAP**
0000A3H   0000A5H   000003H   BYTE   OFFS..   CODE           ?APPTIMER?000A3
0000A6H   001306H   001261H   BYTE   UNIT     CODE           ?CO?DATATRANS
001307H   001E6BH   000B65H   BYTE   UNIT     CODE           ?PR?_DATAPARING_NOMAL?DATATRANS
001E6CH   002707H   00089CH   BYTE   UNIT     CODE           ?PR?THREAD_DATATRANS?DATATRANS
002708H   002D26H   00061FH   BYTE   UNIT     CODE           ?PR?TIMER4_ROUNTINE?APPTIMER
002D27H   0031FEH   0004D8H   BYTE   UNIT     CODE           ?C_INITSEG
0031FFH   003679H   00047BH   BYTE   UNIT     CODE           ?C?LIB_CODE
00367AH   003A51H   0003D8H   BYTE   UNIT     CODE           ?PR?DATATRANS
003A52H   003DCCH   00037BH   BYTE   UNIT     CODE           ?PR?THREAD_TIPS?TIPS
003DCDH   004128H   00035CH   BYTE   UNIT     CODE           ?PR?PRINTF?PRINTF
004129H   00447AH   000352H   BYTE   UNIT     CODE           ?PR?THREAD_TIMING?TIMERACT
00447BH   0047C5H   00034BH   BYTE   UNIT     CODE           ?PR?ZIGB_NWKJOINREQUEST?DATATRANS
0047C6H   004A89H   0002C4H   BYTE   UNIT     CODE           ?PR?DATATRANSREQUEST_DATSSEND?DATATRANS
004A8AH   004CC6H   00023DH   BYTE   UNIT     CODE           ?PR?TIPS
004CC7H   004EBFH   0001F9H   BYTE   UNIT     CODE           ?PR?TIPS_SYSBUTTONREALES?TIPS
004EC0H   0050B3H   0001F4H   BYTE   UNIT     CODE           ?PR?_DATAPARING_ZIGBSYSCTRL?DATATRANS
0050B4H   00526AH   0001B7H   BYTE   UNIT     CODE           ?PR?_TIPS_SPECIFIED?TIPS
00526BH   005418H   0001AEH   BYTE   UNIT     CODE           ?CO?DATAMANAGE
005419H   0055B4H   00019CH   BYTE   UNIT     CODE           ?PR?_NORMALBUSSINESS_SHORTTOUCHTRIG?USRKIN
0055B5H   0056F8H   000144H   BYTE   UNIT     CODE           ?PR?_ZIGB_SYSTIMESET?DATATRANS
0056F9H   00582DH   000135H   BYTE   UNIT     CODE           ?PR?TOUCHPAD_SCAN?USRKIN
00582EH   005932H   000105H   BYTE   UNIT     CODE           ?PR?_TOUCHPAD_FUNCTIONTRIGNORMAL?USRKIN
005933H   005A37H   000105H   BYTE   UNIT     CODE           ?CO?USRKIN
005A38H   005B33H   0000FCH   BYTE   UNIT     CODE           ?PR?GETSYSTEMTIME_REALES?DATATRANS
005B34H   005C2BH   0000F8H   BYTE   UNIT     CODE           ?CO?TIMERACT
005C2CH   005D23H   0000F8H   BYTE   UNIT     CODE           ?PR?TIMERACT
005D24H   005DFCH   0000D9H   BYTE   UNIT     CODE           ?PR?DTASTX_LOADBASIC_CUST?DATATRANS
005DFDH   005ED2H   0000D6H   BYTE   UNIT     CODE           ?PR?RELAY_STATUSREALES?RELAY
005ED3H   005FA7H   0000D5H   BYTE   UNIT     CODE           ?PR?RELAY_ACT?RELAY
005FA8H   00607BH   0000D4H   BYTE   UNIT     CODE           ?PR?FUNCTION_DEVNWKHOLD?DATATRANS
00607CH   00613DH   0000C2H   BYTE   UNIT     CODE           ?PR?_TOUCHPAD_FUNCTIONTRIGCONTINUE?USRKIN
00613EH   0061E6H   0000A9H   BYTE   UNIT     CODE           ?PR?TIME_LOGOUT?TIMERACT
0061E7H   00628BH   0000A5H   BYTE   UNIT     CODE           ?PR?RELAY_PININIT?RELAY
00628CH   00632DH   0000A2H   BYTE   UNIT     CODE           ?PR?FACTORY_RECOVER?DATAMANAGE
00632EH   0063C4H   000097H   BYTE   UNIT     CODE           ?PR?DEVDATARECOVERY_RELAYSTATUS?DATAMANAGE
0063C5H   006456H   000092H   BYTE   UNIT     CODE           ?PR?UART1_ROUNTINE?DATATRANS
006457H   0064E5H   00008FH   BYTE   UNIT     CODE           ?PR?_ZIGB_VALIDA_INPUT?DATATRANS
0064E6H   006571H   00008CH   BYTE   UNIT     CODE           ?C_C51STARTUP
006572H   0065FBH   00008AH   BYTE   UNIT     CODE           ?PR?_ZIGB_TXFRAMELOAD?DATATRANS
0065FCH   006684H   000089H   BYTE   UNIT     CODE           ?PR?THREAD_DEVLOPEDEBUG?DEVLOPEDEBUG
006685H   00670AH   000086H   BYTE   UNIT     CODE           ?PR?_DATSTIMING_READ_EEPROM?TIMERACT
00670BH   006790H   000086H   BYTE   UNIT     CODE           ?PR?_DATSTIMNIGHT_READ_EEPROM?TIMERACT
006791H   006814H   000084H   BYTE   UNIT     CODE           ?PR?USRKIN
006815H   006893H   00007FH   BYTE   UNIT     CODE           ?PR?_ZIGB_DATSLOAD_DATSSEND?DATATRANS
006894H   00690CH   000079H   BYTE   UNIT     CODE           ?CO?DEVLOPEDEBUG
00690DH   006982H   000076H   BYTE   UNIT     CODE           ?PR?TIPS_WARNING?TIPS
006983H   0069F5H   000073H   BYTE   UNIT     CODE           ?PR?UARTOBJZIGB_INIT?DATATRANS
0069F6H   006A65H   000070H   BYTE   UNIT     CODE           ?PR?APPTIMER
006A66H   006AD4H   00006FH   BYTE   UNIT     CODE           ?PR?_USRKEYSCAN?USRKIN
006AD5H   006B41H   00006DH   BYTE   UNIT     CODE           ?PR?MAC_ID_RELAES?DATAMANAGE
006B42H   006BACH   00006BH   BYTE   UNIT     CODE           ?PR?DCODESCAN?USRKIN
006BADH   006C16H   00006AH   BYTE   UNIT     CODE           ?PR?_THREAD_TIPSGETDARK?TIPS
006C17H   006C7EH   000068H   BYTE   UNIT     CODE           ?PR?_ZIGB_DATSREQUEST?DATATRANS
006C7FH   006CE0H   000062H   BYTE   UNIT     CODE           ?PR?_TIPSLED_COLORSET?TIPS
006CE1H   006D39H   000059H   BYTE   UNIT     CODE           ?PR?MAIN?USR_MAIN
LX51 LINKER/LOCATER V4.66.41.0                                                        02/15/2019  15:28:07  PAGE 4


006D3AH   006D8EH   000055H   BYTE   UNIT     CODE           ?PR?_COVEREEPROM_WRITE_N?EEPROM
006D8FH   006DE2H   000054H   BYTE   UNIT     CODE           ?PR?_DATAPARING_SCENARIOCTRL?DATATRANS
006DE3H   006E35H   000053H   BYTE   UNIT     CODE           ?CO?TIPS
006E36H   006E84H   00004FH   BYTE   UNIT     CODE           ?PR?LEDBKGCOLORSW_REALES?TIPS
006E85H   006ED2H   00004EH   BYTE   UNIT     CODE           ?PR?ZIGB_NWKOPEN?DATATRANS
006ED3H   006F1BH   000049H   BYTE   UNIT     CODE           ?PR?DATAMANAGE
006F1CH   006F63H   000048H   BYTE   UNIT     CODE           ?PR?_DEVPARAMDTAASAVE_RELAYSTATUSREALTIME?DATAMANAGE
006F64H   006FA8H   000045H   BYTE   UNIT     CODE           ?PR?ZIGB_GETPANIDCURRENT?DATATRANS
006FA9H   006FEBH   000043H   BYTE   UNIT     CODE           ?PR?DCODESCAN_ONESHOOT?USRKIN
006FECH   00702DH   000042H   BYTE   UNIT     CODE           ?PR?THREAD_RELAY?RELAY
00702EH   00706BH   00003EH   BYTE   UNIT     CODE           ?PR?_DATASENDREMOTE_STRAIGHTFORWARD?DATATRANS
00706CH   0070A9H   00003EH   BYTE   UNIT     CODE           ?PR?USRZIGBNWKOPEN?USRKIN
0070AAH   0070E5H   00003CH   BYTE   UNIT     CODE           ?CO?RELAY
0070E6H   007120H   00003BH   BYTE   UNIT     CODE           ?PR?TIPLED_PININIT?TIPS
007121H   007157H   000037H   BYTE   UNIT     CODE           ?PR?_EEPROM_WRITE_N?EEPROM
007158H   00718DH   000036H   BYTE   UNIT     CODE           ?PR?_PRINTSTRING1_LOGOUT?USART
00718EH   0071BFH   000032H   BYTE   UNIT     CODE           ?PR?STATUSSAVE_ZIGBNWK_NWKEXISTIF?DATAMANAGE
0071C0H   0071F1H   000032H   BYTE   UNIT     CODE           ?PR?DEVSTATUSCHANGETO_DEVHOLD?DATATRANS
0071F2H   007223H   000032H   BYTE   UNIT     CODE           ?PR?_EEPROM_READ_N?EEPROM
007224H   00724DH   00002AH   BYTE   UNIT     CODE           ?PR?TIPS_SYSTOUCHRESET?TIPS
00724EH   007277H   00002AH   BYTE   UNIT     CODE           ?PR?_WEEKEND_JUDGE?TIMERACT
007278H   00729FH   000028H   BYTE   UNIT     CODE           ?PR?SWITCHTYPERESERVE_GET?DATAMANAGE
0072A0H   0072C6H   000027H   BYTE   UNIT     CODE           ?PR?USRKIN_PININIT?USRKIN
0072C7H   0072EDH   000027H   BYTE   UNIT     CODE           ?PR?PUTCHAR?PUTCHAR
0072EEH   007313H   000026H   BYTE   UNIT     CODE           ?PR?_UART1_DATSSEND?USART
007314H   007338H   000025H   BYTE   UNIT     CODE           ?PR?_FRAME_CHECK?DATATRANS
007339H   00735BH   000023H   BYTE   UNIT     CODE           ?PR?_TX1_WRITE2BUFF?USART
00735CH   00737DH   000022H   BYTE   UNIT     CODE           ?PR?DEVLOCKINFO_REALES?DATAMANAGE
00737EH   00739FH   000022H   BYTE   UNIT     CODE           ?PR?BIRTHDAY_JUDGE?DATAMANAGE
0073A0H   0073BDH   00001EH   BYTE   UNIT     CODE           ?PR?STATUSGET_ZIGBNWK_NWKEXISTIF?DATAMANAGE
0073BEH   0073DBH   00001EH   BYTE   UNIT     CODE           ?PR?_DEVTYPECOMFIRM_BYDCODE?USRKIN
0073DCH   0073F7H   00001CH   BYTE   UNIT     CODE           ?PR?TIMEZONE_REALES?TIMERACT
0073F8H   007412H   00001BH   BYTE   UNIT     CODE           ?PR?_BEEPS_USRACTIVE?TIPS
007413H   00742CH   00001AH   BYTE   UNIT     CODE           ?PR?USRKEYFUN_ZIGBNWKREJOIN?USRKIN
00742DH   007445H   000019H   BYTE   UNIT     CODE           ?PR?_EEPROM_SECTORERASE?EEPROM
007446H   00745DH   000018H   BYTE   UNIT     CODE           ?PR?BSP_INIT?USR_MAIN
00745EH   007475H   000018H   BYTE   UNIT     CODE           ?PR?TIPS_STATUSCHANGETONORMAL?TIPS
007476H   00748DH   000018H   BYTE   UNIT     CODE           ?PR?_TIPS_STATUSCHANGETOZIGBNWKOPEN?TIPS
00748EH   0074A5H   000018H   BYTE   UNIT     CODE           ?PR?_NORMALBUSSINESS_LONGA_TOUCHKEEPTRIG?USRKIN
0074A6H   0074BDH   000018H   BYTE   UNIT     CODE           ?PR?EEPROM
0074BEH   0074D3H   000016H   BYTE   UNIT     CODE           ?PR?_TIPS_STATUSCHANGETOFACTORYRECOVER?TIPS
0074D4H   0074E9H   000016H   BYTE   UNIT     CODE           ?PR?DEVLOPEDEBUG
0074EAH   0074FEH   000015H   BYTE   UNIT     CODE           ?PR?_DELAYMS?DELAY
0074FFH   007511H   000013H   BYTE   UNIT     CODE           ?PR?PORTCTRLEACHOTHER_REALES?DATAMANAGE
007512H   007524H   000013H   BYTE   UNIT     CODE           ?PR?_TIPS_STATUSCHANGETOTOUCHRESET?TIPS
007525H   007537H   000013H   BYTE   UNIT     CODE           ?PR?ZIGBUART_PININIT?DATATRANS
007538H   00754AH   000013H   BYTE   UNIT     CODE           ?PR?TOUCHPADSCAN_ONESHOOT?USRKIN
00754BH   00755DH   000013H   BYTE   UNIT     CODE           ?PR?_PRINTSTRING1?USART
00755EH   00756FH   000012H   BYTE   UNIT     CODE           ?PR?BSP_DATSREALES?USR_MAIN
007570H   007580H   000011H   BYTE   UNIT     CODE           ?PR?ZIGBNWKEXIST_DETECTREALES?DATAMANAGE
007581H   007591H   000011H   BYTE   UNIT     CODE           ?PR?_PERIODDATATRANS_MOMENTHANG?DATATRANS
007592H   0075A2H   000011H   BYTE   UNIT     CODE           ?PR?FUN_FACTORYRECOVEROPREAT?DATATRANS
0075A3H   0075B2H   000010H   BYTE   UNIT     CODE           ?PR?APPTIMER4_INIT?APPTIMER
0075B3H   0075C2H   000010H   BYTE   UNIT     CODE           ?PR?_DELAY_MS?DELAY
0075C3H   0075D0H   00000EH   BYTE   UNIT     CODE           ?PR?TIPS_STATUSCHANGETOZIGBNWKFIND?TIPS
0075D1H   0075DEH   00000EH   BYTE   UNIT     CODE           ?PR?DISABLEEEPROM?EEPROM
0075DFH   0075EAH   00000CH   BYTE   UNIT     CODE           ?PR?TOUCHPAD_PROCESSTHREAD?TOUCHPAD
0075EBH   0075F4H   00000AH   BYTE   UNIT     CODE           ?PR?FUN_TOUCHRESET?USRKIN
0075F5H   0075FEH   00000AH   BYTE   UNIT     CODE           ?PR?PARS_METHOD
0075FFH   007607H   000009H   BYTE   UNIT     CODE           ?PR?DEVHOLDSTOP_MAKEINADVANCE?DATATRANS
007608H   007610H   000009H   BYTE   UNIT     CODE           ?PR?ITRF_DATSTIMING_READ_EEPROM?TIMERACT
007611H   007619H   000009H   BYTE   UNIT     CODE           ?PR?ITRF_DATSTIMNIGHT_READ_EEPROM?TIMERACT
00761AH   007620H   000007H   BYTE   UNIT     CODE           ?PR?PINBEEP_INIT?TIPS
007621H   007627H   000007H   BYTE   UNIT     CODE           ?PR?RELAY
007628H   00762EH   000007H   BYTE   UNIT     CODE           ?PR?TIMERACTIONDONE_FLG_RESET?TIMERACT
LX51 LINKER/LOCATER V4.66.41.0                                                        02/15/2019  15:28:07  PAGE 5


00762FH   007634H   000006H   BYTE   UNIT     CODE           ?PR?_TOUCHPAD_RESETOPREAT?TOUCHPAD
007635H   007637H   000003H   BYTE   UNIT     CODE           ?PR?USRKEYSCAN_ONESHOOT?USRKIN
007638H   0076B7H   000080H   BYTE   UNIT     CONST          ?CO?EEPROM
0076B8H   0076BEH   000007H   BYTE   UNIT     CONST          ?CO?APPTIMER

* * * * * * * * * * *  X D A T A   M E M O R Y  * * * * * * * * * * * * *
000000H   000312H   000313H   BYTE   UNIT     XDATA          _XDATA_GROUP_
000313H   000549H   000237H   BYTE   UNIT     XDATA          ?XD?DATATRANS
00054AH   00067BH   000132H   BYTE   UNIT     XDATA          ?XD?USART
00067CH   0006A5H   00002AH   BYTE   UNIT     XDATA          ?XD?TIMERACT
0006A6H   0006BEH   000019H   BYTE   UNIT     XDATA          ?XD?TIPS
0006BFH   0006D1H   000013H   BYTE   UNIT     XDATA          ?XD?APPTIMER
0006D2H   0006DEH   00000DH   BYTE   UNIT     XDATA          ?XD?DATAMANAGE
0006DFH   0006E8H   00000AH   BYTE   UNIT     XDATA          ?XD?RELAY
0006E9H   0006F0H   000008H   BYTE   UNIT     XDATA          ?XD?USRKIN
0006F1H   0006F4H   000004H   BYTE   UNIT     XDATA          ?XD?DEVLOPEDEBUG
0006F5H   0006F5H   000001H   BYTE   UNIT     XDATA          ?XD?TOUCHPAD

* * * * * * * * *   R E M O V E D     S E G M E N T S   * * * * * * * *
   *DEL*:           000073H   BYTE   UNIT     CODE           ?PR?TIPS_BREATH?TIPS
   *DEL*:           000141H   BYTE   UNIT     CODE           ?PR?TIPS_FADEOUT?TIPS
   *DEL*:           000023H   BYTE   UNIT     CODE           ?PR?_XORNUM_CHECK?DATATRANS
   *DEL*:           000003H   BYTE   UNIT     DATA           ?DT?_XORNUM_CHECK?DATATRANS
   *DEL*:           000001H   BYTE   UNIT     CODE           ?PR?FUN_TEST?USRKIN
   *DEL*:           000016H   BYTE   UNIT     CODE           ?PR?USRKEYFUN_RELAYOPREATION?USRKIN
   *DEL*:           000001H   BYTE   UNIT     CODE           ?PR?TOUCHPAD_PININIT?TOUCHPAD
   *DEL*:           00002DH   BYTE   UNIT     CODE           ?PR?_UART1_LOGOUT?USART
   *DEL*:           000004H   BYTE   UNIT     DATA           ?DT?_UART1_LOGOUT?USART
   *DEL*:           000014H   BYTE   UNIT     CODE           ?PR?_I2C_DELAY_US?DELAY



OVERLAY MAP OF MODULE:   .\Output\swZigbNode_L7dev (USR_MAIN)


FUNCTION/MODULE                                BIT_GROUP   DATA_GROUP   IDATA_GROUP  XDATA_GROUP
--> CALLED FUNCTION/MODULE                    START  STOP  START  STOP  START  STOP  START  STOP
================================================================================================
TIMER0_ROUNTINE/APPTIMER                      ----- -----  ----- -----  ----- -----  ----- -----

*** NEW ROOT ********************************

TIMER4_ROUNTINE/APPTIMER                      ----- -----  ----- -----  ----- -----  ----- -----
  +--> ?CO?APPTIMER
  +--> APPTIMER

?CO?APPTIMER                                  ----- -----  ----- -----  ----- -----  ----- -----

APPTIMER                                      ----- -----  ----- -----  ----- -----  ----- -----
  +--> ?CO?APPTIMER

*** NEW ROOT ********************************

UART1_ROUNTINE/DATATRANS                      ----- -----  ----- -----  ----- -----  ----- -----
  +--> DATATRANS

DATATRANS                                     ----- -----  ----- -----  ----- -----  ----- -----

*** NEW ROOT ********************************

?C_C51STARTUP                                 ----- -----  ----- -----  ----- -----  ----- -----
  +--> MAIN/USR_MAIN
  +--> ?C_INITSEG

MAIN/USR_MAIN                                 ----- -----  ----- -----  ----- -----  ----- -----
LX51 LINKER/LOCATER V4.66.41.0                                                        02/15/2019  15:28:07  PAGE 6


  +--> BSP_INIT/USR_MAIN
  +--> BSP_DATSREALES/USR_MAIN
  +--> BIRTHDAY_JUDGE/DATAMANAGE
  +--> _BEEPS_USRACTIVE/TIPS
  +--> SWITCHTYPERESERVE_GET/DATAMANAGE
  +--> TOUCHPAD_SCAN/USRKIN
  +--> DCODESCAN/USRKIN
  +--> USRKEYFUN_ZIGBNWKREJOIN/USRKIN
  +--> FUN_FACTORYRECOVEROPREAT/DATATRANS
  +--> FUN_TOUCHRESET/USRKIN
  +--> _USRKEYSCAN/USRKIN
  +--> THREAD_TIMING/TIMERACT
  +--> THREAD_RELAY/RELAY
  +--> THREAD_DATATRANS/DATATRANS
  +--> THREAD_TIPS/TIPS
  +--> TOUCHPAD_PROCESSTHREAD/TOUCHPAD
  +--> THREAD_DEVLOPEDEBUG/DEVLOPEDEBUG

BSP_INIT/USR_MAIN                             ----- -----  ----- -----  ----- -----  ----- -----
  +--> APPTIMER0_INIT/APPTIMER
  +--> APPTIMER4_INIT/APPTIMER
  +--> ZIGBUART_PININIT/DATATRANS
  +--> UARTOBJZIGB_INIT/DATATRANS
  +--> TIPLED_PININIT/TIPS
  +--> PINBEEP_INIT/TIPS
  +--> USRKIN_PININIT/USRKIN
  +--> RELAY_PININIT/RELAY

APPTIMER0_INIT/APPTIMER                       ----- -----  ----- -----  ----- -----  ----- -----

APPTIMER4_INIT/APPTIMER                       ----- -----  ----- -----  ----- -----  ----- -----

ZIGBUART_PININIT/DATATRANS                    ----- -----  ----- -----  ----- -----  ----- -----

UARTOBJZIGB_INIT/DATATRANS                    ----- -----  0027H 002AH  ----- -----  ----- -----
  +--> DATATRANS
  +--> ?CO?DATATRANS
  +--> _PRINTSTRING1/USART
  +--> _PRINTSTRING1_LOGOUT/USART

?CO?DATATRANS                                 ----- -----  ----- -----  ----- -----  ----- -----

_PRINTSTRING1/USART                           ----- -----  ----- -----  ----- -----  ----- -----
  +--> _TX1_WRITE2BUFF/USART

_TX1_WRITE2BUFF/USART                         ----- -----  ----- -----  ----- -----  ----- -----

_PRINTSTRING1_LOGOUT/USART                    ----- -----  0038H 003AH  ----- -----  ----- -----
  +--> _PRINTSTRING1/USART
  +--> _DELAYMS/DELAY

_DELAYMS/DELAY                                ----- -----  ----- -----  ----- -----  ----- -----
  +--> _DELAY_MS/DELAY

_DELAY_MS/DELAY                               ----- -----  ----- -----  ----- -----  ----- -----

TIPLED_PININIT/TIPS                           ----- -----  ----- -----  ----- -----  ----- -----
  +--> _TIPSLED_COLORSET/TIPS

_TIPSLED_COLORSET/TIPS                        ----- -----  0028H 002BH  ----- -----  ----- -----
  +--> ?CO?TIPS
  +--> TIPS

?CO?TIPS                                      ----- -----  ----- -----  ----- -----  ----- -----

LX51 LINKER/LOCATER V4.66.41.0                                                        02/15/2019  15:28:07  PAGE 7


TIPS                                          ----- -----  ----- -----  ----- -----  ----- -----
  +--> ?CO?TIPS
  +--> TIPS_STATUSCHANGETONORMAL/TIPS

TIPS_STATUSCHANGETONORMAL/TIPS                ----- -----  ----- -----  ----- -----  ----- -----

PINBEEP_INIT/TIPS                             ----- -----  ----- -----  ----- -----  ----- -----

USRKIN_PININIT/USRKIN                         ----- -----  0027H 0027H  ----- -----  ----- -----
  +--> DCODESCAN_ONESHOOT/USRKIN
  +--> _DEVTYPECOMFIRM_BYDCODE/USRKIN

DCODESCAN_ONESHOOT/USRKIN                     ----- -----  ----- -----  ----- -----  ----- -----

_DEVTYPECOMFIRM_BYDCODE/USRKIN                ----- -----  ----- -----  ----- -----  ----- -----

RELAY_PININIT/RELAY                           ----- -----  ----- -----  00BEH 00BEH  ----- -----
  +--> _EEPROM_READ_N/EEPROM
  +--> RELAY
  +--> ?CO?RELAY
  +--> PRINTF/PRINTF
  +--> _PRINTSTRING1_LOGOUT/USART
  +--> DEVDATARECOVERY_RELAYSTATUS/DATAMANAGE
  +--> _COVEREEPROM_WRITE_N/EEPROM
  +--> RELAY_STATUSREALES/RELAY

_EEPROM_READ_N/EEPROM                         ----- -----  004FH 0055H  ----- -----  ----- -----
  +--> EEPROM
  +--> DISABLEEEPROM/EEPROM

EEPROM                                        ----- -----  ----- -----  ----- -----  ----- -----

DISABLEEEPROM/EEPROM                          ----- -----  ----- -----  ----- -----  ----- -----

RELAY                                         ----- -----  ----- -----  ----- -----  ----- -----

?CO?RELAY                                     ----- -----  ----- -----  ----- -----  ----- -----

PRINTF/PRINTF                                 20H.6 21H.6  0038H 004BH  ----- -----  ----- -----
  +--> PUTCHAR/PUTCHAR

PUTCHAR/PUTCHAR                               ----- -----  ----- -----  ----- -----  ----- -----

DEVDATARECOVERY_RELAYSTATUS/DATAMANAGE        ----- -----  ----- -----  ----- -----  0000H 0065H
  +--> ?CO?DATAMANAGE
  +--> DATAMANAGE
  +--> _EEPROM_READ_N/EEPROM
  +--> PRINTF/PRINTF
  +--> _PRINTSTRING1_LOGOUT/USART
  +--> _EEPROM_SECTORERASE/EEPROM

?CO?DATAMANAGE                                ----- -----  ----- -----  ----- -----  ----- -----

DATAMANAGE                                    ----- -----  ----- -----  ----- -----  ----- -----
  +--> ?CO?DATAMANAGE

_EEPROM_SECTORERASE/EEPROM                    ----- -----  ----- -----  ----- -----  ----- -----
  +--> EEPROM
  +--> DISABLEEEPROM/EEPROM

_COVEREEPROM_WRITE_N/EEPROM                   ----- -----  0038H 003EH  ----- -----  0293H 0312H
  +--> ?CO?EEPROM
  +--> EEPROM
  +--> _EEPROM_READ_N/EEPROM
  +--> _EEPROM_SECTORERASE/EEPROM
LX51 LINKER/LOCATER V4.66.41.0                                                        02/15/2019  15:28:07  PAGE 8


  +--> _EEPROM_WRITE_N/EEPROM

?CO?EEPROM                                    ----- -----  ----- -----  ----- -----  ----- -----

_EEPROM_WRITE_N/EEPROM                        ----- -----  003FH 0045H  ----- -----  ----- -----
  +--> EEPROM
  +--> DISABLEEEPROM/EEPROM

RELAY_STATUSREALES/RELAY                      ----- -----  ----- -----  ----- -----  ----- -----
  +--> _COVEREEPROM_WRITE_N/EEPROM
  +--> TIPS_STATUSCHANGETONORMAL/TIPS

BSP_DATSREALES/USR_MAIN                       ----- -----  ----- -----  ----- -----  ----- -----
  +--> MAC_ID_RELAES/DATAMANAGE
  +--> PORTCTRLEACHOTHER_REALES/DATAMANAGE
  +--> LEDBKGCOLORSW_REALES/TIPS
  +--> DEVLOCKINFO_REALES/DATAMANAGE
  +--> TIMEZONE_REALES/TIMERACT
  +--> ZIGBNWKEXIST_DETECTREALES/DATAMANAGE

MAC_ID_RELAES/DATAMANAGE                      ----- -----  ----- -----  ----- -----  ----- -----
  +--> DATAMANAGE
  +--> ?CO?DATAMANAGE
  +--> PRINTF/PRINTF
  +--> _PRINTSTRING1_LOGOUT/USART

PORTCTRLEACHOTHER_REALES/DATAMANAGE           ----- -----  ----- -----  ----- -----  ----- -----
  +--> _EEPROM_READ_N/EEPROM

LEDBKGCOLORSW_REALES/TIPS                     ----- -----  ----- -----  ----- -----  ----- -----
  +--> _EEPROM_READ_N/EEPROM

DEVLOCKINFO_REALES/DATAMANAGE                 ----- -----  ----- -----  ----- -----  0000H 0000H
  +--> _EEPROM_READ_N/EEPROM

TIMEZONE_REALES/TIMERACT                      ----- -----  ----- -----  ----- -----  ----- -----
  +--> TIMERACT
  +--> _EEPROM_READ_N/EEPROM

TIMERACT                                      ----- -----  ----- -----  ----- -----  ----- -----

ZIGBNWKEXIST_DETECTREALES/DATAMANAGE          ----- -----  ----- -----  ----- -----  ----- -----
  +--> STATUSGET_ZIGBNWK_NWKEXISTIF/DATAMANAGE
  +--> DATAMANAGE
  +--> PRINTF/PRINTF
  +--> _PRINTSTRING1_LOGOUT/USART

STATUSGET_ZIGBNWK_NWKEXISTIF/DATAMANAGE       ----- -----  ----- -----  00BEH 00BEH  ----- -----
  +--> _EEPROM_READ_N/EEPROM

BIRTHDAY_JUDGE/DATAMANAGE                     ----- -----  ----- -----  ----- -----  0000H 0000H
  +--> _EEPROM_READ_N/EEPROM
  +--> FACTORY_RECOVER/DATAMANAGE

FACTORY_RECOVER/DATAMANAGE                    ----- -----  ----- -----  ----- -----  0213H 0292H
  +--> ?CO?DATAMANAGE
  +--> DATAMANAGE
  +--> _COVEREEPROM_WRITE_N/EEPROM
  +--> _DELAYMS/DELAY

_BEEPS_USRACTIVE/TIPS                         ----- -----  ----- -----  ----- -----  ----- -----
  +--> TIPS

SWITCHTYPERESERVE_GET/DATAMANAGE              ----- -----  0029H 0029H  ----- -----  ----- -----

LX51 LINKER/LOCATER V4.66.41.0                                                        02/15/2019  15:28:07  PAGE 9


TOUCHPAD_SCAN/USRKIN                          ----- -----  0027H 0029H  ----- -----  ----- -----
  +--> USRKIN
  +--> TOUCHPADSCAN_ONESHOOT/USRKIN
  +--> ?CO?USRKIN
  +--> _NORMALBUSSINESS_LONGA_TOUCHKEEPTRIG/USRKIN
  +--> _TOUCHPAD_FUNCTIONTRIGNORMAL/USRKIN
  +--> _TOUCHPAD_FUNCTIONTRIGCONTINUE/USRKIN

USRKIN                                        ----- -----  ----- -----  ----- -----  ----- -----
  +--> ?CO?USRKIN

?CO?USRKIN                                    ----- -----  ----- -----  ----- -----  ----- -----

TOUCHPADSCAN_ONESHOOT/USRKIN                  ----- -----  ----- -----  ----- -----  ----- -----

_NORMALBUSSINESS_LONGA_TOUCHKEEPTRIG/USR+     ----- -----  ----- -----  ----- -----  ----- -----
... KIN
  +--> ?CO?USRKIN

_TOUCHPAD_FUNCTIONTRIGNORMAL/USRKIN           ----- -----  002AH 002BH  ----- -----  ----- -----
  +--> USRKIN
  +--> ?CO?USRKIN
  +--> _PRINTSTRING1_LOGOUT/USART
  +--> _NORMALBUSSINESS_SHORTTOUCHTRIG/USRKIN
  +--> USRKEYFUN_ZIGBNWKREJOIN/USRKIN
  +--> PRINTF/PRINTF
  +--> DEVSTATUSCHANGETO_DEVHOLD/DATATRANS

_NORMALBUSSINESS_SHORTTOUCHTRIG/USRKIN        20H.0 20H.0  ----- -----  ----- -----  ----- -----
  +--> USRKIN
  +--> _BEEPS_USRACTIVE/TIPS

USRKEYFUN_ZIGBNWKREJOIN/USRKIN                ----- -----  ----- -----  ----- -----  ----- -----
  +--> STATUSSAVE_ZIGBNWK_NWKEXISTIF/DATAMANAGE
  +--> TIPS_STATUSCHANGETOZIGBNWKFIND/TIPS

STATUSSAVE_ZIGBNWK_NWKEXISTIF/DATAMANAGE      20H.3 20H.3  ----- -----  00C9H 00C9H  ----- -----
  +--> _COVEREEPROM_WRITE_N/EEPROM
  +--> DATAMANAGE
  +--> PRINTF/PRINTF
  +--> _PRINTSTRING1_LOGOUT/USART

TIPS_STATUSCHANGETOZIGBNWKFIND/TIPS           ----- -----  ----- -----  ----- -----  ----- -----
  +--> TIPS
  +--> _BEEPS_USRACTIVE/TIPS
  +--> _THREAD_TIPSGETDARK/TIPS

_THREAD_TIPSGETDARK/TIPS                      ----- -----  ----- -----  ----- -----  ----- -----
  +--> TIPS

DEVSTATUSCHANGETO_DEVHOLD/DATATRANS           20H.4 20H.4  ----- -----  ----- -----  ----- -----
  +--> DATATRANS
  +--> _THREAD_TIPSGETDARK/TIPS
  +--> ?CO?DATATRANS
  +--> PRINTF/PRINTF
  +--> _PRINTSTRING1_LOGOUT/USART

_TOUCHPAD_FUNCTIONTRIGCONTINUE/USRKIN         ----- -----  002AH 002BH  ----- -----  ----- -----
  +--> USRKIN
  +--> ?CO?USRKIN
  +--> PRINTF/PRINTF
  +--> _PRINTSTRING1_LOGOUT/USART
  +--> USRZIGBNWKOPEN/USRKIN
  +--> DEVHOLDSTOP_MAKEINADVANCE/DATATRANS

LX51 LINKER/LOCATER V4.66.41.0                                                        02/15/2019  15:28:07  PAGE 10


USRZIGBNWKOPEN/USRKIN                         ----- -----  ----- -----  ----- -----  ----- -----
  +--> ZIGB_NWKOPEN/DATATRANS
  +--> _TIPS_STATUSCHANGETOZIGBNWKOPEN/TIPS
  +--> USRKIN
  +--> ?CO?USRKIN
  +--> PRINTF/PRINTF
  +--> _PRINTSTRING1_LOGOUT/USART

ZIGB_NWKOPEN/DATATRANS                        20H.4 20H.5  002EH 002FH  ----- -----  015DH 015FH
  +--> ?CO?DATATRANS
  +--> DATATRANS
  +--> _ZIGB_VALIDA_INPUT/DATATRANS

_ZIGB_VALIDA_INPUT/DATATRANS                  ----- -----  0036H 0045H  ----- -----  0168H 01C7H
  +--> ?CO?DATATRANS
  +--> DATATRANS
  +--> _ZIGB_TXFRAMELOAD/DATATRANS
  +--> _UART1_DATSSEND/USART
  +--> _MEMMEM/PARS_METHOD
  +--> _DELAYMS/DELAY

_ZIGB_TXFRAMELOAD/DATATRANS                   ----- -----  0046H 0052H  ----- -----  ----- -----
  +--> DATATRANS

_UART1_DATSSEND/USART                         ----- -----  004AH 004CH  ----- -----  ----- -----
  +--> _TX1_WRITE2BUFF/USART

_MEMMEM/PARS_METHOD                           ----- -----  0046H 0054H  ----- -----  ----- -----
  +--> PARS_METHOD

PARS_METHOD                                   ----- -----  ----- -----  ----- -----  ----- -----

_TIPS_STATUSCHANGETOZIGBNWKOPEN/TIPS          ----- -----  ----- -----  ----- -----  ----- -----
  +--> TIPS
  +--> _BEEPS_USRACTIVE/TIPS
  +--> _THREAD_TIPSGETDARK/TIPS

DEVHOLDSTOP_MAKEINADVANCE/DATATRANS           ----- -----  ----- -----  ----- -----  ----- -----

DCODESCAN/USRKIN                              20H.0 20H.0  0027H 0028H  ----- -----  ----- -----
  +--> DCODESCAN_ONESHOOT/USRKIN
  +--> SWITCHTYPERESERVE_GET/DATAMANAGE
  +--> _BEEPS_USRACTIVE/TIPS
  +--> TIPS_STATUSCHANGETONORMAL/TIPS
  +--> _DEVTYPECOMFIRM_BYDCODE/USRKIN

FUN_FACTORYRECOVEROPREAT/DATATRANS            ----- -----  ----- -----  ----- -----  ----- -----
  +--> DATATRANS
  +--> _TIPS_STATUSCHANGETOFACTORYRECOVER/TIPS

_TIPS_STATUSCHANGETOFACTORYRECOVER/TIPS       ----- -----  ----- -----  ----- -----  ----- -----
  +--> _THREAD_TIPSGETDARK/TIPS
  +--> _BEEPS_USRACTIVE/TIPS

FUN_TOUCHRESET/USRKIN                         ----- -----  ----- -----  ----- -----  ----- -----
  +--> _TOUCHPAD_RESETOPREAT/TOUCHPAD
  +--> _TIPS_STATUSCHANGETOTOUCHRESET/TIPS

_TOUCHPAD_RESETOPREAT/TOUCHPAD                ----- -----  ----- -----  ----- -----  ----- -----

_TIPS_STATUSCHANGETOTOUCHRESET/TIPS           ----- -----  ----- -----  ----- -----  ----- -----
  +--> _THREAD_TIPSGETDARK/TIPS
  +--> TIPS
  +--> _BEEPS_USRACTIVE/TIPS

LX51 LINKER/LOCATER V4.66.41.0                                                        02/15/2019  15:28:07  PAGE 11


_USRKEYSCAN/USRKIN                            ----- -----  0027H 002FH  ----- -----  ----- -----
  +--> USRKEYSCAN_ONESHOOT/USRKIN
  +--> USRKIN
  +--> ?CO?USRKIN

USRKEYSCAN_ONESHOOT/USRKIN                    ----- -----  ----- -----  ----- -----  ----- -----

THREAD_TIMING/TIMERACT                        ----- -----  0027H 0027H  ----- -----  0000H 0005H
  +--> ?CO?TIMERACT
  +--> TIME_LOGOUT/TIMERACT
  +--> TIMERACT
  +--> _EEPROM_READ_N/EEPROM
  +--> _DATSTIMING_READ_EEPROM/TIMERACT
  +--> _DATSTIMNIGHT_READ_EEPROM/TIMERACT
  +--> _WEEKEND_JUDGE/TIMERACT
  +--> PRINTF/PRINTF
  +--> _PRINTSTRING1_LOGOUT/USART
  +--> ITRF_DATSTIMING_READ_EEPROM/TIMERACT
  +--> _COVEREEPROM_WRITE_N/EEPROM

?CO?TIMERACT                                  ----- -----  ----- -----  ----- -----  ----- -----

TIME_LOGOUT/TIMERACT                          ----- -----  0028H 002EH  ----- -----  0006H 0055H
  +--> ?CO?TIMERACT
  +--> _PRINTSTRING1_LOGOUT/USART
  +--> PRINTF/PRINTF

_DATSTIMING_READ_EEPROM/TIMERACT              ----- -----  0033H 004EH  ----- -----  ----- -----
  +--> ?CO?TIMERACT
  +--> TIMERACT
  +--> _EEPROM_READ_N/EEPROM

_DATSTIMNIGHT_READ_EEPROM/TIMERACT            ----- -----  0033H 003CH  ----- -----  ----- -----
  +--> ?CO?TIMERACT
  +--> TIMERACT
  +--> _EEPROM_READ_N/EEPROM

_WEEKEND_JUDGE/TIMERACT                       ----- -----  ----- -----  ----- -----  ----- -----

ITRF_DATSTIMING_READ_EEPROM/TIMERACT          ----- -----  ----- -----  ----- -----  ----- -----
  +--> _DATSTIMING_READ_EEPROM/TIMERACT

THREAD_RELAY/RELAY                            ----- -----  ----- -----  00BEH 00BEH  ----- -----
  +--> RELAY_ACT/RELAY
  +--> _DEVPARAMDTAASAVE_RELAYSTATUSREALTIME/DATAMANAGE

RELAY_ACT/RELAY                               ----- -----  0027H 0029H  ----- -----  ----- -----
  +--> RELAY_STATUSREALES/RELAY
  +--> _DEVPARAMDTAASAVE_RELAYSTATUSREALTIME/DATAMANAGE

_DEVPARAMDTAASAVE_RELAYSTATUSREALTIME/DA+     ----- -----  002AH 002AH  ----- -----  0000H 0063H
... TAMANAGE
  +--> ?CO?DATAMANAGE
  +--> DATAMANAGE
  +--> _EEPROM_SECTORERASE/EEPROM
  +--> _EEPROM_WRITE_N/EEPROM

THREAD_DATATRANS/DATATRANS                    20H.0 20H.1  ----- -----  00BEH 00C8H  0000H 013AH
  +--> ?CO?DATATRANS
  +--> DATATRANS
  +--> GETSYSTEMTIME_REALES/DATATRANS
  +--> _ZIGB_SYSTIMESET/DATATRANS
  +--> ZIGB_GETPANIDCURRENT/DATATRANS
  +--> PRINTF/PRINTF
  +--> _PRINTSTRING1_LOGOUT/USART
LX51 LINKER/LOCATER V4.66.41.0                                                        02/15/2019  15:28:07  PAGE 12


  +--> TIPS_STATUSCHANGETONORMAL/TIPS
  +--> _DATASENDREMOTE_STRAIGHTFORWARD/DATATRANS
  +--> _EEPROM_READ_N/EEPROM
  +--> _DATSTIMNIGHT_READ_EEPROM/TIMERACT
  +--> _FRAME_CHECK/DATATRANS
  +--> _DATAPARING_SCENARIOCTRL/DATATRANS
  +--> _DATAPARING_NOMAL/DATATRANS
  +--> _DATAPARING_ZIGBSYSCTRL/DATATRANS
  +--> _TIPS_STATUSCHANGETOZIGBNWKOPEN/TIPS
  +--> ZIGB_NWKJOINREQUEST/DATATRANS
  +--> DATATRANSREQUEST_DATSSEND/DATATRANS
  +--> FUNCTION_DEVNWKHOLD/DATATRANS
  +--> FACTORY_RECOVER/DATAMANAGE

GETSYSTEMTIME_REALES/DATATRANS                20H.2 20H.2  0027H 002EH  ----- -----  013BH 015AH
  +--> ?CO?DATATRANS
  +--> DATATRANS
  +--> _ZIGB_DATSREQUEST/DATATRANS

_ZIGB_DATSREQUEST/DATATRANS                   ----- -----  003AH 0049H  ----- -----  ----- -----
  +--> _UART1_DATSSEND/USART
  +--> DATATRANS

_ZIGB_SYSTIMESET/DATATRANS                    20H.4 20H.5  002EH 0035H  ----- -----  015DH 0167H
  +--> ?CO?DATATRANS
  +--> DATATRANS
  +--> _ZIGB_VALIDA_INPUT/DATATRANS

ZIGB_GETPANIDCURRENT/DATATRANS                ----- -----  0038H 0039H  ----- -----  017CH 019BH
  +--> ?CO?DATATRANS
  +--> DATATRANS
  +--> _ZIGB_DATSREQUEST/DATATRANS

_DATASENDREMOTE_STRAIGHTFORWARD/DATATRAN+     ----- -----  002BH 0031H  ----- -----  013EH 01D6H
... S
  +--> ?CO?DATATRANS
  +--> DATATRANS
  +--> _ZIGB_DATSLOAD_DATSSEND/DATATRANS
  +--> _UART1_DATSSEND/USART

_ZIGB_DATSLOAD_DATSSEND/DATATRANS             ----- -----  0032H 003CH  ----- -----  0215H 02ADH
  +--> ?CO?DATATRANS
  +--> DATATRANS
  +--> _ZIGB_TXFRAMELOAD/DATATRANS

_FRAME_CHECK/DATATRANS                        ----- -----  0039H 003BH  ----- -----  ----- -----
  +--> DATATRANS

_DATAPARING_SCENARIOCTRL/DATATRANS            ----- -----  0027H 002AH  ----- -----  ----- -----
  +--> _DATASENDREMOTE_STRAIGHTFORWARD/DATATRANS
  +--> DATATRANS
  +--> ?CO?DATATRANS
  +--> PRINTF/PRINTF
  +--> _PRINTSTRING1_LOGOUT/USART

_DATAPARING_NOMAL/DATATRANS                   20H.2 20H.5  0027H 0032H  ----- -----  013BH 0212H
  +--> ?CO?DATATRANS
  +--> DATATRANS
  +--> _FRAME_CHECK/DATATRANS
  +--> PRINTF/PRINTF
  +--> _PRINTSTRING1_LOGOUT/USART
  +--> TIPS_STATUSCHANGETONORMAL/TIPS
  +--> _COVEREEPROM_WRITE_N/EEPROM
  +--> _PERIODDATATRANS_MOMENTHANG/DATATRANS
  +--> _EEPROM_READ_N/EEPROM
LX51 LINKER/LOCATER V4.66.41.0                                                        02/15/2019  15:28:07  PAGE 13


  +--> FACTORY_RECOVER/DATAMANAGE
  +--> DTASTX_LOADBASIC_CUST/DATATRANS
  +--> TIMERACTIONDONE_FLG_RESET/TIMERACT
  +--> ITRF_DATSTIMNIGHT_READ_EEPROM/TIMERACT
  +--> ITRF_DATSTIMING_READ_EEPROM/TIMERACT
  +--> _BEEPS_USRACTIVE/TIPS

_PERIODDATATRANS_MOMENTHANG/DATATRANS         ----- -----  ----- -----  ----- -----  ----- -----
  +--> DATATRANS

DTASTX_LOADBASIC_CUST/DATATRANS               20H.6 20H.7  0033H 0038H  ----- -----  0213H 0252H
  +--> DATATRANS
  +--> _FRAME_CHECK/DATATRANS
  +--> ?CO?DATATRANS

TIMERACTIONDONE_FLG_RESET/TIMERACT            ----- -----  ----- -----  ----- -----  ----- -----

ITRF_DATSTIMNIGHT_READ_EEPROM/TIMERACT        ----- -----  ----- -----  ----- -----  ----- -----
  +--> _DATSTIMNIGHT_READ_EEPROM/TIMERACT

_DATAPARING_ZIGBSYSCTRL/DATATRANS             20H.2 20H.3  0027H 002DH  00C9H 00C9H  013BH 015CH
  +--> ?CO?DATATRANS
  +--> DATATRANS
  +--> ZIGB_NWKOPEN/DATATRANS
  +--> _TIPS_STATUSCHANGETOZIGBNWKOPEN/TIPS
  +--> _COVEREEPROM_WRITE_N/EEPROM
  +--> _ZIGB_SYSTIMESET/DATATRANS
  +--> PRINTF/PRINTF
  +--> _PRINTSTRING1_LOGOUT/USART
  +--> DEVSTATUSCHANGETO_DEVHOLD/DATATRANS
  +--> _PERIODDATATRANS_MOMENTHANG/DATATRANS

ZIGB_NWKJOINREQUEST/DATATRANS                 20H.2 20H.2  0027H 0037H  ----- -----  013BH 017BH
  +--> ?CO?DATATRANS
  +--> DATATRANS
  +--> STATUSSAVE_ZIGBNWK_NWKEXISTIF/DATAMANAGE
  +--> ZIGB_GETPANIDCURRENT/DATATRANS
  +--> PRINTF/PRINTF
  +--> _PRINTSTRING1_LOGOUT/USART
  +--> _UART1_DATSSEND/USART
  +--> _MEMMEM/PARS_METHOD
  +--> _ZIGB_TXFRAMELOAD/DATATRANS

DATATRANSREQUEST_DATSSEND/DATATRANS           ----- -----  0027H 002CH  00C9H 00CBH  013BH 0214H
  +--> ?CO?DATATRANS
  +--> DATATRANS
  +--> _ZIGB_TXFRAMELOAD/DATATRANS
  +--> _ZIGB_DATSLOAD_DATSSEND/DATATRANS
  +--> _MEMMEM/PARS_METHOD
  +--> PRINTF/PRINTF
  +--> _PRINTSTRING1_LOGOUT/USART
  +--> _UART1_DATSSEND/USART

FUNCTION_DEVNWKHOLD/DATATRANS                 ----- -----  ----- -----  ----- -----  013BH 013DH
  +--> DATATRANS
  +--> ?CO?DATATRANS
  +--> _DATASENDREMOTE_STRAIGHTFORWARD/DATATRANS
  +--> _DELAYMS/DELAY
  +--> PRINTF/PRINTF
  +--> _PRINTSTRING1_LOGOUT/USART

THREAD_TIPS/TIPS                              ----- -----  0027H 0027H  ----- -----  ----- -----
  +--> TIPS_STATUSCHANGETONORMAL/TIPS
  +--> _THREAD_TIPSGETDARK/TIPS
  +--> TIPS_SYSSTANDBY/TIPS
LX51 LINKER/LOCATER V4.66.41.0                                                        02/15/2019  15:28:07  PAGE 14


  +--> TIPS_SYSBUTTONREALES/TIPS
  +--> TOUCHPADSCAN_ONESHOOT/USRKIN
  +--> TIPS
  +--> _TIPSLED_COLORSET/TIPS
  +--> ?CO?TIPS
  +--> _TIPS_SPECIFIED/TIPS
  +--> TIPS_WARNING/TIPS
  +--> TIPS_SYSTOUCHRESET/TIPS
  +--> PRINTF/PRINTF
  +--> _PRINTSTRING1_LOGOUT/USART

TIPS_SYSSTANDBY/TIPS                          ----- -----  ----- -----  ----- -----  ----- -----
  +--> TIPS

TIPS_SYSBUTTONREALES/TIPS                     ----- -----  ----- -----  ----- -----  ----- -----
  +--> ?CO?TIPS
  +--> TIPS

_TIPS_SPECIFIED/TIPS                          ----- -----  ----- -----  ----- -----  ----- -----
  +--> ?CO?TIPS
  +--> TIPS

TIPS_WARNING/TIPS                             ----- -----  ----- -----  ----- -----  ----- -----
  +--> TIPS
  +--> _THREAD_TIPSGETDARK/TIPS

TIPS_SYSTOUCHRESET/TIPS                       ----- -----  ----- -----  ----- -----  ----- -----
  +--> TIPS

TOUCHPAD_PROCESSTHREAD/TOUCHPAD               ----- -----  ----- -----  ----- -----  ----- -----

THREAD_DEVLOPEDEBUG/DEVLOPEDEBUG              ----- -----  ----- -----  ----- -----  ----- -----
  +--> DEVLOPEDEBUG
  +--> ?CO?DEVLOPEDEBUG
  +--> PRINTF/PRINTF
  +--> _PRINTSTRING1_LOGOUT/USART

DEVLOPEDEBUG                                  ----- -----  ----- -----  ----- -----  ----- -----

?CO?DEVLOPEDEBUG                              ----- -----  ----- -----  ----- -----  ----- -----

?C_INITSEG                                    ----- -----  ----- -----  ----- -----  ----- -----



PUBLIC SYMBOLS OF MODULE:  .\Output\swZigbNode_L7dev (USR_MAIN)


      VALUE       CLASS    TYPE      PUBLIC SYMBOL NAME
      =================================================
      00000038H   DATA     BYTE      ?_coverEEPROM_write_n?BYTE
      0000004FH   DATA     BYTE      ?_EEPROM_read_n?BYTE
      0000003FH   DATA     BYTE      ?_EEPROM_write_n?BYTE
      00000046H   DATA     BYTE      ?_memmem?BYTE
      00000038H   DATA     ---       ?_PRINTF517?BYTE
      00000038H   DATA     ---       ?_PRINTF?BYTE
      00000038H   DATA     ---       ?_SPRINTF517?BYTE
      00000038H   DATA     ---       ?_SPRINTF?BYTE
      00000028H   DATA     BYTE      ?_tipsLED_colorSet?BYTE
      00000027H   DATA     BYTE      ?_UsrKEYScan?BYTE
      00000036H   DATA     BYTE      ?_zigb_VALIDA_INPUT?BYTE
      01003468H   CODE     ---       ?C?CCASE
      0100330EH   CODE     ---       ?C?CLDOPTR
      010032F5H   CODE     ---       ?C?CLDPTR
      00000000H   NUMBER   ---       ?C?CODESEG
LX51 LINKER/LOCATER V4.66.41.0                                                        02/15/2019  15:28:07  PAGE 15


      010032CFH   CODE     ---       ?C?COPY
      0100334DH   CODE     ---       ?C?CSTOPTR
      0100333BH   CODE     ---       ?C?CSTPTR
      0100348EH   CODE     ---       ?C?ICALL
      01003492H   CODE     ---       ?C?ICALL2
      0100336FH   CODE     ---       ?C?IMUL
      010033D6H   CODE     ---       ?C?LMUL
      01003449H   CODE     ---       ?C?LSHL
      0100361AH   CODE     ---       ?C?MEMCMP
      0100363EH   CODE     ---       ?C?MEMSET
      0100345CH   CODE     ---       ?C?OFFXADD
      0100366AH   CODE     ---       ?C?PLDIIDATA
      01003381H   CODE     ---       ?C?UIDIV
      01003425H   CODE     ---       ?C?ULCMP
      01003436H   CODE     ---       ?C?ULSHR
      00000000H   NUMBER   ---       ?C?XDATASEG
      0100652DH   CODE     ---       ?C_START
      01000000H   CODE     ---       ?C_STARTUP
      00000020H.4 BIT      BIT       ?devStatusChangeTo_devHold?BIT
      00000027H   DATA     BYTE      ?relay_Act?BYTE
      00000020H.3 BIT      BIT       ?statusSave_zigbNwk_nwkExistIF?BIT
      00000028H   DATA     BYTE      ?time_Logout?BYTE
      00000020H.4 BIT      BIT       ?ZigB_nwkOpen?BIT
      0000002EH   DATA     BYTE      ?ZigB_nwkOpen?BYTE
      010073F8H   CODE     ---       _beeps_usrActive
      01006D3AH   CODE     ---       _coverEEPROM_write_n
      01006685H   CODE     ---       _datsTiming_read_eeprom
      0100670BH   CODE     ---       _datsTimNight_read_eeprom
      010075B3H   CODE     ---       _delay_ms
      010074EAH   CODE     ---       _delayMs
      01006F1CH   CODE     ---       _devParamDtaaSave_relayStatusRealTime
      010073BEH   CODE     ---       _devTypeComfirm_byDcode
      010071F2H   CODE     ---       _EEPROM_read_n
      0100742DH   CODE     ---       _EEPROM_SectorErase
      01007121H   CODE     ---       _EEPROM_write_n
*DEL*:00000000H   CODE     ---       _I2C_delay_us
      01000026H   CODE     ---       _memmem
      01007581H   CODE     ---       _periodDataTrans_momentHang
      01003E2FH   CODE     ---       _PRINTF
      01003E2FH   CODE     ---       _PRINTF517
      0100754BH   CODE     ---       _PrintString1
      01007158H   CODE     ---       _PrintString1_logOut
      010072C7H   CODE     ---       _PUTCHAR
      01003E29H   CODE     ---       _SPRINTF
      01003E29H   CODE     ---       _SPRINTF517
      01006BADH   CODE     ---       _thread_tipsGetDark
      010050B4H   CODE     ---       _tips_specified
      010074BEH   CODE     ---       _tips_statusChangeToFactoryRecover
      01007512H   CODE     ---       _tips_statusChangeToTouchReset
      01007476H   CODE     ---       _tips_statusChangeToZigbNwkOpen
      01006C7FH   CODE     ---       _tipsLED_colorSet
      0100607CH   CODE     ---       _touchPad_functionTrigContinue
      0100582EH   CODE     ---       _touchPad_functionTrigNormal
      0100762FH   CODE     ---       _touchPad_resetOpreat
      01007339H   CODE     ---       _TX1_write2buff
      010072EEH   CODE     ---       _uart1_datsSend
*DEL*:00000000H   CODE     ---       _uart1_logOut
      01006A66H   CODE     ---       _UsrKEYScan
      0100724EH   CODE     ---       _weekend_judge
      01006457H   CODE     ---       _zigb_VALIDA_INPUT
*SFR* 000000D0H.6 DATA     BIT       AC
*SFR* 000000E0H   DATA     BYTE      ACC
*SFR* 000000E0H   DATA     BIT       ACC0
*SFR* 000000E0H.1 DATA     BIT       ACC1
*SFR* 000000E0H.2 DATA     BIT       ACC2
LX51 LINKER/LOCATER V4.66.41.0                                                        02/15/2019  15:28:07  PAGE 16


*SFR* 000000E0H.3 DATA     BIT       ACC3
*SFR* 000000E0H.4 DATA     BIT       ACC4
*SFR* 000000E0H.5 DATA     BIT       ACC5
*SFR* 000000E0H.6 DATA     BIT       ACC6
*SFR* 000000E0H.7 DATA     BIT       ACC7
*SFR* 000000BCH   DATA     BYTE      ADC_CONTR
*SFR* 000000BDH   DATA     BYTE      ADC_RES
*SFR* 000000BEH   DATA     BYTE      ADC_RESL
      0100000EH   CODE     ---       appTimer0_Init
      010075A3H   CODE     ---       appTimer4_Init
*SFR* 0000008EH   DATA     BYTE      AUXR
*SFR* 000000A2H   DATA     BYTE      AUXR1
*SFR* 0000008FH   DATA     BYTE      AUXR2
*SFR* 000000F0H   DATA     BYTE      B
*SFR* 000000F0H   DATA     BIT       B0
*SFR* 000000F0H.1 DATA     BIT       B1
*SFR* 000000F0H.2 DATA     BIT       B2
*SFR* 000000F0H.3 DATA     BIT       B3
*SFR* 000000F0H.4 DATA     BIT       B4
*SFR* 000000F0H.5 DATA     BIT       B5
*SFR* 000000F0H.6 DATA     BIT       B6
*SFR* 000000F0H.7 DATA     BIT       B7
      0100737EH   CODE     ---       birthDay_Judge
      0100755EH   CODE     ---       bsp_datsReales
      01007446H   CODE     ---       bsp_Init
*SFR* 000000A1H   DATA     BYTE      BUS_SPEED
*SFR* 000000FAH   DATA     BYTE      CCAP0H
*SFR* 000000EAH   DATA     BYTE      CCAP0L
*SFR* 000000FBH   DATA     BYTE      CCAP1H
*SFR* 000000EBH   DATA     BYTE      CCAP1L
*SFR* 000000FCH   DATA     BYTE      CCAP2H
*SFR* 000000ECH   DATA     BYTE      CCAP2L
*SFR* 000000DAH   DATA     BYTE      CCAPM0
*SFR* 000000DBH   DATA     BYTE      CCAPM1
*SFR* 000000DCH   DATA     BYTE      CCAPM2
*SFR* 000000D8H   DATA     BIT       CCF0
*SFR* 000000D8H.1 DATA     BIT       CCF1
*SFR* 000000D8H.2 DATA     BIT       CCF2
*SFR* 000000D8H   DATA     BYTE      CCON
*SFR* 00000090H.1 DATA     BIT       CCP0
*SFR* 00000090H   DATA     BIT       CCP1
*SFR* 000000B0H.7 DATA     BIT       CCP2
*SFR* 000000D8H.7 DATA     BIT       CF
*SFR* 000000F9H   DATA     BYTE      CH
*SFR* 000000E9H   DATA     BYTE      CL
*SFR* 00000097H   DATA     BYTE      CLK_DIV
*SFR* 000000B0H.5 DATA     BIT       CLKOUT0
*SFR* 000000B0H.4 DATA     BIT       CLKOUT1
*SFR* 000000D9H   DATA     BYTE      CMOD
      0200047DH   XDATA    BYTE      colonyCtrlGet_queryCounter
      02000318H   XDATA    ---       colonyCtrlGet_statusLocalEaCtrl
      020003EDH   XDATA    BYTE      colonyCtrlGet_statusLocalScene
      0200031BH   XDATA    BYTE      colonyCtrlGetHang_timeCnt
      01006E0AH   CODE     ---       color_Tab
      00000077H   DATA     ---       COM1
      020006EFH   XDATA    WORD      combinationFunFLG_3S5S_cancel_counter
      00000023H.4 BIT      BIT       coordinatorOnline_IF
      00000025H.0 BIT      BIT       countEN_ifTipsFree
      020006B7H   XDATA    BYTE      counter_ifTipsFree
      020006ABH   XDATA    WORD      counter_tipsAct
*SFR* 000000D8H.6 DATA     BIT       CR
      00000072H   DATA     ---       CTRLEATHER_PORT
      020006E5H   XDATA    ---       curtainAct_Param
*SFR* 000000D0H.7 DATA     BIT       CY
      0000005FH   DATA     BYTE      datsRcv_length
LX51 LINKER/LOCATER V4.66.41.0                                                        02/15/2019  15:28:07  PAGE 17


      020003EEH   XDATA    ---       datsRcv_respond
      020004AFH   XDATA    ---       datsRcv_ZIGB
      02000328H   XDATA    ---       datsSend_request
      02000482H   XDATA    ---       datsSend_requestEx
*SFR* 00000090H   DATA     BIT       Dcode0
*SFR* 00000090H.1 DATA     BIT       Dcode1
*SFR* 00000090H.2 DATA     BIT       Dcode2
*SFR* 00000090H.3 DATA     BIT       Dcode3
*SFR* 00000090H.4 DATA     BIT       Dcode4
*SFR* 00000090H.3 DATA     BIT       Dcode5
      01006B42H   CODE     ---       DcodeScan
      01006FA9H   CODE     ---       DcodeScan_oneShoot
      000000D2H   IDATA    WORD      delayCnt_closeLoop
      000000CFH   IDATA    WORD      delayCnt_onoff
      000000CEH   IDATA    BYTE      delayPeriod_closeLoop
      000000D8H   IDATA    BYTE      delayPeriod_onoff
      000000D7H   IDATA    BYTE      delayUp_act
      00000075H   DATA     BYTE      DEV_actReserve
      02000476H   XDATA    ---       dev_agingCmd_rcvPassive
      0200031DH   XDATA    ---       dev_agingCmd_sndInitative
      020003AFH   XDATA    ---       dev_currentDataPoint
      00000070H   DATA     WORD      dev_currentPanid
      020006F1H   XDATA    ---       dev_debugInfoLog
      020006AAH   XDATA    BYTE      dev_statusBeeps
      020006E3H   XDATA    ---       devActionPush_IF
      020006A8H   XDATA    ---       devBackgroundLight_param
      0100632EH   CODE     ---       devDataRecovery_relayStatus
      010075FFH   CODE     ---       devHoldStop_makeInAdvance
      00000026H.1 BIT      BIT       deviceLock_flag
      0100735CH   CODE     ---       devLockInfo_Reales
      0200047FH   XDATA    ---       devNwkHoldTime_Param
      02000472H   XDATA    ---       devRemoteDataReqMethod
      0000005DH   DATA     BYTE      devRunning_Status
      02000474H   XDATA    ---       devStatus_switch
      010071C0H   CODE     ---       devStatusChangeTo_devHold
      020006B8H   XDATA    ---       devTips_beep
      0000001EH   DATA     BYTE      devTips_nwkZigb
      0000001FH   DATA     BYTE      devTips_status
      000000D9H   IDATA    WORD      devZigbNwk_startUp_delayCounter
      010075D1H   CODE     ---       DisableEEPROM
*SFR* 00000083H   DATA     BYTE      DPH
*SFR* 00000082H   DATA     BYTE      DPL
      00000060H   DATA     BYTE      dtModeKeepAcess_currentCmd
      02000324H   XDATA    WORD      dtReqEx_counter
*SFR* 000000A8H.7 DATA     BIT       EA
      020006E1H   XDATA    BYTE      EACHCTRL_realesFLG
      00000025H.5 BIT      BIT       EACHCTRL_reportFLG
*SFR* 000000A8H.5 DATA     BIT       EADC
*SFR* 000000A8H.6 DATA     BIT       ELVD
*SFR* 000000A8H.4 DATA     BIT       ES
*SFR* 000000A8H.1 DATA     BIT       ET0
*SFR* 000000A8H.3 DATA     BIT       ET1
*SFR* 000000A8H   DATA     BIT       EX0
*SFR* 000000A8H.2 DATA     BIT       EX1
*SFR* 000000D0H.5 DATA     BIT       F0
*SFR* 000000D0H.1 DATA     BIT       F1
      0100628CH   CODE     ---       Factory_recover
      0200047EH   XDATA    BYTE      factoryRecover_HoldTimeCount
      00000024H.0 BIT      BIT       factoryRecover_standBy_FLG
      01007592H   CODE     ---       fun_factoryRecoverOpreat
*DEL*:00000000H   CODE     ---       fun_Test
      010075EBH   CODE     ---       fun_touchReset
      02000323H   XDATA    BYTE      heartBeatCount
      00000023H.6 BIT      BIT       heartBeatCycle_FLG
      0200047CH   XDATA    BYTE      heartBeatHang_timeCnt
LX51 LINKER/LOCATER V4.66.41.0                                                        02/15/2019  15:28:07  PAGE 18


      02000549H   XDATA    BYTE      heartBeatPeriod
*SFR* 000000C3H   DATA     BYTE      IAP_ADDRH
*SFR* 000000C4H   DATA     BYTE      IAP_ADDRL
*SFR* 000000C5H   DATA     BYTE      IAP_CMD
*SFR* 000000C7H   DATA     BYTE      IAP_CONTR
*SFR* 000000C2H   DATA     BYTE      IAP_DATA
*SFR* 000000C6H   DATA     BYTE      IAP_TRIG
*SFR* 000000A8H   DATA     BYTE      IE
*SFR* 00000088H.1 DATA     BIT       IE0
*SFR* 00000088H.3 DATA     BIT       IE1
*SFR* 000000AFH   DATA     BYTE      IE2
      000000D6H   IDATA    BYTE      ifDelay_sw_running_FLAG
      00000024H.7 BIT      BIT       ifHorsingLight_running_FLAG
      00000025H.3 BIT      BIT       ifNightMode_sw_running_FLAG
      00000025H.4 BIT      BIT       ifTim_sw_running_FLAG
*SFR* 000000B0H.2 DATA     BIT       INT0
*SFR* 000000B0H.3 DATA     BIT       INT1
*SFR* 0000008FH   DATA     BYTE      INT_CLKO
*SFR* 000000B8H   DATA     BYTE      IP
*SFR* 000000B5H   DATA     BYTE      IP2
*SFR* 000000B7H   DATA     BYTE      IPH
*SFR* 000000B6H   DATA     BYTE      IPH2
*SFR* 000000C3H   DATA     BYTE      ISP_ADDRH
*SFR* 000000C4H   DATA     BYTE      ISP_ADDRL
*SFR* 000000C5H   DATA     BYTE      ISP_CMD
*SFR* 000000C7H   DATA     BYTE      ISP_CONTR
*SFR* 000000C2H   DATA     BYTE      ISP_DATA
*SFR* 000000C6H   DATA     BYTE      ISP_TRIG
*SFR* 00000088H   DATA     BIT       IT0
*SFR* 00000088H.2 DATA     BIT       IT1
      01007608H   CODE     ---       itrf_datsTiming_read_eeprom
      01007611H   CODE     ---       itrf_datsTimNight_read_eeprom
      00000023H.0 BIT      BIT       ledBackground_method
      01006E36H   CODE     ---       ledBKGColorSw_Reales
      020003ACH   XDATA    ---       localDataRecord_eaCtrl
      0000007EH   IDATA    ---       log_buf
      020006D8H   XDATA    BYTE      loopInsert_relayStatusRealTime_record
      020006D9H   XDATA    ---       MAC_ID
      020006D2H   XDATA    ---       MAC_ID_DST
      01006AD5H   CODE     ---       MAC_ID_Relaes
      01006CE1H   CODE     ---       main
*SFR* 000000D0H.2 DATA     BIT       OV
*SFR* 000000D0H   DATA     BIT       P
*SFR* 00000080H   DATA     BYTE      P0
*SFR* 00000080H   DATA     BIT       P00
*SFR* 00000080H.1 DATA     BIT       P01
*SFR* 00000080H.2 DATA     BIT       P02
*SFR* 00000080H.3 DATA     BIT       P03
*SFR* 00000080H.4 DATA     BIT       P04
*SFR* 00000080H.5 DATA     BIT       P05
*SFR* 00000080H.6 DATA     BIT       P06
*SFR* 00000080H.7 DATA     BIT       P07
*SFR* 00000094H   DATA     BYTE      P0M0
*SFR* 00000093H   DATA     BYTE      P0M1
*SFR* 00000090H   DATA     BYTE      P1
*SFR* 00000090H   DATA     BIT       P10
*SFR* 00000090H.1 DATA     BIT       P11
*SFR* 00000090H.2 DATA     BIT       P12
*SFR* 00000090H.3 DATA     BIT       P13
*SFR* 00000090H.4 DATA     BIT       P14
*SFR* 00000090H.5 DATA     BIT       P15
*SFR* 00000090H.6 DATA     BIT       P16
*SFR* 00000090H.7 DATA     BIT       P17
*SFR* 0000009DH   DATA     BYTE      P1ASF
*SFR* 00000092H   DATA     BYTE      P1M0
LX51 LINKER/LOCATER V4.66.41.0                                                        02/15/2019  15:28:07  PAGE 19


*SFR* 00000091H   DATA     BYTE      P1M1
*SFR* 000000A0H   DATA     BYTE      P2
*SFR* 000000A0H   DATA     BIT       P20
*SFR* 000000A0H.1 DATA     BIT       P21
*SFR* 000000A0H.2 DATA     BIT       P22
*SFR* 000000A0H.3 DATA     BIT       P23
*SFR* 000000A0H.4 DATA     BIT       P24
*SFR* 000000A0H.5 DATA     BIT       P25
*SFR* 000000A0H.6 DATA     BIT       P26
*SFR* 000000A0H.7 DATA     BIT       P27
*SFR* 00000096H   DATA     BYTE      P2M0
*SFR* 00000095H   DATA     BYTE      P2M1
*SFR* 000000B0H   DATA     BYTE      P3
*SFR* 000000B0H   DATA     BIT       P30
*SFR* 000000B0H.1 DATA     BIT       P31
*SFR* 000000B0H.2 DATA     BIT       P32
*SFR* 000000B0H.3 DATA     BIT       P33
*SFR* 000000B0H.4 DATA     BIT       P34
*SFR* 000000B0H.5 DATA     BIT       P35
*SFR* 000000B0H.6 DATA     BIT       P36
*SFR* 000000B0H.7 DATA     BIT       P37
*SFR* 000000B2H   DATA     BYTE      P3M0
*SFR* 000000B1H   DATA     BYTE      P3M1
*SFR* 000000C0H   DATA     BYTE      P4
*SFR* 000000C0H   DATA     BIT       P40
*SFR* 000000C0H.1 DATA     BIT       P41
*SFR* 000000C0H.2 DATA     BIT       P42
*SFR* 000000C0H.3 DATA     BIT       P43
*SFR* 000000C0H.4 DATA     BIT       P44
*SFR* 000000C0H.5 DATA     BIT       P45
*SFR* 000000C0H.6 DATA     BIT       P46
*SFR* 000000C0H.7 DATA     BIT       P47
*SFR* 000000B4H   DATA     BYTE      P4M0
*SFR* 000000B3H   DATA     BYTE      P4M1
*SFR* 000000C8H   DATA     BYTE      P5
*SFR* 000000C8H   DATA     BIT       P50
*SFR* 000000C8H.1 DATA     BIT       P51
*SFR* 000000C8H.2 DATA     BIT       P52
*SFR* 000000C8H.3 DATA     BIT       P53
*SFR* 000000C8H.4 DATA     BIT       P54
*SFR* 000000C8H.5 DATA     BIT       P55
*SFR* 000000C8H.6 DATA     BIT       P56
*SFR* 000000C8H.7 DATA     BIT       P57
*SFR* 000000CAH   DATA     BYTE      P5M0
*SFR* 000000C9H   DATA     BYTE      P5M1
*SFR* 000000E8H   DATA     BYTE      P6
*SFR* 000000CCH   DATA     BYTE      P6M0
*SFR* 000000CBH   DATA     BYTE      P6M1
*SFR* 000000F8H   DATA     BYTE      P7
*SFR* 000000E2H   DATA     BYTE      P7M0
*SFR* 000000E1H   DATA     BYTE      P7M1
*SFR* 000000A2H   DATA     BYTE      P_SW1
*SFR* 000000BAH   DATA     BYTE      P_SW2
*SFR* 000000B8H.5 DATA     BIT       PADC
*SFR* 000000F2H   DATA     BYTE      PCA_PWM0
*SFR* 000000F3H   DATA     BYTE      PCA_PWM1
*SFR* 000000F4H   DATA     BYTE      PCA_PWM2
*SFR* 00000087H   DATA     BYTE      PCON
*SFR* 00000097H   DATA     BYTE      PCON2
      0100761AH   CODE     ---       pinBeep_Init
*SFR* 000000B8H.6 DATA     BIT       PLVD
      010074FFH   CODE     ---       portCtrlEachOther_Reales
*SFR* 000000B8H.7 DATA     BIT       PPCA
*SFR* 000000B8H.4 DATA     BIT       PS
*SFR* 000000D0H   DATA     BYTE      PSW
LX51 LINKER/LOCATER V4.66.41.0                                                        02/15/2019  15:28:07  PAGE 20


*SFR* 000000B8H.1 DATA     BIT       PT0
*SFR* 000000B8H.3 DATA     BIT       PT1
*SFR* 000000B8H   DATA     BIT       PX0
*SFR* 000000B8H.2 DATA     BIT       PX1
*SFR* 00000098H.2 DATA     BIT       RB8
*SFR* 000000B0H.7 DATA     BIT       RD
      00000023H.7 BIT      BIT       reConnectAfterDatsReq_IF
      020006ADH   XDATA    ---       relay1_Tips
      020006B1H   XDATA    ---       relay2_Tips
      020006B4H   XDATA    ---       relay3_Tips
      01005ED3H   CODE     ---       relay_Act
      010061E7H   CODE     ---       relay_pinInit
      01005DFDH   CODE     ---       relay_statusReales
      020006E8H   XDATA    BYTE      relayStatus_ifSave
*SFR* 00000098H.4 DATA     BIT       REN
*SFR* 00000098H   DATA     BIT       RI
*SFR* 000000D6H   DATA     BYTE      RL_T2H
*SFR* 000000D7H   DATA     BYTE      RL_T2L
*SFR* 000000D4H   DATA     BYTE      RL_T3H
*SFR* 000000D5H   DATA     BYTE      RL_T3L
*SFR* 000000D2H   DATA     BYTE      RL_T4H
*SFR* 000000D3H   DATA     BYTE      RL_T4L
*SFR* 0000008CH   DATA     BYTE      RL_TH0
*SFR* 0000008DH   DATA     BYTE      RL_TH1
*SFR* 0000008AH   DATA     BYTE      RL_TL0
*SFR* 0000008BH   DATA     BYTE      RL_TL1
*SFR* 000000D0H.3 DATA     BIT       RS0
*SFR* 000000D0H.4 DATA     BIT       RS1
      0200054AH   XDATA    ---       RX1_Buffer
*SFR* 000000B0H   DATA     BIT       RXD
*SFR* 00000090H   DATA     BIT       RXD2
      0000005EH   DATA     BYTE      rxTout_count
      00000023H.5 BIT      BIT       rxTout_count_EN
*SFR* 0000009BH   DATA     BYTE      S2BUF
*SFR* 0000009AH   DATA     BYTE      S2CON
*SFR* 000000ADH   DATA     BYTE      S3BUF
*SFR* 000000ACH   DATA     BYTE      S3CON
*SFR* 00000085H   DATA     BYTE      S4BUF
*SFR* 00000084H   DATA     BYTE      S4CON
*SFR* 000000A9H   DATA     BYTE      SADDR
*SFR* 000000B9H   DATA     BYTE      SADEN
*SFR* 00000099H   DATA     BYTE      SBUF
*SFR* 00000098H   DATA     BYTE      SCON
*SFR* 00000098H.7 DATA     BIT       SM0
*SFR* 00000098H.6 DATA     BIT       SM1
*SFR* 00000098H.5 DATA     BIT       SM2
*SFR* 00000081H   DATA     BYTE      SP
*SFR* 000000CEH   DATA     BYTE      SPCTL
*SFR* 000000CFH   DATA     BYTE      SPDAT
      00000025H.6 BIT      BIT       specialFlg_curtainEachctrlEn
*SFR* 00000090H.4 DATA     BIT       SPI_MISO
*SFR* 000000A0H.2 DATA     BIT       SPI_MISO_2
*SFR* 000000C0H.1 DATA     BIT       SPI_MISO_3
*SFR* 00000090H.3 DATA     BIT       SPI_MOSI
*SFR* 000000A0H.3 DATA     BIT       SPI_MOSI_2
*SFR* 000000C0H   DATA     BIT       SPI_MOSI_3
*SFR* 00000090H.5 DATA     BIT       SPI_SCLK
*SFR* 000000A0H.1 DATA     BIT       SPI_SCLK_2
*SFR* 000000C0H.3 DATA     BIT       SPI_SCLK_3
*SFR* 00000090H.2 DATA     BIT       SPI_SS
*SFR* 000000A0H.4 DATA     BIT       SPI_SS_2
*SFR* 000000C8H.4 DATA     BIT       SPI_SS_3
*SFR* 000000CDH   DATA     BYTE      SPSTAT
      020006E2H   XDATA    BYTE      status_Relay
      010073A0H   CODE     ---       statusGet_zigbNwk_nwkExistIF
LX51 LINKER/LOCATER V4.66.41.0                                                        02/15/2019  15:28:07  PAGE 21


      00000025H.7 BIT      BIT       statusRelay_saveEn
      0100718EH   CODE     ---       statusSave_zigbNwk_nwkExistIF
      020006DFH   XDATA    ---       swCommand_fromUsr
      00000076H   DATA     BYTE      SWITCH_TYPE
      01007278H   CODE     ---       switchTypeReserve_GET
      000000D1H   IDATA    BYTE      swTim_oneShoot_FLAG
      0200067EH   XDATA    ---       systemTime_current
      000000D4H   IDATA    WORD      sysTimeKeep_counter
      02000685H   XDATA    BYTE      sysTimeReales_counter
      02000686H   XDATA    BYTE      sysTimeZone_H
      02000687H   XDATA    BYTE      sysTimeZone_M
*SFR* 000000B0H.4 DATA     BIT       T0
*SFR* 000000B0H.5 DATA     BIT       T1
*SFR* 000000D6H   DATA     BYTE      T2H
*SFR* 000000D7H   DATA     BYTE      T2L
*SFR* 000000D4H   DATA     BYTE      T3H
*SFR* 000000D5H   DATA     BYTE      T3L
*SFR* 000000D2H   DATA     BYTE      T4H
*SFR* 000000D3H   DATA     BYTE      T4L
*SFR* 000000D1H   DATA     BYTE      T4T3M
*SFR* 00000098H.3 DATA     BIT       TB8
*SFR* 00000088H   DATA     BYTE      TCON
*SFR* 00000088H.5 DATA     BIT       TF0
*SFR* 00000088H.7 DATA     BIT       TF1
*SFR* 0000008CH   DATA     BYTE      TH0
*SFR* 0000008DH   DATA     BYTE      TH1
*SFR* 000000D6H   DATA     BYTE      TH2
*SFR* 000000D4H   DATA     BYTE      TH3
*SFR* 000000D2H   DATA     BYTE      TH4
      01001E6CH   CODE     ---       thread_dataTrans
      010065FCH   CODE     ---       thread_devlopeDebug
      01006FECH   CODE     ---       thread_Relay
      01004129H   CODE     ---       thread_Timing
      01003A52H   CODE     ---       thread_Tips
*SFR* 00000098H.1 DATA     BIT       TI
      0100613EH   CODE     ---       time_Logout
      02000481H   XDATA    BYTE      timeCounter_coordinatorLost_detecting
      0200031CH   XDATA    BYTE      timeCounter_coordinatorLost_keeping
      010000A1H   CODE     ---       timer0_Rountine
      01002708H   CODE     ---       timer4_Rountine
      01007628H   CODE     ---       timerActionDone_FLG_RESET
      010073DCH   CODE     ---       timeZone_Reales
      010070E6H   CODE     ---       tipLED_pinInit
*DEL*:00000000H   CODE     ---       tips_breath
*DEL*:00000000H   CODE     ---       tips_fadeOut
      01006E28H   CODE     ---       tips_relayUnused
      0100745EH   CODE     ---       tips_statusChangeToNormal
      010075C3H   CODE     ---       tips_statusChangeToZigbNwkFind
      01004CC7H   CODE     ---       tips_sysButtonReales
      01000003H   CODE     ---       tips_sysStandBy
      01007224H   CODE     ---       tips_sysTouchReset
      0100690DH   CODE     ---       tips_warning
      020006A7H   XDATA    BYTE      tipsTimeCount_factoryRecover
      020006BEH   XDATA    BYTE      tipsTimeCount_touchReset
      020006B0H   XDATA    BYTE      tipsTimeCount_zigNwkOpen
*SFR* 0000008AH   DATA     BYTE      TL0
*SFR* 0000008BH   DATA     BYTE      TL1
*SFR* 000000D7H   DATA     BYTE      TL2
*SFR* 000000D5H   DATA     BYTE      TL3
*SFR* 000000D3H   DATA     BYTE      TL4
*SFR* 00000089H   DATA     BYTE      TMOD
      020006ECH   XDATA    BYTE      touchKeepCnt_record
*SFR* 00000090H.6 DATA     BIT       touchPad_1
*SFR* 00000090H.7 DATA     BIT       touchPad_2
*SFR* 00000090H.5 DATA     BIT       touchPad_3
LX51 LINKER/LOCATER V4.66.41.0                                                        02/15/2019  15:28:07  PAGE 22


*DEL*:00000000H   CODE     ---       touchPad_pinInit
      010075DFH   CODE     ---       touchPad_processThread
      020006F5H   XDATA    BYTE      touchPad_resetTimeCount
      010056F9H   CODE     ---       touchPad_Scan
      020006EDH   XDATA    WORD      touchPadActCounter
      020006EAH   XDATA    WORD      touchPadContinueCnt
      01007538H   CODE     ---       touchPadScan_oneShoot
*SFR* 00000088H.4 DATA     BIT       TR0
*SFR* 00000088H.6 DATA     BIT       TR1
      020005E3H   XDATA    ---       TX1_Buffer
*SFR* 000000B0H.1 DATA     BIT       TXD
*SFR* 00000090H.1 DATA     BIT       TXD2
      010063C5H   CODE     ---       UART1_Rountine
      01006983H   CODE     ---       uartObjZigb_Init
      00000024H.1 BIT      BIT       uartRX_toutFLG
*SFR* 00000080H.2 DATA     BIT       Usr_key
      00000066H   DATA     WORD      usrKeyCount
      00000022H.7 BIT      BIT       usrKeyCount_EN
*DEL*:00000000H   CODE     ---       usrKeyFun_relayOpreation
      01007413H   CODE     ---       usrKeyFun_zigbNwkRejoin
      01007635H   CODE     ---       UsrKEYScan_oneShoot
      010072A0H   CODE     ---       usrKin_pinInit
      0100706CH   CODE     ---       usrZigbNwkOpen
      000000DBH   IDATA    BYTE      val_DcodeCfm
*SFR* 0000008FH   DATA     BYTE      WAKE_CLKO
*SFR* 000000C1H   DATA     BYTE      WDT_CONTR
*SFR* 000000ABH   DATA     BYTE      WKTCH
*SFR* 000000AAH   DATA     BYTE      WKTCL
*SFR* 000000B0H.6 DATA     BIT       WR
      01006E85H   CODE     ---       ZigB_nwkOpen
      00000026H.0 BIT      BIT       zigbNwk_exist_FLG
      020006BBH   XDATA    ---       zigbNwk_Tips
      02000326H   XDATA    WORD      zigbNwkAction_counter
      01007570H   CODE     ---       zigbNwkExist_detectReales
      01007525H   CODE     ---       zigbUart_pinInit



SYMBOL TABLE OF MODULE:  .\Output\swZigbNode_L7dev (USR_MAIN)

      VALUE       REP       CLASS    TYPE      SYMBOL NAME
      ====================================================
      ---         MODULE    ---      ---       USR_MAIN
      01006CE1H   PUBLIC    CODE     ---       main
      0100755EH   PUBLIC    CODE     ---       bsp_datsReales
      01007446H   PUBLIC    CODE     ---       bsp_Init
      000000D8H.2 SFRSYM    DATA     BIT       CCF2
      000000E0H.7 SFRSYM    DATA     BIT       ACC7
      00000093H   SFRSYM    DATA     BYTE      P0M1
      00000092H   SFRSYM    DATA     BYTE      P1M0
      00000096H   SFRSYM    DATA     BYTE      P2M0
      00000091H   SFRSYM    DATA     BYTE      P1M1
      00000080H   SFRSYM    DATA     BYTE      P0
      000000B2H   SFRSYM    DATA     BYTE      P3M0
      00000095H   SFRSYM    DATA     BYTE      P2M1
      00000090H   SFRSYM    DATA     BYTE      P1
      000000B4H   SFRSYM    DATA     BYTE      P4M0
      000000B1H   SFRSYM    DATA     BYTE      P3M1
      000000A0H   SFRSYM    DATA     BYTE      P2
      000000CAH   SFRSYM    DATA     BYTE      P5M0
      000000B3H   SFRSYM    DATA     BYTE      P4M1
      000000B0H   SFRSYM    DATA     BYTE      P3
      000000ABH   SFRSYM    DATA     BYTE      WKTCH
      000000B0H.4 SFRSYM    DATA     BIT       T0
      000000D0H.6 SFRSYM    DATA     BIT       AC
LX51 LINKER/LOCATER V4.66.41.0                                                        02/15/2019  15:28:07  PAGE 23


      000000CCH   SFRSYM    DATA     BYTE      P6M0
      000000C9H   SFRSYM    DATA     BYTE      P5M1
      000000C0H   SFRSYM    DATA     BYTE      P4
      000000B0H.5 SFRSYM    DATA     BIT       CLKOUT0
      000000B0H.5 SFRSYM    DATA     BIT       T1
      000000E2H   SFRSYM    DATA     BYTE      P7M0
      000000CBH   SFRSYM    DATA     BYTE      P6M1
      000000C8H   SFRSYM    DATA     BYTE      P5
      000000C6H   SFRSYM    DATA     BYTE      ISP_TRIG
      000000A8H.7 SFRSYM    DATA     BIT       EA
      000000B0H.4 SFRSYM    DATA     BIT       CLKOUT1
      000000A0H.4 SFRSYM    DATA     BIT       SPI_SS_2
      000000E8H   SFRSYM    DATA     BYTE      P6
      000000E1H   SFRSYM    DATA     BYTE      P7M1
      000000C8H.4 SFRSYM    DATA     BIT       SPI_SS_3
      00000090H.4 SFRSYM    DATA     BIT       SPI_MISO
      00000090H.3 SFRSYM    DATA     BIT       SPI_MOSI
      00000090H.1 SFRSYM    DATA     BIT       CCP0
      000000F8H   SFRSYM    DATA     BYTE      P7
      000000AAH   SFRSYM    DATA     BYTE      WKTCL
      00000090H   SFRSYM    DATA     BIT       CCP1
      000000CEH   SFRSYM    DATA     BYTE      SPCTL
      000000D8H.7 SFRSYM    DATA     BIT       CF
      000000B0H.7 SFRSYM    DATA     BIT       CCP2
      000000F9H   SFRSYM    DATA     BYTE      CH
      000000A2H   SFRSYM    DATA     BYTE      P_SW1
      000000BAH   SFRSYM    DATA     BYTE      P_SW2
      000000A8H.5 SFRSYM    DATA     BIT       EADC
      000000A0H.1 SFRSYM    DATA     BIT       SPI_SCLK_2
      000000A8H   SFRSYM    DATA     BYTE      IE
      000000C0H.3 SFRSYM    DATA     BIT       SPI_SCLK_3
      000000E9H   SFRSYM    DATA     BYTE      CL
      000000C5H   SFRSYM    DATA     BYTE      IAP_CMD
      000000FAH   SFRSYM    DATA     BYTE      CCAP0H
      00000090H   SFRSYM    DATA     BIT       Dcode0
      000000FBH   SFRSYM    DATA     BYTE      CCAP1H
      00000090H.1 SFRSYM    DATA     BIT       Dcode1
      000000FCH   SFRSYM    DATA     BYTE      CCAP2H
      00000090H.2 SFRSYM    DATA     BIT       Dcode2
      000000BDH   SFRSYM    DATA     BYTE      ADC_RES
      000000B6H   SFRSYM    DATA     BYTE      IPH2
      00000090H.3 SFRSYM    DATA     BIT       Dcode3
      000000D8H.6 SFRSYM    DATA     BIT       CR
      000000EAH   SFRSYM    DATA     BYTE      CCAP0L
      00000090H.4 SFRSYM    DATA     BIT       Dcode4
      000000B0H.7 SFRSYM    DATA     BIT       RD
      000000EBH   SFRSYM    DATA     BYTE      CCAP1L
      000000DAH   SFRSYM    DATA     BYTE      CCAPM0
      00000090H.3 SFRSYM    DATA     BIT       Dcode5
      000000ECH   SFRSYM    DATA     BYTE      CCAP2L
      000000DBH   SFRSYM    DATA     BYTE      CCAPM1
      000000A8H.4 SFRSYM    DATA     BIT       ES
      000000DCH   SFRSYM    DATA     BYTE      CCAPM2
      000000B8H.5 SFRSYM    DATA     BIT       PADC
      000000A0H.2 SFRSYM    DATA     BIT       SPI_MISO_2
      000000A0H.3 SFRSYM    DATA     BIT       SPI_MOSI_2
      000000B8H   SFRSYM    DATA     BYTE      IP
      000000C0H.1 SFRSYM    DATA     BIT       SPI_MISO_3
      000000C0H   SFRSYM    DATA     BIT       SPI_MOSI_3
      00000098H   SFRSYM    DATA     BIT       RI
      000000B0H.2 SFRSYM    DATA     BIT       INT0
      000000D0H.7 SFRSYM    DATA     BIT       CY
      00000098H.1 SFRSYM    DATA     BIT       TI
      000000B0H.3 SFRSYM    DATA     BIT       INT1
      00000097H   SFRSYM    DATA     BYTE      CLK_DIV
LX51 LINKER/LOCATER V4.66.41.0                                                        02/15/2019  15:28:07  PAGE 24


      000000C3H   SFRSYM    DATA     BYTE      IAP_ADDRH
      00000090H   SFRSYM    DATA     BIT       RXD2
      000000C5H   SFRSYM    DATA     BYTE      ISP_CMD
      000000B8H.4 SFRSYM    DATA     BIT       PS
      00000090H.1 SFRSYM    DATA     BIT       TXD2
      00000081H   SFRSYM    DATA     BYTE      SP
      000000D9H   SFRSYM    DATA     BYTE      CMOD
      000000D8H   SFRSYM    DATA     BYTE      CCON
      000000C4H   SFRSYM    DATA     BYTE      IAP_ADDRL
      000000B8H.7 SFRSYM    DATA     BIT       PPCA
      000000D0H.2 SFRSYM    DATA     BIT       OV
      000000B0H.6 SFRSYM    DATA     BIT       WR
      000000A8H.6 SFRSYM    DATA     BIT       ELVD
      00000080H   SFRSYM    DATA     BIT       P00
      00000090H   SFRSYM    DATA     BIT       P10
      00000080H.1 SFRSYM    DATA     BIT       P01
      000000BCH   SFRSYM    DATA     BYTE      ADC_CONTR
      00000099H   SFRSYM    DATA     BYTE      SBUF
      00000087H   SFRSYM    DATA     BYTE      PCON
      000000A0H   SFRSYM    DATA     BIT       P20
      00000090H.1 SFRSYM    DATA     BIT       P11
      00000080H.2 SFRSYM    DATA     BIT       P02
      000000C3H   SFRSYM    DATA     BYTE      ISP_ADDRH
      000000B0H   SFRSYM    DATA     BIT       P30
      000000A0H.1 SFRSYM    DATA     BIT       P21
      00000090H.2 SFRSYM    DATA     BIT       P12
      00000080H.3 SFRSYM    DATA     BIT       P03
      000000C0H   SFRSYM    DATA     BIT       P40
      000000B0H.1 SFRSYM    DATA     BIT       P31
      000000A0H.2 SFRSYM    DATA     BIT       P22
      00000090H.3 SFRSYM    DATA     BIT       P13
      00000080H.4 SFRSYM    DATA     BIT       P04
      00000098H   SFRSYM    DATA     BYTE      SCON
      0000008FH   SFRSYM    DATA     BYTE      WAKE_CLKO
      000000C8H   SFRSYM    DATA     BIT       P50
      000000C0H.1 SFRSYM    DATA     BIT       P41
      000000B0H.2 SFRSYM    DATA     BIT       P32
      000000A0H.3 SFRSYM    DATA     BIT       P23
      00000090H.4 SFRSYM    DATA     BIT       P14
      00000080H.5 SFRSYM    DATA     BIT       P05
      00000089H   SFRSYM    DATA     BYTE      TMOD
      00000088H   SFRSYM    DATA     BYTE      TCON
      000000C8H.1 SFRSYM    DATA     BIT       P51
      000000C0H.2 SFRSYM    DATA     BIT       P42
      000000B0H.3 SFRSYM    DATA     BIT       P33
      000000A0H.4 SFRSYM    DATA     BIT       P24
      00000090H.5 SFRSYM    DATA     BIT       P15
      00000080H.6 SFRSYM    DATA     BIT       P06
      000000C4H   SFRSYM    DATA     BYTE      ISP_ADDRL
      000000B8H.6 SFRSYM    DATA     BIT       PLVD
      000000C8H.2 SFRSYM    DATA     BIT       P52
      000000C0H.3 SFRSYM    DATA     BIT       P43
      000000B0H.4 SFRSYM    DATA     BIT       P34
      000000A0H.5 SFRSYM    DATA     BIT       P25
      00000090H.6 SFRSYM    DATA     BIT       P16
      00000080H.7 SFRSYM    DATA     BIT       P07
      000000C8H.3 SFRSYM    DATA     BIT       P53
      000000C0H.4 SFRSYM    DATA     BIT       P44
      000000B0H.5 SFRSYM    DATA     BIT       P35
      000000A0H.6 SFRSYM    DATA     BIT       P26
      00000090H.7 SFRSYM    DATA     BIT       P17
      000000C8H.4 SFRSYM    DATA     BIT       P54
      000000C0H.5 SFRSYM    DATA     BIT       P45
      000000B0H.6 SFRSYM    DATA     BIT       P36
      000000A0H.7 SFRSYM    DATA     BIT       P27
LX51 LINKER/LOCATER V4.66.41.0                                                        02/15/2019  15:28:07  PAGE 25


      000000C8H.5 SFRSYM    DATA     BIT       P55
      000000C0H.6 SFRSYM    DATA     BIT       P46
      000000B0H.7 SFRSYM    DATA     BIT       P37
      000000C8H.6 SFRSYM    DATA     BIT       P56
      000000C0H.7 SFRSYM    DATA     BIT       P47
      000000C8H.7 SFRSYM    DATA     BIT       P57
      00000088H.1 SFRSYM    DATA     BIT       IE0
      000000A1H   SFRSYM    DATA     BYTE      BUS_SPEED
      00000088H.3 SFRSYM    DATA     BIT       IE1
      000000AFH   SFRSYM    DATA     BYTE      IE2
      000000F0H   SFRSYM    DATA     BYTE      B
      0000008EH   SFRSYM    DATA     BYTE      AUXR
      000000C7H   SFRSYM    DATA     BYTE      IAP_CONTR
      000000E0H   SFRSYM    DATA     BYTE      ACC
      000000A8H.1 SFRSYM    DATA     BIT       ET0
      000000A8H.3 SFRSYM    DATA     BIT       ET1
      00000088H.5 SFRSYM    DATA     BIT       TF0
      00000088H.7 SFRSYM    DATA     BIT       TF1
      000000B5H   SFRSYM    DATA     BYTE      IP2
      0000008CH   SFRSYM    DATA     BYTE      RL_TH0
      00000098H.2 SFRSYM    DATA     BIT       RB8
      0000008DH   SFRSYM    DATA     BYTE      RL_TH1
      0000008CH   SFRSYM    DATA     BYTE      TH0
      000000A8H   SFRSYM    DATA     BIT       EX0
      00000088H   SFRSYM    DATA     BIT       IT0
      000000D6H   SFRSYM    DATA     BYTE      RL_T2H
      0000008DH   SFRSYM    DATA     BYTE      TH1
      00000090H.6 SFRSYM    DATA     BIT       touchPad_1
      000000A8H.2 SFRSYM    DATA     BIT       EX1
      00000098H.3 SFRSYM    DATA     BIT       TB8
      00000088H.2 SFRSYM    DATA     BIT       IT1
      000000D4H   SFRSYM    DATA     BYTE      RL_T3H
      000000D6H   SFRSYM    DATA     BYTE      TH2
      000000D6H   SFRSYM    DATA     BYTE      T2H
      00000090H.7 SFRSYM    DATA     BIT       touchPad_2
      000000D0H   SFRSYM    DATA     BIT       P
      000000D2H   SFRSYM    DATA     BYTE      RL_T4H
      000000D4H   SFRSYM    DATA     BYTE      TH3
      000000D4H   SFRSYM    DATA     BYTE      T3H
      0000008AH   SFRSYM    DATA     BYTE      RL_TL0
      00000090H.5 SFRSYM    DATA     BIT       touchPad_3
      00000098H.7 SFRSYM    DATA     BIT       SM0
      000000D2H   SFRSYM    DATA     BYTE      TH4
      000000D2H   SFRSYM    DATA     BYTE      T4H
      0000008BH   SFRSYM    DATA     BYTE      RL_TL1
      0000008AH   SFRSYM    DATA     BYTE      TL0
      00000098H.6 SFRSYM    DATA     BIT       SM1
      000000D7H   SFRSYM    DATA     BYTE      RL_T2L
      0000008BH   SFRSYM    DATA     BYTE      TL1
      00000098H.5 SFRSYM    DATA     BIT       SM2
      000000D5H   SFRSYM    DATA     BYTE      RL_T3L
      000000D7H   SFRSYM    DATA     BYTE      TL2
      000000D7H   SFRSYM    DATA     BYTE      T2L
      000000D3H   SFRSYM    DATA     BYTE      RL_T4L
      000000D5H   SFRSYM    DATA     BYTE      TL3
      000000D5H   SFRSYM    DATA     BYTE      T3L
      000000B8H.1 SFRSYM    DATA     BIT       PT0
      000000D3H   SFRSYM    DATA     BYTE      TL4
      000000D3H   SFRSYM    DATA     BYTE      T4L
      000000B8H.3 SFRSYM    DATA     BIT       PT1
      000000D0H.3 SFRSYM    DATA     BIT       RS0
      000000C7H   SFRSYM    DATA     BYTE      ISP_CONTR
      00000088H.4 SFRSYM    DATA     BIT       TR0
      000000D0H.4 SFRSYM    DATA     BIT       RS1
      000000C2H   SFRSYM    DATA     BYTE      IAP_DATA
LX51 LINKER/LOCATER V4.66.41.0                                                        02/15/2019  15:28:07  PAGE 26


      00000088H.6 SFRSYM    DATA     BIT       TR1
      000000B8H   SFRSYM    DATA     BIT       PX0
      000000C1H   SFRSYM    DATA     BYTE      WDT_CONTR
      000000B8H.2 SFRSYM    DATA     BIT       PX1
      000000F2H   SFRSYM    DATA     BYTE      PCA_PWM0
      000000F3H   SFRSYM    DATA     BYTE      PCA_PWM1
      000000F4H   SFRSYM    DATA     BYTE      PCA_PWM2
      0000009DH   SFRSYM    DATA     BYTE      P1ASF
      00000083H   SFRSYM    DATA     BYTE      DPH
      000000D1H   SFRSYM    DATA     BYTE      T4T3M
      000000BEH   SFRSYM    DATA     BYTE      ADC_RESL
      00000082H   SFRSYM    DATA     BYTE      DPL
      000000CDH   SFRSYM    DATA     BYTE      SPSTAT
      000000B7H   SFRSYM    DATA     BYTE      IPH
      0000009BH   SFRSYM    DATA     BYTE      S2BUF
      00000097H   SFRSYM    DATA     BYTE      PCON2
      000000ADH   SFRSYM    DATA     BYTE      S3BUF
      00000098H.4 SFRSYM    DATA     BIT       REN
      00000085H   SFRSYM    DATA     BYTE      S4BUF
      00000080H.2 SFRSYM    DATA     BIT       Usr_key
      0000009AH   SFRSYM    DATA     BYTE      S2CON
      000000ACH   SFRSYM    DATA     BYTE      S3CON
      000000C2H   SFRSYM    DATA     BYTE      ISP_DATA
      00000084H   SFRSYM    DATA     BYTE      S4CON
      000000B9H   SFRSYM    DATA     BYTE      SADEN
      000000B0H   SFRSYM    DATA     BIT       RXD
      000000A9H   SFRSYM    DATA     BYTE      SADDR
      000000B0H.1 SFRSYM    DATA     BIT       TXD
      000000F0H   SFRSYM    DATA     BIT       B0
      000000F0H.1 SFRSYM    DATA     BIT       B1
      000000C6H   SFRSYM    DATA     BYTE      IAP_TRIG
      000000A2H   SFRSYM    DATA     BYTE      AUXR1
      000000F0H.2 SFRSYM    DATA     BIT       B2
      00000090H.2 SFRSYM    DATA     BIT       SPI_SS
      0000008FH   SFRSYM    DATA     BYTE      AUXR2
      000000F0H.3 SFRSYM    DATA     BIT       B3
      000000F0H.4 SFRSYM    DATA     BIT       B4
      000000D0H.5 SFRSYM    DATA     BIT       F0
      000000F0H.5 SFRSYM    DATA     BIT       B5
      000000D0H.1 SFRSYM    DATA     BIT       F1
      0000008FH   SFRSYM    DATA     BYTE      INT_CLKO
      000000F0H.6 SFRSYM    DATA     BIT       B6
      000000E0H   SFRSYM    DATA     BIT       ACC0
      000000F0H.7 SFRSYM    DATA     BIT       B7
      000000E0H.1 SFRSYM    DATA     BIT       ACC1
      000000E0H.2 SFRSYM    DATA     BIT       ACC2
      000000E0H.3 SFRSYM    DATA     BIT       ACC3
      000000D0H   SFRSYM    DATA     BYTE      PSW
      000000E0H.4 SFRSYM    DATA     BIT       ACC4
      00000090H.5 SFRSYM    DATA     BIT       SPI_SCLK
      000000D8H   SFRSYM    DATA     BIT       CCF0
      000000E0H.5 SFRSYM    DATA     BIT       ACC5
      000000D8H.1 SFRSYM    DATA     BIT       CCF1
      000000E0H.6 SFRSYM    DATA     BIT       ACC6
      000000CFH   SFRSYM    DATA     BYTE      SPDAT
      00000094H   SFRSYM    DATA     BYTE      P0M0

      01007446H   BLOCK     CODE     ---       LVL=0
      01007446H   LINE      CODE     ---       #22
      01007446H   LINE      CODE     ---       #24
      01007449H   LINE      CODE     ---       #25
      0100744CH   LINE      CODE     ---       #26
      0100744FH   LINE      CODE     ---       #27
      01007452H   LINE      CODE     ---       #28
      01007455H   LINE      CODE     ---       #29
LX51 LINKER/LOCATER V4.66.41.0                                                        02/15/2019  15:28:07  PAGE 27


      01007458H   LINE      CODE     ---       #30
      0100745BH   LINE      CODE     ---       #31
      ---         BLOCKEND  ---      ---       LVL=0

      0100755EH   BLOCK     CODE     ---       LVL=0
      0100755EH   LINE      CODE     ---       #39
      0100755EH   LINE      CODE     ---       #41
      01007561H   LINE      CODE     ---       #42
      01007564H   LINE      CODE     ---       #43
      01007567H   LINE      CODE     ---       #44
      0100756AH   LINE      CODE     ---       #45
      0100756DH   LINE      CODE     ---       #46
      ---         BLOCKEND  ---      ---       LVL=0

      01006CE1H   BLOCK     CODE     ---       LVL=0
      01006CE1H   LINE      CODE     ---       #49
      01006CE1H   LINE      CODE     ---       #52
      01006CE4H   LINE      CODE     ---       #53
      01006CE7H   LINE      CODE     ---       #54
      01006CEAH   LINE      CODE     ---       #74
      01006CF3H   LINE      CODE     ---       #77
      01006CF8H   LINE      CODE     ---       #80
      01006CFEH   LINE      CODE     ---       #81
      01006D05H   LINE      CODE     ---       #84
      01006D05H   LINE      CODE     ---       #92
      01006D08H   LINE      CODE     ---       #93
      01006D0BH   LINE      CODE     ---       #94
      01006D26H   LINE      CODE     ---       #97
      01006D29H   LINE      CODE     ---       #99
      01006D2CH   LINE      CODE     ---       #101
      01006D2FH   LINE      CODE     ---       #103
      01006D32H   LINE      CODE     ---       #105
      01006D35H   LINE      CODE     ---       #107
      01006D38H   LINE      CODE     ---       #108
      ---         BLOCKEND  ---      ---       LVL=0

      ---         MODULE    ---      ---       APPTIMER
      01002708H   PUBLIC    CODE     ---       timer4_Rountine
      010000A1H   PUBLIC    CODE     ---       timer0_Rountine
      010075A3H   PUBLIC    CODE     ---       appTimer4_Init
      0100000EH   PUBLIC    CODE     ---       appTimer0_Init
      000000D8H.2 SFRSYM    DATA     BIT       CCF2
      000000E0H.7 SFRSYM    DATA     BIT       ACC7
      00000093H   SFRSYM    DATA     BYTE      P0M1
      00000092H   SFRSYM    DATA     BYTE      P1M0
      00000096H   SFRSYM    DATA     BYTE      P2M0
      00000091H   SFRSYM    DATA     BYTE      P1M1
      00000080H   SFRSYM    DATA     BYTE      P0
      000000B2H   SFRSYM    DATA     BYTE      P3M0
      00000095H   SFRSYM    DATA     BYTE      P2M1
      00000090H   SFRSYM    DATA     BYTE      P1
      000000B4H   SFRSYM    DATA     BYTE      P4M0
      000000B1H   SFRSYM    DATA     BYTE      P3M1
      000000A0H   SFRSYM    DATA     BYTE      P2
      000000CAH   SFRSYM    DATA     BYTE      P5M0
      000000B3H   SFRSYM    DATA     BYTE      P4M1
      000000B0H   SFRSYM    DATA     BYTE      P3
      000000ABH   SFRSYM    DATA     BYTE      WKTCH
      000000B0H.4 SFRSYM    DATA     BIT       T0
      000000D0H.6 SFRSYM    DATA     BIT       AC
      000000CCH   SFRSYM    DATA     BYTE      P6M0
      000000C9H   SFRSYM    DATA     BYTE      P5M1
      000000C0H   SFRSYM    DATA     BYTE      P4
      000000B0H.5 SFRSYM    DATA     BIT       CLKOUT0
      000000B0H.5 SFRSYM    DATA     BIT       T1
LX51 LINKER/LOCATER V4.66.41.0                                                        02/15/2019  15:28:07  PAGE 28


      000000E2H   SFRSYM    DATA     BYTE      P7M0
      000000CBH   SFRSYM    DATA     BYTE      P6M1
      000000C8H   SFRSYM    DATA     BYTE      P5
      000000C6H   SFRSYM    DATA     BYTE      ISP_TRIG
      000000A8H.7 SFRSYM    DATA     BIT       EA
      000000B0H.4 SFRSYM    DATA     BIT       CLKOUT1
      000000A0H.4 SFRSYM    DATA     BIT       SPI_SS_2
      000000E8H   SFRSYM    DATA     BYTE      P6
      000000E1H   SFRSYM    DATA     BYTE      P7M1
      000000C8H.4 SFRSYM    DATA     BIT       SPI_SS_3
      00000090H.4 SFRSYM    DATA     BIT       SPI_MISO
      00000090H.3 SFRSYM    DATA     BIT       SPI_MOSI
      00000090H.1 SFRSYM    DATA     BIT       CCP0
      000000F8H   SFRSYM    DATA     BYTE      P7
      000000AAH   SFRSYM    DATA     BYTE      WKTCL
      00000090H   SFRSYM    DATA     BIT       CCP1
      000000CEH   SFRSYM    DATA     BYTE      SPCTL
      000000D8H.7 SFRSYM    DATA     BIT       CF
      000000B0H.7 SFRSYM    DATA     BIT       CCP2
      000000F9H   SFRSYM    DATA     BYTE      CH
      000000A2H   SFRSYM    DATA     BYTE      P_SW1
      000000BAH   SFRSYM    DATA     BYTE      P_SW2
      000000A8H.5 SFRSYM    DATA     BIT       EADC
      000000A0H.1 SFRSYM    DATA     BIT       SPI_SCLK_2
      000000A8H   SFRSYM    DATA     BYTE      IE
      000000C0H.3 SFRSYM    DATA     BIT       SPI_SCLK_3
      000000E9H   SFRSYM    DATA     BYTE      CL
      000000C5H   SFRSYM    DATA     BYTE      IAP_CMD
      000000FAH   SFRSYM    DATA     BYTE      CCAP0H
      00000090H   SFRSYM    DATA     BIT       Dcode0
      000000FBH   SFRSYM    DATA     BYTE      CCAP1H
      00000090H.1 SFRSYM    DATA     BIT       Dcode1
      000000FCH   SFRSYM    DATA     BYTE      CCAP2H
      00000090H.2 SFRSYM    DATA     BIT       Dcode2
      000000BDH   SFRSYM    DATA     BYTE      ADC_RES
      000000B6H   SFRSYM    DATA     BYTE      IPH2
      00000090H.3 SFRSYM    DATA     BIT       Dcode3
      000000D8H.6 SFRSYM    DATA     BIT       CR
      000000EAH   SFRSYM    DATA     BYTE      CCAP0L
      00000090H.4 SFRSYM    DATA     BIT       Dcode4
      000000B0H.7 SFRSYM    DATA     BIT       RD
      000000EBH   SFRSYM    DATA     BYTE      CCAP1L
      000000DAH   SFRSYM    DATA     BYTE      CCAPM0
      00000090H.3 SFRSYM    DATA     BIT       Dcode5
      000000ECH   SFRSYM    DATA     BYTE      CCAP2L
      000000DBH   SFRSYM    DATA     BYTE      CCAPM1
      000000A8H.4 SFRSYM    DATA     BIT       ES
      000000DCH   SFRSYM    DATA     BYTE      CCAPM2
      000000B8H.5 SFRSYM    DATA     BIT       PADC
      000000A0H.2 SFRSYM    DATA     BIT       SPI_MISO_2
      000000A0H.3 SFRSYM    DATA     BIT       SPI_MOSI_2
      000000B8H   SFRSYM    DATA     BYTE      IP
      000000C0H.1 SFRSYM    DATA     BIT       SPI_MISO_3
      000000C0H   SFRSYM    DATA     BIT       SPI_MOSI_3
      00000098H   SFRSYM    DATA     BIT       RI
      000000B0H.2 SFRSYM    DATA     BIT       INT0
      000000D0H.7 SFRSYM    DATA     BIT       CY
      00000098H.1 SFRSYM    DATA     BIT       TI
      000000B0H.3 SFRSYM    DATA     BIT       INT1
      00000097H   SFRSYM    DATA     BYTE      CLK_DIV
      000000C3H   SFRSYM    DATA     BYTE      IAP_ADDRH
      00000090H   SFRSYM    DATA     BIT       RXD2
      000000C5H   SFRSYM    DATA     BYTE      ISP_CMD
      000000B8H.4 SFRSYM    DATA     BIT       PS
      00000090H.1 SFRSYM    DATA     BIT       TXD2
LX51 LINKER/LOCATER V4.66.41.0                                                        02/15/2019  15:28:07  PAGE 29


      00000081H   SFRSYM    DATA     BYTE      SP
      000000D9H   SFRSYM    DATA     BYTE      CMOD
      000000D8H   SFRSYM    DATA     BYTE      CCON
      000000C4H   SFRSYM    DATA     BYTE      IAP_ADDRL
      000000B8H.7 SFRSYM    DATA     BIT       PPCA
      000000D0H.2 SFRSYM    DATA     BIT       OV
      000000B0H.6 SFRSYM    DATA     BIT       WR
      000000A8H.6 SFRSYM    DATA     BIT       ELVD
      00000080H   SFRSYM    DATA     BIT       P00
      00000090H   SFRSYM    DATA     BIT       P10
      00000080H.1 SFRSYM    DATA     BIT       P01
      000000BCH   SFRSYM    DATA     BYTE      ADC_CONTR
      00000099H   SFRSYM    DATA     BYTE      SBUF
      00000087H   SFRSYM    DATA     BYTE      PCON
      000000A0H   SFRSYM    DATA     BIT       P20
      00000090H.1 SFRSYM    DATA     BIT       P11
      00000080H.2 SFRSYM    DATA     BIT       P02
      000000C3H   SFRSYM    DATA     BYTE      ISP_ADDRH
      000000B0H   SFRSYM    DATA     BIT       P30
      000000A0H.1 SFRSYM    DATA     BIT       P21
      00000090H.2 SFRSYM    DATA     BIT       P12
      00000080H.3 SFRSYM    DATA     BIT       P03
      000000C0H   SFRSYM    DATA     BIT       P40
      000000B0H.1 SFRSYM    DATA     BIT       P31
      000000A0H.2 SFRSYM    DATA     BIT       P22
      00000090H.3 SFRSYM    DATA     BIT       P13
      00000080H.4 SFRSYM    DATA     BIT       P04
      00000098H   SFRSYM    DATA     BYTE      SCON
      0000008FH   SFRSYM    DATA     BYTE      WAKE_CLKO
      000000C8H   SFRSYM    DATA     BIT       P50
      000000C0H.1 SFRSYM    DATA     BIT       P41
      000000B0H.2 SFRSYM    DATA     BIT       P32
      000000A0H.3 SFRSYM    DATA     BIT       P23
      00000090H.4 SFRSYM    DATA     BIT       P14
      00000080H.5 SFRSYM    DATA     BIT       P05
      00000089H   SFRSYM    DATA     BYTE      TMOD
      00000088H   SFRSYM    DATA     BYTE      TCON
      000000C8H.1 SFRSYM    DATA     BIT       P51
      000000C0H.2 SFRSYM    DATA     BIT       P42
      000000B0H.3 SFRSYM    DATA     BIT       P33
      000000A0H.4 SFRSYM    DATA     BIT       P24
      00000090H.5 SFRSYM    DATA     BIT       P15
      00000080H.6 SFRSYM    DATA     BIT       P06
      000000C4H   SFRSYM    DATA     BYTE      ISP_ADDRL
      000000B8H.6 SFRSYM    DATA     BIT       PLVD
      000000C8H.2 SFRSYM    DATA     BIT       P52
      000000C0H.3 SFRSYM    DATA     BIT       P43
      000000B0H.4 SFRSYM    DATA     BIT       P34
      000000A0H.5 SFRSYM    DATA     BIT       P25
      00000090H.6 SFRSYM    DATA     BIT       P16
      00000080H.7 SFRSYM    DATA     BIT       P07
      000000C8H.3 SFRSYM    DATA     BIT       P53
      000000C0H.4 SFRSYM    DATA     BIT       P44
      000000B0H.5 SFRSYM    DATA     BIT       P35
      000000A0H.6 SFRSYM    DATA     BIT       P26
      00000090H.7 SFRSYM    DATA     BIT       P17
      000000C8H.4 SFRSYM    DATA     BIT       P54
      000000C0H.5 SFRSYM    DATA     BIT       P45
      000000B0H.6 SFRSYM    DATA     BIT       P36
      000000A0H.7 SFRSYM    DATA     BIT       P27
      000000C8H.5 SFRSYM    DATA     BIT       P55
      000000C0H.6 SFRSYM    DATA     BIT       P46
      000000B0H.7 SFRSYM    DATA     BIT       P37
      000000C8H.6 SFRSYM    DATA     BIT       P56
      000000C0H.7 SFRSYM    DATA     BIT       P47
LX51 LINKER/LOCATER V4.66.41.0                                                        02/15/2019  15:28:07  PAGE 30


      000000C8H.7 SFRSYM    DATA     BIT       P57
      00000088H.1 SFRSYM    DATA     BIT       IE0
      000000A1H   SFRSYM    DATA     BYTE      BUS_SPEED
      00000088H.3 SFRSYM    DATA     BIT       IE1
      000000AFH   SFRSYM    DATA     BYTE      IE2
      000000F0H   SFRSYM    DATA     BYTE      B
      0000008EH   SFRSYM    DATA     BYTE      AUXR
      000000C7H   SFRSYM    DATA     BYTE      IAP_CONTR
      000000E0H   SFRSYM    DATA     BYTE      ACC
      000000A8H.1 SFRSYM    DATA     BIT       ET0
      000000A8H.3 SFRSYM    DATA     BIT       ET1
      00000088H.5 SFRSYM    DATA     BIT       TF0
      00000088H.7 SFRSYM    DATA     BIT       TF1
      000000B5H   SFRSYM    DATA     BYTE      IP2
      0000008CH   SFRSYM    DATA     BYTE      RL_TH0
      00000098H.2 SFRSYM    DATA     BIT       RB8
      0000008DH   SFRSYM    DATA     BYTE      RL_TH1
      0000008CH   SFRSYM    DATA     BYTE      TH0
      000000A8H   SFRSYM    DATA     BIT       EX0
      00000088H   SFRSYM    DATA     BIT       IT0
      000000D6H   SFRSYM    DATA     BYTE      RL_T2H
      0000008DH   SFRSYM    DATA     BYTE      TH1
      00000090H.6 SFRSYM    DATA     BIT       touchPad_1
      000000A8H.2 SFRSYM    DATA     BIT       EX1
      00000098H.3 SFRSYM    DATA     BIT       TB8
      00000088H.2 SFRSYM    DATA     BIT       IT1
      000000D4H   SFRSYM    DATA     BYTE      RL_T3H
      000000D6H   SFRSYM    DATA     BYTE      TH2
      000000D6H   SFRSYM    DATA     BYTE      T2H
      00000090H.7 SFRSYM    DATA     BIT       touchPad_2
      000000D0H   SFRSYM    DATA     BIT       P
      000000D2H   SFRSYM    DATA     BYTE      RL_T4H
      000000D4H   SFRSYM    DATA     BYTE      TH3
      000000D4H   SFRSYM    DATA     BYTE      T3H
      0000008AH   SFRSYM    DATA     BYTE      RL_TL0
      00000090H.5 SFRSYM    DATA     BIT       touchPad_3
      00000098H.7 SFRSYM    DATA     BIT       SM0
      000000D2H   SFRSYM    DATA     BYTE      TH4
      000000D2H   SFRSYM    DATA     BYTE      T4H
      0000008BH   SFRSYM    DATA     BYTE      RL_TL1
      0000008AH   SFRSYM    DATA     BYTE      TL0
      00000098H.6 SFRSYM    DATA     BIT       SM1
      000000D7H   SFRSYM    DATA     BYTE      RL_T2L
      0000008BH   SFRSYM    DATA     BYTE      TL1
      00000098H.5 SFRSYM    DATA     BIT       SM2
      000000D5H   SFRSYM    DATA     BYTE      RL_T3L
      000000D7H   SFRSYM    DATA     BYTE      TL2
      000000D7H   SFRSYM    DATA     BYTE      T2L
      000000D3H   SFRSYM    DATA     BYTE      RL_T4L
      000000D5H   SFRSYM    DATA     BYTE      TL3
      000000D5H   SFRSYM    DATA     BYTE      T3L
      000000B8H.1 SFRSYM    DATA     BIT       PT0
      000000D3H   SFRSYM    DATA     BYTE      TL4
      000000D3H   SFRSYM    DATA     BYTE      T4L
      000000B8H.3 SFRSYM    DATA     BIT       PT1
      000000D0H.3 SFRSYM    DATA     BIT       RS0
      000000C7H   SFRSYM    DATA     BYTE      ISP_CONTR
      00000088H.4 SFRSYM    DATA     BIT       TR0
      000000D0H.4 SFRSYM    DATA     BIT       RS1
      000000C2H   SFRSYM    DATA     BYTE      IAP_DATA
      00000088H.6 SFRSYM    DATA     BIT       TR1
      000000B8H   SFRSYM    DATA     BIT       PX0
      000000C1H   SFRSYM    DATA     BYTE      WDT_CONTR
      000000B8H.2 SFRSYM    DATA     BIT       PX1
      000000F2H   SFRSYM    DATA     BYTE      PCA_PWM0
LX51 LINKER/LOCATER V4.66.41.0                                                        02/15/2019  15:28:07  PAGE 31


      000000F3H   SFRSYM    DATA     BYTE      PCA_PWM1
      000000F4H   SFRSYM    DATA     BYTE      PCA_PWM2
      0000009DH   SFRSYM    DATA     BYTE      P1ASF
      00000083H   SFRSYM    DATA     BYTE      DPH
      000000D1H   SFRSYM    DATA     BYTE      T4T3M
      000000BEH   SFRSYM    DATA     BYTE      ADC_RESL
      00000082H   SFRSYM    DATA     BYTE      DPL
      000000CDH   SFRSYM    DATA     BYTE      SPSTAT
      000000B7H   SFRSYM    DATA     BYTE      IPH
      0000009BH   SFRSYM    DATA     BYTE      S2BUF
      00000097H   SFRSYM    DATA     BYTE      PCON2
      000000ADH   SFRSYM    DATA     BYTE      S3BUF
      00000098H.4 SFRSYM    DATA     BIT       REN
      00000085H   SFRSYM    DATA     BYTE      S4BUF
      00000080H.2 SFRSYM    DATA     BIT       Usr_key
      0000009AH   SFRSYM    DATA     BYTE      S2CON
      000000ACH   SFRSYM    DATA     BYTE      S3CON
      000000C2H   SFRSYM    DATA     BYTE      ISP_DATA
      00000084H   SFRSYM    DATA     BYTE      S4CON
      000000B9H   SFRSYM    DATA     BYTE      SADEN
      000000B0H   SFRSYM    DATA     BIT       RXD
      000000A9H   SFRSYM    DATA     BYTE      SADDR
      000000B0H.1 SFRSYM    DATA     BIT       TXD
      000000F0H   SFRSYM    DATA     BIT       B0
      000000F0H.1 SFRSYM    DATA     BIT       B1
      000000C6H   SFRSYM    DATA     BYTE      IAP_TRIG
      000000A2H   SFRSYM    DATA     BYTE      AUXR1
      000000F0H.2 SFRSYM    DATA     BIT       B2
      00000090H.2 SFRSYM    DATA     BIT       SPI_SS
      0000008FH   SFRSYM    DATA     BYTE      AUXR2
      000000F0H.3 SFRSYM    DATA     BIT       B3
      000000F0H.4 SFRSYM    DATA     BIT       B4
      000000D0H.5 SFRSYM    DATA     BIT       F0
      000000F0H.5 SFRSYM    DATA     BIT       B5
      000000D0H.1 SFRSYM    DATA     BIT       F1
      0000008FH   SFRSYM    DATA     BYTE      INT_CLKO
      000000F0H.6 SFRSYM    DATA     BIT       B6
      000000E0H   SFRSYM    DATA     BIT       ACC0
      000000F0H.7 SFRSYM    DATA     BIT       B7
      000000E0H.1 SFRSYM    DATA     BIT       ACC1
      000000E0H.2 SFRSYM    DATA     BIT       ACC2
      000000E0H.3 SFRSYM    DATA     BIT       ACC3
      000000D0H   SFRSYM    DATA     BYTE      PSW
      000000E0H.4 SFRSYM    DATA     BIT       ACC4
      00000090H.5 SFRSYM    DATA     BIT       SPI_SCLK
      000000D8H   SFRSYM    DATA     BIT       CCF0
      000000E0H.5 SFRSYM    DATA     BIT       ACC5
      000000D8H.1 SFRSYM    DATA     BIT       CCF1
      000000E0H.6 SFRSYM    DATA     BIT       ACC6
      000000CFH   SFRSYM    DATA     BYTE      SPDAT
      00000094H   SFRSYM    DATA     BYTE      P0M0

      010069F6H   BLOCK     CODE     ---       LVL=0
      ---         BLOCKEND  ---      ---       LVL=0

      0100000EH   BLOCK     CODE     ---       LVL=0
      0100000EH   LINE      CODE     ---       #54
      0100000EH   LINE      CODE     ---       #56
      01000011H   LINE      CODE     ---       #57
      01000014H   LINE      CODE     ---       #58
      01000017H   LINE      CODE     ---       #59
      0100001AH   LINE      CODE     ---       #60
      0100001CH   LINE      CODE     ---       #61
      0100001EH   LINE      CODE     ---       #62
      01000020H   LINE      CODE     ---       #64
LX51 LINKER/LOCATER V4.66.41.0                                                        02/15/2019  15:28:07  PAGE 32


      01000022H   LINE      CODE     ---       #65
      ---         BLOCKEND  ---      ---       LVL=0

      010075A3H   BLOCK     CODE     ---       LVL=0
      010075A3H   LINE      CODE     ---       #67
      010075A3H   LINE      CODE     ---       #69
      010075A6H   LINE      CODE     ---       #70
      010075A9H   LINE      CODE     ---       #71
      010075ACH   LINE      CODE     ---       #72
      010075AFH   LINE      CODE     ---       #74
      010075B2H   LINE      CODE     ---       #75
      ---         BLOCKEND  ---      ---       LVL=0

      010000A1H   BLOCK     CODE     ---       LVL=0
      010000A1H   LINE      CODE     ---       #77
      010000A1H   LINE      CODE     ---       #173
      ---         BLOCKEND  ---      ---       LVL=0

      01002708H   BLOCK     CODE     ---       LVL=0
      01002725H   BLOCK     CODE     NEAR LAB  LVL=1
      010076B8H   SYMBOL    CONST    WORD      period_1second
      00000069H   SYMBOL    DATA     WORD      counter_1second
      010076BAH   SYMBOL    CONST    BYTE      period_1ms
      0000006BH   SYMBOL    DATA     BYTE      counter_1ms
      010076BBH   SYMBOL    CONST    WORD      period_200ms
      0000006CH   SYMBOL    DATA     WORD      counter_200ms
      010076BDH   SYMBOL    CONST    BYTE      period5_200ms
      0000006EH   SYMBOL    DATA     BYTE      counter5_200ms
      010076BEH   SYMBOL    CONST    BYTE      period_tipsColor
      0000006FH   SYMBOL    DATA     BYTE      counter_tipsColor
      020006C4H   SYMBOL    XDATA    ---       cnt_relay1_Tips
      020006C7H   SYMBOL    XDATA    ---       cnt_relay2_Tips
      020006CAH   SYMBOL    XDATA    ---       cnt_relay3_Tips
      020006CDH   SYMBOL    XDATA    ---       cnt_zigbNwk_Tips
      020006D0H   SYMBOL    XDATA    BYTE      period_beep
      020006D1H   SYMBOL    XDATA    BYTE      count_beep
      01002A94H   BLOCK     CODE     NEAR LAB  LVL=2
      020006BFH   SYMBOL    XDATA    WORD      tips_Period
      020006C1H   SYMBOL    XDATA    WORD      tips_Count
      020006C3H   SYMBOL    XDATA    BYTE      tips_Loop
      00000026H.2 SYMBOL    BIT      BIT       beeps_en
      ---         BLOCKEND  ---      ---       LVL=2
      ---         BLOCKEND  ---      ---       LVL=1
      01002708H   LINE      CODE     ---       #175
      01002725H   LINE      CODE     ---       #215
      0100273FH   LINE      CODE     ---       #216
      0100273FH   LINE      CODE     ---       #218
      01002745H   LINE      CODE     ---       #219
      01002747H   LINE      CODE     ---       #222
      0100274DH   LINE      CODE     ---       #224
      01002759H   LINE      CODE     ---       #226
      01002759H   LINE      CODE     ---       #228
      01002760H   LINE      CODE     ---       #230
      01002768H   LINE      CODE     ---       #232
      01002775H   LINE      CODE     ---       #234
      01002777H   LINE      CODE     ---       #242
      01002777H   LINE      CODE     ---       #244
      0100277DH   LINE      CODE     ---       #246
      01002786H   LINE      CODE     ---       #248
      01002792H   LINE      CODE     ---       #250
      01002794H   LINE      CODE     ---       #252
      01002799H   LINE      CODE     ---       #253
      01002799H   LINE      CODE     ---       #254
      01002799H   LINE      CODE     ---       #256
      0100279BH   LINE      CODE     ---       #258
LX51 LINKER/LOCATER V4.66.41.0                                                        02/15/2019  15:28:07  PAGE 33


      0100279BH   LINE      CODE     ---       #260
      010027A2H   LINE      CODE     ---       #262
      010027A8H   LINE      CODE     ---       #263
      010027A9H   LINE      CODE     ---       #264
      010027ACH   LINE      CODE     ---       #266
      010027B6H   LINE      CODE     ---       #268
      010027B6H   LINE      CODE     ---       #270
      010027B6H   LINE      CODE     ---       #272
      010027B6H   LINE      CODE     ---       #273
      010027B6H   LINE      CODE     ---       #274
      010027B6H   LINE      CODE     ---       #276
      010027C0H   LINE      CODE     ---       #277
      010027C0H   LINE      CODE     ---       #281
      010027D1H   LINE      CODE     ---       #282
      010027D1H   LINE      CODE     ---       #284
      010027D4H   LINE      CODE     ---       #310
      010027ECH   LINE      CODE     ---       #313
      010027F9H   LINE      CODE     ---       #314
      010027FFH   LINE      CODE     ---       #317
      01002817H   LINE      CODE     ---       #320
      0100282FH   LINE      CODE     ---       #323
      01002847H   LINE      CODE     ---       #326
      0100285FH   LINE      CODE     ---       #329
      01002877H   LINE      CODE     ---       #330
      01002877H   LINE      CODE     ---       #333
      01002891H   LINE      CODE     ---       #334
      01002891H   LINE      CODE     ---       #336
      01002897H   LINE      CODE     ---       #388
      0100289AH   LINE      CODE     ---       #390
      010028ACH   LINE      CODE     ---       #391
      010028ACH   LINE      CODE     ---       #393
      010028B1H   LINE      CODE     ---       #394
      010028B3H   LINE      CODE     ---       #395
      010028B3H   LINE      CODE     ---       #396
      010028B3H   LINE      CODE     ---       #399
      010028BAH   LINE      CODE     ---       #401
      010028D1H   LINE      CODE     ---       #402
      010028D1H   LINE      CODE     ---       #404
      010028DCH   LINE      CODE     ---       #406
      010028E2H   LINE      CODE     ---       #408
      010028E8H   LINE      CODE     ---       #409
      010028EEH   LINE      CODE     ---       #410
      010028F1H   LINE      CODE     ---       #411
      010028F8H   LINE      CODE     ---       #427
      0100291BH   LINE      CODE     ---       #429
      01002923H   LINE      CODE     ---       #434
      0100292AH   LINE      CODE     ---       #436
      01002930H   LINE      CODE     ---       #437
      01002930H   LINE      CODE     ---       #438
      01002930H   LINE      CODE     ---       #441
      0100293DH   LINE      CODE     ---       #443
      01002954H   LINE      CODE     ---       #444
      01002954H   LINE      CODE     ---       #446
      0100295BH   LINE      CODE     ---       #448
      01002961H   LINE      CODE     ---       #449
      01002965H   LINE      CODE     ---       #450
      01002968H   LINE      CODE     ---       #451
      0100296FH   LINE      CODE     ---       #466
      0100298DH   LINE      CODE     ---       #468
      01002995H   LINE      CODE     ---       #471
      01002995H   LINE      CODE     ---       #472
      01002995H   LINE      CODE     ---       #475
      010029A3H   LINE      CODE     ---       #478
      010029ABH   LINE      CODE     ---       #481
      010029B3H   LINE      CODE     ---       #484
LX51 LINKER/LOCATER V4.66.41.0                                                        02/15/2019  15:28:07  PAGE 34


      010029BBH   LINE      CODE     ---       #487
      010029C6H   LINE      CODE     ---       #490
      010029CEH   LINE      CODE     ---       #493
      010029D6H   LINE      CODE     ---       #496
      010029DEH   LINE      CODE     ---       #499
      010029E6H   LINE      CODE     ---       #502
      010029EEH   LINE      CODE     ---       #505
      010029F6H   LINE      CODE     ---       #508
      010029FEH   LINE      CODE     ---       #511
      01002A06H   LINE      CODE     ---       #514
      01002A10H   LINE      CODE     ---       #515
      01002A10H   LINE      CODE     ---       #517
      01002A16H   LINE      CODE     ---       #518
      01002A16H   LINE      CODE     ---       #519
      01002A16H   LINE      CODE     ---       #522
      01002A19H   LINE      CODE     ---       #524
      01002A24H   LINE      CODE     ---       #525
      01002A24H   LINE      CODE     ---       #527
      01002A2EH   LINE      CODE     ---       #529
      01002A30H   LINE      CODE     ---       #531
      01002A3FH   LINE      CODE     ---       #532
      01002A52H   LINE      CODE     ---       #533
      01002A58H   LINE      CODE     ---       #536
      01002A6AH   LINE      CODE     ---       #539
      01002A71H   LINE      CODE     ---       #540
      01002A79H   LINE      CODE     ---       #541
      01002A7DH   LINE      CODE     ---       #543
      01002A81H   LINE      CODE     ---       #545
      01002A81H   LINE      CODE     ---       #548
      01002A81H   LINE      CODE     ---       #549
      01002A81H   LINE      CODE     ---       #550
      01002A83H   LINE      CODE     ---       #551
      01002A83H   LINE      CODE     ---       #552
      01002A83H   LINE      CODE     ---       #555
      01002A94H   LINE      CODE     ---       #556
      01002A94H   LINE      CODE     ---       #563
      01002A99H   LINE      CODE     ---       #565
      01002AAEH   LINE      CODE     ---       #567
      01002AAEH   LINE      CODE     ---       #569
      01002AB9H   LINE      CODE     ---       #570
      01002AD1H   LINE      CODE     ---       #571
      01002ADDH   LINE      CODE     ---       #572
      01002AE0H   LINE      CODE     ---       #573
      01002AE2H   LINE      CODE     ---       #574
      01002AE8H   LINE      CODE     ---       #576
      01002AEAH   LINE      CODE     ---       #578
      01002AEAH   LINE      CODE     ---       #580
      01002AF0H   LINE      CODE     ---       #582
      01002B05H   LINE      CODE     ---       #584
      01002B11H   LINE      CODE     ---       #585
      01002B1AH   LINE      CODE     ---       #587
      01002B1CH   LINE      CODE     ---       #589
      01002B1FH   LINE      CODE     ---       #590
      01002B21H   LINE      CODE     ---       #591
      01002B25H   LINE      CODE     ---       #592
      01002B25H   LINE      CODE     ---       #594
      01002B27H   LINE      CODE     ---       #596
      01002B2DH   LINE      CODE     ---       #597
      01002B2DH   LINE      CODE     ---       #599
      01002B2FH   LINE      CODE     ---       #601
      01002B2FH   LINE      CODE     ---       #603
      01002B32H   LINE      CODE     ---       #604
      01002B34H   LINE      CODE     ---       #605
      01002B36H   LINE      CODE     ---       #606
      01002B3AH   LINE      CODE     ---       #608
LX51 LINKER/LOCATER V4.66.41.0                                                        02/15/2019  15:28:07  PAGE 35


      01002B3CH   LINE      CODE     ---       #610
      01002B3CH   LINE      CODE     ---       #612
      01002B3EH   LINE      CODE     ---       #614
      01002B3EH   LINE      CODE     ---       #615
      01002B3EH   LINE      CODE     ---       #616
      01002B3EH   LINE      CODE     ---       #619
      01002B4DH   LINE      CODE     ---       #621
      01002B50H   LINE      CODE     ---       #623
      01002B5AH   LINE      CODE     ---       #624
      01002B64H   LINE      CODE     ---       #625
      01002B6EH   LINE      CODE     ---       #627
      01002B78H   LINE      CODE     ---       #628
      01002B82H   LINE      CODE     ---       #629
      01002B8CH   LINE      CODE     ---       #631
      01002B96H   LINE      CODE     ---       #632
      01002BA0H   LINE      CODE     ---       #633
      01002BAAH   LINE      CODE     ---       #635
      01002BB4H   LINE      CODE     ---       #636
      01002BC3H   LINE      CODE     ---       #637
      01002BD2H   LINE      CODE     ---       #638
      01002BD5H   LINE      CODE     ---       #639
      01002BD5H   LINE      CODE     ---       #641
      01002BD7H   LINE      CODE     ---       #660
      01002BE5H   LINE      CODE     ---       #663
      01002BFAH   LINE      CODE     ---       #664
      01002BFCH   LINE      CODE     ---       #665
      01002C11H   LINE      CODE     ---       #666
      01002C13H   LINE      CODE     ---       #667
      01002C28H   LINE      CODE     ---       #668
      01002C2AH   LINE      CODE     ---       #669
      01002C3BH   LINE      CODE     ---       #670
      01002C3DH   LINE      CODE     ---       #672
      01002C40H   LINE      CODE     ---       #673
      01002C4EH   LINE      CODE     ---       #676
      01002C63H   LINE      CODE     ---       #677
      01002C65H   LINE      CODE     ---       #678
      01002C7AH   LINE      CODE     ---       #679
      01002C7CH   LINE      CODE     ---       #680
      01002C91H   LINE      CODE     ---       #681
      01002C93H   LINE      CODE     ---       #682
      01002CA3H   LINE      CODE     ---       #683
      01002CA5H   LINE      CODE     ---       #685
      01002CA7H   LINE      CODE     ---       #686
      01002CB5H   LINE      CODE     ---       #689
      01002CCAH   LINE      CODE     ---       #690
      01002CCCH   LINE      CODE     ---       #691
      01002CE1H   LINE      CODE     ---       #692
      01002CE3H   LINE      CODE     ---       #693
      01002CF8H   LINE      CODE     ---       #694
      01002CFAH   LINE      CODE     ---       #695
      01002D0AH   LINE      CODE     ---       #696
      01002D0CH   LINE      CODE     ---       #697
      01002D0CH   LINE      CODE     ---       #699
      01002D0CH   LINE      CODE     ---       #700
      ---         BLOCKEND  ---      ---       LVL=0

      ---         MODULE    ---      ---       DATAMANAGE
      00000026H.1 PUBLIC    BIT      BIT       deviceLock_flag
      00000076H   PUBLIC    DATA     BYTE      SWITCH_TYPE
      0000007EH   PUBLIC    IDATA    ---       log_buf
      00000075H   PUBLIC    DATA     BYTE      DEV_actReserve
      020006D9H   PUBLIC    XDATA    ---       MAC_ID
      020006D8H   PUBLIC    XDATA    BYTE      loopInsert_relayStatusRealTime_record
      00000026H.0 PUBLIC    BIT      BIT       zigbNwk_exist_FLG
      00000072H   PUBLIC    DATA     ---       CTRLEATHER_PORT
LX51 LINKER/LOCATER V4.66.41.0                                                        02/15/2019  15:28:07  PAGE 36


      00000070H   PUBLIC    DATA     WORD      dev_currentPanid
      020006D2H   PUBLIC    XDATA    ---       MAC_ID_DST
      0100632EH   PUBLIC    CODE     ---       devDataRecovery_relayStatus
      01006F1CH   PUBLIC    CODE     ---       _devParamDtaaSave_relayStatusRealTime
      0100737EH   PUBLIC    CODE     ---       birthDay_Judge
      0100628CH   PUBLIC    CODE     ---       Factory_recover
      01007570H   PUBLIC    CODE     ---       zigbNwkExist_detectReales
      010073A0H   PUBLIC    CODE     ---       statusGet_zigbNwk_nwkExistIF
      00000020H.3 PUBLIC    BIT      BIT       ?statusSave_zigbNwk_nwkExistIF?BIT
      0100718EH   PUBLIC    CODE     ---       statusSave_zigbNwk_nwkExistIF
      01007278H   PUBLIC    CODE     ---       switchTypeReserve_GET
      0100735CH   PUBLIC    CODE     ---       devLockInfo_Reales
      010074FFH   PUBLIC    CODE     ---       portCtrlEachOther_Reales
      01006AD5H   PUBLIC    CODE     ---       MAC_ID_Relaes
      000000D8H.2 SFRSYM    DATA     BIT       CCF2
      000000E0H.7 SFRSYM    DATA     BIT       ACC7
      00000093H   SFRSYM    DATA     BYTE      P0M1
      00000092H   SFRSYM    DATA     BYTE      P1M0
      00000096H   SFRSYM    DATA     BYTE      P2M0
      00000091H   SFRSYM    DATA     BYTE      P1M1
      00000080H   SFRSYM    DATA     BYTE      P0
      000000B2H   SFRSYM    DATA     BYTE      P3M0
      00000095H   SFRSYM    DATA     BYTE      P2M1
      00000090H   SFRSYM    DATA     BYTE      P1
      000000B4H   SFRSYM    DATA     BYTE      P4M0
      000000B1H   SFRSYM    DATA     BYTE      P3M1
      000000A0H   SFRSYM    DATA     BYTE      P2
      000000CAH   SFRSYM    DATA     BYTE      P5M0
      000000B3H   SFRSYM    DATA     BYTE      P4M1
      000000B0H   SFRSYM    DATA     BYTE      P3
      000000ABH   SFRSYM    DATA     BYTE      WKTCH
      000000B0H.4 SFRSYM    DATA     BIT       T0
      000000D0H.6 SFRSYM    DATA     BIT       AC
      000000CCH   SFRSYM    DATA     BYTE      P6M0
      000000C9H   SFRSYM    DATA     BYTE      P5M1
      000000C0H   SFRSYM    DATA     BYTE      P4
      000000B0H.5 SFRSYM    DATA     BIT       CLKOUT0
      000000B0H.5 SFRSYM    DATA     BIT       T1
      000000E2H   SFRSYM    DATA     BYTE      P7M0
      000000CBH   SFRSYM    DATA     BYTE      P6M1
      000000C8H   SFRSYM    DATA     BYTE      P5
      000000C6H   SFRSYM    DATA     BYTE      ISP_TRIG
      000000A8H.7 SFRSYM    DATA     BIT       EA
      000000B0H.4 SFRSYM    DATA     BIT       CLKOUT1
      000000A0H.4 SFRSYM    DATA     BIT       SPI_SS_2
      000000E8H   SFRSYM    DATA     BYTE      P6
      000000E1H   SFRSYM    DATA     BYTE      P7M1
      000000C8H.4 SFRSYM    DATA     BIT       SPI_SS_3
      00000090H.4 SFRSYM    DATA     BIT       SPI_MISO
      00000090H.3 SFRSYM    DATA     BIT       SPI_MOSI
      00000090H.1 SFRSYM    DATA     BIT       CCP0
      000000F8H   SFRSYM    DATA     BYTE      P7
      000000AAH   SFRSYM    DATA     BYTE      WKTCL
      00000090H   SFRSYM    DATA     BIT       CCP1
      000000CEH   SFRSYM    DATA     BYTE      SPCTL
      000000D8H.7 SFRSYM    DATA     BIT       CF
      000000B0H.7 SFRSYM    DATA     BIT       CCP2
      000000F9H   SFRSYM    DATA     BYTE      CH
      000000A2H   SFRSYM    DATA     BYTE      P_SW1
      000000BAH   SFRSYM    DATA     BYTE      P_SW2
      000000A8H.5 SFRSYM    DATA     BIT       EADC
      000000A0H.1 SFRSYM    DATA     BIT       SPI_SCLK_2
      000000A8H   SFRSYM    DATA     BYTE      IE
      000000C0H.3 SFRSYM    DATA     BIT       SPI_SCLK_3
      000000E9H   SFRSYM    DATA     BYTE      CL
LX51 LINKER/LOCATER V4.66.41.0                                                        02/15/2019  15:28:07  PAGE 37


      000000C5H   SFRSYM    DATA     BYTE      IAP_CMD
      000000FAH   SFRSYM    DATA     BYTE      CCAP0H
      000000FBH   SFRSYM    DATA     BYTE      CCAP1H
      000000FCH   SFRSYM    DATA     BYTE      CCAP2H
      000000BDH   SFRSYM    DATA     BYTE      ADC_RES
      000000B6H   SFRSYM    DATA     BYTE      IPH2
      000000D8H.6 SFRSYM    DATA     BIT       CR
      000000EAH   SFRSYM    DATA     BYTE      CCAP0L
      000000B0H.7 SFRSYM    DATA     BIT       RD
      000000EBH   SFRSYM    DATA     BYTE      CCAP1L
      000000DAH   SFRSYM    DATA     BYTE      CCAPM0
      000000ECH   SFRSYM    DATA     BYTE      CCAP2L
      000000DBH   SFRSYM    DATA     BYTE      CCAPM1
      000000A8H.4 SFRSYM    DATA     BIT       ES
      000000DCH   SFRSYM    DATA     BYTE      CCAPM2
      000000B8H.5 SFRSYM    DATA     BIT       PADC
      000000A0H.2 SFRSYM    DATA     BIT       SPI_MISO_2
      000000A0H.3 SFRSYM    DATA     BIT       SPI_MOSI_2
      000000B8H   SFRSYM    DATA     BYTE      IP
      000000C0H.1 SFRSYM    DATA     BIT       SPI_MISO_3
      000000C0H   SFRSYM    DATA     BIT       SPI_MOSI_3
      00000098H   SFRSYM    DATA     BIT       RI
      000000B0H.2 SFRSYM    DATA     BIT       INT0
      000000D0H.7 SFRSYM    DATA     BIT       CY
      00000098H.1 SFRSYM    DATA     BIT       TI
      000000B0H.3 SFRSYM    DATA     BIT       INT1
      00000097H   SFRSYM    DATA     BYTE      CLK_DIV
      000000C3H   SFRSYM    DATA     BYTE      IAP_ADDRH
      00000090H   SFRSYM    DATA     BIT       RXD2
      000000C5H   SFRSYM    DATA     BYTE      ISP_CMD
      000000B8H.4 SFRSYM    DATA     BIT       PS
      00000090H.1 SFRSYM    DATA     BIT       TXD2
      00000081H   SFRSYM    DATA     BYTE      SP
      000000D9H   SFRSYM    DATA     BYTE      CMOD
      000000D8H   SFRSYM    DATA     BYTE      CCON
      000000C4H   SFRSYM    DATA     BYTE      IAP_ADDRL
      000000B8H.7 SFRSYM    DATA     BIT       PPCA
      000000D0H.2 SFRSYM    DATA     BIT       OV
      000000B0H.6 SFRSYM    DATA     BIT       WR
      000000A8H.6 SFRSYM    DATA     BIT       ELVD
      00000080H   SFRSYM    DATA     BIT       P00
      00000090H   SFRSYM    DATA     BIT       P10
      00000080H.1 SFRSYM    DATA     BIT       P01
      000000BCH   SFRSYM    DATA     BYTE      ADC_CONTR
      00000099H   SFRSYM    DATA     BYTE      SBUF
      00000087H   SFRSYM    DATA     BYTE      PCON
      000000A0H   SFRSYM    DATA     BIT       P20
      00000090H.1 SFRSYM    DATA     BIT       P11
      00000080H.2 SFRSYM    DATA     BIT       P02
      000000C3H   SFRSYM    DATA     BYTE      ISP_ADDRH
      000000B0H   SFRSYM    DATA     BIT       P30
      000000A0H.1 SFRSYM    DATA     BIT       P21
      00000090H.2 SFRSYM    DATA     BIT       P12
      00000080H.3 SFRSYM    DATA     BIT       P03
      000000C0H   SFRSYM    DATA     BIT       P40
      000000B0H.1 SFRSYM    DATA     BIT       P31
      000000A0H.2 SFRSYM    DATA     BIT       P22
      00000090H.3 SFRSYM    DATA     BIT       P13
      00000080H.4 SFRSYM    DATA     BIT       P04
      00000098H   SFRSYM    DATA     BYTE      SCON
      0000008FH   SFRSYM    DATA     BYTE      WAKE_CLKO
      000000C8H   SFRSYM    DATA     BIT       P50
      000000C0H.1 SFRSYM    DATA     BIT       P41
      000000B0H.2 SFRSYM    DATA     BIT       P32
      000000A0H.3 SFRSYM    DATA     BIT       P23
LX51 LINKER/LOCATER V4.66.41.0                                                        02/15/2019  15:28:07  PAGE 38


      00000090H.4 SFRSYM    DATA     BIT       P14
      00000080H.5 SFRSYM    DATA     BIT       P05
      00000089H   SFRSYM    DATA     BYTE      TMOD
      00000088H   SFRSYM    DATA     BYTE      TCON
      000000C8H.1 SFRSYM    DATA     BIT       P51
      000000C0H.2 SFRSYM    DATA     BIT       P42
      000000B0H.3 SFRSYM    DATA     BIT       P33
      000000A0H.4 SFRSYM    DATA     BIT       P24
      00000090H.5 SFRSYM    DATA     BIT       P15
      00000080H.6 SFRSYM    DATA     BIT       P06
      000000C4H   SFRSYM    DATA     BYTE      ISP_ADDRL
      000000B8H.6 SFRSYM    DATA     BIT       PLVD
      000000C8H.2 SFRSYM    DATA     BIT       P52
      000000C0H.3 SFRSYM    DATA     BIT       P43
      000000B0H.4 SFRSYM    DATA     BIT       P34
      000000A0H.5 SFRSYM    DATA     BIT       P25
      00000090H.6 SFRSYM    DATA     BIT       P16
      00000080H.7 SFRSYM    DATA     BIT       P07
      000000C8H.3 SFRSYM    DATA     BIT       P53
      000000C0H.4 SFRSYM    DATA     BIT       P44
      000000B0H.5 SFRSYM    DATA     BIT       P35
      000000A0H.6 SFRSYM    DATA     BIT       P26
      00000090H.7 SFRSYM    DATA     BIT       P17
      000000C8H.4 SFRSYM    DATA     BIT       P54
      000000C0H.5 SFRSYM    DATA     BIT       P45
      000000B0H.6 SFRSYM    DATA     BIT       P36
      000000A0H.7 SFRSYM    DATA     BIT       P27
      000000C8H.5 SFRSYM    DATA     BIT       P55
      000000C0H.6 SFRSYM    DATA     BIT       P46
      000000B0H.7 SFRSYM    DATA     BIT       P37
      000000C8H.6 SFRSYM    DATA     BIT       P56
      000000C0H.7 SFRSYM    DATA     BIT       P47
      000000C8H.7 SFRSYM    DATA     BIT       P57
      00000088H.1 SFRSYM    DATA     BIT       IE0
      000000A1H   SFRSYM    DATA     BYTE      BUS_SPEED
      00000088H.3 SFRSYM    DATA     BIT       IE1
      000000AFH   SFRSYM    DATA     BYTE      IE2
      000000F0H   SFRSYM    DATA     BYTE      B
      0000008EH   SFRSYM    DATA     BYTE      AUXR
      000000C7H   SFRSYM    DATA     BYTE      IAP_CONTR
      000000E0H   SFRSYM    DATA     BYTE      ACC
      000000A8H.1 SFRSYM    DATA     BIT       ET0
      000000A8H.3 SFRSYM    DATA     BIT       ET1
      00000088H.5 SFRSYM    DATA     BIT       TF0
      00000088H.7 SFRSYM    DATA     BIT       TF1
      000000B5H   SFRSYM    DATA     BYTE      IP2
      0000008CH   SFRSYM    DATA     BYTE      RL_TH0
      00000098H.2 SFRSYM    DATA     BIT       RB8
      0000008DH   SFRSYM    DATA     BYTE      RL_TH1
      0000008CH   SFRSYM    DATA     BYTE      TH0
      000000A8H   SFRSYM    DATA     BIT       EX0
      00000088H   SFRSYM    DATA     BIT       IT0
      000000D6H   SFRSYM    DATA     BYTE      RL_T2H
      0000008DH   SFRSYM    DATA     BYTE      TH1
      000000A8H.2 SFRSYM    DATA     BIT       EX1
      00000098H.3 SFRSYM    DATA     BIT       TB8
      00000088H.2 SFRSYM    DATA     BIT       IT1
      000000D4H   SFRSYM    DATA     BYTE      RL_T3H
      000000D6H   SFRSYM    DATA     BYTE      TH2
      000000D6H   SFRSYM    DATA     BYTE      T2H
      000000D0H   SFRSYM    DATA     BIT       P
      000000D2H   SFRSYM    DATA     BYTE      RL_T4H
      000000D4H   SFRSYM    DATA     BYTE      TH3
      000000D4H   SFRSYM    DATA     BYTE      T3H
      0000008AH   SFRSYM    DATA     BYTE      RL_TL0
LX51 LINKER/LOCATER V4.66.41.0                                                        02/15/2019  15:28:07  PAGE 39


      00000098H.7 SFRSYM    DATA     BIT       SM0
      000000D2H   SFRSYM    DATA     BYTE      TH4
      000000D2H   SFRSYM    DATA     BYTE      T4H
      0000008BH   SFRSYM    DATA     BYTE      RL_TL1
      0000008AH   SFRSYM    DATA     BYTE      TL0
      00000098H.6 SFRSYM    DATA     BIT       SM1
      000000D7H   SFRSYM    DATA     BYTE      RL_T2L
      0000008BH   SFRSYM    DATA     BYTE      TL1
      00000098H.5 SFRSYM    DATA     BIT       SM2
      000000D5H   SFRSYM    DATA     BYTE      RL_T3L
      000000D7H   SFRSYM    DATA     BYTE      TL2
      000000D7H   SFRSYM    DATA     BYTE      T2L
      000000D3H   SFRSYM    DATA     BYTE      RL_T4L
      000000D5H   SFRSYM    DATA     BYTE      TL3
      000000D5H   SFRSYM    DATA     BYTE      T3L
      000000B8H.1 SFRSYM    DATA     BIT       PT0
      000000D3H   SFRSYM    DATA     BYTE      TL4
      000000D3H   SFRSYM    DATA     BYTE      T4L
      000000B8H.3 SFRSYM    DATA     BIT       PT1
      000000D0H.3 SFRSYM    DATA     BIT       RS0
      000000C7H   SFRSYM    DATA     BYTE      ISP_CONTR
      00000088H.4 SFRSYM    DATA     BIT       TR0
      000000D0H.4 SFRSYM    DATA     BIT       RS1
      000000C2H   SFRSYM    DATA     BYTE      IAP_DATA
      00000088H.6 SFRSYM    DATA     BIT       TR1
      000000B8H   SFRSYM    DATA     BIT       PX0
      000000C1H   SFRSYM    DATA     BYTE      WDT_CONTR
      000000B8H.2 SFRSYM    DATA     BIT       PX1
      000000F2H   SFRSYM    DATA     BYTE      PCA_PWM0
      000000F3H   SFRSYM    DATA     BYTE      PCA_PWM1
      000000F4H   SFRSYM    DATA     BYTE      PCA_PWM2
      0000009DH   SFRSYM    DATA     BYTE      P1ASF
      00000083H   SFRSYM    DATA     BYTE      DPH
      000000D1H   SFRSYM    DATA     BYTE      T4T3M
      000000BEH   SFRSYM    DATA     BYTE      ADC_RESL
      00000082H   SFRSYM    DATA     BYTE      DPL
      000000CDH   SFRSYM    DATA     BYTE      SPSTAT
      000000B7H   SFRSYM    DATA     BYTE      IPH
      0000009BH   SFRSYM    DATA     BYTE      S2BUF
      00000097H   SFRSYM    DATA     BYTE      PCON2
      000000ADH   SFRSYM    DATA     BYTE      S3BUF
      00000098H.4 SFRSYM    DATA     BIT       REN
      00000085H   SFRSYM    DATA     BYTE      S4BUF
      0000009AH   SFRSYM    DATA     BYTE      S2CON
      000000ACH   SFRSYM    DATA     BYTE      S3CON
      000000C2H   SFRSYM    DATA     BYTE      ISP_DATA
      00000084H   SFRSYM    DATA     BYTE      S4CON
      000000B9H   SFRSYM    DATA     BYTE      SADEN
      000000B0H   SFRSYM    DATA     BIT       RXD
      000000A9H   SFRSYM    DATA     BYTE      SADDR
      000000B0H.1 SFRSYM    DATA     BIT       TXD
      000000F0H   SFRSYM    DATA     BIT       B0
      000000F0H.1 SFRSYM    DATA     BIT       B1
      000000C6H   SFRSYM    DATA     BYTE      IAP_TRIG
      000000A2H   SFRSYM    DATA     BYTE      AUXR1
      000000F0H.2 SFRSYM    DATA     BIT       B2
      00000090H.2 SFRSYM    DATA     BIT       SPI_SS
      0000008FH   SFRSYM    DATA     BYTE      AUXR2
      000000F0H.3 SFRSYM    DATA     BIT       B3
      000000F0H.4 SFRSYM    DATA     BIT       B4
      000000D0H.5 SFRSYM    DATA     BIT       F0
      000000F0H.5 SFRSYM    DATA     BIT       B5
      000000D0H.1 SFRSYM    DATA     BIT       F1
      0000008FH   SFRSYM    DATA     BYTE      INT_CLKO
      000000F0H.6 SFRSYM    DATA     BIT       B6
LX51 LINKER/LOCATER V4.66.41.0                                                        02/15/2019  15:28:07  PAGE 40


      000000E0H   SFRSYM    DATA     BIT       ACC0
      000000F0H.7 SFRSYM    DATA     BIT       B7
      000000E0H.1 SFRSYM    DATA     BIT       ACC1
      000000E0H.2 SFRSYM    DATA     BIT       ACC2
      000000E0H.3 SFRSYM    DATA     BIT       ACC3
      000000D0H   SFRSYM    DATA     BYTE      PSW
      000000E0H.4 SFRSYM    DATA     BIT       ACC4
      00000090H.5 SFRSYM    DATA     BIT       SPI_SCLK
      000000D8H   SFRSYM    DATA     BIT       CCF0
      000000E0H.5 SFRSYM    DATA     BIT       ACC5
      000000D8H.1 SFRSYM    DATA     BIT       CCF1
      000000E0H.6 SFRSYM    DATA     BIT       ACC6
      000000CFH   SFRSYM    DATA     BYTE      SPDAT
      00000094H   SFRSYM    DATA     BYTE      P0M0
      010052D1H   SYMBOL    CODE     ---       _?ix1000
      01005351H   SYMBOL    CODE     ---       _?ix1001
      010053B5H   SYMBOL    CODE     ---       _?ix1002

      01006ED3H   BLOCK     CODE     ---       LVL=0
      ---         BLOCKEND  ---      ---       LVL=0

      01006AD5H   BLOCK     CODE     ---       LVL=0
      01006AD5H   BLOCK     CODE     NEAR LAB  LVL=1
      00000006H   SYMBOL    DATA     ---       id_ptr
      ---         BLOCKEND  ---      ---       LVL=1
      01006AD5H   LINE      CODE     ---       #58
      01006AD5H   LINE      CODE     ---       #60
      01006AD9H   LINE      CODE     ---       #62
      01006AF2H   LINE      CODE     ---       #65
      01006AF2H   LINE      CODE     ---       #67
      01006AFEH   LINE      CODE     ---       #69
      01006B1AH   LINE      CODE     ---       #70
      01006B20H   LINE      CODE     ---       #71
      01006B3CH   LINE      CODE     ---       #72
      ---         BLOCKEND  ---      ---       LVL=0

      010074FFH   BLOCK     CODE     ---       LVL=0
      010074FFH   LINE      CODE     ---       #80
      010074FFH   LINE      CODE     ---       #82
      ---         BLOCKEND  ---      ---       LVL=0

      0100735CH   BLOCK     CODE     ---       LVL=0
      0100735CH   BLOCK     CODE     NEAR LAB  LVL=1
      02000000H   SYMBOL    XDATA    BYTE      deviceLock_IF
      ---         BLOCKEND  ---      ---       LVL=1
      0100735CH   LINE      CODE     ---       #85
      0100735CH   LINE      CODE     ---       #87
      01007361H   LINE      CODE     ---       #89
      01007372H   LINE      CODE     ---       #91
      0100737DH   LINE      CODE     ---       #92
      ---         BLOCKEND  ---      ---       LVL=0

      01007278H   BLOCK     CODE     ---       LVL=0
      01007278H   BLOCK     CODE     NEAR LAB  LVL=1
      00000029H   SYMBOL    DATA     BYTE      act_Reserve
      ---         BLOCKEND  ---      ---       LVL=1
      01007278H   LINE      CODE     ---       #95
      01007278H   LINE      CODE     ---       #97
      0100727BH   LINE      CODE     ---       #110
      01007290H   LINE      CODE     ---       #112
      01007290H   LINE      CODE     ---       #113
      01007290H   LINE      CODE     ---       #115
      01007293H   LINE      CODE     ---       #117
      01007295H   LINE      CODE     ---       #119
      01007295H   LINE      CODE     ---       #121
LX51 LINKER/LOCATER V4.66.41.0                                                        02/15/2019  15:28:07  PAGE 41


      01007298H   LINE      CODE     ---       #123
      0100729AH   LINE      CODE     ---       #125
      0100729AH   LINE      CODE     ---       #126
      0100729AH   LINE      CODE     ---       #128
      0100729DH   LINE      CODE     ---       #130
      0100729DH   LINE      CODE     ---       #131
      0100729DH   LINE      CODE     ---       #135
      0100729FH   LINE      CODE     ---       #136
      ---         BLOCKEND  ---      ---       LVL=0

      0100718EH   BLOCK     CODE     ---       LVL=0
      00000020H.3 SYMBOL    BIT      BIT       nwkExistIF
      0100718EH   BLOCK     CODE     NEAR LAB  LVL=1
      000000C9H   SYMBOL    IDATA    BYTE      dataTemp
      ---         BLOCKEND  ---      ---       LVL=1
      0100718EH   LINE      CODE     ---       #138
      0100718EH   LINE      CODE     ---       #140
      01007192H   LINE      CODE     ---       #142
      01007196H   LINE      CODE     ---       #144
      010071A1H   LINE      CODE     ---       #146
      010071B4H   LINE      CODE     ---       #149
      010071B4H   LINE      CODE     ---       #151
      010071B4H   LINE      CODE     ---       #153
      010071BAH   LINE      CODE     ---       #154
      ---         BLOCKEND  ---      ---       LVL=0

      010073A0H   BLOCK     CODE     ---       LVL=0
      010073A0H   BLOCK     CODE     NEAR LAB  LVL=1
      000000BEH   SYMBOL    IDATA    BYTE      dataTemp
      ---         BLOCKEND  ---      ---       LVL=1
      010073A0H   LINE      CODE     ---       #160
      010073A0H   LINE      CODE     ---       #162
      010073A4H   LINE      CODE     ---       #164
      010073B4H   LINE      CODE     ---       #166
      010073BCH   LINE      CODE     ---       #167
      010073BDH   LINE      CODE     ---       #168
      ---         BLOCKEND  ---      ---       LVL=0

      01007570H   BLOCK     CODE     ---       LVL=0
      01007570H   LINE      CODE     ---       #170
      01007570H   LINE      CODE     ---       #172
      01007575H   LINE      CODE     ---       #175
      01007575H   LINE      CODE     ---       #177
      01007575H   LINE      CODE     ---       #179
      0100757BH   LINE      CODE     ---       #180
      ---         BLOCKEND  ---      ---       LVL=0

      0100628CH   BLOCK     CODE     ---       LVL=0
      0100628CH   BLOCK     CODE     NEAR LAB  LVL=1
      02000213H   SYMBOL    XDATA    ---       datsTemp
      ---         BLOCKEND  ---      ---       LVL=1
      0100628CH   LINE      CODE     ---       #285
      0100628CH   LINE      CODE     ---       #287
      0100629FH   LINE      CODE     ---       #289
      010062AEH   LINE      CODE     ---       #290
      010062B3H   LINE      CODE     ---       #291
      010062C3H   LINE      CODE     ---       #293
      010062CFH   LINE      CODE     ---       #294
      010062DFH   LINE      CODE     ---       #296
      010062E3H   LINE      CODE     ---       #297
      010062EDH   LINE      CODE     ---       #306
      010062EDH   LINE      CODE     ---       #307
      010062F7H   LINE      CODE     ---       #311
      010062F7H   LINE      CODE     ---       #312
      01006305H   LINE      CODE     ---       #314
LX51 LINKER/LOCATER V4.66.41.0                                                        02/15/2019  15:28:07  PAGE 42


      01006314H   LINE      CODE     ---       #316
      0100631BH   LINE      CODE     ---       #318
      0100631EH   LINE      CODE     ---       #319
      ---         BLOCKEND  ---      ---       LVL=0

      0100737EH   BLOCK     CODE     ---       LVL=0
      0100737EH   BLOCK     CODE     NEAR LAB  LVL=1
      02000000H   SYMBOL    XDATA    BYTE      datsTemp
      ---         BLOCKEND  ---      ---       LVL=1
      0100737EH   LINE      CODE     ---       #321
      0100737EH   LINE      CODE     ---       #323
      01007383H   LINE      CODE     ---       #325
      01007394H   LINE      CODE     ---       #326
      0100739CH   LINE      CODE     ---       #328
      0100739FH   LINE      CODE     ---       #329
      0100739FH   LINE      CODE     ---       #330
      ---         BLOCKEND  ---      ---       LVL=0

      01006F1CH   BLOCK     CODE     ---       LVL=0
      0000002AH   SYMBOL    DATA     BYTE      currentRelayStatus
      01006F1EH   BLOCK     CODE     NEAR LAB  LVL=1
      02000000H   SYMBOL    XDATA    ---       dataRead_temp
      ---         BLOCKEND  ---      ---       LVL=1
      01006F1CH   LINE      CODE     ---       #380
      01006F1EH   LINE      CODE     ---       #382
      01006F29H   LINE      CODE     ---       #384
      01006F32H   LINE      CODE     ---       #386
      01006F34H   LINE      CODE     ---       #387
      01006F3AH   LINE      CODE     ---       #388
      01006F3AH   LINE      CODE     ---       #390
      01006F4EH   LINE      CODE     ---       #392
      ---         BLOCKEND  ---      ---       LVL=0

      0100632EH   BLOCK     CODE     ---       LVL=0
      0100632EH   BLOCK     CODE     NEAR LAB  LVL=1
      02000000H   SYMBOL    XDATA    ---       dataRead_temp
      02000064H   SYMBOL    XDATA    BYTE      loop
      02000065H   SYMBOL    XDATA    BYTE      res
      ---         BLOCKEND  ---      ---       LVL=1
      0100632EH   LINE      CODE     ---       #395
      0100632EH   LINE      CODE     ---       #397
      01006339H   LINE      CODE     ---       #398
      0100633EH   LINE      CODE     ---       #399
      01006340H   LINE      CODE     ---       #401
      01006351H   LINE      CODE     ---       #403
      01006360H   LINE      CODE     ---       #405
      0100636EH   LINE      CODE     ---       #407
      01006387H   LINE      CODE     ---       #409
      01006387H   LINE      CODE     ---       #411
      01006393H   LINE      CODE     ---       #413
      010063A8H   LINE      CODE     ---       #414
      010063AEH   LINE      CODE     ---       #415
      010063AEH   LINE      CODE     ---       #417
      010063B0H   LINE      CODE     ---       #418
      010063B0H   LINE      CODE     ---       #419
      010063B8H   LINE      CODE     ---       #421
      010063BFH   LINE      CODE     ---       #423
      010063C4H   LINE      CODE     ---       #424
      ---         BLOCKEND  ---      ---       LVL=0

      ---         MODULE    ---      ---       TIPS
      020006BEH   PUBLIC    XDATA    BYTE      tipsTimeCount_touchReset
      0000001FH   PUBLIC    DATA     BYTE      devTips_status
      020006BBH   PUBLIC    XDATA    ---       zigbNwk_Tips
      020006B8H   PUBLIC    XDATA    ---       devTips_beep
LX51 LINKER/LOCATER V4.66.41.0                                                        02/15/2019  15:28:07  PAGE 43


      020006B7H   PUBLIC    XDATA    BYTE      counter_ifTipsFree
      020006B4H   PUBLIC    XDATA    ---       relay3_Tips
      020006B1H   PUBLIC    XDATA    ---       relay2_Tips
      020006B0H   PUBLIC    XDATA    BYTE      tipsTimeCount_zigNwkOpen
      020006ADH   PUBLIC    XDATA    ---       relay1_Tips
      020006ABH   PUBLIC    XDATA    WORD      counter_tipsAct
      020006AAH   PUBLIC    XDATA    BYTE      dev_statusBeeps
      020006A8H   PUBLIC    XDATA    ---       devBackgroundLight_param
      0000001EH   PUBLIC    DATA     BYTE      devTips_nwkZigb
      020006A7H   PUBLIC    XDATA    BYTE      tipsTimeCount_factoryRecover
      00000025H.0 PUBLIC    BIT      BIT       countEN_ifTipsFree
      00000024H.7 PUBLIC    BIT      BIT       ifHorsingLight_running_FLAG
      01006E28H   PUBLIC    CODE     ---       tips_relayUnused
      01006E0AH   PUBLIC    CODE     ---       color_Tab
      01004CC7H   PUBLIC    CODE     ---       tips_sysButtonReales
      01000003H   PUBLIC    CODE     ---       tips_sysStandBy
      01007224H   PUBLIC    CODE     ---       tips_sysTouchReset
      010050B4H   PUBLIC    CODE     ---       _tips_specified
      0100690DH   PUBLIC    CODE     ---       tips_warning
      00000028H   PUBLIC    DATA     BYTE      ?_tipsLED_colorSet?BYTE
      01006C7FH   PUBLIC    CODE     ---       _tipsLED_colorSet
      01003A52H   PUBLIC    CODE     ---       thread_Tips
      010074BEH   PUBLIC    CODE     ---       _tips_statusChangeToFactoryRecover
      01007512H   PUBLIC    CODE     ---       _tips_statusChangeToTouchReset
      010075C3H   PUBLIC    CODE     ---       tips_statusChangeToZigbNwkFind
      01007476H   PUBLIC    CODE     ---       _tips_statusChangeToZigbNwkOpen
      0100745EH   PUBLIC    CODE     ---       tips_statusChangeToNormal
      01006BADH   PUBLIC    CODE     ---       _thread_tipsGetDark
      010073F8H   PUBLIC    CODE     ---       _beeps_usrActive
      01006E36H   PUBLIC    CODE     ---       ledBKGColorSw_Reales
      0100761AH   PUBLIC    CODE     ---       pinBeep_Init
      010070E6H   PUBLIC    CODE     ---       tipLED_pinInit
      000000D8H.2 SFRSYM    DATA     BIT       CCF2
      000000E0H.7 SFRSYM    DATA     BIT       ACC7
      00000093H   SFRSYM    DATA     BYTE      P0M1
      00000092H   SFRSYM    DATA     BYTE      P1M0
      00000096H   SFRSYM    DATA     BYTE      P2M0
      00000091H   SFRSYM    DATA     BYTE      P1M1
      00000080H   SFRSYM    DATA     BYTE      P0
      000000B2H   SFRSYM    DATA     BYTE      P3M0
      00000095H   SFRSYM    DATA     BYTE      P2M1
      00000090H   SFRSYM    DATA     BYTE      P1
      000000B4H   SFRSYM    DATA     BYTE      P4M0
      000000B1H   SFRSYM    DATA     BYTE      P3M1
      000000A0H   SFRSYM    DATA     BYTE      P2
      000000CAH   SFRSYM    DATA     BYTE      P5M0
      000000B3H   SFRSYM    DATA     BYTE      P4M1
      000000B0H   SFRSYM    DATA     BYTE      P3
      000000ABH   SFRSYM    DATA     BYTE      WKTCH
      000000B0H.4 SFRSYM    DATA     BIT       T0
      000000D0H.6 SFRSYM    DATA     BIT       AC
      000000CCH   SFRSYM    DATA     BYTE      P6M0
      000000C9H   SFRSYM    DATA     BYTE      P5M1
      000000C0H   SFRSYM    DATA     BYTE      P4
      000000B0H.5 SFRSYM    DATA     BIT       CLKOUT0
      000000B0H.5 SFRSYM    DATA     BIT       T1
      000000E2H   SFRSYM    DATA     BYTE      P7M0
      000000CBH   SFRSYM    DATA     BYTE      P6M1
      000000C8H   SFRSYM    DATA     BYTE      P5
      000000C6H   SFRSYM    DATA     BYTE      ISP_TRIG
      000000A8H.7 SFRSYM    DATA     BIT       EA
      000000B0H.4 SFRSYM    DATA     BIT       CLKOUT1
      000000A0H.4 SFRSYM    DATA     BIT       SPI_SS_2
      000000E8H   SFRSYM    DATA     BYTE      P6
      000000E1H   SFRSYM    DATA     BYTE      P7M1
LX51 LINKER/LOCATER V4.66.41.0                                                        02/15/2019  15:28:07  PAGE 44


      000000C8H.4 SFRSYM    DATA     BIT       SPI_SS_3
      00000090H.4 SFRSYM    DATA     BIT       SPI_MISO
      00000090H.3 SFRSYM    DATA     BIT       SPI_MOSI
      00000090H.1 SFRSYM    DATA     BIT       CCP0
      000000F8H   SFRSYM    DATA     BYTE      P7
      000000AAH   SFRSYM    DATA     BYTE      WKTCL
      00000090H   SFRSYM    DATA     BIT       CCP1
      000000CEH   SFRSYM    DATA     BYTE      SPCTL
      000000D8H.7 SFRSYM    DATA     BIT       CF
      000000B0H.7 SFRSYM    DATA     BIT       CCP2
      000000F9H   SFRSYM    DATA     BYTE      CH
      000000A2H   SFRSYM    DATA     BYTE      P_SW1
      000000BAH   SFRSYM    DATA     BYTE      P_SW2
      000000A8H.5 SFRSYM    DATA     BIT       EADC
      000000A0H.1 SFRSYM    DATA     BIT       SPI_SCLK_2
      000000A8H   SFRSYM    DATA     BYTE      IE
      000000C0H.3 SFRSYM    DATA     BIT       SPI_SCLK_3
      000000E9H   SFRSYM    DATA     BYTE      CL
      000000C5H   SFRSYM    DATA     BYTE      IAP_CMD
      000000FAH   SFRSYM    DATA     BYTE      CCAP0H
      00000090H   SFRSYM    DATA     BIT       Dcode0
      000000FBH   SFRSYM    DATA     BYTE      CCAP1H
      00000090H.1 SFRSYM    DATA     BIT       Dcode1
      000000FCH   SFRSYM    DATA     BYTE      CCAP2H
      00000090H.2 SFRSYM    DATA     BIT       Dcode2
      000000BDH   SFRSYM    DATA     BYTE      ADC_RES
      000000B6H   SFRSYM    DATA     BYTE      IPH2
      00000090H.3 SFRSYM    DATA     BIT       Dcode3
      000000D8H.6 SFRSYM    DATA     BIT       CR
      000000EAH   SFRSYM    DATA     BYTE      CCAP0L
      00000090H.4 SFRSYM    DATA     BIT       Dcode4
      000000B0H.7 SFRSYM    DATA     BIT       RD
      000000EBH   SFRSYM    DATA     BYTE      CCAP1L
      000000DAH   SFRSYM    DATA     BYTE      CCAPM0
      00000090H.3 SFRSYM    DATA     BIT       Dcode5
      000000ECH   SFRSYM    DATA     BYTE      CCAP2L
      000000DBH   SFRSYM    DATA     BYTE      CCAPM1
      000000A8H.4 SFRSYM    DATA     BIT       ES
      000000DCH   SFRSYM    DATA     BYTE      CCAPM2
      000000B8H.5 SFRSYM    DATA     BIT       PADC
      000000A0H.2 SFRSYM    DATA     BIT       SPI_MISO_2
      000000A0H.3 SFRSYM    DATA     BIT       SPI_MOSI_2
      000000B8H   SFRSYM    DATA     BYTE      IP
      000000C0H.1 SFRSYM    DATA     BIT       SPI_MISO_3
      000000C0H   SFRSYM    DATA     BIT       SPI_MOSI_3
      00000098H   SFRSYM    DATA     BIT       RI
      000000B0H.2 SFRSYM    DATA     BIT       INT0
      000000D0H.7 SFRSYM    DATA     BIT       CY
      00000098H.1 SFRSYM    DATA     BIT       TI
      000000B0H.3 SFRSYM    DATA     BIT       INT1
      00000097H   SFRSYM    DATA     BYTE      CLK_DIV
      000000C3H   SFRSYM    DATA     BYTE      IAP_ADDRH
      00000090H   SFRSYM    DATA     BIT       RXD2
      000000C5H   SFRSYM    DATA     BYTE      ISP_CMD
      000000B8H.4 SFRSYM    DATA     BIT       PS
      00000090H.1 SFRSYM    DATA     BIT       TXD2
      00000081H   SFRSYM    DATA     BYTE      SP
      000000D9H   SFRSYM    DATA     BYTE      CMOD
      000000D8H   SFRSYM    DATA     BYTE      CCON
      000000C4H   SFRSYM    DATA     BYTE      IAP_ADDRL
      000000B8H.7 SFRSYM    DATA     BIT       PPCA
      000000D0H.2 SFRSYM    DATA     BIT       OV
      000000B0H.6 SFRSYM    DATA     BIT       WR
      000000A8H.6 SFRSYM    DATA     BIT       ELVD
      00000080H   SFRSYM    DATA     BIT       P00
LX51 LINKER/LOCATER V4.66.41.0                                                        02/15/2019  15:28:07  PAGE 45


      00000090H   SFRSYM    DATA     BIT       P10
      00000080H.1 SFRSYM    DATA     BIT       P01
      000000BCH   SFRSYM    DATA     BYTE      ADC_CONTR
      00000099H   SFRSYM    DATA     BYTE      SBUF
      00000087H   SFRSYM    DATA     BYTE      PCON
      000000A0H   SFRSYM    DATA     BIT       P20
      00000090H.1 SFRSYM    DATA     BIT       P11
      00000080H.2 SFRSYM    DATA     BIT       P02
      000000C3H   SFRSYM    DATA     BYTE      ISP_ADDRH
      000000B0H   SFRSYM    DATA     BIT       P30
      000000A0H.1 SFRSYM    DATA     BIT       P21
      00000090H.2 SFRSYM    DATA     BIT       P12
      00000080H.3 SFRSYM    DATA     BIT       P03
      000000C0H   SFRSYM    DATA     BIT       P40
      000000B0H.1 SFRSYM    DATA     BIT       P31
      000000A0H.2 SFRSYM    DATA     BIT       P22
      00000090H.3 SFRSYM    DATA     BIT       P13
      00000080H.4 SFRSYM    DATA     BIT       P04
      00000098H   SFRSYM    DATA     BYTE      SCON
      0000008FH   SFRSYM    DATA     BYTE      WAKE_CLKO
      000000C8H   SFRSYM    DATA     BIT       P50
      000000C0H.1 SFRSYM    DATA     BIT       P41
      000000B0H.2 SFRSYM    DATA     BIT       P32
      000000A0H.3 SFRSYM    DATA     BIT       P23
      00000090H.4 SFRSYM    DATA     BIT       P14
      00000080H.5 SFRSYM    DATA     BIT       P05
      00000089H   SFRSYM    DATA     BYTE      TMOD
      00000088H   SFRSYM    DATA     BYTE      TCON
      000000C8H.1 SFRSYM    DATA     BIT       P51
      000000C0H.2 SFRSYM    DATA     BIT       P42
      000000B0H.3 SFRSYM    DATA     BIT       P33
      000000A0H.4 SFRSYM    DATA     BIT       P24
      00000090H.5 SFRSYM    DATA     BIT       P15
      00000080H.6 SFRSYM    DATA     BIT       P06
      000000C4H   SFRSYM    DATA     BYTE      ISP_ADDRL
      000000B8H.6 SFRSYM    DATA     BIT       PLVD
      000000C8H.2 SFRSYM    DATA     BIT       P52
      000000C0H.3 SFRSYM    DATA     BIT       P43
      000000B0H.4 SFRSYM    DATA     BIT       P34
      000000A0H.5 SFRSYM    DATA     BIT       P25
      00000090H.6 SFRSYM    DATA     BIT       P16
      00000080H.7 SFRSYM    DATA     BIT       P07
      000000C8H.3 SFRSYM    DATA     BIT       P53
      000000C0H.4 SFRSYM    DATA     BIT       P44
      000000B0H.5 SFRSYM    DATA     BIT       P35
      000000A0H.6 SFRSYM    DATA     BIT       P26
      00000090H.7 SFRSYM    DATA     BIT       P17
      000000C8H.4 SFRSYM    DATA     BIT       P54
      000000C0H.5 SFRSYM    DATA     BIT       P45
      000000B0H.6 SFRSYM    DATA     BIT       P36
      000000A0H.7 SFRSYM    DATA     BIT       P27
      000000C8H.5 SFRSYM    DATA     BIT       P55
      000000C0H.6 SFRSYM    DATA     BIT       P46
      000000B0H.7 SFRSYM    DATA     BIT       P37
      000000C8H.6 SFRSYM    DATA     BIT       P56
      000000C0H.7 SFRSYM    DATA     BIT       P47
      000000C8H.7 SFRSYM    DATA     BIT       P57
      00000088H.1 SFRSYM    DATA     BIT       IE0
      000000A1H   SFRSYM    DATA     BYTE      BUS_SPEED
      00000088H.3 SFRSYM    DATA     BIT       IE1
      000000AFH   SFRSYM    DATA     BYTE      IE2
      000000F0H   SFRSYM    DATA     BYTE      B
      0000008EH   SFRSYM    DATA     BYTE      AUXR
      000000C7H   SFRSYM    DATA     BYTE      IAP_CONTR
      000000E0H   SFRSYM    DATA     BYTE      ACC
LX51 LINKER/LOCATER V4.66.41.0                                                        02/15/2019  15:28:07  PAGE 46


      000000A8H.1 SFRSYM    DATA     BIT       ET0
      000000A8H.3 SFRSYM    DATA     BIT       ET1
      00000088H.5 SFRSYM    DATA     BIT       TF0
      00000088H.7 SFRSYM    DATA     BIT       TF1
      000000B5H   SFRSYM    DATA     BYTE      IP2
      0000008CH   SFRSYM    DATA     BYTE      RL_TH0
      00000098H.2 SFRSYM    DATA     BIT       RB8
      0000008DH   SFRSYM    DATA     BYTE      RL_TH1
      0000008CH   SFRSYM    DATA     BYTE      TH0
      000000A8H   SFRSYM    DATA     BIT       EX0
      00000088H   SFRSYM    DATA     BIT       IT0
      000000D6H   SFRSYM    DATA     BYTE      RL_T2H
      0000008DH   SFRSYM    DATA     BYTE      TH1
      00000090H.6 SFRSYM    DATA     BIT       touchPad_1
      000000A8H.2 SFRSYM    DATA     BIT       EX1
      00000098H.3 SFRSYM    DATA     BIT       TB8
      00000088H.2 SFRSYM    DATA     BIT       IT1
      000000D4H   SFRSYM    DATA     BYTE      RL_T3H
      000000D6H   SFRSYM    DATA     BYTE      TH2
      000000D6H   SFRSYM    DATA     BYTE      T2H
      00000090H.7 SFRSYM    DATA     BIT       touchPad_2
      000000D0H   SFRSYM    DATA     BIT       P
      000000D2H   SFRSYM    DATA     BYTE      RL_T4H
      000000D4H   SFRSYM    DATA     BYTE      TH3
      000000D4H   SFRSYM    DATA     BYTE      T3H
      0000008AH   SFRSYM    DATA     BYTE      RL_TL0
      00000090H.5 SFRSYM    DATA     BIT       touchPad_3
      00000098H.7 SFRSYM    DATA     BIT       SM0
      000000D2H   SFRSYM    DATA     BYTE      TH4
      000000D2H   SFRSYM    DATA     BYTE      T4H
      0000008BH   SFRSYM    DATA     BYTE      RL_TL1
      0000008AH   SFRSYM    DATA     BYTE      TL0
      00000098H.6 SFRSYM    DATA     BIT       SM1
      000000D7H   SFRSYM    DATA     BYTE      RL_T2L
      0000008BH   SFRSYM    DATA     BYTE      TL1
      00000098H.5 SFRSYM    DATA     BIT       SM2
      000000D5H   SFRSYM    DATA     BYTE      RL_T3L
      000000D7H   SFRSYM    DATA     BYTE      TL2
      000000D7H   SFRSYM    DATA     BYTE      T2L
      000000D3H   SFRSYM    DATA     BYTE      RL_T4L
      000000D5H   SFRSYM    DATA     BYTE      TL3
      000000D5H   SFRSYM    DATA     BYTE      T3L
      000000B8H.1 SFRSYM    DATA     BIT       PT0
      000000D3H   SFRSYM    DATA     BYTE      TL4
      000000D3H   SFRSYM    DATA     BYTE      T4L
      000000B8H.3 SFRSYM    DATA     BIT       PT1
      000000D0H.3 SFRSYM    DATA     BIT       RS0
      000000C7H   SFRSYM    DATA     BYTE      ISP_CONTR
      00000088H.4 SFRSYM    DATA     BIT       TR0
      000000D0H.4 SFRSYM    DATA     BIT       RS1
      000000C2H   SFRSYM    DATA     BYTE      IAP_DATA
      00000088H.6 SFRSYM    DATA     BIT       TR1
      000000B8H   SFRSYM    DATA     BIT       PX0
      000000C1H   SFRSYM    DATA     BYTE      WDT_CONTR
      000000B8H.2 SFRSYM    DATA     BIT       PX1
      000000F2H   SFRSYM    DATA     BYTE      PCA_PWM0
      000000F3H   SFRSYM    DATA     BYTE      PCA_PWM1
      000000F4H   SFRSYM    DATA     BYTE      PCA_PWM2
      0000009DH   SFRSYM    DATA     BYTE      P1ASF
      00000083H   SFRSYM    DATA     BYTE      DPH
      000000D1H   SFRSYM    DATA     BYTE      T4T3M
      000000BEH   SFRSYM    DATA     BYTE      ADC_RESL
      00000082H   SFRSYM    DATA     BYTE      DPL
      000000CDH   SFRSYM    DATA     BYTE      SPSTAT
      000000B7H   SFRSYM    DATA     BYTE      IPH
LX51 LINKER/LOCATER V4.66.41.0                                                        02/15/2019  15:28:07  PAGE 47


      0000009BH   SFRSYM    DATA     BYTE      S2BUF
      00000097H   SFRSYM    DATA     BYTE      PCON2
      000000ADH   SFRSYM    DATA     BYTE      S3BUF
      00000098H.4 SFRSYM    DATA     BIT       REN
      00000085H   SFRSYM    DATA     BYTE      S4BUF
      00000080H.2 SFRSYM    DATA     BIT       Usr_key
      0000009AH   SFRSYM    DATA     BYTE      S2CON
      000000ACH   SFRSYM    DATA     BYTE      S3CON
      000000C2H   SFRSYM    DATA     BYTE      ISP_DATA
      00000084H   SFRSYM    DATA     BYTE      S4CON
      000000B9H   SFRSYM    DATA     BYTE      SADEN
      000000B0H   SFRSYM    DATA     BIT       RXD
      000000A9H   SFRSYM    DATA     BYTE      SADDR
      000000B0H.1 SFRSYM    DATA     BIT       TXD
      000000F0H   SFRSYM    DATA     BIT       B0
      000000F0H.1 SFRSYM    DATA     BIT       B1
      000000C6H   SFRSYM    DATA     BYTE      IAP_TRIG
      000000A2H   SFRSYM    DATA     BYTE      AUXR1
      000000F0H.2 SFRSYM    DATA     BIT       B2
      00000090H.2 SFRSYM    DATA     BIT       SPI_SS
      0000008FH   SFRSYM    DATA     BYTE      AUXR2
      000000F0H.3 SFRSYM    DATA     BIT       B3
      000000F0H.4 SFRSYM    DATA     BIT       B4
      000000D0H.5 SFRSYM    DATA     BIT       F0
      000000F0H.5 SFRSYM    DATA     BIT       B5
      000000D0H.1 SFRSYM    DATA     BIT       F1
      0000008FH   SFRSYM    DATA     BYTE      INT_CLKO
      000000F0H.6 SFRSYM    DATA     BIT       B6
      000000E0H   SFRSYM    DATA     BIT       ACC0
      000000F0H.7 SFRSYM    DATA     BIT       B7
      000000E0H.1 SFRSYM    DATA     BIT       ACC1
      000000E0H.2 SFRSYM    DATA     BIT       ACC2
      000000E0H.3 SFRSYM    DATA     BIT       ACC3
      000000D0H   SFRSYM    DATA     BYTE      PSW
      000000E0H.4 SFRSYM    DATA     BIT       ACC4
      00000090H.5 SFRSYM    DATA     BIT       SPI_SCLK
      000000D8H   SFRSYM    DATA     BIT       CCF0
      000000E0H.5 SFRSYM    DATA     BIT       ACC5
      000000D8H.1 SFRSYM    DATA     BIT       CCF1
      000000E0H.6 SFRSYM    DATA     BIT       ACC6
      000000CFH   SFRSYM    DATA     BYTE      SPDAT
      00000094H   SFRSYM    DATA     BYTE      P0M0

      01004A8AH   BLOCK     CODE     ---       LVL=0
      ---         BLOCKEND  ---      ---       LVL=0

      010070E6H   BLOCK     CODE     ---       LVL=0
      010070E6H   LINE      CODE     ---       #51
      010070E6H   LINE      CODE     ---       #65
      010070E9H   LINE      CODE     ---       #66
      010070ECH   LINE      CODE     ---       #68
      010070EFH   LINE      CODE     ---       #69
      010070F2H   LINE      CODE     ---       #71
      010070F5H   LINE      CODE     ---       #72
      010070F8H   LINE      CODE     ---       #76
      010070FBH   LINE      CODE     ---       #78
      01007101H   LINE      CODE     ---       #79
      01007106H   LINE      CODE     ---       #80
      0100710EH   LINE      CODE     ---       #81
      01007118H   LINE      CODE     ---       #87
      ---         BLOCKEND  ---      ---       LVL=0

      0100761AH   BLOCK     CODE     ---       LVL=0
      0100761AH   LINE      CODE     ---       #89
      0100761AH   LINE      CODE     ---       #96
LX51 LINKER/LOCATER V4.66.41.0                                                        02/15/2019  15:28:07  PAGE 48


      0100761DH   LINE      CODE     ---       #97
      01007620H   LINE      CODE     ---       #100
      ---         BLOCKEND  ---      ---       LVL=0

      01006E36H   BLOCK     CODE     ---       LVL=0
      01006E36H   LINE      CODE     ---       #103
      01006E36H   LINE      CODE     ---       #114
      01006E49H   LINE      CODE     ---       #141
      01006E55H   LINE      CODE     ---       #143
      01006E55H   LINE      CODE     ---       #145
      01006E61H   LINE      CODE     ---       #146
      01006E6AH   LINE      CODE     ---       #148
      01006E6CH   LINE      CODE     ---       #150
      01006E6CH   LINE      CODE     ---       #151
      01006E6CH   LINE      CODE     ---       #152
      01006E6CH   LINE      CODE     ---       #154
      01006E78H   LINE      CODE     ---       #155
      01006E84H   LINE      CODE     ---       #157
      01006E84H   LINE      CODE     ---       #159
      01006E84H   LINE      CODE     ---       #160
      01006E84H   LINE      CODE     ---       #163
      ---         BLOCKEND  ---      ---       LVL=0

      010073F8H   BLOCK     CODE     ---       LVL=0
      00000007H   SYMBOL    DATA     BYTE      tons
      00000005H   SYMBOL    DATA     BYTE      time
      00000003H   SYMBOL    DATA     BYTE      loop
      010073F8H   LINE      CODE     ---       #166
      010073F8H   LINE      CODE     ---       #168
      010073FBH   LINE      CODE     ---       #170
      01007407H   LINE      CODE     ---       #171
      01007409H   LINE      CODE     ---       #172
      0100740CH   LINE      CODE     ---       #173
      01007412H   LINE      CODE     ---       #174
      01007412H   LINE      CODE     ---       #175
      ---         BLOCKEND  ---      ---       LVL=0

      01006BADH   BLOCK     CODE     ---       LVL=0
      00000005H   SYMBOL    DATA     BYTE      funSet
      01006BADH   LINE      CODE     ---       #177
      01006BAFH   LINE      CODE     ---       #179
      01006BC8H   LINE      CODE     ---       #180
      01006BE4H   LINE      CODE     ---       #181
      01006BFBH   LINE      CODE     ---       #182
      01006C16H   LINE      CODE     ---       #183
      ---         BLOCKEND  ---      ---       LVL=0

      0100745EH   BLOCK     CODE     ---       LVL=0
      0100745EH   LINE      CODE     ---       #186
      0100745EH   LINE      CODE     ---       #188
      01007464H   LINE      CODE     ---       #189
      01007467H   LINE      CODE     ---       #190
      0100746CH   LINE      CODE     ---       #191
      01007475H   LINE      CODE     ---       #192
      ---         BLOCKEND  ---      ---       LVL=0

      01007476H   BLOCK     CODE     ---       LVL=0
      00000006H   SYMBOL    DATA     BYTE      timeopen
      01007476H   LINE      CODE     ---       #195
      01007478H   LINE      CODE     ---       #197
      0100747EH   LINE      CODE     ---       #198
      01007483H   LINE      CODE     ---       #199
      01007486H   LINE      CODE     ---       #200
      01007489H   LINE      CODE     ---       #201
      ---         BLOCKEND  ---      ---       LVL=0
LX51 LINKER/LOCATER V4.66.41.0                                                        02/15/2019  15:28:07  PAGE 49



      010075C3H   BLOCK     CODE     ---       LVL=0
      010075C3H   LINE      CODE     ---       #205
      010075C3H   LINE      CODE     ---       #207
      010075C9H   LINE      CODE     ---       #208
      010075CCH   LINE      CODE     ---       #209
      ---         BLOCKEND  ---      ---       LVL=0

      01007512H   BLOCK     CODE     ---       LVL=0
      00000007H   SYMBOL    DATA     BYTE      timeHold
      01007512H   LINE      CODE     ---       #213
      01007512H   LINE      CODE     ---       #215
      01007517H   LINE      CODE     ---       #216
      0100751AH   LINE      CODE     ---       #217
      0100751FH   LINE      CODE     ---       #218
      ---         BLOCKEND  ---      ---       LVL=0

      010074BEH   BLOCK     CODE     ---       LVL=0
      00000007H   SYMBOL    DATA     BYTE      timeHold
      010074BEH   LINE      CODE     ---       #222
      010074BEH   LINE      CODE     ---       #224
      010074C3H   LINE      CODE     ---       #225
      010074C6H   LINE      CODE     ---       #226
      010074CBH   LINE      CODE     ---       #227
      ---         BLOCKEND  ---      ---       LVL=0

      01003A52H   BLOCK     CODE     ---       LVL=0
      01003AC9H   BLOCK     CODE     NEAR LAB  LVL=1
      00000008H   SYMBOL    DATA     WORD      tipsNwk_Counter
      01006E2BH   SYMBOL    CODE     WORD      tipsNwk_Period
      00000027H   SYMBOL    DATA     BYTE      relayStatus_tipsTemp
      01003C20H   BLOCK     CODE     NEAR LAB  LVL=2
      00000024H.2 SYMBOL    BIT      BIT       tips_Type
      ---         BLOCKEND  ---      ---       LVL=2
      ---         BLOCKEND  ---      ---       LVL=1
      01003A52H   LINE      CODE     ---       #231
      01003A52H   LINE      CODE     ---       #233
      01003A55H   LINE      CODE     ---       #235
      01003A61H   LINE      CODE     ---       #236
      01003A61H   LINE      CODE     ---       #238
      01003A64H   LINE      CODE     ---       #239
      01003A64H   LINE      CODE     ---       #241
      01003A66H   LINE      CODE     ---       #243
      01003A6EH   LINE      CODE     ---       #245
      01003A73H   LINE      CODE     ---       #247
      01003A79H   LINE      CODE     ---       #248
      01003A79H   LINE      CODE     ---       #250
      01003A8AH   LINE      CODE     ---       #253
      01003A8AH   LINE      CODE     ---       #255
      01003A8FH   LINE      CODE     ---       #256
      01003A92H   LINE      CODE     ---       #257
      01003A92H   LINE      CODE     ---       #258
      01003A92H   LINE      CODE     ---       #483
      01003AC3H   LINE      CODE     ---       #485
      01003AC3H   LINE      CODE     ---       #487
      01003AC6H   LINE      CODE     ---       #489
      01003AC6H   LINE      CODE     ---       #491
      01003AC6H   LINE      CODE     ---       #493
      01003AC9H   LINE      CODE     ---       #495
      01003AC9H   LINE      CODE     ---       #497
      01003AC9H   LINE      CODE     ---       #498
      01003AC9H   LINE      CODE     ---       #502
      01003AD0H   LINE      CODE     ---       #504
      01003AD5H   LINE      CODE     ---       #506
      01003ADAH   LINE      CODE     ---       #507
LX51 LINKER/LOCATER V4.66.41.0                                                        02/15/2019  15:28:07  PAGE 50


      01003AE0H   LINE      CODE     ---       #509
      01003AE2H   LINE      CODE     ---       #510
      01003AE7H   LINE      CODE     ---       #512
      01003AF0H   LINE      CODE     ---       #513
      01003AF6H   LINE      CODE     ---       #514
      01003AFBH   LINE      CODE     ---       #516
      01003AFDH   LINE      CODE     ---       #517
      01003B02H   LINE      CODE     ---       #519
      01003B02H   LINE      CODE     ---       #521
      01003B04H   LINE      CODE     ---       #522
      01003B0FH   LINE      CODE     ---       #524
      01003B15H   LINE      CODE     ---       #526
      01003B17H   LINE      CODE     ---       #527
      01003B1CH   LINE      CODE     ---       #529
      01003B21H   LINE      CODE     ---       #530
      01003B21H   LINE      CODE     ---       #533
      01003B27H   LINE      CODE     ---       #808
      01003B27H   LINE      CODE     ---       #810
      01003B31H   LINE      CODE     ---       #812
      01003B31H   LINE      CODE     ---       #814
      01003B37H   LINE      CODE     ---       #817
      01003B43H   LINE      CODE     ---       #820
      01003B4AH   LINE      CODE     ---       #824
      01003B4DH   LINE      CODE     ---       #826
      01003B4DH   LINE      CODE     ---       #828
      01003B59H   LINE      CODE     ---       #831
      01003B5FH   LINE      CODE     ---       #834
      01003B66H   LINE      CODE     ---       #838
      01003B69H   LINE      CODE     ---       #840
      01003B69H   LINE      CODE     ---       #842
      01003B77H   LINE      CODE     ---       #845
      01003B7DH   LINE      CODE     ---       #848
      01003B84H   LINE      CODE     ---       #852
      01003B86H   LINE      CODE     ---       #853
      01003B86H   LINE      CODE     ---       #855
      01003B86H   LINE      CODE     ---       #857
      01003B86H   LINE      CODE     ---       #858
      01003B86H   LINE      CODE     ---       #859
      01003B86H   LINE      CODE     ---       #860
      01003B86H   LINE      CODE     ---       #862
      01003BB5H   LINE      CODE     ---       #872
      01003BE4H   LINE      CODE     ---       #882
      01003C13H   LINE      CODE     ---       #892
      01003C13H   LINE      CODE     ---       #895
      01003C13H   LINE      CODE     ---       #898
      01003C13H   LINE      CODE     ---       #900
      01003C20H   LINE      CODE     ---       #901
      01003C20H   LINE      CODE     ---       #904
      01003C20H   LINE      CODE     ---       #907
      01003C38H   LINE      CODE     ---       #908
      01003C38H   LINE      CODE     ---       #910
      01003C3AH   LINE      CODE     ---       #911
      01003C3FH   LINE      CODE     ---       #913
      01003C54H   LINE      CODE     ---       #915
      01003C54H   LINE      CODE     ---       #917
      01003C59H   LINE      CODE     ---       #919
      01003C5BH   LINE      CODE     ---       #921
      01003C5BH   LINE      CODE     ---       #923
      01003C68H   LINE      CODE     ---       #925
      01003C6AH   LINE      CODE     ---       #927
      01003C6AH   LINE      CODE     ---       #929
      01003C6EH   LINE      CODE     ---       #931
      01003C70H   LINE      CODE     ---       #933
      01003C70H   LINE      CODE     ---       #935
      01003C73H   LINE      CODE     ---       #937
LX51 LINKER/LOCATER V4.66.41.0                                                        02/15/2019  15:28:07  PAGE 51


      01003C8BH   LINE      CODE     ---       #938
      01003C92H   LINE      CODE     ---       #940
      01003C94H   LINE      CODE     ---       #942
      01003C99H   LINE      CODE     ---       #943
      01003C99H   LINE      CODE     ---       #945
      01003C9BH   LINE      CODE     ---       #947
      01003C9BH   LINE      CODE     ---       #949
      01003CABH   LINE      CODE     ---       #951
      01003CADH   LINE      CODE     ---       #953
      01003CADH   LINE      CODE     ---       #955
      01003CC1H   LINE      CODE     ---       #957
      01003CC1H   LINE      CODE     ---       #959
      01003CC1H   LINE      CODE     ---       #961
      01003CC4H   LINE      CODE     ---       #963
      01003CC5H   LINE      CODE     ---       #964
      01003CC5H   LINE      CODE     ---       #965
      01003CC5H   LINE      CODE     ---       #966
      01003CC5H   LINE      CODE     ---       #968
      01003CC5H   LINE      CODE     ---       #970
      01003CC5H   LINE      CODE     ---       #972
      01003CCFH   LINE      CODE     ---       #973
      01003CCFH   LINE      CODE     ---       #975
      01003CCFH   LINE      CODE     ---       #977
      01003CCFH   LINE      CODE     ---       #978
      01003CD5H   LINE      CODE     ---       #979
      01003CDEH   LINE      CODE     ---       #980
      01003CDEH   LINE      CODE     ---       #981
      01003CDEH   LINE      CODE     ---       #983
      01003CDEH   LINE      CODE     ---       #985
      01003CE0H   LINE      CODE     ---       #987
      01003CE0H   LINE      CODE     ---       #989
      01003CE5H   LINE      CODE     ---       #991
      01003CE5H   LINE      CODE     ---       #993
      01003CE5H   LINE      CODE     ---       #995
      01003CE8H   LINE      CODE     ---       #997
      01003CE8H   LINE      CODE     ---       #999
      01003CE8H   LINE      CODE     ---       #1001
      01003CF1H   LINE      CODE     ---       #1002
      01003CF1H   LINE      CODE     ---       #1004
      01003CF1H   LINE      CODE     ---       #1006
      01003CF1H   LINE      CODE     ---       #1007
      01003CF7H   LINE      CODE     ---       #1008
      01003D06H   LINE      CODE     ---       #1009
      01003D0CH   LINE      CODE     ---       #1010
      01003D0CH   LINE      CODE     ---       #1012
      01003D0CH   LINE      CODE     ---       #1014
      01003D0CH   LINE      CODE     ---       #1016
      01003D0CH   LINE      CODE     ---       #1018
      01003D0FH   LINE      CODE     ---       #1020
      01003D0FH   LINE      CODE     ---       #1021
      01003D0FH   LINE      CODE     ---       #1023
      ---         BLOCKEND  ---      ---       LVL=0

      01006C7FH   BLOCK     CODE     ---       LVL=0
      00000007H   SYMBOL    DATA     BYTE      obj
      00000005H   SYMBOL    DATA     BYTE      gray_R
      00000003H   SYMBOL    DATA     BYTE      gray_G
      0000002BH   SYMBOL    DATA     BYTE      gray_B
      01006C90H   BLOCK     CODE     NEAR LAB  LVL=1
      01006E2DH   SYMBOL    CODE     BYTE      bright_coef
      ---         BLOCKEND  ---      ---       LVL=1
      01006C7FH   LINE      CODE     ---       #1025
      01006C7FH   LINE      CODE     ---       #1027
      01006C8BH   LINE      CODE     ---       #1028
      01006C8BH   LINE      CODE     ---       #1030
LX51 LINKER/LOCATER V4.66.41.0                                                        02/15/2019  15:28:07  PAGE 52


      01006C90H   LINE      CODE     ---       #1034
      01006C9BH   LINE      CODE     ---       #1035
      01006CA0H   LINE      CODE     ---       #1036
      01006CA7H   LINE      CODE     ---       #1037
      01006CA7H   LINE      CODE     ---       #1039
      01006CB5H   LINE      CODE     ---       #1041
      01006CB5H   LINE      CODE     ---       #1043
      01006CB9H   LINE      CODE     ---       #1044
      01006CB9H   LINE      CODE     ---       #1045
      01006CB9H   LINE      CODE     ---       #1047
      01006CBBH   LINE      CODE     ---       #1049
      01006CBBH   LINE      CODE     ---       #1051
      01006CC2H   LINE      CODE     ---       #1052
      01006CC2H   LINE      CODE     ---       #1053
      01006CC2H   LINE      CODE     ---       #1055
      01006CC4H   LINE      CODE     ---       #1057
      01006CC4H   LINE      CODE     ---       #1059
      01006CCBH   LINE      CODE     ---       #1060
      01006CCBH   LINE      CODE     ---       #1061
      01006CCBH   LINE      CODE     ---       #1063
      01006CCDH   LINE      CODE     ---       #1065
      01006CCDH   LINE      CODE     ---       #1067
      01006CD8H   LINE      CODE     ---       #1068
      01006CDBH   LINE      CODE     ---       #1069
      01006CE0H   LINE      CODE     ---       #1071
      01006CE0H   LINE      CODE     ---       #1073
      01006CE0H   LINE      CODE     ---       #1074
      01006CE0H   LINE      CODE     ---       #1075
      01006CE0H   LINE      CODE     ---       #1076
      ---         BLOCKEND  ---      ---       LVL=0

      0100690DH   BLOCK     CODE     ---       LVL=0
      0100690DH   BLOCK     CODE     NEAR LAB  LVL=1
      020006A6H   SYMBOL    XDATA    BYTE      tipsStep
      ---         BLOCKEND  ---      ---       LVL=1
      0100690DH   LINE      CODE     ---       #1078
      0100690DH   LINE      CODE     ---       #1082
      0100691BH   LINE      CODE     ---       #1084
      0100691BH   LINE      CODE     ---       #1086
      01006925H   LINE      CODE     ---       #1087
      0100692BH   LINE      CODE     ---       #1089
      0100692CH   LINE      CODE     ---       #1091
      0100692CH   LINE      CODE     ---       #1093
      01006937H   LINE      CODE     ---       #1095
      01006947H   LINE      CODE     ---       #1097
      01006952H   LINE      CODE     ---       #1102
      01006953H   LINE      CODE     ---       #1104
      0100695AH   LINE      CODE     ---       #1108
      0100695AH   LINE      CODE     ---       #1110
      0100695BH   LINE      CODE     ---       #1112
      01006965H   LINE      CODE     ---       #1113
      0100696AH   LINE      CODE     ---       #1114
      01006970H   LINE      CODE     ---       #1115
      01006970H   LINE      CODE     ---       #1117
      01006971H   LINE      CODE     ---       #1120
      01006971H   LINE      CODE     ---       #1122
      0100697BH   LINE      CODE     ---       #1124
      0100697DH   LINE      CODE     ---       #1126
      0100697DH   LINE      CODE     ---       #1128
      01006982H   LINE      CODE     ---       #1130
      01006982H   LINE      CODE     ---       #1131
      01006982H   LINE      CODE     ---       #1132
      ---         BLOCKEND  ---      ---       LVL=0
      0000000AH   SYMBOL    DATA     BYTE      localTips_Count
      00000024H.3 SYMBOL    BIT      BIT       count_FLG
LX51 LINKER/LOCATER V4.66.41.0                                                        02/15/2019  15:28:07  PAGE 53


      0000000BH   SYMBOL    DATA     BYTE      tipsStep
      01006E2EH   SYMBOL    CODE     BYTE      speed
      01006E2FH   SYMBOL    CODE     BYTE      step_period
      0000000CH   SYMBOL    DATA     BYTE      localTips_Count
      00000024H.4 SYMBOL    BIT      BIT       count_FLG
      0000000DH   SYMBOL    DATA     BYTE      tipsStep
      0000000EH   SYMBOL    DATA     BYTE      pwmType_A
      0000000FH   SYMBOL    DATA     BYTE      pwmType_B
      00000010H   SYMBOL    DATA     BYTE      pwmType_C
      00000011H   SYMBOL    DATA     BYTE      pwmType_D
      01006E30H   SYMBOL    CODE     BYTE      speed
      01006E31H   SYMBOL    CODE     BYTE      step_period

      010050B4H   BLOCK     CODE     ---       LVL=0
      00000005H   SYMBOL    DATA     BYTE      tips_Type
      010050B6H   BLOCK     CODE     NEAR LAB  LVL=1
      00000012H   SYMBOL    DATA     BYTE      localTips_Count
      00000024H.5 SYMBOL    BIT      BIT       count_FLG
      00000013H   SYMBOL    DATA     BYTE      tipsStep
      00000014H   SYMBOL    DATA     BYTE      pwmType_A
      00000015H   SYMBOL    DATA     BYTE      pwmType_B
      00000016H   SYMBOL    DATA     BYTE      pwmType_C
      00000017H   SYMBOL    DATA     BYTE      pwmType_D
      01006E32H   SYMBOL    CODE     BYTE      speed_Mol
      01006E33H   SYMBOL    CODE     BYTE      speed_Den
      01006E34H   SYMBOL    CODE     BYTE      step_period
      ---         BLOCKEND  ---      ---       LVL=1
      010050B4H   LINE      CODE     ---       #1275
      010050B6H   LINE      CODE     ---       #1289
      010050BDH   LINE      CODE     ---       #1291
      010050CCH   LINE      CODE     ---       #1292
      010050CCH   LINE      CODE     ---       #1294
      010050CFH   LINE      CODE     ---       #1296
      010050D7H   LINE      CODE     ---       #1297
      010050D7H   LINE      CODE     ---       #1298
      010050D7H   LINE      CODE     ---       #1299
      010050DFH   LINE      CODE     ---       #1301
      010050E6H   LINE      CODE     ---       #1303
      010050E8H   LINE      CODE     ---       #1307
      010050E8H   LINE      CODE     ---       #1309
      010050F2H   LINE      CODE     ---       #1311
      0100510FH   LINE      CODE     ---       #1313
      0100511FH   LINE      CODE     ---       #1314
      01005132H   LINE      CODE     ---       #1315
      01005145H   LINE      CODE     ---       #1316
      01005158H   LINE      CODE     ---       #1317
      01005158H   LINE      CODE     ---       #1319
      01005165H   LINE      CODE     ---       #1321
      01005165H   LINE      CODE     ---       #1323
      0100516CH   LINE      CODE     ---       #1325
      0100516CH   LINE      CODE     ---       #1327
      0100516FH   LINE      CODE     ---       #1329
      01005176H   LINE      CODE     ---       #1331
      0100517EH   LINE      CODE     ---       #1333
      0100517EH   LINE      CODE     ---       #1334
      0100517EH   LINE      CODE     ---       #1336
      01005180H   LINE      CODE     ---       #1338
      01005183H   LINE      CODE     ---       #1339
      01005185H   LINE      CODE     ---       #1340
      01005185H   LINE      CODE     ---       #1342
      01005188H   LINE      CODE     ---       #1344
      01005195H   LINE      CODE     ---       #1345
      010051A2H   LINE      CODE     ---       #1346
      010051AFH   LINE      CODE     ---       #1347
      010051C0H   LINE      CODE     ---       #1348
LX51 LINKER/LOCATER V4.66.41.0                                                        02/15/2019  15:28:07  PAGE 54


      010051C0H   LINE      CODE     ---       #1350
      010051C1H   LINE      CODE     ---       #1352
      010051C6H   LINE      CODE     ---       #1353
      010051CBH   LINE      CODE     ---       #1354
      010051D0H   LINE      CODE     ---       #1355
      010051D5H   LINE      CODE     ---       #1357
      010051DDH   LINE      CODE     ---       #1358
      010051E2H   LINE      CODE     ---       #1359
      010051EBH   LINE      CODE     ---       #1360
      010051F4H   LINE      CODE     ---       #1361
      010051F4H   LINE      CODE     ---       #1363
      010051F6H   LINE      CODE     ---       #1365
      010051F6H   LINE      CODE     ---       #1366
      010051F6H   LINE      CODE     ---       #1368
      010051F6H   LINE      CODE     ---       #1370
      010051F6H   LINE      CODE     ---       #1372
      010051FAH   LINE      CODE     ---       #1374
      010051FAH   LINE      CODE     ---       #1376
      010051FDH   LINE      CODE     ---       #1378
      01005204H   LINE      CODE     ---       #1381
      01005211H   LINE      CODE     ---       #1383
      01005212H   LINE      CODE     ---       #1390
      01005220H   LINE      CODE     ---       #1391
      0100522EH   LINE      CODE     ---       #1392
      0100523CH   LINE      CODE     ---       #1393
      0100524AH   LINE      CODE     ---       #1394
      0100524AH   LINE      CODE     ---       #1396
      0100524BH   LINE      CODE     ---       #1403
      01005253H   LINE      CODE     ---       #1404
      01005258H   LINE      CODE     ---       #1405
      0100525DH   LINE      CODE     ---       #1406
      0100526AH   LINE      CODE     ---       #1407
      0100526AH   LINE      CODE     ---       #1409
      0100526AH   LINE      CODE     ---       #1411
      0100526AH   LINE      CODE     ---       #1412
      0100526AH   LINE      CODE     ---       #1414
      0100526AH   LINE      CODE     ---       #1416
      0100526AH   LINE      CODE     ---       #1417
      0100526AH   LINE      CODE     ---       #1418
      ---         BLOCKEND  ---      ---       LVL=0

      01007224H   BLOCK     CODE     ---       LVL=0
      01007224H   BLOCK     CODE     NEAR LAB  LVL=1
      00000024H.6 SYMBOL    BIT      BIT       tipsStep
      ---         BLOCKEND  ---      ---       LVL=1
      01007224H   LINE      CODE     ---       #1420
      01007224H   LINE      CODE     ---       #1424
      0100722EH   LINE      CODE     ---       #1426
      01007235H   LINE      CODE     ---       #1428
      01007238H   LINE      CODE     ---       #1429
      01007238H   LINE      CODE     ---       #1430
      01007238H   LINE      CODE     ---       #1431
      0100723CH   LINE      CODE     ---       #1433
      0100723DH   LINE      CODE     ---       #1435
      0100723DH   LINE      CODE     ---       #1436
      0100723DH   LINE      CODE     ---       #1437
      0100723DH   LINE      CODE     ---       #1438
      01007240H   LINE      CODE     ---       #1439
      01007240H   LINE      CODE     ---       #1441
      01007241H   LINE      CODE     ---       #1443
      0100724BH   LINE      CODE     ---       #1444
      0100724DH   LINE      CODE     ---       #1445
      0100724DH   LINE      CODE     ---       #1446
      ---         BLOCKEND  ---      ---       LVL=0

LX51 LINKER/LOCATER V4.66.41.0                                                        02/15/2019  15:28:07  PAGE 55


      01000003H   BLOCK     CODE     ---       LVL=0
      01000003H   LINE      CODE     ---       #1448
      01000003H   LINE      CODE     ---       #1450
      01000007H   LINE      CODE     ---       #1451
      01000007H   LINE      CODE     ---       #1452
      01000007H   LINE      CODE     ---       #1453
      0100000AH   LINE      CODE     ---       #1454
      ---         BLOCKEND  ---      ---       LVL=0

      01004CC7H   BLOCK     CODE     ---       LVL=0
      01004CC7H   BLOCK     CODE     NEAR LAB  LVL=1
      00000018H   SYMBOL    DATA     BYTE      localTips_Count
      01006E35H   SYMBOL    CODE     BYTE      localTips_Period
      00000019H   SYMBOL    DATA     BYTE      tipsStep
      0000001AH   SYMBOL    DATA     BYTE      pwmType_A
      0000001BH   SYMBOL    DATA     BYTE      pwmType_B
      0000001CH   SYMBOL    DATA     BYTE      pwmType_C
      0000001DH   SYMBOL    DATA     BYTE      pwmType_D
      ---         BLOCKEND  ---      ---       LVL=1
      01004CC7H   LINE      CODE     ---       #1456
      01004CC7H   LINE      CODE     ---       #1469
      01004CD1H   LINE      CODE     ---       #1471
      01004CD9H   LINE      CODE     ---       #1473
      01004CE5H   LINE      CODE     ---       #1475
      01004CE8H   LINE      CODE     ---       #1476
      01004CF6H   LINE      CODE     ---       #1477
      01004CFFH   LINE      CODE     ---       #1478
      01004D01H   LINE      CODE     ---       #1479
      01004D01H   LINE      CODE     ---       #1481
      01004D03H   LINE      CODE     ---       #1483
      01004D13H   LINE      CODE     ---       #1484
      01004D26H   LINE      CODE     ---       #1485
      01004D39H   LINE      CODE     ---       #1486
      01004D4CH   LINE      CODE     ---       #1487
      01004D4CH   LINE      CODE     ---       #1488
      01004D4CH   LINE      CODE     ---       #1490
      01004D72H   LINE      CODE     ---       #1609
      01004D72H   LINE      CODE     ---       #1611
      01004D78H   LINE      CODE     ---       #1612
      01004D81H   LINE      CODE     ---       #1613
      01004D8AH   LINE      CODE     ---       #1614
      01004D90H   LINE      CODE     ---       #1616
      01004D92H   LINE      CODE     ---       #1618
      01004D92H   LINE      CODE     ---       #1620
      01004D97H   LINE      CODE     ---       #1621
      01004D9CH   LINE      CODE     ---       #1622
      01004DA1H   LINE      CODE     ---       #1623
      01004DA3H   LINE      CODE     ---       #1625
      01004DA5H   LINE      CODE     ---       #1627
      01004DA5H   LINE      CODE     ---       #1629
      01004DADH   LINE      CODE     ---       #1630
      01004DB5H   LINE      CODE     ---       #1631
      01004DBDH   LINE      CODE     ---       #1632
      01004DC5H   LINE      CODE     ---       #1634
      01004DC8H   LINE      CODE     ---       #1636
      01004DC8H   LINE      CODE     ---       #1638
      01004DCEH   LINE      CODE     ---       #1639
      01004DD4H   LINE      CODE     ---       #1640
      01004DDAH   LINE      CODE     ---       #1641
      01004DE4H   LINE      CODE     ---       #1643
      01004DE7H   LINE      CODE     ---       #1645
      01004DE7H   LINE      CODE     ---       #1647
      01004DEFH   LINE      CODE     ---       #1648
      01004DF7H   LINE      CODE     ---       #1649
      01004DFFH   LINE      CODE     ---       #1650
LX51 LINKER/LOCATER V4.66.41.0                                                        02/15/2019  15:28:07  PAGE 56


      01004E07H   LINE      CODE     ---       #1652
      01004E0AH   LINE      CODE     ---       #1654
      01004E0AH   LINE      CODE     ---       #1656
      01004E10H   LINE      CODE     ---       #1657
      01004E15H   LINE      CODE     ---       #1658
      01004E1EH   LINE      CODE     ---       #1659
      01004E2CH   LINE      CODE     ---       #1661
      01004E32H   LINE      CODE     ---       #1662
      01004E38H   LINE      CODE     ---       #1663
      01004E3EH   LINE      CODE     ---       #1664
      01004E45H   LINE      CODE     ---       #1666
      01004E47H   LINE      CODE     ---       #1668
      01004E47H   LINE      CODE     ---       #1670
      01004E55H   LINE      CODE     ---       #1671
      01004E63H   LINE      CODE     ---       #1672
      01004E71H   LINE      CODE     ---       #1673
      01004E7FH   LINE      CODE     ---       #1675
      01004E89H   LINE      CODE     ---       #1676
      01004E93H   LINE      CODE     ---       #1677
      01004E9DH   LINE      CODE     ---       #1678
      01004EA6H   LINE      CODE     ---       #1680
      01004EAAH   LINE      CODE     ---       #1681
      01004EAFH   LINE      CODE     ---       #1682
      01004EB7H   LINE      CODE     ---       #1683
      01004EBFH   LINE      CODE     ---       #1685
      01004EBFH   LINE      CODE     ---       #1687
      01004EBFH   LINE      CODE     ---       #1688
      01004EBFH   LINE      CODE     ---       #1689
      ---         BLOCKEND  ---      ---       LVL=0

      ---         MODULE    ---      ---       DEVLOPEDEBUG
      020006F1H   PUBLIC    XDATA    ---       dev_debugInfoLog
      010065FCH   PUBLIC    CODE     ---       thread_devlopeDebug
      000000D8H.2 SFRSYM    DATA     BIT       CCF2
      000000E0H.7 SFRSYM    DATA     BIT       ACC7
      00000093H   SFRSYM    DATA     BYTE      P0M1
      00000092H   SFRSYM    DATA     BYTE      P1M0
      00000096H   SFRSYM    DATA     BYTE      P2M0
      00000091H   SFRSYM    DATA     BYTE      P1M1
      00000080H   SFRSYM    DATA     BYTE      P0
      000000B2H   SFRSYM    DATA     BYTE      P3M0
      00000095H   SFRSYM    DATA     BYTE      P2M1
      00000090H   SFRSYM    DATA     BYTE      P1
      000000B4H   SFRSYM    DATA     BYTE      P4M0
      000000B1H   SFRSYM    DATA     BYTE      P3M1
      000000A0H   SFRSYM    DATA     BYTE      P2
      000000CAH   SFRSYM    DATA     BYTE      P5M0
      000000B3H   SFRSYM    DATA     BYTE      P4M1
      000000B0H   SFRSYM    DATA     BYTE      P3
      000000ABH   SFRSYM    DATA     BYTE      WKTCH
      000000B0H.4 SFRSYM    DATA     BIT       T0
      000000D0H.6 SFRSYM    DATA     BIT       AC
      000000CCH   SFRSYM    DATA     BYTE      P6M0
      000000C9H   SFRSYM    DATA     BYTE      P5M1
      000000C0H   SFRSYM    DATA     BYTE      P4
      000000B0H.5 SFRSYM    DATA     BIT       CLKOUT0
      000000B0H.5 SFRSYM    DATA     BIT       T1
      000000E2H   SFRSYM    DATA     BYTE      P7M0
      000000CBH   SFRSYM    DATA     BYTE      P6M1
      000000C8H   SFRSYM    DATA     BYTE      P5
      000000C6H   SFRSYM    DATA     BYTE      ISP_TRIG
      000000A8H.7 SFRSYM    DATA     BIT       EA
      000000B0H.4 SFRSYM    DATA     BIT       CLKOUT1
      000000A0H.4 SFRSYM    DATA     BIT       SPI_SS_2
      000000E8H   SFRSYM    DATA     BYTE      P6
LX51 LINKER/LOCATER V4.66.41.0                                                        02/15/2019  15:28:07  PAGE 57


      000000E1H   SFRSYM    DATA     BYTE      P7M1
      000000C8H.4 SFRSYM    DATA     BIT       SPI_SS_3
      00000090H.4 SFRSYM    DATA     BIT       SPI_MISO
      00000090H.3 SFRSYM    DATA     BIT       SPI_MOSI
      00000090H.1 SFRSYM    DATA     BIT       CCP0
      000000F8H   SFRSYM    DATA     BYTE      P7
      000000AAH   SFRSYM    DATA     BYTE      WKTCL
      00000090H   SFRSYM    DATA     BIT       CCP1
      000000CEH   SFRSYM    DATA     BYTE      SPCTL
      000000D8H.7 SFRSYM    DATA     BIT       CF
      000000B0H.7 SFRSYM    DATA     BIT       CCP2
      000000F9H   SFRSYM    DATA     BYTE      CH
      000000A2H   SFRSYM    DATA     BYTE      P_SW1
      000000BAH   SFRSYM    DATA     BYTE      P_SW2
      000000A8H.5 SFRSYM    DATA     BIT       EADC
      000000A0H.1 SFRSYM    DATA     BIT       SPI_SCLK_2
      000000A8H   SFRSYM    DATA     BYTE      IE
      000000C0H.3 SFRSYM    DATA     BIT       SPI_SCLK_3
      000000E9H   SFRSYM    DATA     BYTE      CL
      000000C5H   SFRSYM    DATA     BYTE      IAP_CMD
      000000FAH   SFRSYM    DATA     BYTE      CCAP0H
      000000FBH   SFRSYM    DATA     BYTE      CCAP1H
      000000FCH   SFRSYM    DATA     BYTE      CCAP2H
      000000BDH   SFRSYM    DATA     BYTE      ADC_RES
      000000B6H   SFRSYM    DATA     BYTE      IPH2
      000000D8H.6 SFRSYM    DATA     BIT       CR
      000000EAH   SFRSYM    DATA     BYTE      CCAP0L
      000000B0H.7 SFRSYM    DATA     BIT       RD
      000000EBH   SFRSYM    DATA     BYTE      CCAP1L
      000000DAH   SFRSYM    DATA     BYTE      CCAPM0
      000000ECH   SFRSYM    DATA     BYTE      CCAP2L
      000000DBH   SFRSYM    DATA     BYTE      CCAPM1
      000000A8H.4 SFRSYM    DATA     BIT       ES
      000000DCH   SFRSYM    DATA     BYTE      CCAPM2
      000000B8H.5 SFRSYM    DATA     BIT       PADC
      000000A0H.2 SFRSYM    DATA     BIT       SPI_MISO_2
      000000A0H.3 SFRSYM    DATA     BIT       SPI_MOSI_2
      000000B8H   SFRSYM    DATA     BYTE      IP
      000000C0H.1 SFRSYM    DATA     BIT       SPI_MISO_3
      000000C0H   SFRSYM    DATA     BIT       SPI_MOSI_3
      00000098H   SFRSYM    DATA     BIT       RI
      000000B0H.2 SFRSYM    DATA     BIT       INT0
      000000D0H.7 SFRSYM    DATA     BIT       CY
      00000098H.1 SFRSYM    DATA     BIT       TI
      000000B0H.3 SFRSYM    DATA     BIT       INT1
      00000097H   SFRSYM    DATA     BYTE      CLK_DIV
      000000C3H   SFRSYM    DATA     BYTE      IAP_ADDRH
      00000090H   SFRSYM    DATA     BIT       RXD2
      000000C5H   SFRSYM    DATA     BYTE      ISP_CMD
      000000B8H.4 SFRSYM    DATA     BIT       PS
      00000090H.1 SFRSYM    DATA     BIT       TXD2
      00000081H   SFRSYM    DATA     BYTE      SP
      000000D9H   SFRSYM    DATA     BYTE      CMOD
      000000D8H   SFRSYM    DATA     BYTE      CCON
      000000C4H   SFRSYM    DATA     BYTE      IAP_ADDRL
      000000B8H.7 SFRSYM    DATA     BIT       PPCA
      000000D0H.2 SFRSYM    DATA     BIT       OV
      000000B0H.6 SFRSYM    DATA     BIT       WR
      000000A8H.6 SFRSYM    DATA     BIT       ELVD
      00000080H   SFRSYM    DATA     BIT       P00
      00000090H   SFRSYM    DATA     BIT       P10
      00000080H.1 SFRSYM    DATA     BIT       P01
      000000BCH   SFRSYM    DATA     BYTE      ADC_CONTR
      00000099H   SFRSYM    DATA     BYTE      SBUF
      00000087H   SFRSYM    DATA     BYTE      PCON
LX51 LINKER/LOCATER V4.66.41.0                                                        02/15/2019  15:28:07  PAGE 58


      000000A0H   SFRSYM    DATA     BIT       P20
      00000090H.1 SFRSYM    DATA     BIT       P11
      00000080H.2 SFRSYM    DATA     BIT       P02
      000000C3H   SFRSYM    DATA     BYTE      ISP_ADDRH
      000000B0H   SFRSYM    DATA     BIT       P30
      000000A0H.1 SFRSYM    DATA     BIT       P21
      00000090H.2 SFRSYM    DATA     BIT       P12
      00000080H.3 SFRSYM    DATA     BIT       P03
      000000C0H   SFRSYM    DATA     BIT       P40
      000000B0H.1 SFRSYM    DATA     BIT       P31
      000000A0H.2 SFRSYM    DATA     BIT       P22
      00000090H.3 SFRSYM    DATA     BIT       P13
      00000080H.4 SFRSYM    DATA     BIT       P04
      00000098H   SFRSYM    DATA     BYTE      SCON
      0000008FH   SFRSYM    DATA     BYTE      WAKE_CLKO
      000000C8H   SFRSYM    DATA     BIT       P50
      000000C0H.1 SFRSYM    DATA     BIT       P41
      000000B0H.2 SFRSYM    DATA     BIT       P32
      000000A0H.3 SFRSYM    DATA     BIT       P23
      00000090H.4 SFRSYM    DATA     BIT       P14
      00000080H.5 SFRSYM    DATA     BIT       P05
      00000089H   SFRSYM    DATA     BYTE      TMOD
      00000088H   SFRSYM    DATA     BYTE      TCON
      000000C8H.1 SFRSYM    DATA     BIT       P51
      000000C0H.2 SFRSYM    DATA     BIT       P42
      000000B0H.3 SFRSYM    DATA     BIT       P33
      000000A0H.4 SFRSYM    DATA     BIT       P24
      00000090H.5 SFRSYM    DATA     BIT       P15
      00000080H.6 SFRSYM    DATA     BIT       P06
      000000C4H   SFRSYM    DATA     BYTE      ISP_ADDRL
      000000B8H.6 SFRSYM    DATA     BIT       PLVD
      000000C8H.2 SFRSYM    DATA     BIT       P52
      000000C0H.3 SFRSYM    DATA     BIT       P43
      000000B0H.4 SFRSYM    DATA     BIT       P34
      000000A0H.5 SFRSYM    DATA     BIT       P25
      00000090H.6 SFRSYM    DATA     BIT       P16
      00000080H.7 SFRSYM    DATA     BIT       P07
      000000C8H.3 SFRSYM    DATA     BIT       P53
      000000C0H.4 SFRSYM    DATA     BIT       P44
      000000B0H.5 SFRSYM    DATA     BIT       P35
      000000A0H.6 SFRSYM    DATA     BIT       P26
      00000090H.7 SFRSYM    DATA     BIT       P17
      000000C8H.4 SFRSYM    DATA     BIT       P54
      000000C0H.5 SFRSYM    DATA     BIT       P45
      000000B0H.6 SFRSYM    DATA     BIT       P36
      000000A0H.7 SFRSYM    DATA     BIT       P27
      000000C8H.5 SFRSYM    DATA     BIT       P55
      000000C0H.6 SFRSYM    DATA     BIT       P46
      000000B0H.7 SFRSYM    DATA     BIT       P37
      000000C8H.6 SFRSYM    DATA     BIT       P56
      000000C0H.7 SFRSYM    DATA     BIT       P47
      000000C8H.7 SFRSYM    DATA     BIT       P57
      00000088H.1 SFRSYM    DATA     BIT       IE0
      000000A1H   SFRSYM    DATA     BYTE      BUS_SPEED
      00000088H.3 SFRSYM    DATA     BIT       IE1
      000000AFH   SFRSYM    DATA     BYTE      IE2
      000000F0H   SFRSYM    DATA     BYTE      B
      0000008EH   SFRSYM    DATA     BYTE      AUXR
      000000C7H   SFRSYM    DATA     BYTE      IAP_CONTR
      000000E0H   SFRSYM    DATA     BYTE      ACC
      000000A8H.1 SFRSYM    DATA     BIT       ET0
      000000A8H.3 SFRSYM    DATA     BIT       ET1
      00000088H.5 SFRSYM    DATA     BIT       TF0
      00000088H.7 SFRSYM    DATA     BIT       TF1
      000000B5H   SFRSYM    DATA     BYTE      IP2
LX51 LINKER/LOCATER V4.66.41.0                                                        02/15/2019  15:28:07  PAGE 59


      0000008CH   SFRSYM    DATA     BYTE      RL_TH0
      00000098H.2 SFRSYM    DATA     BIT       RB8
      0000008DH   SFRSYM    DATA     BYTE      RL_TH1
      0000008CH   SFRSYM    DATA     BYTE      TH0
      000000A8H   SFRSYM    DATA     BIT       EX0
      00000088H   SFRSYM    DATA     BIT       IT0
      000000D6H   SFRSYM    DATA     BYTE      RL_T2H
      0000008DH   SFRSYM    DATA     BYTE      TH1
      000000A8H.2 SFRSYM    DATA     BIT       EX1
      00000098H.3 SFRSYM    DATA     BIT       TB8
      00000088H.2 SFRSYM    DATA     BIT       IT1
      000000D4H   SFRSYM    DATA     BYTE      RL_T3H
      000000D6H   SFRSYM    DATA     BYTE      TH2
      000000D6H   SFRSYM    DATA     BYTE      T2H
      000000D0H   SFRSYM    DATA     BIT       P
      000000D2H   SFRSYM    DATA     BYTE      RL_T4H
      000000D4H   SFRSYM    DATA     BYTE      TH3
      000000D4H   SFRSYM    DATA     BYTE      T3H
      0000008AH   SFRSYM    DATA     BYTE      RL_TL0
      00000098H.7 SFRSYM    DATA     BIT       SM0
      000000D2H   SFRSYM    DATA     BYTE      TH4
      000000D2H   SFRSYM    DATA     BYTE      T4H
      0000008BH   SFRSYM    DATA     BYTE      RL_TL1
      0000008AH   SFRSYM    DATA     BYTE      TL0
      00000098H.6 SFRSYM    DATA     BIT       SM1
      000000D7H   SFRSYM    DATA     BYTE      RL_T2L
      0000008BH   SFRSYM    DATA     BYTE      TL1
      00000098H.5 SFRSYM    DATA     BIT       SM2
      000000D5H   SFRSYM    DATA     BYTE      RL_T3L
      000000D7H   SFRSYM    DATA     BYTE      TL2
      000000D7H   SFRSYM    DATA     BYTE      T2L
      000000D3H   SFRSYM    DATA     BYTE      RL_T4L
      000000D5H   SFRSYM    DATA     BYTE      TL3
      000000D5H   SFRSYM    DATA     BYTE      T3L
      000000B8H.1 SFRSYM    DATA     BIT       PT0
      000000D3H   SFRSYM    DATA     BYTE      TL4
      000000D3H   SFRSYM    DATA     BYTE      T4L
      000000B8H.3 SFRSYM    DATA     BIT       PT1
      000000D0H.3 SFRSYM    DATA     BIT       RS0
      000000C7H   SFRSYM    DATA     BYTE      ISP_CONTR
      00000088H.4 SFRSYM    DATA     BIT       TR0
      000000D0H.4 SFRSYM    DATA     BIT       RS1
      000000C2H   SFRSYM    DATA     BYTE      IAP_DATA
      00000088H.6 SFRSYM    DATA     BIT       TR1
      000000B8H   SFRSYM    DATA     BIT       PX0
      000000C1H   SFRSYM    DATA     BYTE      WDT_CONTR
      000000B8H.2 SFRSYM    DATA     BIT       PX1
      000000F2H   SFRSYM    DATA     BYTE      PCA_PWM0
      000000F3H   SFRSYM    DATA     BYTE      PCA_PWM1
      000000F4H   SFRSYM    DATA     BYTE      PCA_PWM2
      0000009DH   SFRSYM    DATA     BYTE      P1ASF
      00000083H   SFRSYM    DATA     BYTE      DPH
      000000D1H   SFRSYM    DATA     BYTE      T4T3M
      000000BEH   SFRSYM    DATA     BYTE      ADC_RESL
      00000082H   SFRSYM    DATA     BYTE      DPL
      000000CDH   SFRSYM    DATA     BYTE      SPSTAT
      000000B7H   SFRSYM    DATA     BYTE      IPH
      0000009BH   SFRSYM    DATA     BYTE      S2BUF
      00000097H   SFRSYM    DATA     BYTE      PCON2
      000000ADH   SFRSYM    DATA     BYTE      S3BUF
      00000098H.4 SFRSYM    DATA     BIT       REN
      00000085H   SFRSYM    DATA     BYTE      S4BUF
      0000009AH   SFRSYM    DATA     BYTE      S2CON
      000000ACH   SFRSYM    DATA     BYTE      S3CON
      000000C2H   SFRSYM    DATA     BYTE      ISP_DATA
LX51 LINKER/LOCATER V4.66.41.0                                                        02/15/2019  15:28:07  PAGE 60


      00000084H   SFRSYM    DATA     BYTE      S4CON
      000000B9H   SFRSYM    DATA     BYTE      SADEN
      000000B0H   SFRSYM    DATA     BIT       RXD
      000000A9H   SFRSYM    DATA     BYTE      SADDR
      000000B0H.1 SFRSYM    DATA     BIT       TXD
      000000F0H   SFRSYM    DATA     BIT       B0
      000000F0H.1 SFRSYM    DATA     BIT       B1
      000000C6H   SFRSYM    DATA     BYTE      IAP_TRIG
      000000A2H   SFRSYM    DATA     BYTE      AUXR1
      000000F0H.2 SFRSYM    DATA     BIT       B2
      00000090H.2 SFRSYM    DATA     BIT       SPI_SS
      0000008FH   SFRSYM    DATA     BYTE      AUXR2
      000000F0H.3 SFRSYM    DATA     BIT       B3
      000000F0H.4 SFRSYM    DATA     BIT       B4
      000000D0H.5 SFRSYM    DATA     BIT       F0
      000000F0H.5 SFRSYM    DATA     BIT       B5
      000000D0H.1 SFRSYM    DATA     BIT       F1
      0000008FH   SFRSYM    DATA     BYTE      INT_CLKO
      000000F0H.6 SFRSYM    DATA     BIT       B6
      000000E0H   SFRSYM    DATA     BIT       ACC0
      000000F0H.7 SFRSYM    DATA     BIT       B7
      000000E0H.1 SFRSYM    DATA     BIT       ACC1
      000000E0H.2 SFRSYM    DATA     BIT       ACC2
      000000E0H.3 SFRSYM    DATA     BIT       ACC3
      000000D0H   SFRSYM    DATA     BYTE      PSW
      000000E0H.4 SFRSYM    DATA     BIT       ACC4
      00000090H.5 SFRSYM    DATA     BIT       SPI_SCLK
      000000D8H   SFRSYM    DATA     BIT       CCF0
      000000E0H.5 SFRSYM    DATA     BIT       ACC5
      000000D8H.1 SFRSYM    DATA     BIT       CCF1
      000000E0H.6 SFRSYM    DATA     BIT       ACC6
      000000CFH   SFRSYM    DATA     BYTE      SPDAT
      00000094H   SFRSYM    DATA     BYTE      P0M0

      010074D4H   BLOCK     CODE     ---       LVL=0
      ---         BLOCKEND  ---      ---       LVL=0

      010065FCH   BLOCK     CODE     ---       LVL=0
      010065FCH   LINE      CODE     ---       #16
      010065FCH   LINE      CODE     ---       #21
      010065FCH   LINE      CODE     ---       #23
      01006605H   LINE      CODE     ---       #25
      01006610H   LINE      CODE     ---       #27
      01006610H   LINE      CODE     ---       #29
      01006617H   LINE      CODE     ---       #31
      01006617H   LINE      CODE     ---       #33
      01006617H   LINE      CODE     ---       #37
      01006647H   LINE      CODE     ---       #38
      01006647H   LINE      CODE     ---       #39
      01006647H   LINE      CODE     ---       #41
      01006649H   LINE      CODE     ---       #43
      01006649H   LINE      CODE     ---       #45
      01006650H   LINE      CODE     ---       #47
      01006650H   LINE      CODE     ---       #49
      01006650H   LINE      CODE     ---       #50
      01006659H   LINE      CODE     ---       #51
      01006659H   LINE      CODE     ---       #52
      01006659H   LINE      CODE     ---       #54
      0100665BH   LINE      CODE     ---       #56
      0100665BH   LINE      CODE     ---       #58
      0100665BH   LINE      CODE     ---       #59
      01006676H   LINE      CODE     ---       #60
      0100667FH   LINE      CODE     ---       #61
      0100667FH   LINE      CODE     ---       #63
      0100667FH   LINE      CODE     ---       #64
LX51 LINKER/LOCATER V4.66.41.0                                                        02/15/2019  15:28:07  PAGE 61


      0100667FH   LINE      CODE     ---       #66
      01006684H   LINE      CODE     ---       #67
      01006684H   LINE      CODE     ---       #68
      01006684H   LINE      CODE     ---       #70
      ---         BLOCKEND  ---      ---       LVL=0

      ---         MODULE    ---      ---       DATATRANS
      02000549H   PUBLIC    XDATA    BYTE      heartBeatPeriod
      00000024H.1 PUBLIC    BIT      BIT       uartRX_toutFLG
      020004AFH   PUBLIC    XDATA    ---       datsRcv_ZIGB
      02000482H   PUBLIC    XDATA    ---       datsSend_requestEx
      02000481H   PUBLIC    XDATA    BYTE      timeCounter_coordinatorLost_detecting
      0200047FH   PUBLIC    XDATA    ---       devNwkHoldTime_Param
      0200047EH   PUBLIC    XDATA    BYTE      factoryRecover_HoldTimeCount
      00000060H   PUBLIC    DATA     BYTE      dtModeKeepAcess_currentCmd
      0200047DH   PUBLIC    XDATA    BYTE      colonyCtrlGet_queryCounter
      0200047CH   PUBLIC    XDATA    BYTE      heartBeatHang_timeCnt
      02000476H   PUBLIC    XDATA    ---       dev_agingCmd_rcvPassive
      00000024H.0 PUBLIC    BIT      BIT       factoryRecover_standBy_FLG
      00000023H.7 PUBLIC    BIT      BIT       reConnectAfterDatsReq_IF
      00000023H.6 PUBLIC    BIT      BIT       heartBeatCycle_FLG
      0000005FH   PUBLIC    DATA     BYTE      datsRcv_length
      02000474H   PUBLIC    XDATA    ---       devStatus_switch
      02000472H   PUBLIC    XDATA    ---       devRemoteDataReqMethod
      020003EEH   PUBLIC    XDATA    ---       datsRcv_respond
      020003EDH   PUBLIC    XDATA    BYTE      colonyCtrlGet_statusLocalScene
      020003AFH   PUBLIC    XDATA    ---       dev_currentDataPoint
      000000D9H   PUBLIC    IDATA    WORD      devZigbNwk_startUp_delayCounter
      020003ACH   PUBLIC    XDATA    ---       localDataRecord_eaCtrl
      02000328H   PUBLIC    XDATA    ---       datsSend_request
      02000326H   PUBLIC    XDATA    WORD      zigbNwkAction_counter
      02000324H   PUBLIC    XDATA    WORD      dtReqEx_counter
      0000005EH   PUBLIC    DATA     BYTE      rxTout_count
      02000323H   PUBLIC    XDATA    BYTE      heartBeatCount
      0200031DH   PUBLIC    XDATA    ---       dev_agingCmd_sndInitative
      00000023H.5 PUBLIC    BIT      BIT       rxTout_count_EN
      0200031CH   PUBLIC    XDATA    BYTE      timeCounter_coordinatorLost_keeping
      0000005DH   PUBLIC    DATA     BYTE      devRunning_Status
      0200031BH   PUBLIC    XDATA    BYTE      colonyCtrlGetHang_timeCnt
      02000318H   PUBLIC    XDATA    ---       colonyCtrlGet_statusLocalEaCtrl
      00000023H.4 PUBLIC    BIT      BIT       coordinatorOnline_IF
      01001E6CH   PUBLIC    CODE     ---       thread_dataTrans
      01007592H   PUBLIC    CODE     ---       fun_factoryRecoverOpreat
      010075FFH   PUBLIC    CODE     ---       devHoldStop_makeInAdvance
      00000020H.4 PUBLIC    BIT      BIT       ?devStatusChangeTo_devHold?BIT
      010071C0H   PUBLIC    CODE     ---       devStatusChangeTo_devHold
      00000020H.4 PUBLIC    BIT      BIT       ?ZigB_nwkOpen?BIT
      0000002EH   PUBLIC    DATA     BYTE      ?ZigB_nwkOpen?BYTE
      01006E85H   PUBLIC    CODE     ---       ZigB_nwkOpen
      00000036H   PUBLIC    DATA     BYTE      ?_zigb_VALIDA_INPUT?BYTE
      01006457H   PUBLIC    CODE     ---       _zigb_VALIDA_INPUT
      01007581H   PUBLIC    CODE     ---       _periodDataTrans_momentHang
      010063C5H   PUBLIC    CODE     ---       UART1_Rountine
      01006983H   PUBLIC    CODE     ---       uartObjZigb_Init
      01007525H   PUBLIC    CODE     ---       zigbUart_pinInit
      000000D8H.2 SFRSYM    DATA     BIT       CCF2
      000000E0H.7 SFRSYM    DATA     BIT       ACC7
      00000093H   SFRSYM    DATA     BYTE      P0M1
      00000092H   SFRSYM    DATA     BYTE      P1M0
      00000096H   SFRSYM    DATA     BYTE      P2M0
      00000091H   SFRSYM    DATA     BYTE      P1M1
      00000080H   SFRSYM    DATA     BYTE      P0
      000000B2H   SFRSYM    DATA     BYTE      P3M0
      00000095H   SFRSYM    DATA     BYTE      P2M1
      00000090H   SFRSYM    DATA     BYTE      P1
LX51 LINKER/LOCATER V4.66.41.0                                                        02/15/2019  15:28:07  PAGE 62


      000000B4H   SFRSYM    DATA     BYTE      P4M0
      000000B1H   SFRSYM    DATA     BYTE      P3M1
      000000A0H   SFRSYM    DATA     BYTE      P2
      000000CAH   SFRSYM    DATA     BYTE      P5M0
      000000B3H   SFRSYM    DATA     BYTE      P4M1
      000000B0H   SFRSYM    DATA     BYTE      P3
      000000ABH   SFRSYM    DATA     BYTE      WKTCH
      000000B0H.4 SFRSYM    DATA     BIT       T0
      000000D0H.6 SFRSYM    DATA     BIT       AC
      000000CCH   SFRSYM    DATA     BYTE      P6M0
      000000C9H   SFRSYM    DATA     BYTE      P5M1
      000000C0H   SFRSYM    DATA     BYTE      P4
      000000B0H.5 SFRSYM    DATA     BIT       CLKOUT0
      000000B0H.5 SFRSYM    DATA     BIT       T1
      000000E2H   SFRSYM    DATA     BYTE      P7M0
      000000CBH   SFRSYM    DATA     BYTE      P6M1
      000000C8H   SFRSYM    DATA     BYTE      P5
      000000C6H   SFRSYM    DATA     BYTE      ISP_TRIG
      000000A8H.7 SFRSYM    DATA     BIT       EA
      000000B0H.4 SFRSYM    DATA     BIT       CLKOUT1
      000000A0H.4 SFRSYM    DATA     BIT       SPI_SS_2
      000000E8H   SFRSYM    DATA     BYTE      P6
      000000E1H   SFRSYM    DATA     BYTE      P7M1
      000000C8H.4 SFRSYM    DATA     BIT       SPI_SS_3
      00000090H.4 SFRSYM    DATA     BIT       SPI_MISO
      00000090H.3 SFRSYM    DATA     BIT       SPI_MOSI
      00000090H.1 SFRSYM    DATA     BIT       CCP0
      000000F8H   SFRSYM    DATA     BYTE      P7
      000000AAH   SFRSYM    DATA     BYTE      WKTCL
      00000090H   SFRSYM    DATA     BIT       CCP1
      000000CEH   SFRSYM    DATA     BYTE      SPCTL
      000000D8H.7 SFRSYM    DATA     BIT       CF
      000000B0H.7 SFRSYM    DATA     BIT       CCP2
      000000F9H   SFRSYM    DATA     BYTE      CH
      000000A2H   SFRSYM    DATA     BYTE      P_SW1
      000000BAH   SFRSYM    DATA     BYTE      P_SW2
      000000A8H.5 SFRSYM    DATA     BIT       EADC
      000000A0H.1 SFRSYM    DATA     BIT       SPI_SCLK_2
      000000A8H   SFRSYM    DATA     BYTE      IE
      000000C0H.3 SFRSYM    DATA     BIT       SPI_SCLK_3
      000000E9H   SFRSYM    DATA     BYTE      CL
      000000C5H   SFRSYM    DATA     BYTE      IAP_CMD
      000000FAH   SFRSYM    DATA     BYTE      CCAP0H
      00000090H   SFRSYM    DATA     BIT       Dcode0
      000000FBH   SFRSYM    DATA     BYTE      CCAP1H
      00000090H.1 SFRSYM    DATA     BIT       Dcode1
      000000FCH   SFRSYM    DATA     BYTE      CCAP2H
      00000090H.2 SFRSYM    DATA     BIT       Dcode2
      000000BDH   SFRSYM    DATA     BYTE      ADC_RES
      000000B6H   SFRSYM    DATA     BYTE      IPH2
      00000090H.3 SFRSYM    DATA     BIT       Dcode3
      000000D8H.6 SFRSYM    DATA     BIT       CR
      000000EAH   SFRSYM    DATA     BYTE      CCAP0L
      00000090H.4 SFRSYM    DATA     BIT       Dcode4
      000000B0H.7 SFRSYM    DATA     BIT       RD
      000000EBH   SFRSYM    DATA     BYTE      CCAP1L
      000000DAH   SFRSYM    DATA     BYTE      CCAPM0
      00000090H.3 SFRSYM    DATA     BIT       Dcode5
      000000ECH   SFRSYM    DATA     BYTE      CCAP2L
      000000DBH   SFRSYM    DATA     BYTE      CCAPM1
      000000A8H.4 SFRSYM    DATA     BIT       ES
      000000DCH   SFRSYM    DATA     BYTE      CCAPM2
      000000B8H.5 SFRSYM    DATA     BIT       PADC
      000000A0H.2 SFRSYM    DATA     BIT       SPI_MISO_2
      000000A0H.3 SFRSYM    DATA     BIT       SPI_MOSI_2
LX51 LINKER/LOCATER V4.66.41.0                                                        02/15/2019  15:28:07  PAGE 63


      000000B8H   SFRSYM    DATA     BYTE      IP
      000000C0H.1 SFRSYM    DATA     BIT       SPI_MISO_3
      000000C0H   SFRSYM    DATA     BIT       SPI_MOSI_3
      00000098H   SFRSYM    DATA     BIT       RI
      000000B0H.2 SFRSYM    DATA     BIT       INT0
      000000D0H.7 SFRSYM    DATA     BIT       CY
      00000098H.1 SFRSYM    DATA     BIT       TI
      000000B0H.3 SFRSYM    DATA     BIT       INT1
      00000097H   SFRSYM    DATA     BYTE      CLK_DIV
      000000C3H   SFRSYM    DATA     BYTE      IAP_ADDRH
      00000090H   SFRSYM    DATA     BIT       RXD2
      000000C5H   SFRSYM    DATA     BYTE      ISP_CMD
      000000B8H.4 SFRSYM    DATA     BIT       PS
      00000090H.1 SFRSYM    DATA     BIT       TXD2
      00000081H   SFRSYM    DATA     BYTE      SP
      000000D9H   SFRSYM    DATA     BYTE      CMOD
      000000D8H   SFRSYM    DATA     BYTE      CCON
      000000C4H   SFRSYM    DATA     BYTE      IAP_ADDRL
      000000B8H.7 SFRSYM    DATA     BIT       PPCA
      000000D0H.2 SFRSYM    DATA     BIT       OV
      000000B0H.6 SFRSYM    DATA     BIT       WR
      000000A8H.6 SFRSYM    DATA     BIT       ELVD
      00000080H   SFRSYM    DATA     BIT       P00
      00000090H   SFRSYM    DATA     BIT       P10
      00000080H.1 SFRSYM    DATA     BIT       P01
      000000BCH   SFRSYM    DATA     BYTE      ADC_CONTR
      00000099H   SFRSYM    DATA     BYTE      SBUF
      00000087H   SFRSYM    DATA     BYTE      PCON
      000000A0H   SFRSYM    DATA     BIT       P20
      00000090H.1 SFRSYM    DATA     BIT       P11
      00000080H.2 SFRSYM    DATA     BIT       P02
      000000C3H   SFRSYM    DATA     BYTE      ISP_ADDRH
      000000B0H   SFRSYM    DATA     BIT       P30
      000000A0H.1 SFRSYM    DATA     BIT       P21
      00000090H.2 SFRSYM    DATA     BIT       P12
      00000080H.3 SFRSYM    DATA     BIT       P03
      000000C0H   SFRSYM    DATA     BIT       P40
      000000B0H.1 SFRSYM    DATA     BIT       P31
      000000A0H.2 SFRSYM    DATA     BIT       P22
      00000090H.3 SFRSYM    DATA     BIT       P13
      00000080H.4 SFRSYM    DATA     BIT       P04
      00000098H   SFRSYM    DATA     BYTE      SCON
      0000008FH   SFRSYM    DATA     BYTE      WAKE_CLKO
      000000C8H   SFRSYM    DATA     BIT       P50
      000000C0H.1 SFRSYM    DATA     BIT       P41
      000000B0H.2 SFRSYM    DATA     BIT       P32
      000000A0H.3 SFRSYM    DATA     BIT       P23
      00000090H.4 SFRSYM    DATA     BIT       P14
      00000080H.5 SFRSYM    DATA     BIT       P05
      00000089H   SFRSYM    DATA     BYTE      TMOD
      00000088H   SFRSYM    DATA     BYTE      TCON
      000000C8H.1 SFRSYM    DATA     BIT       P51
      000000C0H.2 SFRSYM    DATA     BIT       P42
      000000B0H.3 SFRSYM    DATA     BIT       P33
      000000A0H.4 SFRSYM    DATA     BIT       P24
      00000090H.5 SFRSYM    DATA     BIT       P15
      00000080H.6 SFRSYM    DATA     BIT       P06
      000000C4H   SFRSYM    DATA     BYTE      ISP_ADDRL
      000000B8H.6 SFRSYM    DATA     BIT       PLVD
      000000C8H.2 SFRSYM    DATA     BIT       P52
      000000C0H.3 SFRSYM    DATA     BIT       P43
      000000B0H.4 SFRSYM    DATA     BIT       P34
      000000A0H.5 SFRSYM    DATA     BIT       P25
      00000090H.6 SFRSYM    DATA     BIT       P16
      00000080H.7 SFRSYM    DATA     BIT       P07
LX51 LINKER/LOCATER V4.66.41.0                                                        02/15/2019  15:28:07  PAGE 64


      000000C8H.3 SFRSYM    DATA     BIT       P53
      000000C0H.4 SFRSYM    DATA     BIT       P44
      000000B0H.5 SFRSYM    DATA     BIT       P35
      000000A0H.6 SFRSYM    DATA     BIT       P26
      00000090H.7 SFRSYM    DATA     BIT       P17
      000000C8H.4 SFRSYM    DATA     BIT       P54
      000000C0H.5 SFRSYM    DATA     BIT       P45
      000000B0H.6 SFRSYM    DATA     BIT       P36
      000000A0H.7 SFRSYM    DATA     BIT       P27
      000000C8H.5 SFRSYM    DATA     BIT       P55
      000000C0H.6 SFRSYM    DATA     BIT       P46
      000000B0H.7 SFRSYM    DATA     BIT       P37
      000000C8H.6 SFRSYM    DATA     BIT       P56
      000000C0H.7 SFRSYM    DATA     BIT       P47
      000000C8H.7 SFRSYM    DATA     BIT       P57
      00000088H.1 SFRSYM    DATA     BIT       IE0
      000000A1H   SFRSYM    DATA     BYTE      BUS_SPEED
      00000088H.3 SFRSYM    DATA     BIT       IE1
      000000AFH   SFRSYM    DATA     BYTE      IE2
      000000F0H   SFRSYM    DATA     BYTE      B
      0000008EH   SFRSYM    DATA     BYTE      AUXR
      000000C7H   SFRSYM    DATA     BYTE      IAP_CONTR
      000000E0H   SFRSYM    DATA     BYTE      ACC
      000000A8H.1 SFRSYM    DATA     BIT       ET0
      000000A8H.3 SFRSYM    DATA     BIT       ET1
      00000088H.5 SFRSYM    DATA     BIT       TF0
      00000088H.7 SFRSYM    DATA     BIT       TF1
      000000B5H   SFRSYM    DATA     BYTE      IP2
      0000008CH   SFRSYM    DATA     BYTE      RL_TH0
      00000098H.2 SFRSYM    DATA     BIT       RB8
      0000008DH   SFRSYM    DATA     BYTE      RL_TH1
      0000008CH   SFRSYM    DATA     BYTE      TH0
      000000A8H   SFRSYM    DATA     BIT       EX0
      00000088H   SFRSYM    DATA     BIT       IT0
      000000D6H   SFRSYM    DATA     BYTE      RL_T2H
      0000008DH   SFRSYM    DATA     BYTE      TH1
      00000090H.6 SFRSYM    DATA     BIT       touchPad_1
      000000A8H.2 SFRSYM    DATA     BIT       EX1
      00000098H.3 SFRSYM    DATA     BIT       TB8
      00000088H.2 SFRSYM    DATA     BIT       IT1
      000000D4H   SFRSYM    DATA     BYTE      RL_T3H
      000000D6H   SFRSYM    DATA     BYTE      TH2
      000000D6H   SFRSYM    DATA     BYTE      T2H
      00000090H.7 SFRSYM    DATA     BIT       touchPad_2
      000000D0H   SFRSYM    DATA     BIT       P
      000000D2H   SFRSYM    DATA     BYTE      RL_T4H
      000000D4H   SFRSYM    DATA     BYTE      TH3
      000000D4H   SFRSYM    DATA     BYTE      T3H
      0000008AH   SFRSYM    DATA     BYTE      RL_TL0
      00000090H.5 SFRSYM    DATA     BIT       touchPad_3
      00000098H.7 SFRSYM    DATA     BIT       SM0
      000000D2H   SFRSYM    DATA     BYTE      TH4
      000000D2H   SFRSYM    DATA     BYTE      T4H
      0000008BH   SFRSYM    DATA     BYTE      RL_TL1
      0000008AH   SFRSYM    DATA     BYTE      TL0
      00000098H.6 SFRSYM    DATA     BIT       SM1
      000000D7H   SFRSYM    DATA     BYTE      RL_T2L
      0000008BH   SFRSYM    DATA     BYTE      TL1
      00000098H.5 SFRSYM    DATA     BIT       SM2
      000000D5H   SFRSYM    DATA     BYTE      RL_T3L
      000000D7H   SFRSYM    DATA     BYTE      TL2
      000000D7H   SFRSYM    DATA     BYTE      T2L
      000000D3H   SFRSYM    DATA     BYTE      RL_T4L
      000000D5H   SFRSYM    DATA     BYTE      TL3
      000000D5H   SFRSYM    DATA     BYTE      T3L
LX51 LINKER/LOCATER V4.66.41.0                                                        02/15/2019  15:28:07  PAGE 65


      000000B8H.1 SFRSYM    DATA     BIT       PT0
      000000D3H   SFRSYM    DATA     BYTE      TL4
      000000D3H   SFRSYM    DATA     BYTE      T4L
      000000B8H.3 SFRSYM    DATA     BIT       PT1
      000000D0H.3 SFRSYM    DATA     BIT       RS0
      000000C7H   SFRSYM    DATA     BYTE      ISP_CONTR
      00000088H.4 SFRSYM    DATA     BIT       TR0
      000000D0H.4 SFRSYM    DATA     BIT       RS1
      000000C2H   SFRSYM    DATA     BYTE      IAP_DATA
      00000088H.6 SFRSYM    DATA     BIT       TR1
      000000B8H   SFRSYM    DATA     BIT       PX0
      000000C1H   SFRSYM    DATA     BYTE      WDT_CONTR
      000000B8H.2 SFRSYM    DATA     BIT       PX1
      000000F2H   SFRSYM    DATA     BYTE      PCA_PWM0
      000000F3H   SFRSYM    DATA     BYTE      PCA_PWM1
      000000F4H   SFRSYM    DATA     BYTE      PCA_PWM2
      0000009DH   SFRSYM    DATA     BYTE      P1ASF
      00000083H   SFRSYM    DATA     BYTE      DPH
      000000D1H   SFRSYM    DATA     BYTE      T4T3M
      000000BEH   SFRSYM    DATA     BYTE      ADC_RESL
      00000082H   SFRSYM    DATA     BYTE      DPL
      000000CDH   SFRSYM    DATA     BYTE      SPSTAT
      000000B7H   SFRSYM    DATA     BYTE      IPH
      0000009BH   SFRSYM    DATA     BYTE      S2BUF
      00000097H   SFRSYM    DATA     BYTE      PCON2
      000000ADH   SFRSYM    DATA     BYTE      S3BUF
      00000098H.4 SFRSYM    DATA     BIT       REN
      00000085H   SFRSYM    DATA     BYTE      S4BUF
      00000080H.2 SFRSYM    DATA     BIT       Usr_key
      0000009AH   SFRSYM    DATA     BYTE      S2CON
      000000ACH   SFRSYM    DATA     BYTE      S3CON
      000000C2H   SFRSYM    DATA     BYTE      ISP_DATA
      00000084H   SFRSYM    DATA     BYTE      S4CON
      000000B9H   SFRSYM    DATA     BYTE      SADEN
      000000B0H   SFRSYM    DATA     BIT       RXD
      000000A9H   SFRSYM    DATA     BYTE      SADDR
      000000B0H.1 SFRSYM    DATA     BIT       TXD
      000000F0H   SFRSYM    DATA     BIT       B0
      000000F0H.1 SFRSYM    DATA     BIT       B1
      000000C6H   SFRSYM    DATA     BYTE      IAP_TRIG
      000000A2H   SFRSYM    DATA     BYTE      AUXR1
      000000F0H.2 SFRSYM    DATA     BIT       B2
      00000090H.2 SFRSYM    DATA     BIT       SPI_SS
      0000008FH   SFRSYM    DATA     BYTE      AUXR2
      000000F0H.3 SFRSYM    DATA     BIT       B3
      000000F0H.4 SFRSYM    DATA     BIT       B4
      000000D0H.5 SFRSYM    DATA     BIT       F0
      000000F0H.5 SFRSYM    DATA     BIT       B5
      000000D0H.1 SFRSYM    DATA     BIT       F1
      0000008FH   SFRSYM    DATA     BYTE      INT_CLKO
      000000F0H.6 SFRSYM    DATA     BIT       B6
      000000E0H   SFRSYM    DATA     BIT       ACC0
      000000F0H.7 SFRSYM    DATA     BIT       B7
      000000E0H.1 SFRSYM    DATA     BIT       ACC1
      000000E0H.2 SFRSYM    DATA     BIT       ACC2
      000000E0H.3 SFRSYM    DATA     BIT       ACC3
      000000D0H   SFRSYM    DATA     BYTE      PSW
      000000E0H.4 SFRSYM    DATA     BIT       ACC4
      00000090H.5 SFRSYM    DATA     BIT       SPI_SCLK
      000000D8H   SFRSYM    DATA     BIT       CCF0
      000000E0H.5 SFRSYM    DATA     BIT       ACC5
      000000D8H.1 SFRSYM    DATA     BIT       CCF1
      000000E0H.6 SFRSYM    DATA     BIT       ACC6
      000000CFH   SFRSYM    DATA     BYTE      SPDAT
      00000094H   SFRSYM    DATA     BYTE      P0M0
LX51 LINKER/LOCATER V4.66.41.0                                                        02/15/2019  15:28:07  PAGE 66


      010055B5H   SYMBOL    CODE     ---       _zigB_sysTimeSet
      01006F64H   SYMBOL    CODE     ---       ZigB_getPanIDCurrent
      01006C17H   SYMBOL    CODE     ---       _zigb_datsRequest
      010047C6H   SYMBOL    CODE     ---       dataTransRequest_datsSend
      01005A38H   SYMBOL    CODE     ---       getSystemTime_reales
      0100447BH   SYMBOL    CODE     ---       zigB_nwkJoinRequest
      0100070BH   SYMBOL    CODE     ---       _?ix1000
      01000FE3H   SYMBOL    CODE     ---       _?ix1010
      0100074BH   SYMBOL    CODE     ---       _?ix1001
      01001301H   SYMBOL    CODE     ---       _?ix1020
      0100107CH   SYMBOL    CODE     ---       _?ix1011
      01000831H   SYMBOL    CODE     ---       _?ix1002
      010010BCH   SYMBOL    CODE     ---       _?ix1012
      01000834H   SYMBOL    CODE     ---       _?ix1003
      010010C1H   SYMBOL    CODE     ---       _?ix1013
      0100085CH   SYMBOL    CODE     ---       _?ix1004
      010010C4H   SYMBOL    CODE     ---       _?ix1014
      01000909H   SYMBOL    CODE     ---       _?ix1005
      010010E6H   SYMBOL    CODE     ---       _?ix1015
      01005FA8H   SYMBOL    CODE     ---       function_devNwkHold
      01000E5FH   SYMBOL    CODE     ---       _?ix1006
      01001185H   SYMBOL    CODE     ---       _?ix1016
      01000E9FH   SYMBOL    CODE     ---       _?ix1007
      010011C3H   SYMBOL    CODE     ---       _?ix1017
      01000EB1H   SYMBOL    CODE     ---       _?ix1008
      010011CDH   SYMBOL    CODE     ---       _?ix1018
      01000F4AH   SYMBOL    CODE     ---       _?ix1009
      01001266H   SYMBOL    CODE     ---       _?ix1019
      01007314H   SYMBOL    CODE     ---       _frame_Check
      01006D8FH   SYMBOL    CODE     ---       _dataParing_scenarioCtrl
      01001307H   SYMBOL    CODE     ---       _dataParing_Nomal
      01006815H   SYMBOL    CODE     ---       _zigb_datsLoad_datsSend
      0100702EH   SYMBOL    CODE     ---       _dataSendRemote_straightforward
      01005D24H   SYMBOL    CODE     ---       dtasTX_loadBasic_CUST
      01004EC0H   SYMBOL    CODE     ---       _dataParing_zigbSysCtrl
      01006572H   SYMBOL    CODE     ---       _ZigB_TXFrameLoad

      0100367AH   BLOCK     CODE     ---       LVL=0
      ---         BLOCKEND  ---      ---       LVL=0

      01007525H   BLOCK     CODE     ---       LVL=0
      01007525H   LINE      CODE     ---       #81
      01007525H   LINE      CODE     ---       #84
      01007528H   LINE      CODE     ---       #85
      0100752BH   LINE      CODE     ---       #88
      0100752EH   LINE      CODE     ---       #89
      01007531H   LINE      CODE     ---       #99
      01007534H   LINE      CODE     ---       #100
      01007537H   LINE      CODE     ---       #102
      ---         BLOCKEND  ---      ---       LVL=0

      01006983H   BLOCK     CODE     ---       LVL=0
      0100698FH   BLOCK     CODE     NEAR LAB  LVL=1
      00000027H   SYMBOL    DATA     DWORD     j
      ---         BLOCKEND  ---      ---       LVL=1
      01006983H   LINE      CODE     ---       #105
      01006983H   LINE      CODE     ---       #107
      01006985H   LINE      CODE     ---       #109
      01006987H   LINE      CODE     ---       #110
      0100698FH   LINE      CODE     ---       #112
      0100698FH   LINE      CODE     ---       #113
      01006999H   LINE      CODE     ---       #114
      010069AEH   LINE      CODE     ---       #116
      010069BCH   LINE      CODE     ---       #117
      010069BFH   LINE      CODE     ---       #118
LX51 LINKER/LOCATER V4.66.41.0                                                        02/15/2019  15:28:07  PAGE 67


      010069BFH   LINE      CODE     ---       #119
      010069C2H   LINE      CODE     ---       #120
      010069C5H   LINE      CODE     ---       #121
      010069C8H   LINE      CODE     ---       #122
      010069CBH   LINE      CODE     ---       #124
      010069CEH   LINE      CODE     ---       #125
      010069D1H   LINE      CODE     ---       #126
      010069D4H   LINE      CODE     ---       #128
      010069D6H   LINE      CODE     ---       #129
      010069D8H   LINE      CODE     ---       #130
      010069DBH   LINE      CODE     ---       #132
      010069E2H   LINE      CODE     ---       #134
      010069E4H   LINE      CODE     ---       #136
      010069EDH   LINE      CODE     ---       #137
      ---         BLOCKEND  ---      ---       LVL=0

      010063C5H   BLOCK     CODE     ---       LVL=0
      010063C5H   LINE      CODE     ---       #160
      010063E2H   LINE      CODE     ---       #163
      010063E5H   LINE      CODE     ---       #164
      010063E5H   LINE      CODE     ---       #165
      010063E7H   LINE      CODE     ---       #166
      010063EBH   LINE      CODE     ---       #167
      010063EBH   LINE      CODE     ---       #173
      010063EEH   LINE      CODE     ---       #175
      010063F0H   LINE      CODE     ---       #176
      010063F2H   LINE      CODE     ---       #177
      010063F4H   LINE      CODE     ---       #179
      010063FEH   LINE      CODE     ---       #180
      010063FEH   LINE      CODE     ---       #182
      0100640FH   LINE      CODE     ---       #183
      01006412H   LINE      CODE     ---       #184
      01006412H   LINE      CODE     ---       #185
      01006412H   LINE      CODE     ---       #187
      01006415H   LINE      CODE     ---       #188
      01006415H   LINE      CODE     ---       #189
      01006417H   LINE      CODE     ---       #190
      0100641DH   LINE      CODE     ---       #191
      0100641DH   LINE      CODE     ---       #192
      0100642BH   LINE      CODE     ---       #193
      01006437H   LINE      CODE     ---       #194
      01006439H   LINE      CODE     ---       #195
      0100643CH   LINE      CODE     ---       #196
      0100643CH   LINE      CODE     ---       #197
      ---         BLOCKEND  ---      ---       LVL=0

      01007314H   BLOCK     CODE     ---       LVL=0
      00000039H   SYMBOL    DATA     ---       frame_temp
      00000005H   SYMBOL    DATA     BYTE      check_num
      0100731AH   BLOCK     CODE     NEAR LAB  LVL=1
      00000007H   SYMBOL    DATA     BYTE      loop
      00000006H   SYMBOL    DATA     BYTE      val_Check
      ---         BLOCKEND  ---      ---       LVL=1
      01007314H   LINE      CODE     ---       #201
      0100731AH   LINE      CODE     ---       #203
      0100731CH   LINE      CODE     ---       #204
      0100731DH   LINE      CODE     ---       #206
      01007322H   LINE      CODE     ---       #208
      0100732DH   LINE      CODE     ---       #209
      01007330H   LINE      CODE     ---       #211
      01007333H   LINE      CODE     ---       #212
      01007336H   LINE      CODE     ---       #214
      01007338H   LINE      CODE     ---       #215
      ---         BLOCKEND  ---      ---       LVL=0

LX51 LINKER/LOCATER V4.66.41.0                                                        02/15/2019  15:28:07  PAGE 68


      01005D24H   BLOCK     CODE     ---       LVL=0
      00000020H.6 SYMBOL    BIT      BIT       ifRemoteDats
      00000033H   SYMBOL    DATA     ---       dats_Tx
      00000036H   SYMBOL    DATA     BYTE      datsLen_TX
      00000037H   SYMBOL    DATA     BYTE      frame_Type
      00000038H   SYMBOL    DATA     BYTE      frame_CMD
      00000020H.7 SYMBOL    BIT      BIT       ifSpecial_CMD
      01005D6FH   BLOCK     CODE     NEAR LAB  LVL=1
      02000213H   SYMBOL    XDATA    ---       dats_Temp
      ---         BLOCKEND  ---      ---       LVL=1
      01005D24H   LINE      CODE     ---       #219
      01005D24H   LINE      CODE     ---       #224
      01005D24H   LINE      CODE     ---       #226
      01005D2FH   LINE      CODE     ---       #227
      01005D37H   LINE      CODE     ---       #229
      01005D45H   LINE      CODE     ---       #231
      01005D52H   LINE      CODE     ---       #233
      01005D6CH   LINE      CODE     ---       #235
      01005D6FH   LINE      CODE     ---       #237
      01005D7CH   LINE      CODE     ---       #239
      01005D84H   LINE      CODE     ---       #240
      01005D91H   LINE      CODE     ---       #242
      01005D9EH   LINE      CODE     ---       #243
      01005DB7H   LINE      CODE     ---       #244
      01005DCAH   LINE      CODE     ---       #245
      01005DDAH   LINE      CODE     ---       #246
      01005DE4H   LINE      CODE     ---       #248
      01005DE7H   LINE      CODE     ---       #250
      01005DE7H   LINE      CODE     ---       #252
      01005DEFH   LINE      CODE     ---       #253
      01005DFAH   LINE      CODE     ---       #255
      01005DFCH   LINE      CODE     ---       #256
      01005DFCH   LINE      CODE     ---       #257
      ---         BLOCKEND  ---      ---       LVL=0
      00000005H   SYMBOL    DATA     BYTE      length
      00000007H   SYMBOL    DATA     BYTE      loop
      00000006H   SYMBOL    DATA     BYTE      valXOR

      01006572H   BLOCK     CODE     ---       LVL=0
      00000046H   SYMBOL    DATA     ---       frame
      00000049H   SYMBOL    DATA     ---       cmd
      0000004CH   SYMBOL    DATA     BYTE      cmdLen
      0000004DH   SYMBOL    DATA     ---       dats
      00000050H   SYMBOL    DATA     BYTE      datsLen
      01006578H   BLOCK     CODE     NEAR LAB  LVL=1
      00000007H   SYMBOL    DATA     BYTE      frameHead
      00000051H   SYMBOL    DATA     BYTE      xor_check
      00000006H   SYMBOL    DATA     BYTE      loop
      00000052H   SYMBOL    DATA     BYTE      ptr
      ---         BLOCKEND  ---      ---       LVL=1
      01006572H   LINE      CODE     ---       #273
      01006578H   LINE      CODE     ---       #275
      01006578H   LINE      CODE     ---       #276
      0100657BH   LINE      CODE     ---       #277
      0100657CH   LINE      CODE     ---       #278
      0100657EH   LINE      CODE     ---       #280
      0100658BH   LINE      CODE     ---       #281
      01006593H   LINE      CODE     ---       #283
      010065A1H   LINE      CODE     ---       #284
      010065A7H   LINE      CODE     ---       #285
      010065BFH   LINE      CODE     ---       #287
      010065CDH   LINE      CODE     ---       #288
      010065D3H   LINE      CODE     ---       #289
      010065EBH   LINE      CODE     ---       #291
      010065F9H   LINE      CODE     ---       #293
LX51 LINKER/LOCATER V4.66.41.0                                                        02/15/2019  15:28:07  PAGE 69


      010065FBH   LINE      CODE     ---       #294
      ---         BLOCKEND  ---      ---       LVL=0

      01007581H   BLOCK     CODE     ---       LVL=0
      00000007H   SYMBOL    DATA     BYTE      hangTime
      01007581H   LINE      CODE     ---       #297
      01007581H   LINE      CODE     ---       #299
      01007585H   LINE      CODE     ---       #300
      01007588H   LINE      CODE     ---       #302
      01007591H   LINE      CODE     ---       #303
      ---         BLOCKEND  ---      ---       LVL=0

      01006C17H   BLOCK     CODE     ---       LVL=0
      0000003AH   SYMBOL    DATA     ---       frameREQ
      0000003DH   SYMBOL    DATA     BYTE      frameREQ_Len
      0000003EH   SYMBOL    DATA     ---       resp_cmd
      00000041H   SYMBOL    DATA     ---       resp_dats
      00000044H   SYMBOL    DATA     BYTE      loopReapt
      00000045H   SYMBOL    DATA     WORD      timeWait
      01006C1FH   BLOCK     CODE     NEAR LAB  LVL=1
      00000047H   SYMBOL    DATA     WORD      Local_Delay
      00000049H   SYMBOL    DATA     BYTE      loop
      ---         BLOCKEND  ---      ---       LVL=1
      01006C17H   LINE      CODE     ---       #307
      01006C1FH   LINE      CODE     ---       #311
      01006C1FH   LINE      CODE     ---       #313
      01006C25H   LINE      CODE     ---       #314
      01006C28H   LINE      CODE     ---       #316
      01006C31H   LINE      CODE     ---       #318
      01006C33H   LINE      CODE     ---       #319
      01006C3DH   LINE      CODE     ---       #320
      01006C48H   LINE      CODE     ---       #322
      01006C52H   LINE      CODE     ---       #324
      01006C55H   LINE      CODE     ---       #326
      01006C57H   LINE      CODE     ---       #328
      01006C62H   LINE      CODE     ---       #330
      01006C72H   LINE      CODE     ---       #331
      01006C78H   LINE      CODE     ---       #333
      01006C78H   LINE      CODE     ---       #334
      01006C78H   LINE      CODE     ---       #335
      01006C78H   LINE      CODE     ---       #336
      01006C7CH   LINE      CODE     ---       #338
      01006C7EH   LINE      CODE     ---       #339
      ---         BLOCKEND  ---      ---       LVL=0

      01006457H   BLOCK     CODE     ---       LVL=0
      00000036H   SYMBOL    DATA     ---       REQ_CMD
      00000039H   SYMBOL    DATA     ---       REQ_DATS
      0000003CH   SYMBOL    DATA     BYTE      REQdatsLen
      0000003DH   SYMBOL    DATA     ---       ANSR_frame
      00000040H   SYMBOL    DATA     BYTE      ANSRdatsLen
      00000041H   SYMBOL    DATA     BYTE      times
      00000042H   SYMBOL    DATA     WORD      timeDelay
      0100645DH   BLOCK     CODE     NEAR LAB  LVL=1
      02000168H   SYMBOL    XDATA    ---       dataTXBUF
      00000044H   SYMBOL    DATA     BYTE      loop
      00000045H   SYMBOL    DATA     BYTE      datsTX_Len
      ---         BLOCKEND  ---      ---       LVL=1
      01006457H   LINE      CODE     ---       #342
      0100645DH   LINE      CODE     ---       #347
      0100645DH   LINE      CODE     ---       #350
      0100646AH   LINE      CODE     ---       #351
      0100646DH   LINE      CODE     ---       #354
      01006490H   LINE      CODE     ---       #356
      0100649AH   LINE      CODE     ---       #358
LX51 LINKER/LOCATER V4.66.41.0                                                        02/15/2019  15:28:07  PAGE 70


      0100649CH   LINE      CODE     ---       #359
      010064A6H   LINE      CODE     ---       #360
      010064B1H   LINE      CODE     ---       #362
      010064BBH   LINE      CODE     ---       #364
      010064BEH   LINE      CODE     ---       #366
      010064C0H   LINE      CODE     ---       #368
      010064D7H   LINE      CODE     ---       #370
      010064DEH   LINE      CODE     ---       #371
      010064E0H   LINE      CODE     ---       #372
      010064E0H   LINE      CODE     ---       #373
      010064E0H   LINE      CODE     ---       #374
      010064E0H   LINE      CODE     ---       #375
      010064E4H   LINE      CODE     ---       #377
      010064E5H   LINE      CODE     ---       #378
      ---         BLOCKEND  ---      ---       LVL=0

      01006E85H   BLOCK     CODE     ---       LVL=0
      00000020H.4 SYMBOL    BIT      BIT       openIF
      0000002EH   SYMBOL    DATA     BYTE      openTime
      01006E85H   BLOCK     CODE     NEAR LAB  LVL=1
      010007ABH   SYMBOL    CODE     ---       default_param
      00000020H.5 SYMBOL    BIT      BIT       resultSet
      0000002FH   SYMBOL    DATA     BYTE      openTime_temp
      0200015DH   SYMBOL    XDATA    ---       paramTX_temp
      ---         BLOCKEND  ---      ---       LVL=1
      01006E85H   LINE      CODE     ---       #493
      01006E85H   LINE      CODE     ---       #497
      01006E87H   LINE      CODE     ---       #499
      01006E8AH   LINE      CODE     ---       #502
      01006E98H   LINE      CODE     ---       #504
      01006EA8H   LINE      CODE     ---       #509
      01006ED0H   LINE      CODE     ---       #523
      01006ED2H   LINE      CODE     ---       #524
      ---         BLOCKEND  ---      ---       LVL=0

      01006F64H   BLOCK     CODE     ---       LVL=0
      01006F64H   BLOCK     CODE     NEAR LAB  LVL=1
      00000038H   SYMBOL    DATA     WORD      PANID_temp
      0200017CH   SYMBOL    XDATA    ---       paramTX_temp
      01000854H   SYMBOL    CODE     ---       frameREQ_zigbPanIDGet
      0100085AH   SYMBOL    CODE     ---       cmdResp_zigbPanIDGet
      00000007H   SYMBOL    DATA     BYTE      datsResp_Len
      ---         BLOCKEND  ---      ---       LVL=1
      01006F64H   LINE      CODE     ---       #527
      01006F64H   LINE      CODE     ---       #529
      01006F69H   LINE      CODE     ---       #532
      01006F73H   LINE      CODE     ---       #536
      01006F77H   LINE      CODE     ---       #538
      01006F95H   LINE      CODE     ---       #540
      01006F98H   LINE      CODE     ---       #542
      01006F9EH   LINE      CODE     ---       #543
      01006FA4H   LINE      CODE     ---       #546
      01006FA4H   LINE      CODE     ---       #548
      01006FA8H   LINE      CODE     ---       #549
      ---         BLOCKEND  ---      ---       LVL=0

      01005A38H   BLOCK     CODE     ---       LVL=0
      01005A38H   BLOCK     CODE     NEAR LAB  LVL=1
      00000020H.2 SYMBOL    BIT      BIT       resultOpreat
      0200013BH   SYMBOL    XDATA    ---       paramTX_temp
      0100087CH   SYMBOL    CODE     ---       frameREQ_zigbSystimeGet
      01000881H   SYMBOL    CODE     ---       cmdResp_zigbSystimeGet
      00000007H   SYMBOL    DATA     BYTE      datsResp_Len
      01005A6FH   BLOCK     CODE     NEAR LAB  LVL=2
      00000027H   SYMBOL    DATA     WORD      Y_temp16
LX51 LINKER/LOCATER V4.66.41.0                                                        02/15/2019  15:28:07  PAGE 71


      00000029H   SYMBOL    DATA     BYTE      Y_temp8
      0000002AH   SYMBOL    DATA     BYTE      M_temp8
      0000002BH   SYMBOL    DATA     BYTE      Y
      0000002CH   SYMBOL    DATA     BYTE      M
      0000002DH   SYMBOL    DATA     BYTE      D
      0000002EH   SYMBOL    DATA     BYTE      W
      ---         BLOCKEND  ---      ---       LVL=2
      ---         BLOCKEND  ---      ---       LVL=1
      01005A38H   LINE      CODE     ---       #552
      01005A38H   LINE      CODE     ---       #554
      01005A3AH   LINE      CODE     ---       #557
      01005A47H   LINE      CODE     ---       #561
      01005A49H   LINE      CODE     ---       #563
      01005A67H   LINE      CODE     ---       #565
      01005A6FH   LINE      CODE     ---       #566
      01005A6FH   LINE      CODE     ---       #568
      01005A7FH   LINE      CODE     ---       #569
      01005A82H   LINE      CODE     ---       #570
      01005A84H   LINE      CODE     ---       #572
      01005A91H   LINE      CODE     ---       #573
      01005A97H   LINE      CODE     ---       #574
      01005A9BH   LINE      CODE     ---       #575
      01005A9EH   LINE      CODE     ---       #578
      01005AA1H   LINE      CODE     ---       #579
      01005AACH   LINE      CODE     ---       #581
      01005AB2H   LINE      CODE     ---       #582
      01005AB4H   LINE      CODE     ---       #583
      01005AB6H   LINE      CODE     ---       #584
      01005AB9H   LINE      CODE     ---       #587
      01005ADCH   LINE      CODE     ---       #588
      01005AE3H   LINE      CODE     ---       #591
      01005AF0H   LINE      CODE     ---       #593
      01005AF6H   LINE      CODE     ---       #594
      01005AFCH   LINE      CODE     ---       #595
      01005B02H   LINE      CODE     ---       #597
      01005B0AH   LINE      CODE     ---       #598
      01005B12H   LINE      CODE     ---       #599
      01005B1BH   LINE      CODE     ---       #602
      01005B2FH   LINE      CODE     ---       #604
      01005B31H   LINE      CODE     ---       #605
      01005B31H   LINE      CODE     ---       #616
      01005B33H   LINE      CODE     ---       #617
      ---         BLOCKEND  ---      ---       LVL=0

      010055B5H   BLOCK     CODE     ---       LVL=0
      0000002EH   SYMBOL    DATA     DWORD     timeStamp
      00000020H.4 SYMBOL    BIT      BIT       timeZoneAdjust_IF
      010055BDH   BLOCK     CODE     NEAR LAB  LVL=1
      01000883H   SYMBOL    CODE     ---       default_param
      0200015DH   SYMBOL    XDATA    ---       timeStampArray
      00000020H.5 SYMBOL    BIT      BIT       resultSet
      00000032H   SYMBOL    DATA     DWORD     timeStamp_temp
      ---         BLOCKEND  ---      ---       LVL=1
      010055B5H   LINE      CODE     ---       #621
      010055BDH   LINE      CODE     ---       #624
      010055CAH   LINE      CODE     ---       #625
      010055CCH   LINE      CODE     ---       #626
      010055D8H   LINE      CODE     ---       #628
      010055DEH   LINE      CODE     ---       #630
      010055E7H   LINE      CODE     ---       #632
      01005611H   LINE      CODE     ---       #634
      01005613H   LINE      CODE     ---       #635
      01005623H   LINE      CODE     ---       #637
      0100565DH   LINE      CODE     ---       #639
      0100565FH   LINE      CODE     ---       #640
LX51 LINKER/LOCATER V4.66.41.0                                                        02/15/2019  15:28:07  PAGE 72


      01005669H   LINE      CODE     ---       #642
      010056A2H   LINE      CODE     ---       #643
      010056A2H   LINE      CODE     ---       #644
      010056A2H   LINE      CODE     ---       #646
      010056AAH   LINE      CODE     ---       #647
      010056B6H   LINE      CODE     ---       #648
      010056C2H   LINE      CODE     ---       #649
      010056CEH   LINE      CODE     ---       #654
      010056F6H   LINE      CODE     ---       #668
      010056F8H   LINE      CODE     ---       #669
      ---         BLOCKEND  ---      ---       LVL=0

      0100447BH   BLOCK     CODE     ---       LVL=0
      00000020H.2 SYMBOL    BIT      BIT       reJoin_IF
      0100447BH   BLOCK     CODE     NEAR LAB  LVL=1
      01000914H   SYMBOL    CODE     ---       ZigbInit_dats
      01000DCAH   SYMBOL    CODE     ---       defaultParam_clusterRegister
      01000E50H   SYMBOL    CODE     ---       frameResponseSubs_clusterRegister
      01000E56H   SYMBOL    CODE     ---       cluster_Default
      0200013BH   SYMBOL    XDATA    ---       paramTX_temp
      02000314H   SYMBOL    XDATA    BYTE      step_CortexA
      02000315H   SYMBOL    XDATA    BYTE      step_CortexB
      02000316H   SYMBOL    XDATA    BYTE      reactionLoop
      0200017BH   SYMBOL    XDATA    BYTE      actionReaptDefine_normal
      00000027H   SYMBOL    DATA     BYTE      datsTX_Len
      01004507H   BLOCK     CODE     NEAR LAB  LVL=2
      02000313H   SYMBOL    XDATA    BYTE      stepDisp_CortexA
      00000028H   SYMBOL    DATA     ---       datsREG_cluster
      ---         BLOCKEND  ---      ---       LVL=2
      0100467DH   BLOCK     CODE     NEAR LAB  LVL=2
      00000028H   SYMBOL    DATA     ---       datsREG_cluster
      ---         BLOCKEND  ---      ---       LVL=2
      ---         BLOCKEND  ---      ---       LVL=1
      0100447BH   LINE      CODE     ---       #738
      0100447BH   LINE      CODE     ---       #774
      01004488H   LINE      CODE     ---       #779
      0100448EH   LINE      CODE     ---       #781
      01004491H   LINE      CODE     ---       #783
      01004499H   LINE      CODE     ---       #785
      01004499H   LINE      CODE     ---       #786
      0100449CH   LINE      CODE     ---       #788
      010044A1H   LINE      CODE     ---       #789
      010044A3H   LINE      CODE     ---       #790
      010044A5H   LINE      CODE     ---       #791
      010044A8H   LINE      CODE     ---       #794
      010044A8H   LINE      CODE     ---       #796
      010044B1H   LINE      CODE     ---       #798
      010044B3H   LINE      CODE     ---       #799
      010044B5H   LINE      CODE     ---       #800
      010044B7H   LINE      CODE     ---       #801
      010044B9H   LINE      CODE     ---       #803
      010044BFH   LINE      CODE     ---       #805
      010044C2H   LINE      CODE     ---       #806
      010044C5H   LINE      CODE     ---       #808
      010044C8H   LINE      CODE     ---       #810
      010044D0H   LINE      CODE     ---       #812
      010044D3H   LINE      CODE     ---       #815
      010044D3H   LINE      CODE     ---       #816
      010044D3H   LINE      CODE     ---       #817
      010044E2H   LINE      CODE     ---       #818
      010044E8H   LINE      CODE     ---       #819
      010044E8H   LINE      CODE     ---       #823
      010044E8H   LINE      CODE     ---       #825
      010044F5H   LINE      CODE     ---       #826
      01004507H   LINE      CODE     ---       #829
LX51 LINKER/LOCATER V4.66.41.0                                                        02/15/2019  15:28:07  PAGE 73


      01004507H   LINE      CODE     ---       #833
      0100450EH   LINE      CODE     ---       #835
      01004514H   LINE      CODE     ---       #836
      01004514H   LINE      CODE     ---       #837
      01004532H   LINE      CODE     ---       #838
      01004538H   LINE      CODE     ---       #839
      01004538H   LINE      CODE     ---       #840
      01004538H   LINE      CODE     ---       #843
      0100453FH   LINE      CODE     ---       #845
      01004545H   LINE      CODE     ---       #847
      01004545H   LINE      CODE     ---       #849
      01004556H   LINE      CODE     ---       #851
      01004556H   LINE      CODE     ---       #853
      01004556H   LINE      CODE     ---       #854
      01004559H   LINE      CODE     ---       #855
      01004559H   LINE      CODE     ---       #857
      0100455CH   LINE      CODE     ---       #859
      0100455CH   LINE      CODE     ---       #861
      01004569H   LINE      CODE     ---       #863
      01004569H   LINE      CODE     ---       #864
      0100456CH   LINE      CODE     ---       #865
      01004572H   LINE      CODE     ---       #866
      01004572H   LINE      CODE     ---       #868
      01004573H   LINE      CODE     ---       #870
      01004573H   LINE      CODE     ---       #872
      01004581H   LINE      CODE     ---       #874
      01004587H   LINE      CODE     ---       #876
      01004589H   LINE      CODE     ---       #878
      0100459DH   LINE      CODE     ---       #880
      0100459DH   LINE      CODE     ---       #881
      0100459DH   LINE      CODE     ---       #882
      0100459DH   LINE      CODE     ---       #883
      0100459DH   LINE      CODE     ---       #884
      0100459DH   LINE      CODE     ---       #886
      010045A0H   LINE      CODE     ---       #887
      010045A0H   LINE      CODE     ---       #889
      010045A0H   LINE      CODE     ---       #890
      010045A0H   LINE      CODE     ---       #891
      010045A0H   LINE      CODE     ---       #892
      010045B5H   LINE      CODE     ---       #896
      010045C0H   LINE      CODE     ---       #898
      010045C0H   LINE      CODE     ---       #900
      010045D3H   LINE      CODE     ---       #902
      010045E0H   LINE      CODE     ---       #904
      010045E0H   LINE      CODE     ---       #905
      010045E0H   LINE      CODE     ---       #906
      010045E3H   LINE      CODE     ---       #907
      010045E3H   LINE      CODE     ---       #909
      01004616H   LINE      CODE     ---       #915
      0100461EH   LINE      CODE     ---       #917
      0100462EH   LINE      CODE     ---       #918
      0100462EH   LINE      CODE     ---       #920
      01004631H   LINE      CODE     ---       #922
      01004631H   LINE      CODE     ---       #924
      0100463BH   LINE      CODE     ---       #926
      0100463BH   LINE      CODE     ---       #927
      0100463BH   LINE      CODE     ---       #928
      0100463EH   LINE      CODE     ---       #930
      01004644H   LINE      CODE     ---       #932
      01004646H   LINE      CODE     ---       #934
      0100466EH   LINE      CODE     ---       #936
      0100466EH   LINE      CODE     ---       #937
      0100466EH   LINE      CODE     ---       #938
      0100466EH   LINE      CODE     ---       #939
      0100466EH   LINE      CODE     ---       #940
LX51 LINKER/LOCATER V4.66.41.0                                                        02/15/2019  15:28:07  PAGE 74


      0100466EH   LINE      CODE     ---       #942
      01004671H   LINE      CODE     ---       #943
      01004671H   LINE      CODE     ---       #945
      01004671H   LINE      CODE     ---       #946
      0100467DH   LINE      CODE     ---       #948
      0100468AH   LINE      CODE     ---       #949
      010046A1H   LINE      CODE     ---       #950
      010046ABH   LINE      CODE     ---       #952
      010046BEH   LINE      CODE     ---       #953
      010046D4H   LINE      CODE     ---       #954
      010046D7H   LINE      CODE     ---       #956
      010046D9H   LINE      CODE     ---       #958
      010046EFH   LINE      CODE     ---       #960
      010046F1H   LINE      CODE     ---       #961
      010046F4H   LINE      CODE     ---       #962
      010046F7H   LINE      CODE     ---       #964
      010046F7H   LINE      CODE     ---       #968
      010046F7H   LINE      CODE     ---       #969
      010046F7H   LINE      CODE     ---       #971
      01004704H   LINE      CODE     ---       #973
      01004704H   LINE      CODE     ---       #975
      0100470DH   LINE      CODE     ---       #977
      0100470FH   LINE      CODE     ---       #978
      01004713H   LINE      CODE     ---       #979
      01004714H   LINE      CODE     ---       #980
      01004714H   LINE      CODE     ---       #982
      0100472CH   LINE      CODE     ---       #988
      01004734H   LINE      CODE     ---       #990
      0100473BH   LINE      CODE     ---       #991
      01004741H   LINE      CODE     ---       #993
      01004742H   LINE      CODE     ---       #995
      01004742H   LINE      CODE     ---       #997
      0100474CH   LINE      CODE     ---       #999
      01004752H   LINE      CODE     ---       #1000
      01004757H   LINE      CODE     ---       #1001
      01004758H   LINE      CODE     ---       #1003
      0100475BH   LINE      CODE     ---       #1005
      0100475DH   LINE      CODE     ---       #1007
      0100478FH   LINE      CODE     ---       #1008
      0100478FH   LINE      CODE     ---       #1010
      01004794H   LINE      CODE     ---       #1011
      01004796H   LINE      CODE     ---       #1012
      0100479CH   LINE      CODE     ---       #1013
      0100479CH   LINE      CODE     ---       #1014
      0100479CH   LINE      CODE     ---       #1016
      0100479CH   LINE      CODE     ---       #1017
      0100479CH   LINE      CODE     ---       #1018
      0100479CH   LINE      CODE     ---       #1019
      ---         BLOCKEND  ---      ---       LVL=0

      01006815H   BLOCK     CODE     ---       LVL=0
      00000032H   SYMBOL    DATA     ---       frame_Temp
      00000035H   SYMBOL    DATA     WORD      DstAddr
      00000037H   SYMBOL    DATA     BYTE      portPoint
      00000038H   SYMBOL    DATA     ---       dats
      0000003BH   SYMBOL    DATA     BYTE      datsLen
      0100681FH   BLOCK     CODE     NEAR LAB  LVL=1
      01000EAFH   SYMBOL    CODE     ---       zigbCMD_DatsSend
      02000215H   SYMBOL    XDATA    ---       buf_datsLOAD
      0000003CH   SYMBOL    DATA     BYTE      datsTX_Len
      ---         BLOCKEND  ---      ---       LVL=1
      01006815H   LINE      CODE     ---       #1023
      0100681FH   LINE      CODE     ---       #1027
      0100681FH   LINE      CODE     ---       #1032
      0100682AH   LINE      CODE     ---       #1033
LX51 LINKER/LOCATER V4.66.41.0                                                        02/15/2019  15:28:07  PAGE 75


      0100682DH   LINE      CODE     ---       #1035
      0100683AH   LINE      CODE     ---       #1038
      01006840H   LINE      CODE     ---       #1039
      01006844H   LINE      CODE     ---       #1040
      01006848H   LINE      CODE     ---       #1041
      0100684AH   LINE      CODE     ---       #1042
      0100684EH   LINE      CODE     ---       #1043
      01006852H   LINE      CODE     ---       #1044
      01006855H   LINE      CODE     ---       #1045
      01006859H   LINE      CODE     ---       #1046
      0100685DH   LINE      CODE     ---       #1047
      0100686FH   LINE      CODE     ---       #1049
      01006893H   LINE      CODE     ---       #1050
      ---         BLOCKEND  ---      ---       LVL=0

      0100702EH   BLOCK     CODE     ---       LVL=0
      0000002BH   SYMBOL    DATA     WORD      DstAddr
      0000002DH   SYMBOL    DATA     BYTE      port
      0000002EH   SYMBOL    DATA     ---       dats
      00000031H   SYMBOL    DATA     BYTE      datsLen
      0100703AH   BLOCK     CODE     NEAR LAB  LVL=1
      0200013EH   SYMBOL    XDATA    ---       buf_datsTX
      00000005H   SYMBOL    DATA     BYTE      datsTX_Len
      ---         BLOCKEND  ---      ---       LVL=1
      0100702EH   LINE      CODE     ---       #1054
      0100703AH   LINE      CODE     ---       #1057
      0100703AH   LINE      CODE     ---       #1059
      01007045H   LINE      CODE     ---       #1060
      01007045H   LINE      CODE     ---       #1062
      01007063H   LINE      CODE     ---       #1064
      ---         BLOCKEND  ---      ---       LVL=0

      010047C6H   BLOCK     CODE     ---       LVL=0
      010047C6H   BLOCK     CODE     NEAR LAB  LVL=1
      0200013CH   SYMBOL    XDATA    ---       buf_datsTX
      00000027H   SYMBOL    DATA     BYTE      datsTX_Len
      020001D5H   SYMBOL    XDATA    ---       buf_datsRX
      00000028H   SYMBOL    DATA     BYTE      datsRX_Len
      00000029H   SYMBOL    DATA     ---       ASR_dats
      010010BFH   SYMBOL    CODE     ---       ASR_cmd
      00000056H   SYMBOL    DATA     BYTE      datsTrans_respondCode
      00000057H   SYMBOL    DATA     BYTE      step
      00000058H   SYMBOL    DATA     BYTE      reactionLoop
      0000002CH   SYMBOL    DATA     BYTE      dataReq_failLoop_limit
      00000059H   SYMBOL    DATA     BYTE      dataReq_failLoop_record
      010048ABH   BLOCK     CODE     NEAR LAB  LVL=2
      02000317H   SYMBOL    XDATA    BYTE      local_funRecord
      0200013BH   SYMBOL    XDATA    BYTE      funRecord_temp
      ---         BLOCKEND  ---      ---       LVL=2
      01004964H   BLOCK     CODE     NEAR LAB  LVL=2
      000000C9H   SYMBOL    IDATA    WORD      datsFrom_addr
      000000CBH   SYMBOL    IDATA    BYTE      dstPoint
      ---         BLOCKEND  ---      ---       LVL=2
      ---         BLOCKEND  ---      ---       LVL=1
      010047C6H   LINE      CODE     ---       #1069
      010047C6H   LINE      CODE     ---       #1071
      010047D5H   LINE      CODE     ---       #1072
      010047D8H   LINE      CODE     ---       #1075
      010047E2H   LINE      CODE     ---       #1076
      010047E7H   LINE      CODE     ---       #1079
      010047F8H   LINE      CODE     ---       #1091
      010047FBH   LINE      CODE     ---       #1094
      01004803H   LINE      CODE     ---       #1096
      01004803H   LINE      CODE     ---       #1097
      01004806H   LINE      CODE     ---       #1099
LX51 LINKER/LOCATER V4.66.41.0                                                        02/15/2019  15:28:07  PAGE 76


      01004809H   LINE      CODE     ---       #1100
      0100480CH   LINE      CODE     ---       #1103
      0100480CH   LINE      CODE     ---       #1106
      0100480FH   LINE      CODE     ---       #1107
      01004815H   LINE      CODE     ---       #1108
      01004818H   LINE      CODE     ---       #1109
      0100483BH   LINE      CODE     ---       #1111
      01004863H   LINE      CODE     ---       #1113
      01004881H   LINE      CODE     ---       #1115
      01004881H   LINE      CODE     ---       #1117
      01004888H   LINE      CODE     ---       #1119
      0100488BH   LINE      CODE     ---       #1121
      0100488EH   LINE      CODE     ---       #1122
      0100488EH   LINE      CODE     ---       #1124
      01004891H   LINE      CODE     ---       #1125
      01004891H   LINE      CODE     ---       #1127
      01004893H   LINE      CODE     ---       #1128
      0100489DH   LINE      CODE     ---       #1129
      010048A7H   LINE      CODE     ---       #1130
      010048AAH   LINE      CODE     ---       #1132
      010048ABH   LINE      CODE     ---       #1134
      010048ABH   LINE      CODE     ---       #1137
      010048CFH   LINE      CODE     ---       #1139
      010048D3H   LINE      CODE     ---       #1141
      010048D5H   LINE      CODE     ---       #1142
      010048D7H   LINE      CODE     ---       #1143
      010048D7H   LINE      CODE     ---       #1144
      010048D9H   LINE      CODE     ---       #1145
      010048D9H   LINE      CODE     ---       #1147
      010048E0H   LINE      CODE     ---       #1149
      010048ECH   LINE      CODE     ---       #1151
      010048EEH   LINE      CODE     ---       #1153
      010048F1H   LINE      CODE     ---       #1154
      010048F1H   LINE      CODE     ---       #1155
      010048F1H   LINE      CODE     ---       #1157
      010048F7H   LINE      CODE     ---       #1159
      010048F9H   LINE      CODE     ---       #1161
      01004910H   LINE      CODE     ---       #1163
      01004916H   LINE      CODE     ---       #1165
      01004919H   LINE      CODE     ---       #1167
      0100491BH   LINE      CODE     ---       #1169
      0100491EH   LINE      CODE     ---       #1170
      01004928H   LINE      CODE     ---       #1171
      01004928H   LINE      CODE     ---       #1173
      0100492DH   LINE      CODE     ---       #1175
      0100492EH   LINE      CODE     ---       #1177
      0100493CH   LINE      CODE     ---       #1179
      01004942H   LINE      CODE     ---       #1181
      0100494CH   LINE      CODE     ---       #1185
      0100494CH   LINE      CODE     ---       #1187
      0100494CH   LINE      CODE     ---       #1188
      0100494CH   LINE      CODE     ---       #1189
      0100494CH   LINE      CODE     ---       #1199
      0100494CH   LINE      CODE     ---       #1200
      0100494CH   LINE      CODE     ---       #1201
      0100494CH   LINE      CODE     ---       #1203
      0100494FH   LINE      CODE     ---       #1205
      0100494FH   LINE      CODE     ---       #1207
      01004959H   LINE      CODE     ---       #1209
      0100495BH   LINE      CODE     ---       #1210
      0100495DH   LINE      CODE     ---       #1211
      0100495EH   LINE      CODE     ---       #1212
      0100495EH   LINE      CODE     ---       #1214
      01004964H   LINE      CODE     ---       #1216
      01004971H   LINE      CODE     ---       #1217
LX51 LINKER/LOCATER V4.66.41.0                                                        02/15/2019  15:28:07  PAGE 77


      01004977H   LINE      CODE     ---       #1219
      01004977H   LINE      CODE     ---       #1221
      0100497CH   LINE      CODE     ---       #1224
      0100497CH   LINE      CODE     ---       #1225
      0100497CH   LINE      CODE     ---       #1226
      0100498EH   LINE      CODE     ---       #1227
      01004994H   LINE      CODE     ---       #1228
      01004994H   LINE      CODE     ---       #1230
      01004994H   LINE      CODE     ---       #1232
      010049C5H   LINE      CODE     ---       #1234
      010049C5H   LINE      CODE     ---       #1236
      010049C8H   LINE      CODE     ---       #1238
      010049C9H   LINE      CODE     ---       #1241
      010049C9H   LINE      CODE     ---       #1242
      010049C9H   LINE      CODE     ---       #1244
      010049E7H   LINE      CODE     ---       #1246
      010049EAH   LINE      CODE     ---       #1247
      010049EAH   LINE      CODE     ---       #1249
      010049EAH   LINE      CODE     ---       #1250
      010049EAH   LINE      CODE     ---       #1251
      010049EAH   LINE      CODE     ---       #1253
      010049ECH   LINE      CODE     ---       #1255
      010049ECH   LINE      CODE     ---       #1257
      010049EFH   LINE      CODE     ---       #1259
      010049F1H   LINE      CODE     ---       #1260
      010049F4H   LINE      CODE     ---       #1262
      010049F6H   LINE      CODE     ---       #1264
      010049F9H   LINE      CODE     ---       #1265
      010049F9H   LINE      CODE     ---       #1267
      010049F9H   LINE      CODE     ---       #1268
      010049F9H   LINE      CODE     ---       #1271
      010049F9H   LINE      CODE     ---       #1272
      010049FCH   LINE      CODE     ---       #1274
      010049FDH   LINE      CODE     ---       #1276
      010049FDH   LINE      CODE     ---       #1279
      01004A01H   LINE      CODE     ---       #1282
      01004A01H   LINE      CODE     ---       #1283
      01004A01H   LINE      CODE     ---       #1284
      01004A1CH   LINE      CODE     ---       #1285
      01004A22H   LINE      CODE     ---       #1286
      01004A22H   LINE      CODE     ---       #1288
      01004A27H   LINE      CODE     ---       #1290
      01004A35H   LINE      CODE     ---       #1292
      01004A35H   LINE      CODE     ---       #1293
      01004A35H   LINE      CODE     ---       #1294
      01004A35H   LINE      CODE     ---       #1296
      01004A35H   LINE      CODE     ---       #1298
      01004A37H   LINE      CODE     ---       #1300
      01004A37H   LINE      CODE     ---       #1302
      01004A3AH   LINE      CODE     ---       #1304
      01004A3AH   LINE      CODE     ---       #1305
      01004A3AH   LINE      CODE     ---       #1307
      01004A3DH   LINE      CODE     ---       #1308
      01004A3DH   LINE      CODE     ---       #1310
      01004A3DH   LINE      CODE     ---       #1311
      01004A3DH   LINE      CODE     ---       #1314
      01004A3DH   LINE      CODE     ---       #1315
      01004A40H   LINE      CODE     ---       #1317
      01004A47H   LINE      CODE     ---       #1319
      01004A5AH   LINE      CODE     ---       #1320
      01004A5CH   LINE      CODE     ---       #1321
      01004A5EH   LINE      CODE     ---       #1323
      01004A5EH   LINE      CODE     ---       #1325
      01004A61H   LINE      CODE     ---       #1326
      01004A64H   LINE      CODE     ---       #1329
LX51 LINKER/LOCATER V4.66.41.0                                                        02/15/2019  15:28:07  PAGE 78


      01004A64H   LINE      CODE     ---       #1330
      01004A6DH   LINE      CODE     ---       #1331
      01004A6DH   LINE      CODE     ---       #1334
      01004A6DH   LINE      CODE     ---       #1336
      01004A70H   LINE      CODE     ---       #1338
      01004A72H   LINE      CODE     ---       #1339
      01004A76H   LINE      CODE     ---       #1342
      01004A76H   LINE      CODE     ---       #1344
      01004A79H   LINE      CODE     ---       #1345
      01004A79H   LINE      CODE     ---       #1347
      01004A7AH   LINE      CODE     ---       #1349
      01004A7AH   LINE      CODE     ---       #1351
      01004A7DH   LINE      CODE     ---       #1353
      01004A7DH   LINE      CODE     ---       #1354
      01004A7DH   LINE      CODE     ---       #1355
      ---         BLOCKEND  ---      ---       LVL=0

      010071C0H   BLOCK     CODE     ---       LVL=0
      00000020H.4 SYMBOL    BIT      BIT       zigbNwkSysNote_IF
      010071C0H   LINE      CODE     ---       #1358
      010071C0H   LINE      CODE     ---       #1360
      010071C6H   LINE      CODE     ---       #1361
      010071D0H   LINE      CODE     ---       #1363
      010071D2H   LINE      CODE     ---       #1364
      010071D5H   LINE      CODE     ---       #1366
      010071D8H   LINE      CODE     ---       #1367
      010071DDH   LINE      CODE     ---       #1370
      010071DDH   LINE      CODE     ---       #1371
      010071DDH   LINE      CODE     ---       #1372
      010071ECH   LINE      CODE     ---       #1373
      ---         BLOCKEND  ---      ---       LVL=0

      010075FFH   BLOCK     CODE     ---       LVL=0
      010075FFH   LINE      CODE     ---       #1379
      010075FFH   LINE      CODE     ---       #1381
      01007607H   LINE      CODE     ---       #1382
      ---         BLOCKEND  ---      ---       LVL=0

      01005FA8H   BLOCK     CODE     ---       LVL=0
      01005FA8H   BLOCK     CODE     NEAR LAB  LVL=1
      0000005AH   SYMBOL    DATA     INT       status_Step
      01005FD0H   BLOCK     CODE     NEAR LAB  LVL=2
      0200013BH   SYMBOL    XDATA    ---       dats_Note
      ---         BLOCKEND  ---      ---       LVL=2
      ---         BLOCKEND  ---      ---       LVL=1
      01005FA8H   LINE      CODE     ---       #1386
      01005FA8H   LINE      CODE     ---       #1390
      01005FAFH   LINE      CODE     ---       #1392
      01005FAFH   LINE      CODE     ---       #1393
      01005FB2H   LINE      CODE     ---       #1395
      01005FB7H   LINE      CODE     ---       #1396
      01005FBDH   LINE      CODE     ---       #1398
      01005FC0H   LINE      CODE     ---       #1401
      01005FC0H   LINE      CODE     ---       #1403
      01005FC9H   LINE      CODE     ---       #1405
      01005FD0H   LINE      CODE     ---       #1407
      01005FDDH   LINE      CODE     ---       #1409
      01005FE4H   LINE      CODE     ---       #1411
      01005FF6H   LINE      CODE     ---       #1416
      01005FFDH   LINE      CODE     ---       #1417
      01005FFDH   LINE      CODE     ---       #1419
      01005FFDH   LINE      CODE     ---       #1421
      0100600DH   LINE      CODE     ---       #1423
      0100600DH   LINE      CODE     ---       #1425
      0100600DH   LINE      CODE     ---       #1426
LX51 LINKER/LOCATER V4.66.41.0                                                        02/15/2019  15:28:07  PAGE 79


      01006011H   LINE      CODE     ---       #1427
      01006017H   LINE      CODE     ---       #1429
      01006018H   LINE      CODE     ---       #1431
      01006018H   LINE      CODE     ---       #1433
      01006022H   LINE      CODE     ---       #1435
      01006022H   LINE      CODE     ---       #1436
      01006025H   LINE      CODE     ---       #1437
      0100602BH   LINE      CODE     ---       #1438
      0100602BH   LINE      CODE     ---       #1440
      0100602CH   LINE      CODE     ---       #1442
      0100602CH   LINE      CODE     ---       #1444
      01006036H   LINE      CODE     ---       #1446
      0100603AH   LINE      CODE     ---       #1449
      0100603AH   LINE      CODE     ---       #1450
      0100603DH   LINE      CODE     ---       #1451
      0100604CH   LINE      CODE     ---       #1452
      0100604CH   LINE      CODE     ---       #1453
      0100604CH   LINE      CODE     ---       #1455
      0100604CH   LINE      CODE     ---       #1457
      0100604EH   LINE      CODE     ---       #1459
      0100604EH   LINE      CODE     ---       #1461
      01006053H   LINE      CODE     ---       #1463
      01006054H   LINE      CODE     ---       #1464
      01006054H   LINE      CODE     ---       #1465
      01006054H   LINE      CODE     ---       #1467
      01006054H   LINE      CODE     ---       #1470
      01006059H   LINE      CODE     ---       #1471
      0100605BH   LINE      CODE     ---       #1473
      0100605EH   LINE      CODE     ---       #1474
      01006061H   LINE      CODE     ---       #1477
      01006061H   LINE      CODE     ---       #1478
      01006066H   LINE      CODE     ---       #1479
      01006075H   LINE      CODE     ---       #1480
      0100607BH   LINE      CODE     ---       #1481
      0100607BH   LINE      CODE     ---       #1483
      0100607BH   LINE      CODE     ---       #1484
      ---         BLOCKEND  ---      ---       LVL=0

      01006D8FH   BLOCK     CODE     ---       LVL=0
      00000027H   SYMBOL    DATA     ---       datsFrame
      01006D95H   BLOCK     CODE     NEAR LAB  LVL=1
      0000002AH   SYMBOL    DATA     BYTE      dataTX_temp
      ---         BLOCKEND  ---      ---       LVL=1
      01006D8FH   LINE      CODE     ---       #1488
      01006D95H   LINE      CODE     ---       #1490
      01006D98H   LINE      CODE     ---       #1492
      01006D9FH   LINE      CODE     ---       #1494
      01006DB0H   LINE      CODE     ---       #1520
      01006DB3H   LINE      CODE     ---       #1521
      01006DB6H   LINE      CODE     ---       #1523
      01006DC9H   LINE      CODE     ---       #1525
      01006DC9H   LINE      CODE     ---       #1527
      01006DCBH   LINE      CODE     ---       #1528
      01006DCBH   LINE      CODE     ---       #1533
      01006DCBH   LINE      CODE     ---       #1534
      01006DCBH   LINE      CODE     ---       #1535
      01006DDDH   LINE      CODE     ---       #1536
      ---         BLOCKEND  ---      ---       LVL=0

      01004EC0H   BLOCK     CODE     ---       LVL=0
      00000027H   SYMBOL    DATA     ---       datsFrame
      01004EC6H   BLOCK     CODE     NEAR LAB  LVL=1
      0200013BH   SYMBOL    XDATA    ---       dats
      01004F27H   BLOCK     CODE     NEAR LAB  LVL=2
      00000020H.2 SYMBOL    BIT      BIT       resultSet
LX51 LINKER/LOCATER V4.66.41.0                                                        02/15/2019  15:28:07  PAGE 80


      00000020H.2 SYMBOL    BIT      BIT       resultSet
      00000020H.3 SYMBOL    BIT      BIT       timeZoneAdjust_needIF
      0000002AH   SYMBOL    DATA     DWORD     time_Temp
      000000C9H   SYMBOL    IDATA    BYTE      statusRelay_temp
      ---         BLOCKEND  ---      ---       LVL=2
      01004F50H   BLOCK     CODE     NEAR LAB  LVL=2
      00000020H.2 SYMBOL    BIT      BIT       resultSet
      00000020H.3 SYMBOL    BIT      BIT       timeZoneAdjust_needIF
      0000002AH   SYMBOL    DATA     DWORD     time_Temp
      000000C9H   SYMBOL    IDATA    BYTE      statusRelay_temp
      ---         BLOCKEND  ---      ---       LVL=2
      01005070H   BLOCK     CODE     NEAR LAB  LVL=2
      000000C9H   SYMBOL    IDATA    BYTE      statusRelay_temp
      ---         BLOCKEND  ---      ---       LVL=2
      ---         BLOCKEND  ---      ---       LVL=1
      01004EC0H   LINE      CODE     ---       #1543
      01004EC6H   LINE      CODE     ---       #1552
      01004ED5H   LINE      CODE     ---       #1554
      01004EE2H   LINE      CODE     ---       #1555
      01004EF5H   LINE      CODE     ---       #1556
      01004F05H   LINE      CODE     ---       #1558
      01004F27H   LINE      CODE     ---       #1560
      01004F27H   LINE      CODE     ---       #1562
      01004F29H   LINE      CODE     ---       #1564
      01004F36H   LINE      CODE     ---       #1565
      01004F3EH   LINE      CODE     ---       #1568
      01004F3EH   LINE      CODE     ---       #1569
      01004F3EH   LINE      CODE     ---       #1570
      01004F4DH   LINE      CODE     ---       #1571
      01004F4DH   LINE      CODE     ---       #1572
      01004F4DH   LINE      CODE     ---       #1575
      01004F50H   LINE      CODE     ---       #1577
      01004F50H   LINE      CODE     ---       #1579
      01004F52H   LINE      CODE     ---       #1580
      01004F54H   LINE      CODE     ---       #1581
      01004F5DH   LINE      CODE     ---       #1583
      01004F73H   LINE      CODE     ---       #1584
      01004F75H   LINE      CODE     ---       #1585
      01004F95H   LINE      CODE     ---       #1586
      01004F97H   LINE      CODE     ---       #1587
      01004FADH   LINE      CODE     ---       #1589
      01004FB2H   LINE      CODE     ---       #1590
      01004FB6H   LINE      CODE     ---       #1591
      01004FC0H   LINE      CODE     ---       #1592
      01004FCEH   LINE      CODE     ---       #1593
      01004FCEH   LINE      CODE     ---       #1595
      01004FD6H   LINE      CODE     ---       #1596
      01005009H   LINE      CODE     ---       #1599
      01005009H   LINE      CODE     ---       #1601
      01005009H   LINE      CODE     ---       #1602
      01005030H   LINE      CODE     ---       #1603
      01005036H   LINE      CODE     ---       #1604
      01005036H   LINE      CODE     ---       #1606
      01005036H   LINE      CODE     ---       #1608
      01005036H   LINE      CODE     ---       #1611
      01005036H   LINE      CODE     ---       #1612
      01005036H   LINE      CODE     ---       #1613
      01005045H   LINE      CODE     ---       #1614
      0100504BH   LINE      CODE     ---       #1615
      0100504BH   LINE      CODE     ---       #1617
      01005050H   LINE      CODE     ---       #1619
      01005050H   LINE      CODE     ---       #1621
      01005050H   LINE      CODE     ---       #1624
      01005050H   LINE      CODE     ---       #1626
      01005050H   LINE      CODE     ---       #1627
LX51 LINKER/LOCATER V4.66.41.0                                                        02/15/2019  15:28:07  PAGE 81


      01005062H   LINE      CODE     ---       #1628
      01005068H   LINE      CODE     ---       #1629
      01005068H   LINE      CODE     ---       #1631
      01005068H   LINE      CODE     ---       #1636
      01005068H   LINE      CODE     ---       #1646
      01005068H   LINE      CODE     ---       #1648
      01005070H   LINE      CODE     ---       #1650
      01005070H   LINE      CODE     ---       #1725
      01005070H   LINE      CODE     ---       #1727
      01005077H   LINE      CODE     ---       #1729
      01005083H   LINE      CODE     ---       #1732
      01005083H   LINE      CODE     ---       #1733
      01005083H   LINE      CODE     ---       #1734
      01005092H   LINE      CODE     ---       #1735
      01005098H   LINE      CODE     ---       #1736
      01005098H   LINE      CODE     ---       #1740
      010050A0H   LINE      CODE     ---       #1742
      010050A5H   LINE      CODE     ---       #1744
      010050ABH   LINE      CODE     ---       #1745
      010050B3H   LINE      CODE     ---       #1746
      010050B3H   LINE      CODE     ---       #1747
      010050B3H   LINE      CODE     ---       #1749
      010050B3H   LINE      CODE     ---       #1751
      010050B3H   LINE      CODE     ---       #1752
      010050B3H   LINE      CODE     ---       #1753
      ---         BLOCKEND  ---      ---       LVL=0

      01001307H   BLOCK     CODE     ---       LVL=0
      00000027H   SYMBOL    DATA     ---       datsParam
      0000002AH   SYMBOL    DATA     WORD      nwkAddr_from
      0000002CH   SYMBOL    DATA     BYTE      port_from
      01001311H   BLOCK     CODE     NEAR LAB  LVL=1
      0200017AH   SYMBOL    XDATA    ---       paramTX_temp
      00000020H.2 SYMBOL    BIT      BIT       dataFromRemote_IF
      0100137BH   BLOCK     CODE     NEAR LAB  LVL=2
      00000020H.3 SYMBOL    BIT      BIT       frameCheck_Done
      0100117FH   SYMBOL    CODE     ---       agingCmd_Temp
      0200013CH   SYMBOL    XDATA    ---       dev_dataPointTemp
      00000020H.3 SYMBOL    BIT      BIT       frameCodeCheck_PASS
      00000020H.4 SYMBOL    BIT      BIT       frameMacCheck_PASS
      00000020H.5 SYMBOL    BIT      BIT       frameDataOnceReserve_PASS
      0000005CH   SYMBOL    DATA     BYTE      dataTrans_oncePword
      0100137BH   BLOCK     CODE     NEAR LAB  LVL=3
      00000020H.4 SYMBOL    BIT      BIT       frameCodeCheck_PASS
      00000020H.5 SYMBOL    BIT      BIT       frameMacCheck_PASS
      00000020H.4 SYMBOL    BIT      BIT       respond_IF
      00000020H.5 SYMBOL    BIT      BIT       specialCmd_IF
      ---         BLOCKEND  ---      ---       LVL=3
      010013D3H   BLOCK     CODE     NEAR LAB  LVL=3
      00000020H.4 SYMBOL    BIT      BIT       respond_IF
      00000020H.5 SYMBOL    BIT      BIT       specialCmd_IF
      01001551H   BLOCK     CODE     NEAR LAB  LVL=4
      0000002DH   SYMBOL    DATA     BYTE      deviceLock_IF
      0000002DH   SYMBOL    DATA     BYTE      deviceLock_IF
      ---         BLOCKEND  ---      ---       LVL=4
      01001562H   BLOCK     CODE     NEAR LAB  LVL=4
      0000002DH   SYMBOL    DATA     BYTE      deviceLock_IF
      ---         BLOCKEND  ---      ---       LVL=4
      01001597H   BLOCK     CODE     NEAR LAB  LVL=4
      0000002DH   SYMBOL    DATA     BYTE      loop
      ---         BLOCKEND  ---      ---       LVL=4
      01001662H   BLOCK     CODE     NEAR LAB  LVL=4
      0000002DH   SYMBOL    DATA     BYTE      datsTemp
      0000002DH   SYMBOL    DATA     BYTE      datsTemp
      0000002DH   SYMBOL    DATA     BYTE      loop
LX51 LINKER/LOCATER V4.66.41.0                                                        02/15/2019  15:28:07  PAGE 82


      0000002DH   SYMBOL    DATA     BYTE      loop
      0000002EH   SYMBOL    DATA     BYTE      effective_oprate
      0000002DH   SYMBOL    DATA     BYTE      loop
      00000023H.1 SYMBOL    BIT      BIT       local_ftyRecover_standbyFLG
      ---         BLOCKEND  ---      ---       LVL=4
      0100166AH   BLOCK     CODE     NEAR LAB  LVL=4
      0000002DH   SYMBOL    DATA     BYTE      datsTemp
      0000002DH   SYMBOL    DATA     BYTE      loop
      0000002DH   SYMBOL    DATA     BYTE      loop
      0000002EH   SYMBOL    DATA     BYTE      effective_oprate
      0000002DH   SYMBOL    DATA     BYTE      loop
      00000023H.1 SYMBOL    BIT      BIT       local_ftyRecover_standbyFLG
      ---         BLOCKEND  ---      ---       LVL=4
      01001686H   BLOCK     CODE     NEAR LAB  LVL=4
      0000002DH   SYMBOL    DATA     BYTE      loop
      0000002DH   SYMBOL    DATA     BYTE      loop
      0000002EH   SYMBOL    DATA     BYTE      effective_oprate
      0000002DH   SYMBOL    DATA     BYTE      loop
      00000023H.1 SYMBOL    BIT      BIT       local_ftyRecover_standbyFLG
      ---         BLOCKEND  ---      ---       LVL=4
      010017A7H   BLOCK     CODE     NEAR LAB  LVL=4
      0000002DH   SYMBOL    DATA     BYTE      loop
      0000002EH   SYMBOL    DATA     BYTE      effective_oprate
      0000002DH   SYMBOL    DATA     BYTE      loop
      00000023H.1 SYMBOL    BIT      BIT       local_ftyRecover_standbyFLG
      ---         BLOCKEND  ---      ---       LVL=4
      0100180DH   BLOCK     CODE     NEAR LAB  LVL=4
      0000002DH   SYMBOL    DATA     BYTE      loop
      00000023H.1 SYMBOL    BIT      BIT       local_ftyRecover_standbyFLG
      ---         BLOCKEND  ---      ---       LVL=4
      01001874H   BLOCK     CODE     NEAR LAB  LVL=4
      0000002DH   SYMBOL    DATA     BYTE      datsTX_Len
      ---         BLOCKEND  ---      ---       LVL=4
      ---         BLOCKEND  ---      ---       LVL=3
      ---         BLOCKEND  ---      ---       LVL=2
      010018E2H   BLOCK     CODE     NEAR LAB  LVL=2
      0100117FH   SYMBOL    CODE     ---       agingCmd_Temp
      0200013CH   SYMBOL    XDATA    ---       dev_dataPointTemp
      00000020H.3 SYMBOL    BIT      BIT       frameCodeCheck_PASS
      00000020H.4 SYMBOL    BIT      BIT       frameMacCheck_PASS
      00000020H.5 SYMBOL    BIT      BIT       frameDataOnceReserve_PASS
      0000005CH   SYMBOL    DATA     BYTE      dataTrans_oncePword
      0100196BH   BLOCK     CODE     NEAR LAB  LVL=3
      00000023H.1 SYMBOL    BIT      BIT       local_ftyRecover_standbyFLG
      01001AA5H   BLOCK     CODE     NEAR LAB  LVL=4
      0000002DH   SYMBOL    DATA     BYTE      deviceLock_IF
      0000002DH   SYMBOL    DATA     BYTE      loop
      0000002DH   SYMBOL    DATA     ---       dataTemp
      0200013BH   SYMBOL    XDATA    BYTE      loop
      ---         BLOCKEND  ---      ---       LVL=4
      01001AF2H   BLOCK     CODE     NEAR LAB  LVL=4
      0000002DH   SYMBOL    DATA     BYTE      loop
      0000002DH   SYMBOL    DATA     ---       dataTemp
      0200013BH   SYMBOL    XDATA    BYTE      loop
      ---         BLOCKEND  ---      ---       LVL=4
      01001BB5H   BLOCK     CODE     NEAR LAB  LVL=4
      0000002DH   SYMBOL    DATA     ---       dataTemp
      0200013BH   SYMBOL    XDATA    BYTE      loop
      ---         BLOCKEND  ---      ---       LVL=4
      01001C9FH   BLOCK     CODE     NEAR LAB  LVL=4
      0200013BH   SYMBOL    XDATA    BYTE      loop
      ---         BLOCKEND  ---      ---       LVL=4
      ---         BLOCKEND  ---      ---       LVL=3
      ---         BLOCKEND  ---      ---       LVL=2
      ---         BLOCKEND  ---      ---       LVL=1
LX51 LINKER/LOCATER V4.66.41.0                                                        02/15/2019  15:28:07  PAGE 83


      01001307H   LINE      CODE     ---       #1757
      01001311H   LINE      CODE     ---       #1760
      01001320H   LINE      CODE     ---       #1762
      01001322H   LINE      CODE     ---       #1765
      01001340H   LINE      CODE     ---       #1768
      01001340H   LINE      CODE     ---       #1770
      01001342H   LINE      CODE     ---       #1772
      01001351H   LINE      CODE     ---       #1773
      0100137BH   LINE      CODE     ---       #1774
      0100137BH   LINE      CODE     ---       #1777
      0100137BH   LINE      CODE     ---       #1779
      0100137BH   LINE      CODE     ---       #1782
      0100137BH   LINE      CODE     ---       #1783
      0100137BH   LINE      CODE     ---       #1785
      01001397H   LINE      CODE     ---       #1786
      010013AFH   LINE      CODE     ---       #1788
      010013B6H   LINE      CODE     ---       #1790
      010013B8H   LINE      CODE     ---       #1792
      010013BAH   LINE      CODE     ---       #1793
      010013C3H   LINE      CODE     ---       #1794
      010013C3H   LINE      CODE     ---       #1796
      010013C5H   LINE      CODE     ---       #1797
      010013C5H   LINE      CODE     ---       #1799
      010013CDH   LINE      CODE     ---       #1800
      010013CDH   LINE      CODE     ---       #1802
      010013D3H   LINE      CODE     ---       #1804
      010013D5H   LINE      CODE     ---       #1805
      010013D7H   LINE      CODE     ---       #1807
      010013DAH   LINE      CODE     ---       #1810
      010013DAH   LINE      CODE     ---       #1811
      010013DAH   LINE      CODE     ---       #1812
      010013ECH   LINE      CODE     ---       #1813
      010013F2H   LINE      CODE     ---       #1814
      010013F2H   LINE      CODE     ---       #1816
      010013F9H   LINE      CODE     ---       #1818
      01001439H   LINE      CODE     ---       #1820
      01001439H   LINE      CODE     ---       #1822
      0100143FH   LINE      CODE     ---       #1824
      01001442H   LINE      CODE     ---       #1825
      01001447H   LINE      CODE     ---       #1827
      0100144FH   LINE      CODE     ---       #1828
      01001453H   LINE      CODE     ---       #1830
      01001459H   LINE      CODE     ---       #1831
      0100145DH   LINE      CODE     ---       #1833
      01001467H   LINE      CODE     ---       #1834
      0100146DH   LINE      CODE     ---       #1835
      01001477H   LINE      CODE     ---       #1836
      01001487H   LINE      CODE     ---       #1838
      0100148CH   LINE      CODE     ---       #1840
      0100148CH   LINE      CODE     ---       #1841
      0100148CH   LINE      CODE     ---       #1843
      0100148FH   LINE      CODE     ---       #1846
      0100148FH   LINE      CODE     ---       #1848
      0100148FH   LINE      CODE     ---       #1850
      0100148FH   LINE      CODE     ---       #1852
      01001494H   LINE      CODE     ---       #1853
      010014A1H   LINE      CODE     ---       #1854
      010014B8H   LINE      CODE     ---       #1855
      010014D1H   LINE      CODE     ---       #1856
      010014E5H   LINE      CODE     ---       #1858
      010014EBH   LINE      CODE     ---       #1859
      010014EEH   LINE      CODE     ---       #1873
      01001511H   LINE      CODE     ---       #1875
      0100151CH   LINE      CODE     ---       #1879
      0100151CH   LINE      CODE     ---       #1880
LX51 LINKER/LOCATER V4.66.41.0                                                        02/15/2019  15:28:07  PAGE 84


      0100151CH   LINE      CODE     ---       #1882
      0100151EH   LINE      CODE     ---       #1884
      0100151EH   LINE      CODE     ---       #1886
      01001528H   LINE      CODE     ---       #1887
      0100152BH   LINE      CODE     ---       #1888
      0100153BH   LINE      CODE     ---       #1889
      0100154AH   LINE      CODE     ---       #1891
      0100154CH   LINE      CODE     ---       #1892
      0100154EH   LINE      CODE     ---       #1894
      01001551H   LINE      CODE     ---       #1896
      01001551H   LINE      CODE     ---       #1898
      01001551H   LINE      CODE     ---       #1900
      01001551H   LINE      CODE     ---       #1903
      01001551H   LINE      CODE     ---       #1904
      01001554H   LINE      CODE     ---       #1906
      01001556H   LINE      CODE     ---       #1907
      01001560H   LINE      CODE     ---       #1908
      01001560H   LINE      CODE     ---       #1910
      01001562H   LINE      CODE     ---       #1912
      01001562H   LINE      CODE     ---       #1915
      01001562H   LINE      CODE     ---       #1916
      01001565H   LINE      CODE     ---       #1918
      01001567H   LINE      CODE     ---       #1919
      01001577H   LINE      CODE     ---       #1920
      01001577H   LINE      CODE     ---       #1922
      0100157AH   LINE      CODE     ---       #1924
      0100157AH   LINE      CODE     ---       #1927
      01001597H   LINE      CODE     ---       #1929
      01001597H   LINE      CODE     ---       #1930
      01001597H   LINE      CODE     ---       #1932
      0100159AH   LINE      CODE     ---       #1935
      010015ABH   LINE      CODE     ---       #1938
      010015AEH   LINE      CODE     ---       #1940
      010015C7H   LINE      CODE     ---       #1942
      010015DAH   LINE      CODE     ---       #1943
      010015DAH   LINE      CODE     ---       #1944
      010015E1H   LINE      CODE     ---       #1946
      010015E3H   LINE      CODE     ---       #1949
      010015E3H   LINE      CODE     ---       #1950
      010015E3H   LINE      CODE     ---       #1951
      010015EFH   LINE      CODE     ---       #1952
      010015F5H   LINE      CODE     ---       #1953
      010015F5H   LINE      CODE     ---       #1956
      010015F7H   LINE      CODE     ---       #1958
      010015F7H   LINE      CODE     ---       #1960
      01001603H   LINE      CODE     ---       #1961
      01001613H   LINE      CODE     ---       #1962
      0100161AH   LINE      CODE     ---       #1964
      0100161CH   LINE      CODE     ---       #1966
      0100161CH   LINE      CODE     ---       #1968
      01001623H   LINE      CODE     ---       #1970
      01001625H   LINE      CODE     ---       #1972
      01001625H   LINE      CODE     ---       #1974
      01001638H   LINE      CODE     ---       #1976
      01001647H   LINE      CODE     ---       #1977
      01001656H   LINE      CODE     ---       #1979
      01001656H   LINE      CODE     ---       #1981
      01001656H   LINE      CODE     ---       #1982
      01001656H   LINE      CODE     ---       #1984
      0100165DH   LINE      CODE     ---       #1986
      0100165FH   LINE      CODE     ---       #1988
      01001662H   LINE      CODE     ---       #1990
      01001662H   LINE      CODE     ---       #1992
      01001662H   LINE      CODE     ---       #1994
      01001662H   LINE      CODE     ---       #1996
LX51 LINKER/LOCATER V4.66.41.0                                                        02/15/2019  15:28:07  PAGE 85


      01001665H   LINE      CODE     ---       #1997
      01001668H   LINE      CODE     ---       #1998
      01001668H   LINE      CODE     ---       #2000
      01001668H   LINE      CODE     ---       #2002
      0100166AH   LINE      CODE     ---       #2004
      0100166AH   LINE      CODE     ---       #2006
      0100166AH   LINE      CODE     ---       #2008
      0100166DH   LINE      CODE     ---       #2009
      01001670H   LINE      CODE     ---       #2010
      01001678H   LINE      CODE     ---       #2012
      01001678H   LINE      CODE     ---       #2014
      0100167BH   LINE      CODE     ---       #2016
      0100167BH   LINE      CODE     ---       #2018
      0100167DH   LINE      CODE     ---       #2020
      01001680H   LINE      CODE     ---       #2022
      01001680H   LINE      CODE     ---       #2024
      01001683H   LINE      CODE     ---       #2026
      01001686H   LINE      CODE     ---       #2028
      01001686H   LINE      CODE     ---       #2030
      01001689H   LINE      CODE     ---       #2032
      010016A6H   LINE      CODE     ---       #2034
      010016A6H   LINE      CODE     ---       #2036
      010016A9H   LINE      CODE     ---       #2038
      010016B6H   LINE      CODE     ---       #2040
      010016C6H   LINE      CODE     ---       #2041
      010016E5H   LINE      CODE     ---       #2043
      010016E7H   LINE      CODE     ---       #2045
      010016F9H   LINE      CODE     ---       #2046
      010016F9H   LINE      CODE     ---       #2047
      01001701H   LINE      CODE     ---       #2048
      0100170AH   LINE      CODE     ---       #2049
      0100170DH   LINE      CODE     ---       #2051
      0100170DH   LINE      CODE     ---       #2052
      0100170DH   LINE      CODE     ---       #2053
      0100173DH   LINE      CODE     ---       #2054
      01001743H   LINE      CODE     ---       #2055
      01001743H   LINE      CODE     ---       #2058
      01001745H   LINE      CODE     ---       #2060
      01001745H   LINE      CODE     ---       #2062
      0100174DH   LINE      CODE     ---       #2064
      01001751H   LINE      CODE     ---       #2065
      01001755H   LINE      CODE     ---       #2067
      0100175EH   LINE      CODE     ---       #2069
      0100175FH   LINE      CODE     ---       #2071
      01001761H   LINE      CODE     ---       #2073
      01001765H   LINE      CODE     ---       #2074
      01001769H   LINE      CODE     ---       #2075
      0100176EH   LINE      CODE     ---       #2076
      0100176EH   LINE      CODE     ---       #2078
      01001770H   LINE      CODE     ---       #2080
      01001770H   LINE      CODE     ---       #2082
      01001778H   LINE      CODE     ---       #2084
      0100177CH   LINE      CODE     ---       #2085
      01001780H   LINE      CODE     ---       #2086
      01001781H   LINE      CODE     ---       #2088
      01001783H   LINE      CODE     ---       #2090
      01001787H   LINE      CODE     ---       #2091
      0100178BH   LINE      CODE     ---       #2092
      01001790H   LINE      CODE     ---       #2093
      01001790H   LINE      CODE     ---       #2095
      01001790H   LINE      CODE     ---       #2096
      0100179AH   LINE      CODE     ---       #2098
      0100179CH   LINE      CODE     ---       #2100
      0100179CH   LINE      CODE     ---       #2102
      0100179FH   LINE      CODE     ---       #2103
LX51 LINKER/LOCATER V4.66.41.0                                                        02/15/2019  15:28:07  PAGE 86


      010017A2H   LINE      CODE     ---       #2105
      010017A2H   LINE      CODE     ---       #2107
      010017A2H   LINE      CODE     ---       #2108
      010017A2H   LINE      CODE     ---       #2110
      010017A4H   LINE      CODE     ---       #2112
      010017A7H   LINE      CODE     ---       #2114
      010017A7H   LINE      CODE     ---       #2116
      010017AAH   LINE      CODE     ---       #2117
      010017B2H   LINE      CODE     ---       #2119
      010017B5H   LINE      CODE     ---       #2121
      010017C5H   LINE      CODE     ---       #2123
      010017E7H   LINE      CODE     ---       #2124
      010017FEH   LINE      CODE     ---       #2125
      01001800H   LINE      CODE     ---       #2126
      01001800H   LINE      CODE     ---       #2127
      01001809H   LINE      CODE     ---       #2129
      0100180BH   LINE      CODE     ---       #2131
      0100180DH   LINE      CODE     ---       #2133
      0100180DH   LINE      CODE     ---       #2135
      01001810H   LINE      CODE     ---       #2137
      01001812H   LINE      CODE     ---       #2139
      0100182EH   LINE      CODE     ---       #2140
      01001837H   LINE      CODE     ---       #2142
      01001839H   LINE      CODE     ---       #2144
      0100183BH   LINE      CODE     ---       #2146
      0100183BH   LINE      CODE     ---       #2148
      0100184CH   LINE      CODE     ---       #2149
      01001854H   LINE      CODE     ---       #2151
      01001856H   LINE      CODE     ---       #2153
      01001858H   LINE      CODE     ---       #2155
      01001858H   LINE      CODE     ---       #2157
      01001868H   LINE      CODE     ---       #2159
      0100186AH   LINE      CODE     ---       #2161
      0100186CH   LINE      CODE     ---       #2206
      0100186CH   LINE      CODE     ---       #2208
      0100186EH   LINE      CODE     ---       #2210
      0100186EH   LINE      CODE     ---       #2211
      0100186EH   LINE      CODE     ---       #2214
      01001874H   LINE      CODE     ---       #2216
      01001877H   LINE      CODE     ---       #2218
      01001879H   LINE      CODE     ---       #2220
      0100189AH   LINE      CODE     ---       #2227
      010018A0H   LINE      CODE     ---       #2229
      010018AAH   LINE      CODE     ---       #2230
      010018ACH   LINE      CODE     ---       #2231
      010018AFH   LINE      CODE     ---       #2232
      010018B8H   LINE      CODE     ---       #2233
      010018BDH   LINE      CODE     ---       #2234
      010018BDH   LINE      CODE     ---       #2235
      010018BDH   LINE      CODE     ---       #2236
      010018C4H   LINE      CODE     ---       #2237
      010018C7H   LINE      CODE     ---       #2246
      010018C7H   LINE      CODE     ---       #2247
      010018C7H   LINE      CODE     ---       #2248
      010018C8H   LINE      CODE     ---       #2251
      010018C8H   LINE      CODE     ---       #2255
      010018C8H   LINE      CODE     ---       #2258
      010018C8H   LINE      CODE     ---       #2262
      010018C8H   LINE      CODE     ---       #2266
      010018C8H   LINE      CODE     ---       #2268
      010018CDH   LINE      CODE     ---       #2270
      010018CDH   LINE      CODE     ---       #2272
      010018CDH   LINE      CODE     ---       #2273
      010018DCH   LINE      CODE     ---       #2274
      010018E2H   LINE      CODE     ---       #2275
LX51 LINKER/LOCATER V4.66.41.0                                                        02/15/2019  15:28:07  PAGE 87


      010018E2H   LINE      CODE     ---       #2277
      010018E2H   LINE      CODE     ---       #2280
      010018E2H   LINE      CODE     ---       #2283
      010018EFH   LINE      CODE     ---       #2285
      010018EFH   LINE      CODE     ---       #2286
      010018EFH   LINE      CODE     ---       #2287
      010018EFH   LINE      CODE     ---       #2299
      01001920H   LINE      CODE     ---       #2300
      01001936H   LINE      CODE     ---       #2302
      01001942H   LINE      CODE     ---       #2304
      01001955H   LINE      CODE     ---       #2316
      0100196BH   LINE      CODE     ---       #2318
      0100196BH   LINE      CODE     ---       #2378
      01001979H   LINE      CODE     ---       #2380
      0100197FH   LINE      CODE     ---       #2382
      0100198CH   LINE      CODE     ---       #2384
      010019A2H   LINE      CODE     ---       #2386
      010019A4H   LINE      CODE     ---       #2387
      010019A6H   LINE      CODE     ---       #2388
      010019A6H   LINE      CODE     ---       #2390
      010019ACH   LINE      CODE     ---       #2392
      010019AFH   LINE      CODE     ---       #2395
      010019B6H   LINE      CODE     ---       #2428
      010019C7H   LINE      CODE     ---       #2430
      010019CAH   LINE      CODE     ---       #2431
      010019CDH   LINE      CODE     ---       #2433
      010019DEH   LINE      CODE     ---       #2435
      010019DEH   LINE      CODE     ---       #2437
      010019E9H   LINE      CODE     ---       #2438
      010019F0H   LINE      CODE     ---       #2440
      010019F2H   LINE      CODE     ---       #2442
      010019FDH   LINE      CODE     ---       #2443
      010019FDH   LINE      CODE     ---       #2447
      010019FDH   LINE      CODE     ---       #2449
      010019FDH   LINE      CODE     ---       #2450
      01001A22H   LINE      CODE     ---       #2451
      01001A28H   LINE      CODE     ---       #2452
      01001A28H   LINE      CODE     ---       #2454
      01001A28H   LINE      CODE     ---       #2456
      01001A2FH   LINE      CODE     ---       #2458
      01001A37H   LINE      CODE     ---       #2460
      01001A3BH   LINE      CODE     ---       #2461
      01001A3FH   LINE      CODE     ---       #2462
      01001A44H   LINE      CODE     ---       #2463
      01001A4AH   LINE      CODE     ---       #2465
      01001A4AH   LINE      CODE     ---       #2467
      01001A4FH   LINE      CODE     ---       #2468
      01001A6BH   LINE      CODE     ---       #2469
      01001A71H   LINE      CODE     ---       #2470
      01001A71H   LINE      CODE     ---       #2473
      01001A73H   LINE      CODE     ---       #2475
      01001A77H   LINE      CODE     ---       #2476
      01001A7BH   LINE      CODE     ---       #2477
      01001A80H   LINE      CODE     ---       #2478
      01001A80H   LINE      CODE     ---       #2479
      01001A80H   LINE      CODE     ---       #2481
      01001A87H   LINE      CODE     ---       #2483
      01001A89H   LINE      CODE     ---       #2485
      01001A89H   LINE      CODE     ---       #2487
      01001A89H   LINE      CODE     ---       #2488
      01001A98H   LINE      CODE     ---       #2489
      01001A9EH   LINE      CODE     ---       #2490
      01001A9EH   LINE      CODE     ---       #2492
      01001A9EH   LINE      CODE     ---       #2494
      01001AA5H   LINE      CODE     ---       #2496
LX51 LINKER/LOCATER V4.66.41.0                                                        02/15/2019  15:28:07  PAGE 88


      01001AA8H   LINE      CODE     ---       #2501
      01001AADH   LINE      CODE     ---       #2502
      01001AC5H   LINE      CODE     ---       #2503
      01001ACBH   LINE      CODE     ---       #2504
      01001ACBH   LINE      CODE     ---       #2507
      01001AD2H   LINE      CODE     ---       #2509
      01001AD7H   LINE      CODE     ---       #2511
      01001AD9H   LINE      CODE     ---       #2513
      01001ADEH   LINE      CODE     ---       #2514
      01001ADEH   LINE      CODE     ---       #2515
      01001AEBH   LINE      CODE     ---       #2516
      01001AEBH   LINE      CODE     ---       #2518
      01001AF2H   LINE      CODE     ---       #2520
      01001AF5H   LINE      CODE     ---       #2524
      01001AFAH   LINE      CODE     ---       #2527
      01001B06H   LINE      CODE     ---       #2528
      01001B0CH   LINE      CODE     ---       #2529
      01001B0CH   LINE      CODE     ---       #2531
      01001B0FH   LINE      CODE     ---       #2533
      01001B17H   LINE      CODE     ---       #2535
      01001B27H   LINE      CODE     ---       #2536
      01001B3EH   LINE      CODE     ---       #2538
      01001B40H   LINE      CODE     ---       #2540
      01001B52H   LINE      CODE     ---       #2541
      01001B52H   LINE      CODE     ---       #2542
      01001B5AH   LINE      CODE     ---       #2543
      01001B66H   LINE      CODE     ---       #2544
      01001B69H   LINE      CODE     ---       #2545
      01001B6CH   LINE      CODE     ---       #2559
      01001B6CH   LINE      CODE     ---       #2561
      01001B73H   LINE      CODE     ---       #2564
      01001B73H   LINE      CODE     ---       #2566
      01001B73H   LINE      CODE     ---       #2567
      01001B85H   LINE      CODE     ---       #2568
      01001B8BH   LINE      CODE     ---       #2569
      01001B8BH   LINE      CODE     ---       #2572
      01001B9DH   LINE      CODE     ---       #2573
      01001BA4H   LINE      CODE     ---       #2574
      01001BA4H   LINE      CODE     ---       #2575
      01001BAEH   LINE      CODE     ---       #2576
      01001BAEH   LINE      CODE     ---       #2578
      01001BB5H   LINE      CODE     ---       #2580
      01001BC2H   LINE      CODE     ---       #2584
      01001BC2H   LINE      CODE     ---       #2587
      01001BCEH   LINE      CODE     ---       #2588
      01001BD4H   LINE      CODE     ---       #2590
      01001BD4H   LINE      CODE     ---       #2593
      01001BE0H   LINE      CODE     ---       #2594
      01001BE6H   LINE      CODE     ---       #2595
      01001BE6H   LINE      CODE     ---       #2597
      01001BF4H   LINE      CODE     ---       #2598
      01001C02H   LINE      CODE     ---       #2599
      01001C08H   LINE      CODE     ---       #2600
      01001C0CH   LINE      CODE     ---       #2601
      01001C10H   LINE      CODE     ---       #2602
      01001C14H   LINE      CODE     ---       #2604
      01001C17H   LINE      CODE     ---       #2605
      01001C1AH   LINE      CODE     ---       #2606
      01001C1AH   LINE      CODE     ---       #2608
      01001C21H   LINE      CODE     ---       #2611
      01001C21H   LINE      CODE     ---       #2613
      01001C21H   LINE      CODE     ---       #2614
      01001C3AH   LINE      CODE     ---       #2615
      01001C40H   LINE      CODE     ---       #2616
      01001C40H   LINE      CODE     ---       #2619
LX51 LINKER/LOCATER V4.66.41.0                                                        02/15/2019  15:28:07  PAGE 89


      01001C4CH   LINE      CODE     ---       #2620
      01001C54H   LINE      CODE     ---       #2621
      01001C54H   LINE      CODE     ---       #2623
      01001C5BH   LINE      CODE     ---       #2626
      01001C5BH   LINE      CODE     ---       #2628
      01001C5BH   LINE      CODE     ---       #2629
      01001C73H   LINE      CODE     ---       #2630
      01001C79H   LINE      CODE     ---       #2631
      01001C79H   LINE      CODE     ---       #2634
      01001C85H   LINE      CODE     ---       #2635
      01001C8FH   LINE      CODE     ---       #2636
      01001C92H   LINE      CODE     ---       #2637
      01001C92H   LINE      CODE     ---       #2639
      01001C9FH   LINE      CODE     ---       #2641
      01001CA4H   LINE      CODE     ---       #2645
      01001CA9H   LINE      CODE     ---       #2649
      01001CD0H   LINE      CODE     ---       #2650
      01001CD6H   LINE      CODE     ---       #2651
      01001CD6H   LINE      CODE     ---       #2654
      01001CE5H   LINE      CODE     ---       #2656
      01001CFFH   LINE      CODE     ---       #2658
      01001D18H   LINE      CODE     ---       #2659
      01001D2EH   LINE      CODE     ---       #2660
      01001D2EH   LINE      CODE     ---       #2661
      01001D36H   LINE      CODE     ---       #2663
      01001D38H   LINE      CODE     ---       #2664
      01001D38H   LINE      CODE     ---       #2751
      01001D42H   LINE      CODE     ---       #2754
      01001D42H   LINE      CODE     ---       #2756
      01001D42H   LINE      CODE     ---       #2757
      01001D54H   LINE      CODE     ---       #2758
      01001D5AH   LINE      CODE     ---       #2759
      01001D5AH   LINE      CODE     ---       #2762
      01001D63H   LINE      CODE     ---       #2763
      01001D68H   LINE      CODE     ---       #2764
      01001D78H   LINE      CODE     ---       #2767
      01001D7EH   LINE      CODE     ---       #2768
      01001D81H   LINE      CODE     ---       #2770
      01001D81H   LINE      CODE     ---       #2772
      01001D81H   LINE      CODE     ---       #2774
      01001D82H   LINE      CODE     ---       #2776
      01001D8BH   LINE      CODE     ---       #2778
      01001D8EH   LINE      CODE     ---       #2781
      01001D8EH   LINE      CODE     ---       #2783
      01001D8EH   LINE      CODE     ---       #2784
      01001D9DH   LINE      CODE     ---       #2785
      01001DA3H   LINE      CODE     ---       #2786
      01001DA3H   LINE      CODE     ---       #2788
      01001DA5H   LINE      CODE     ---       #2789
      01001DA8H   LINE      CODE     ---       #2790
      01001DA8H   LINE      CODE     ---       #2791
      01001DA8H   LINE      CODE     ---       #2793
      01001DA8H   LINE      CODE     ---       #2795
      01001DA8H   LINE      CODE     ---       #2797
      01001DB3H   LINE      CODE     ---       #2799
      01001DB6H   LINE      CODE     ---       #2801
      01001DB7H   LINE      CODE     ---       #2803
      01001DBDH   LINE      CODE     ---       #2804
      01001DC6H   LINE      CODE     ---       #2805
      01001DC9H   LINE      CODE     ---       #2806
      01001DC9H   LINE      CODE     ---       #2808
      01001DC9H   LINE      CODE     ---       #2810
      01001DC9H   LINE      CODE     ---       #2811
      01001DC9H   LINE      CODE     ---       #2812
      01001DC9H   LINE      CODE     ---       #2814
LX51 LINKER/LOCATER V4.66.41.0                                                        02/15/2019  15:28:07  PAGE 90


      01001DC9H   LINE      CODE     ---       #2818
      01001DC9H   LINE      CODE     ---       #2819
      01001DC9H   LINE      CODE     ---       #2820
      ---         BLOCKEND  ---      ---       LVL=0

      01007592H   BLOCK     CODE     ---       LVL=0
      01007592H   LINE      CODE     ---       #2823
      01007592H   LINE      CODE     ---       #2825
      01007594H   LINE      CODE     ---       #2826
      01007597H   LINE      CODE     ---       #2828
      0100759DH   LINE      CODE     ---       #2829
      0100759FH   LINE      CODE     ---       #2830
      ---         BLOCKEND  ---      ---       LVL=0

      01001E6CH   BLOCK     CODE     ---       LVL=0
      01001E6CH   BLOCK     CODE     NEAR LAB  LVL=1
      010011C9H   SYMBOL    CODE     ---       cmd_datsComing
      010011CBH   SYMBOL    CODE     ---       cmd_nwkOpenNote
      02000009H   SYMBOL    XDATA    ---       paramTX_temp
      020000A2H   SYMBOL    XDATA    ---       paramRX_temp
      00000023H.3 SYMBOL    BIT      BIT       heartBeat_cmdFLG
      01001EC9H   BLOCK     CODE     NEAR LAB  LVL=2
      00000023H.2 SYMBOL    BIT      BIT       FLG_timeSetInit
      010012FFH   SYMBOL    CODE     WORD      DTREQ_EXATTR_ONCEPERIOD
      000000C0H   SYMBOL    IDATA    WORD      constandLoop_reserve
      02000007H   SYMBOL    XDATA    BYTE      frame_dataLen
      00000020H.0 SYMBOL    BIT      BIT       dataFromRemote_IF
      00000020H.1 SYMBOL    BIT      BIT       specialCmd_IF
      02000008H   SYMBOL    XDATA    BYTE      datsTX_Len
      ---         BLOCKEND  ---      ---       LVL=2
      01001F2FH   BLOCK     CODE     NEAR LAB  LVL=2
      010012FFH   SYMBOL    CODE     WORD      DTREQ_EXATTR_ONCEPERIOD
      000000C0H   SYMBOL    IDATA    WORD      constandLoop_reserve
      02000007H   SYMBOL    XDATA    BYTE      frame_dataLen
      00000020H.0 SYMBOL    BIT      BIT       dataFromRemote_IF
      00000020H.1 SYMBOL    BIT      BIT       specialCmd_IF
      02000008H   SYMBOL    XDATA    BYTE      datsTX_Len
      01001F61H   BLOCK     CODE     NEAR LAB  LVL=3
      000000BEH   SYMBOL    IDATA    WORD      current_Insert
      000000C3H   SYMBOL    IDATA    BYTE      statusRelay_temp
      000000C4H   SYMBOL    IDATA    BYTE      localActLoop
      ---         BLOCKEND  ---      ---       LVL=3
      ---         BLOCKEND  ---      ---       LVL=2
      01002066H   BLOCK     CODE     NEAR LAB  LVL=2
      02000007H   SYMBOL    XDATA    BYTE      frame_dataLen
      00000020H.0 SYMBOL    BIT      BIT       dataFromRemote_IF
      00000020H.1 SYMBOL    BIT      BIT       specialCmd_IF
      02000008H   SYMBOL    XDATA    BYTE      datsTX_Len
      01002119H   BLOCK     CODE     NEAR LAB  LVL=3
      02000000H   SYMBOL    XDATA    BYTE      loop
      02000001H   SYMBOL    XDATA    ---       nightDatsTemp_CalibrateTab
      000000C2H   SYMBOL    IDATA    BYTE      loop
      000000C5H   SYMBOL    IDATA    WORD      datsFrom_addr
      000000C7H   SYMBOL    IDATA    BYTE      srcPoint
      000000C8H   SYMBOL    IDATA    BYTE      dstPoint
      ---         BLOCKEND  ---      ---       LVL=3
      01002189H   BLOCK     CODE     NEAR LAB  LVL=3
      02000001H   SYMBOL    XDATA    ---       nightDatsTemp_CalibrateTab
      000000C2H   SYMBOL    IDATA    BYTE      loop
      000000C5H   SYMBOL    IDATA    WORD      datsFrom_addr
      000000C7H   SYMBOL    IDATA    BYTE      srcPoint
      000000C8H   SYMBOL    IDATA    BYTE      dstPoint
      ---         BLOCKEND  ---      ---       LVL=3
      ---         BLOCKEND  ---      ---       LVL=2
      0100231CH   BLOCK     CODE     NEAR LAB  LVL=2
LX51 LINKER/LOCATER V4.66.41.0                                                        02/15/2019  15:28:07  PAGE 91


      00000020H.0 SYMBOL    BIT      BIT       dataFromRemote_IF
      00000020H.1 SYMBOL    BIT      BIT       specialCmd_IF
      02000008H   SYMBOL    XDATA    BYTE      datsTX_Len
      ---         BLOCKEND  ---      ---       LVL=2
      01002368H   BLOCK     CODE     NEAR LAB  LVL=2
      000000C2H   SYMBOL    IDATA    BYTE      loop
      000000C5H   SYMBOL    IDATA    WORD      datsFrom_addr
      000000C7H   SYMBOL    IDATA    BYTE      srcPoint
      000000C8H   SYMBOL    IDATA    BYTE      dstPoint
      ---         BLOCKEND  ---      ---       LVL=2
      01002500H   BLOCK     CODE     NEAR LAB  LVL=2
      000000C5H   SYMBOL    IDATA    WORD      datsFrom_addr
      000000C7H   SYMBOL    IDATA    BYTE      srcPoint
      000000C8H   SYMBOL    IDATA    BYTE      dstPoint
      01002557H   BLOCK     CODE     NEAR LAB  LVL=3
      000000C3H   SYMBOL    IDATA    BYTE      statusRelay_temp
      000000C4H   SYMBOL    IDATA    BYTE      localActLoop
      ---         BLOCKEND  ---      ---       LVL=3
      ---         BLOCKEND  ---      ---       LVL=2
      ---         BLOCKEND  ---      ---       LVL=1
      01001E6CH   LINE      CODE     ---       #2834
      01001E6CH   LINE      CODE     ---       #2840
      01001E7BH   LINE      CODE     ---       #2841
      01001E8AH   LINE      CODE     ---       #2846
      01001E90H   LINE      CODE     ---       #2848
      01001E93H   LINE      CODE     ---       #2849
      01001E96H   LINE      CODE     ---       #2850
      01001E96H   LINE      CODE     ---       #2853
      01001EBEH   LINE      CODE     ---       #2855
      01001EBEH   LINE      CODE     ---       #2857
      01001EC6H   LINE      CODE     ---       #2859
      01001EC6H   LINE      CODE     ---       #2860
      01001EC6H   LINE      CODE     ---       #2862
      01001EC9H   LINE      CODE     ---       #2863
      01001EC9H   LINE      CODE     ---       #2865
      01001EC9H   LINE      CODE     ---       #2868
      01001ECCH   LINE      CODE     ---       #2870
      01001ECEH   LINE      CODE     ---       #2871
      01001EDBH   LINE      CODE     ---       #2873
      01001EDEH   LINE      CODE     ---       #2875
      01001EDEH   LINE      CODE     ---       #2877
      01001EDEH   LINE      CODE     ---       #2878
      01001EF3H   LINE      CODE     ---       #2879
      01001EF9H   LINE      CODE     ---       #2880
      01001EF9H   LINE      CODE     ---       #2882
      01001EF9H   LINE      CODE     ---       #2883
      01001EF9H   LINE      CODE     ---       #2885
      01001EF9H   LINE      CODE     ---       #2887
      01001F01H   LINE      CODE     ---       #2889
      01001F07H   LINE      CODE     ---       #2891
      01001F0AH   LINE      CODE     ---       #2892
      01001F0FH   LINE      CODE     ---       #2894
      01001F18H   LINE      CODE     ---       #2896
      01001F1AH   LINE      CODE     ---       #2897
      01001F1DH   LINE      CODE     ---       #2900
      01001F1DH   LINE      CODE     ---       #2901
      01001F26H   LINE      CODE     ---       #2902
      01001F26H   LINE      CODE     ---       #2904
      01001F2AH   LINE      CODE     ---       #2906
      01001F2AH   LINE      CODE     ---       #2908
      01001F2AH   LINE      CODE     ---       #2910
      01001F2FH   LINE      CODE     ---       #2911
      01001F2FH   LINE      CODE     ---       #2912
      01001F2FH   LINE      CODE     ---       #2915
      01001F2FH   LINE      CODE     ---       #2918
LX51 LINKER/LOCATER V4.66.41.0                                                        02/15/2019  15:28:07  PAGE 92


      01001F4EH   LINE      CODE     ---       #2920
      01001F54H   LINE      CODE     ---       #2922
      01001F61H   LINE      CODE     ---       #2924
      01001F6FH   LINE      CODE     ---       #2927
      01001F73H   LINE      CODE     ---       #2929
      01001F78H   LINE      CODE     ---       #2933
      01001F9FH   LINE      CODE     ---       #2934
      01001FA5H   LINE      CODE     ---       #2935
      01001FA5H   LINE      CODE     ---       #2938
      01001FB6H   LINE      CODE     ---       #2940
      01001FBCH   LINE      CODE     ---       #2941
      01001FCEH   LINE      CODE     ---       #2942
      01001FD0H   LINE      CODE     ---       #2944
      01001FDEH   LINE      CODE     ---       #2946
      01001FFFH   LINE      CODE     ---       #2947
      01002046H   LINE      CODE     ---       #2949
      01002057H   LINE      CODE     ---       #2950
      01002057H   LINE      CODE     ---       #2951
      01002057H   LINE      CODE     ---       #2952
      01002057H   LINE      CODE     ---       #3008
      01002066H   LINE      CODE     ---       #3010
      0100206AH   LINE      CODE     ---       #3012
      0100206CH   LINE      CODE     ---       #3013
      0100206EH   LINE      CODE     ---       #3015
      01002077H   LINE      CODE     ---       #3045
      01002086H   LINE      CODE     ---       #3046
      0100208DH   LINE      CODE     ---       #3048
      01002090H   LINE      CODE     ---       #3049
      01002098H   LINE      CODE     ---       #3050
      010020B6H   LINE      CODE     ---       #3051
      010020B6H   LINE      CODE     ---       #3060
      010020C6H   LINE      CODE     ---       #3061
      010020D5H   LINE      CODE     ---       #3062
      010020EAH   LINE      CODE     ---       #3063
      010020F9H   LINE      CODE     ---       #3064
      01002109H   LINE      CODE     ---       #3065
      01002119H   LINE      CODE     ---       #3068
      01002119H   LINE      CODE     ---       #3069
      0100211EH   LINE      CODE     ---       #3070
      0100212FH   LINE      CODE     ---       #3071
      0100213EH   LINE      CODE     ---       #3073
      01002167H   LINE      CODE     ---       #3074
      0100216FH   LINE      CODE     ---       #3075
      0100216FH   LINE      CODE     ---       #3076
      0100217FH   LINE      CODE     ---       #3077
      01002184H   LINE      CODE     ---       #3078
      01002189H   LINE      CODE     ---       #3079
      01002189H   LINE      CODE     ---       #3081
      01002196H   LINE      CODE     ---       #3083
      0100219FH   LINE      CODE     ---       #3084
      010021B7H   LINE      CODE     ---       #3085
      010021CEH   LINE      CODE     ---       #3086
      010021DBH   LINE      CODE     ---       #3087
      010021E3H   LINE      CODE     ---       #3088
      010021F0H   LINE      CODE     ---       #3089
      010021F8H   LINE      CODE     ---       #3114
      010021F8H   LINE      CODE     ---       #3115
      0100220BH   LINE      CODE     ---       #3116
      01002210H   LINE      CODE     ---       #3117
      01002221H   LINE      CODE     ---       #3118
      01002221H   LINE      CODE     ---       #3120
      01002227H   LINE      CODE     ---       #3195
      01002227H   LINE      CODE     ---       #3197
      0100222FH   LINE      CODE     ---       #3199
      0100222FH   LINE      CODE     ---       #3201
LX51 LINKER/LOCATER V4.66.41.0                                                        02/15/2019  15:28:07  PAGE 93


      0100222FH   LINE      CODE     ---       #3202
      0100222FH   LINE      CODE     ---       #3203
      0100222FH   LINE      CODE     ---       #3206
      01002238H   LINE      CODE     ---       #3208
      01002238H   LINE      CODE     ---       #3210
      01002244H   LINE      CODE     ---       #3212
      01002246H   LINE      CODE     ---       #3214
      01002246H   LINE      CODE     ---       #3216
      01002259H   LINE      CODE     ---       #3218
      01002259H   LINE      CODE     ---       #3220
      01002259H   LINE      CODE     ---       #3221
      01002259H   LINE      CODE     ---       #3224
      0100225EH   LINE      CODE     ---       #3225
      01002263H   LINE      CODE     ---       #3226
      01002267H   LINE      CODE     ---       #3227
      0100226FH   LINE      CODE     ---       #3228
      01002276H   LINE      CODE     ---       #3229
      0100227BH   LINE      CODE     ---       #3230
      01002281H   LINE      CODE     ---       #3231
      0100228BH   LINE      CODE     ---       #3232
      01002293H   LINE      CODE     ---       #3233
      01002299H   LINE      CODE     ---       #3234
      010022A4H   LINE      CODE     ---       #3235
      010022AEH   LINE      CODE     ---       #3236
      010022BDH   LINE      CODE     ---       #3237
      010022C4H   LINE      CODE     ---       #3238
      010022C7H   LINE      CODE     ---       #3239
      010022CCH   LINE      CODE     ---       #3240
      010022E7H   LINE      CODE     ---       #3252
      010022EEH   LINE      CODE     ---       #3253
      010022F0H   LINE      CODE     ---       #3254
      010022F3H   LINE      CODE     ---       #3255
      010022FFH   LINE      CODE     ---       #3256
      01002306H   LINE      CODE     ---       #3257
      01002306H   LINE      CODE     ---       #3258
      01002306H   LINE      CODE     ---       #3259
      01002310H   LINE      CODE     ---       #3260
      01002314H   LINE      CODE     ---       #3263
      01002314H   LINE      CODE     ---       #3297
      0100231CH   LINE      CODE     ---       #3299
      0100231EH   LINE      CODE     ---       #3300
      01002320H   LINE      CODE     ---       #3302
      01002325H   LINE      CODE     ---       #3304
      0100232CH   LINE      CODE     ---       #3337
      01002341H   LINE      CODE     ---       #3338
      01002348H   LINE      CODE     ---       #3339
      0100234BH   LINE      CODE     ---       #3341
      01002351H   LINE      CODE     ---       #3342
      01002356H   LINE      CODE     ---       #3346
      01002356H   LINE      CODE     ---       #3349
      0100235FH   LINE      CODE     ---       #3351
      01002368H   LINE      CODE     ---       #3383
      0100237AH   LINE      CODE     ---       #3385
      0100237AH   LINE      CODE     ---       #3386
      0100237AH   LINE      CODE     ---       #3387
      0100237AH   LINE      CODE     ---       #3389
      0100238AH   LINE      CODE     ---       #3391
      010023A4H   LINE      CODE     ---       #3393
      010023B9H   LINE      CODE     ---       #3395
      010023CDH   LINE      CODE     ---       #3397
      010023E5H   LINE      CODE     ---       #3399
      010023F9H   LINE      CODE     ---       #3400
      01002407H   LINE      CODE     ---       #3401
      0100240AH   LINE      CODE     ---       #3404
      0100241DH   LINE      CODE     ---       #3405
LX51 LINKER/LOCATER V4.66.41.0                                                        02/15/2019  15:28:07  PAGE 94


      01002433H   LINE      CODE     ---       #3406
      0100244BH   LINE      CODE     ---       #3408
      01002462H   LINE      CODE     ---       #3409
      01002472H   LINE      CODE     ---       #3410
      01002483H   LINE      CODE     ---       #3411
      0100248AH   LINE      CODE     ---       #3429
      0100248AH   LINE      CODE     ---       #3430
      0100248AH   LINE      CODE     ---       #3431
      01002490H   LINE      CODE     ---       #3432
      01002490H   LINE      CODE     ---       #3434
      01002490H   LINE      CODE     ---       #3436
      01002498H   LINE      CODE     ---       #3438
      01002499H   LINE      CODE     ---       #3440
      010024A6H   LINE      CODE     ---       #3442
      010024AEH   LINE      CODE     ---       #3443
      010024B2H   LINE      CODE     ---       #3444
      010024B5H   LINE      CODE     ---       #3445
      010024B8H   LINE      CODE     ---       #3448
      010024C0H   LINE      CODE     ---       #3449
      010024C6H   LINE      CODE     ---       #3450
      010024D0H   LINE      CODE     ---       #3452
      010024D7H   LINE      CODE     ---       #3453
      010024DAH   LINE      CODE     ---       #3454
      010024E0H   LINE      CODE     ---       #3455
      010024E6H   LINE      CODE     ---       #3456
      010024E6H   LINE      CODE     ---       #3457
      010024E6H   LINE      CODE     ---       #3459
      010024E6H   LINE      CODE     ---       #3461
      010024E6H   LINE      CODE     ---       #3462
      010024E6H   LINE      CODE     ---       #3464
      010024E6H   LINE      CODE     ---       #3465
      010024E6H   LINE      CODE     ---       #3517
      010024ECH   LINE      CODE     ---       #3519
      010024ECH   LINE      CODE     ---       #3534
      01002500H   LINE      CODE     ---       #3535
      01002500H   LINE      CODE     ---       #3537
      01002512H   LINE      CODE     ---       #3538
      01002516H   LINE      CODE     ---       #3539
      0100251AH   LINE      CODE     ---       #3541
      0100251EH   LINE      CODE     ---       #3543
      01002521H   LINE      CODE     ---       #3544
      0100252AH   LINE      CODE     ---       #3545
      0100252AH   LINE      CODE     ---       #3547
      01002533H   LINE      CODE     ---       #3548
      01002543H   LINE      CODE     ---       #3550
      01002557H   LINE      CODE     ---       #3552
      0100255EH   LINE      CODE     ---       #3553
      01002561H   LINE      CODE     ---       #3555
      01002564H   LINE      CODE     ---       #3558
      01002564H   LINE      CODE     ---       #3559
      01002564H   LINE      CODE     ---       #3560
      0100257EH   LINE      CODE     ---       #3561
      01002584H   LINE      CODE     ---       #3562
      01002584H   LINE      CODE     ---       #3587
      01002596H   LINE      CODE     ---       #3589
      01002596H   LINE      CODE     ---       #3590
      01002596H   LINE      CODE     ---       #3591
      01002596H   LINE      CODE     ---       #3594
      010025A6H   LINE      CODE     ---       #3596
      010025B4H   LINE      CODE     ---       #3598
      010025C4H   LINE      CODE     ---       #3600
      010025D5H   LINE      CODE     ---       #3601
      010025E4H   LINE      CODE     ---       #3602
      010025E7H   LINE      CODE     ---       #3603
      010025FAH   LINE      CODE     ---       #3605
LX51 LINKER/LOCATER V4.66.41.0                                                        02/15/2019  15:28:07  PAGE 95


      010025FFH   LINE      CODE     ---       #3607
      01002610H   LINE      CODE     ---       #3608
      01002610H   LINE      CODE     ---       #3610
      01002612H   LINE      CODE     ---       #3611
      01002612H   LINE      CODE     ---       #3612
      01002617H   LINE      CODE     ---       #3614
      01002617H   LINE      CODE     ---       #3616
      01002617H   LINE      CODE     ---       #3618
      01002621H   LINE      CODE     ---       #3620
      0100262EH   LINE      CODE     ---       #3622
      01002633H   LINE      CODE     ---       #3623
      01002636H   LINE      CODE     ---       #3625
      0100263BH   LINE      CODE     ---       #3627
      01002640H   LINE      CODE     ---       #3629
      01002645H   LINE      CODE     ---       #3630
      01002645H   LINE      CODE     ---       #3631
      01002645H   LINE      CODE     ---       #3633
      01002645H   LINE      CODE     ---       #3635
      01002645H   LINE      CODE     ---       #3637
      0100264CH   LINE      CODE     ---       #3638
      01002653H   LINE      CODE     ---       #3640
      01002654H   LINE      CODE     ---       #3642
      01002665H   LINE      CODE     ---       #3645
      01002665H   LINE      CODE     ---       #3647
      0100266BH   LINE      CODE     ---       #3649
      0100266BH   LINE      CODE     ---       #3652
      0100266BH   LINE      CODE     ---       #3654
      01002678H   LINE      CODE     ---       #3656
      01002682H   LINE      CODE     ---       #3657
      01002682H   LINE      CODE     ---       #3659
      01002682H   LINE      CODE     ---       #3662
      01002682H   LINE      CODE     ---       #3664
      01002688H   LINE      CODE     ---       #3666
      01002688H   LINE      CODE     ---       #3668
      01002688H   LINE      CODE     ---       #3672
      01002688H   LINE      CODE     ---       #3673
      01002688H   LINE      CODE     ---       #3674
      01002688H   LINE      CODE     ---       #3676
      01002688H   LINE      CODE     ---       #3677
      01002696H   LINE      CODE     ---       #3678
      01002696H   LINE      CODE     ---       #3680
      010026A0H   LINE      CODE     ---       #3683
      010026A0H   LINE      CODE     ---       #3685
      010026A0H   LINE      CODE     ---       #3686
      010026B2H   LINE      CODE     ---       #3687
      010026B8H   LINE      CODE     ---       #3688
      010026B8H   LINE      CODE     ---       #3690
      010026B8H   LINE      CODE     ---       #3691
      010026B8H   LINE      CODE     ---       #3693
      010026B8H   LINE      CODE     ---       #3695
      010026B8H   LINE      CODE     ---       #3698
      010026BBH   LINE      CODE     ---       #3700
      010026BDH   LINE      CODE     ---       #3702
      010026BFH   LINE      CODE     ---       #3704
      010026C1H   LINE      CODE     ---       #3706
      010026C1H   LINE      CODE     ---       #3709
      010026C4H   LINE      CODE     ---       #3711
      010026C6H   LINE      CODE     ---       #3713
      010026C9H   LINE      CODE     ---       #3715
      010026D0H   LINE      CODE     ---       #3717
      010026D2H   LINE      CODE     ---       #3719
      010026D3H   LINE      CODE     ---       #3721
      010026D8H   LINE      CODE     ---       #3722
      010026D8H   LINE      CODE     ---       #3724
      010026D8H   LINE      CODE     ---       #3726
LX51 LINKER/LOCATER V4.66.41.0                                                        02/15/2019  15:28:07  PAGE 96


      010026DAH   LINE      CODE     ---       #3728
      010026E1H   LINE      CODE     ---       #3730
      010026E3H   LINE      CODE     ---       #3732
      010026E3H   LINE      CODE     ---       #3733
      010026E5H   LINE      CODE     ---       #3736
      010026E5H   LINE      CODE     ---       #3737
      010026E5H   LINE      CODE     ---       #3739
      010026E5H   LINE      CODE     ---       #3741
      010026E5H   LINE      CODE     ---       #3744
      010026E8H   LINE      CODE     ---       #3746
      010026E8H   LINE      CODE     ---       #3748
      010026E8H   LINE      CODE     ---       #3751
      010026EBH   LINE      CODE     ---       #3752
      010026EEH   LINE      CODE     ---       #3754
      010026EEH   LINE      CODE     ---       #3756
      010026EEH   LINE      CODE     ---       #3759
      010026F1H   LINE      CODE     ---       #3760
      010026F7H   LINE      CODE     ---       #3762
      010026FDH   LINE      CODE     ---       #3763
      010026FDH   LINE      CODE     ---       #3765
      010026FDH   LINE      CODE     ---       #3767
      010026FDH   LINE      CODE     ---       #3769
      01002704H   LINE      CODE     ---       #3771
      01002704H   LINE      CODE     ---       #3772
      01002707H   LINE      CODE     ---       #3774
      01002707H   LINE      CODE     ---       #3775
      01002707H   LINE      CODE     ---       #3777
      01002707H   LINE      CODE     ---       #3778
      01002707H   LINE      CODE     ---       #3779
      ---         BLOCKEND  ---      ---       LVL=0

      ---         MODULE    ---      ---       USRKIN
      020006EFH   PUBLIC    XDATA    WORD      combinationFunFLG_3S5S_cancel_counter
      020006EDH   PUBLIC    XDATA    WORD      touchPadActCounter
      020006ECH   PUBLIC    XDATA    BYTE      touchKeepCnt_record
      020006EAH   PUBLIC    XDATA    WORD      touchPadContinueCnt
      00000023H.0 PUBLIC    BIT      BIT       ledBackground_method
      000000DBH   PUBLIC    IDATA    BYTE      val_DcodeCfm
      00000066H   PUBLIC    DATA     WORD      usrKeyCount
      00000022H.7 PUBLIC    BIT      BIT       usrKeyCount_EN
      01007413H   PUBLIC    CODE     ---       usrKeyFun_zigbNwkRejoin
      010075EBH   PUBLIC    CODE     ---       fun_touchReset
      0100607CH   PUBLIC    CODE     ---       _touchPad_functionTrigContinue
      0100582EH   PUBLIC    CODE     ---       _touchPad_functionTrigNormal
      010056F9H   PUBLIC    CODE     ---       touchPad_Scan
      01007538H   PUBLIC    CODE     ---       touchPadScan_oneShoot
      01006B42H   PUBLIC    CODE     ---       DcodeScan
      01006FA9H   PUBLIC    CODE     ---       DcodeScan_oneShoot
      00000027H   PUBLIC    DATA     BYTE      ?_UsrKEYScan?BYTE
      01006A66H   PUBLIC    CODE     ---       _UsrKEYScan
      01007635H   PUBLIC    CODE     ---       UsrKEYScan_oneShoot
      010072A0H   PUBLIC    CODE     ---       usrKin_pinInit
      010073BEH   PUBLIC    CODE     ---       _devTypeComfirm_byDcode
      0100706CH   PUBLIC    CODE     ---       usrZigbNwkOpen
      000000D8H.2 SFRSYM    DATA     BIT       CCF2
      000000E0H.7 SFRSYM    DATA     BIT       ACC7
      00000093H   SFRSYM    DATA     BYTE      P0M1
      00000092H   SFRSYM    DATA     BYTE      P1M0
      00000096H   SFRSYM    DATA     BYTE      P2M0
      00000091H   SFRSYM    DATA     BYTE      P1M1
      00000080H   SFRSYM    DATA     BYTE      P0
      000000B2H   SFRSYM    DATA     BYTE      P3M0
      00000095H   SFRSYM    DATA     BYTE      P2M1
      00000090H   SFRSYM    DATA     BYTE      P1
      000000B4H   SFRSYM    DATA     BYTE      P4M0
LX51 LINKER/LOCATER V4.66.41.0                                                        02/15/2019  15:28:07  PAGE 97


      000000B1H   SFRSYM    DATA     BYTE      P3M1
      000000A0H   SFRSYM    DATA     BYTE      P2
      000000CAH   SFRSYM    DATA     BYTE      P5M0
      000000B3H   SFRSYM    DATA     BYTE      P4M1
      000000B0H   SFRSYM    DATA     BYTE      P3
      000000ABH   SFRSYM    DATA     BYTE      WKTCH
      000000B0H.4 SFRSYM    DATA     BIT       T0
      000000D0H.6 SFRSYM    DATA     BIT       AC
      000000CCH   SFRSYM    DATA     BYTE      P6M0
      000000C9H   SFRSYM    DATA     BYTE      P5M1
      000000C0H   SFRSYM    DATA     BYTE      P4
      000000B0H.5 SFRSYM    DATA     BIT       CLKOUT0
      000000B0H.5 SFRSYM    DATA     BIT       T1
      000000E2H   SFRSYM    DATA     BYTE      P7M0
      000000CBH   SFRSYM    DATA     BYTE      P6M1
      000000C8H   SFRSYM    DATA     BYTE      P5
      000000C6H   SFRSYM    DATA     BYTE      ISP_TRIG
      000000A8H.7 SFRSYM    DATA     BIT       EA
      000000B0H.4 SFRSYM    DATA     BIT       CLKOUT1
      000000A0H.4 SFRSYM    DATA     BIT       SPI_SS_2
      000000E8H   SFRSYM    DATA     BYTE      P6
      000000E1H   SFRSYM    DATA     BYTE      P7M1
      000000C8H.4 SFRSYM    DATA     BIT       SPI_SS_3
      00000090H.4 SFRSYM    DATA     BIT       SPI_MISO
      00000090H.3 SFRSYM    DATA     BIT       SPI_MOSI
      00000090H.1 SFRSYM    DATA     BIT       CCP0
      000000F8H   SFRSYM    DATA     BYTE      P7
      000000AAH   SFRSYM    DATA     BYTE      WKTCL
      00000090H   SFRSYM    DATA     BIT       CCP1
      000000CEH   SFRSYM    DATA     BYTE      SPCTL
      000000D8H.7 SFRSYM    DATA     BIT       CF
      000000B0H.7 SFRSYM    DATA     BIT       CCP2
      000000F9H   SFRSYM    DATA     BYTE      CH
      000000A2H   SFRSYM    DATA     BYTE      P_SW1
      000000BAH   SFRSYM    DATA     BYTE      P_SW2
      000000A8H.5 SFRSYM    DATA     BIT       EADC
      000000A0H.1 SFRSYM    DATA     BIT       SPI_SCLK_2
      000000A8H   SFRSYM    DATA     BYTE      IE
      000000C0H.3 SFRSYM    DATA     BIT       SPI_SCLK_3
      000000E9H   SFRSYM    DATA     BYTE      CL
      000000C5H   SFRSYM    DATA     BYTE      IAP_CMD
      000000FAH   SFRSYM    DATA     BYTE      CCAP0H
      00000090H   SFRSYM    DATA     BIT       Dcode0
      000000FBH   SFRSYM    DATA     BYTE      CCAP1H
      00000090H.1 SFRSYM    DATA     BIT       Dcode1
      000000FCH   SFRSYM    DATA     BYTE      CCAP2H
      00000090H.2 SFRSYM    DATA     BIT       Dcode2
      000000BDH   SFRSYM    DATA     BYTE      ADC_RES
      000000B6H   SFRSYM    DATA     BYTE      IPH2
      00000090H.3 SFRSYM    DATA     BIT       Dcode3
      000000D8H.6 SFRSYM    DATA     BIT       CR
      000000EAH   SFRSYM    DATA     BYTE      CCAP0L
      00000090H.4 SFRSYM    DATA     BIT       Dcode4
      000000B0H.7 SFRSYM    DATA     BIT       RD
      000000EBH   SFRSYM    DATA     BYTE      CCAP1L
      000000DAH   SFRSYM    DATA     BYTE      CCAPM0
      00000090H.3 SFRSYM    DATA     BIT       Dcode5
      000000ECH   SFRSYM    DATA     BYTE      CCAP2L
      000000DBH   SFRSYM    DATA     BYTE      CCAPM1
      000000A8H.4 SFRSYM    DATA     BIT       ES
      000000DCH   SFRSYM    DATA     BYTE      CCAPM2
      000000B8H.5 SFRSYM    DATA     BIT       PADC
      000000A0H.2 SFRSYM    DATA     BIT       SPI_MISO_2
      000000A0H.3 SFRSYM    DATA     BIT       SPI_MOSI_2
      000000B8H   SFRSYM    DATA     BYTE      IP
LX51 LINKER/LOCATER V4.66.41.0                                                        02/15/2019  15:28:07  PAGE 98


      000000C0H.1 SFRSYM    DATA     BIT       SPI_MISO_3
      000000C0H   SFRSYM    DATA     BIT       SPI_MOSI_3
      00000098H   SFRSYM    DATA     BIT       RI
      000000B0H.2 SFRSYM    DATA     BIT       INT0
      000000D0H.7 SFRSYM    DATA     BIT       CY
      00000098H.1 SFRSYM    DATA     BIT       TI
      000000B0H.3 SFRSYM    DATA     BIT       INT1
      00000097H   SFRSYM    DATA     BYTE      CLK_DIV
      000000C3H   SFRSYM    DATA     BYTE      IAP_ADDRH
      00000090H   SFRSYM    DATA     BIT       RXD2
      000000C5H   SFRSYM    DATA     BYTE      ISP_CMD
      000000B8H.4 SFRSYM    DATA     BIT       PS
      00000090H.1 SFRSYM    DATA     BIT       TXD2
      00000081H   SFRSYM    DATA     BYTE      SP
      000000D9H   SFRSYM    DATA     BYTE      CMOD
      000000D8H   SFRSYM    DATA     BYTE      CCON
      000000C4H   SFRSYM    DATA     BYTE      IAP_ADDRL
      000000B8H.7 SFRSYM    DATA     BIT       PPCA
      000000D0H.2 SFRSYM    DATA     BIT       OV
      000000B0H.6 SFRSYM    DATA     BIT       WR
      000000A8H.6 SFRSYM    DATA     BIT       ELVD
      00000080H   SFRSYM    DATA     BIT       P00
      00000090H   SFRSYM    DATA     BIT       P10
      00000080H.1 SFRSYM    DATA     BIT       P01
      000000BCH   SFRSYM    DATA     BYTE      ADC_CONTR
      00000099H   SFRSYM    DATA     BYTE      SBUF
      00000087H   SFRSYM    DATA     BYTE      PCON
      000000A0H   SFRSYM    DATA     BIT       P20
      00000090H.1 SFRSYM    DATA     BIT       P11
      00000080H.2 SFRSYM    DATA     BIT       P02
      000000C3H   SFRSYM    DATA     BYTE      ISP_ADDRH
      000000B0H   SFRSYM    DATA     BIT       P30
      000000A0H.1 SFRSYM    DATA     BIT       P21
      00000090H.2 SFRSYM    DATA     BIT       P12
      00000080H.3 SFRSYM    DATA     BIT       P03
      000000C0H   SFRSYM    DATA     BIT       P40
      000000B0H.1 SFRSYM    DATA     BIT       P31
      000000A0H.2 SFRSYM    DATA     BIT       P22
      00000090H.3 SFRSYM    DATA     BIT       P13
      00000080H.4 SFRSYM    DATA     BIT       P04
      00000098H   SFRSYM    DATA     BYTE      SCON
      0000008FH   SFRSYM    DATA     BYTE      WAKE_CLKO
      000000C8H   SFRSYM    DATA     BIT       P50
      000000C0H.1 SFRSYM    DATA     BIT       P41
      000000B0H.2 SFRSYM    DATA     BIT       P32
      000000A0H.3 SFRSYM    DATA     BIT       P23
      00000090H.4 SFRSYM    DATA     BIT       P14
      00000080H.5 SFRSYM    DATA     BIT       P05
      00000089H   SFRSYM    DATA     BYTE      TMOD
      00000088H   SFRSYM    DATA     BYTE      TCON
      000000C8H.1 SFRSYM    DATA     BIT       P51
      000000C0H.2 SFRSYM    DATA     BIT       P42
      000000B0H.3 SFRSYM    DATA     BIT       P33
      000000A0H.4 SFRSYM    DATA     BIT       P24
      00000090H.5 SFRSYM    DATA     BIT       P15
      00000080H.6 SFRSYM    DATA     BIT       P06
      000000C4H   SFRSYM    DATA     BYTE      ISP_ADDRL
      000000B8H.6 SFRSYM    DATA     BIT       PLVD
      000000C8H.2 SFRSYM    DATA     BIT       P52
      000000C0H.3 SFRSYM    DATA     BIT       P43
      000000B0H.4 SFRSYM    DATA     BIT       P34
      000000A0H.5 SFRSYM    DATA     BIT       P25
      00000090H.6 SFRSYM    DATA     BIT       P16
      00000080H.7 SFRSYM    DATA     BIT       P07
      000000C8H.3 SFRSYM    DATA     BIT       P53
LX51 LINKER/LOCATER V4.66.41.0                                                        02/15/2019  15:28:07  PAGE 99


      000000C0H.4 SFRSYM    DATA     BIT       P44
      000000B0H.5 SFRSYM    DATA     BIT       P35
      000000A0H.6 SFRSYM    DATA     BIT       P26
      00000090H.7 SFRSYM    DATA     BIT       P17
      000000C8H.4 SFRSYM    DATA     BIT       P54
      000000C0H.5 SFRSYM    DATA     BIT       P45
      000000B0H.6 SFRSYM    DATA     BIT       P36
      000000A0H.7 SFRSYM    DATA     BIT       P27
      000000C8H.5 SFRSYM    DATA     BIT       P55
      000000C0H.6 SFRSYM    DATA     BIT       P46
      000000B0H.7 SFRSYM    DATA     BIT       P37
      000000C8H.6 SFRSYM    DATA     BIT       P56
      000000C0H.7 SFRSYM    DATA     BIT       P47
      000000C8H.7 SFRSYM    DATA     BIT       P57
      00000088H.1 SFRSYM    DATA     BIT       IE0
      000000A1H   SFRSYM    DATA     BYTE      BUS_SPEED
      00000088H.3 SFRSYM    DATA     BIT       IE1
      000000AFH   SFRSYM    DATA     BYTE      IE2
      000000F0H   SFRSYM    DATA     BYTE      B
      0000008EH   SFRSYM    DATA     BYTE      AUXR
      000000C7H   SFRSYM    DATA     BYTE      IAP_CONTR
      000000E0H   SFRSYM    DATA     BYTE      ACC
      000000A8H.1 SFRSYM    DATA     BIT       ET0
      000000A8H.3 SFRSYM    DATA     BIT       ET1
      00000088H.5 SFRSYM    DATA     BIT       TF0
      00000088H.7 SFRSYM    DATA     BIT       TF1
      000000B5H   SFRSYM    DATA     BYTE      IP2
      0000008CH   SFRSYM    DATA     BYTE      RL_TH0
      00000098H.2 SFRSYM    DATA     BIT       RB8
      0000008DH   SFRSYM    DATA     BYTE      RL_TH1
      0000008CH   SFRSYM    DATA     BYTE      TH0
      000000A8H   SFRSYM    DATA     BIT       EX0
      00000088H   SFRSYM    DATA     BIT       IT0
      000000D6H   SFRSYM    DATA     BYTE      RL_T2H
      0000008DH   SFRSYM    DATA     BYTE      TH1
      00000090H.6 SFRSYM    DATA     BIT       touchPad_1
      000000A8H.2 SFRSYM    DATA     BIT       EX1
      00000098H.3 SFRSYM    DATA     BIT       TB8
      00000088H.2 SFRSYM    DATA     BIT       IT1
      000000D4H   SFRSYM    DATA     BYTE      RL_T3H
      000000D6H   SFRSYM    DATA     BYTE      TH2
      000000D6H   SFRSYM    DATA     BYTE      T2H
      00000090H.7 SFRSYM    DATA     BIT       touchPad_2
      000000D0H   SFRSYM    DATA     BIT       P
      000000D2H   SFRSYM    DATA     BYTE      RL_T4H
      000000D4H   SFRSYM    DATA     BYTE      TH3
      000000D4H   SFRSYM    DATA     BYTE      T3H
      0000008AH   SFRSYM    DATA     BYTE      RL_TL0
      00000090H.5 SFRSYM    DATA     BIT       touchPad_3
      00000098H.7 SFRSYM    DATA     BIT       SM0
      000000D2H   SFRSYM    DATA     BYTE      TH4
      000000D2H   SFRSYM    DATA     BYTE      T4H
      0000008BH   SFRSYM    DATA     BYTE      RL_TL1
      0000008AH   SFRSYM    DATA     BYTE      TL0
      00000098H.6 SFRSYM    DATA     BIT       SM1
      000000D7H   SFRSYM    DATA     BYTE      RL_T2L
      0000008BH   SFRSYM    DATA     BYTE      TL1
      00000098H.5 SFRSYM    DATA     BIT       SM2
      000000D5H   SFRSYM    DATA     BYTE      RL_T3L
      000000D7H   SFRSYM    DATA     BYTE      TL2
      000000D7H   SFRSYM    DATA     BYTE      T2L
      000000D3H   SFRSYM    DATA     BYTE      RL_T4L
      000000D5H   SFRSYM    DATA     BYTE      TL3
      000000D5H   SFRSYM    DATA     BYTE      T3L
      000000B8H.1 SFRSYM    DATA     BIT       PT0
LX51 LINKER/LOCATER V4.66.41.0                                                        02/15/2019  15:28:07  PAGE 100


      000000D3H   SFRSYM    DATA     BYTE      TL4
      000000D3H   SFRSYM    DATA     BYTE      T4L
      000000B8H.3 SFRSYM    DATA     BIT       PT1
      000000D0H.3 SFRSYM    DATA     BIT       RS0
      000000C7H   SFRSYM    DATA     BYTE      ISP_CONTR
      00000088H.4 SFRSYM    DATA     BIT       TR0
      000000D0H.4 SFRSYM    DATA     BIT       RS1
      000000C2H   SFRSYM    DATA     BYTE      IAP_DATA
      00000088H.6 SFRSYM    DATA     BIT       TR1
      000000B8H   SFRSYM    DATA     BIT       PX0
      000000C1H   SFRSYM    DATA     BYTE      WDT_CONTR
      000000B8H.2 SFRSYM    DATA     BIT       PX1
      000000F2H   SFRSYM    DATA     BYTE      PCA_PWM0
      000000F3H   SFRSYM    DATA     BYTE      PCA_PWM1
      000000F4H   SFRSYM    DATA     BYTE      PCA_PWM2
      0000009DH   SFRSYM    DATA     BYTE      P1ASF
      00000083H   SFRSYM    DATA     BYTE      DPH
      000000D1H   SFRSYM    DATA     BYTE      T4T3M
      000000BEH   SFRSYM    DATA     BYTE      ADC_RESL
      00000082H   SFRSYM    DATA     BYTE      DPL
      000000CDH   SFRSYM    DATA     BYTE      SPSTAT
      000000B7H   SFRSYM    DATA     BYTE      IPH
      0000009BH   SFRSYM    DATA     BYTE      S2BUF
      00000097H   SFRSYM    DATA     BYTE      PCON2
      000000ADH   SFRSYM    DATA     BYTE      S3BUF
      00000098H.4 SFRSYM    DATA     BIT       REN
      00000085H   SFRSYM    DATA     BYTE      S4BUF
      00000080H.2 SFRSYM    DATA     BIT       Usr_key
      0000009AH   SFRSYM    DATA     BYTE      S2CON
      000000ACH   SFRSYM    DATA     BYTE      S3CON
      000000C2H   SFRSYM    DATA     BYTE      ISP_DATA
      00000084H   SFRSYM    DATA     BYTE      S4CON
      000000B9H   SFRSYM    DATA     BYTE      SADEN
      000000B0H   SFRSYM    DATA     BIT       RXD
      000000A9H   SFRSYM    DATA     BYTE      SADDR
      000000B0H.1 SFRSYM    DATA     BIT       TXD
      000000F0H   SFRSYM    DATA     BIT       B0
      000000F0H.1 SFRSYM    DATA     BIT       B1
      000000C6H   SFRSYM    DATA     BYTE      IAP_TRIG
      000000A2H   SFRSYM    DATA     BYTE      AUXR1
      000000F0H.2 SFRSYM    DATA     BIT       B2
      00000090H.2 SFRSYM    DATA     BIT       SPI_SS
      0000008FH   SFRSYM    DATA     BYTE      AUXR2
      000000F0H.3 SFRSYM    DATA     BIT       B3
      000000F0H.4 SFRSYM    DATA     BIT       B4
      000000D0H.5 SFRSYM    DATA     BIT       F0
      000000F0H.5 SFRSYM    DATA     BIT       B5
      000000D0H.1 SFRSYM    DATA     BIT       F1
      0000008FH   SFRSYM    DATA     BYTE      INT_CLKO
      000000F0H.6 SFRSYM    DATA     BIT       B6
      000000E0H   SFRSYM    DATA     BIT       ACC0
      000000F0H.7 SFRSYM    DATA     BIT       B7
      000000E0H.1 SFRSYM    DATA     BIT       ACC1
      000000E0H.2 SFRSYM    DATA     BIT       ACC2
      000000E0H.3 SFRSYM    DATA     BIT       ACC3
      000000D0H   SFRSYM    DATA     BYTE      PSW
      000000E0H.4 SFRSYM    DATA     BIT       ACC4
      00000090H.5 SFRSYM    DATA     BIT       SPI_SCLK
      000000D8H   SFRSYM    DATA     BIT       CCF0
      000000E0H.5 SFRSYM    DATA     BIT       ACC5
      000000D8H.1 SFRSYM    DATA     BIT       CCF1
      000000E0H.6 SFRSYM    DATA     BIT       ACC6
      000000CFH   SFRSYM    DATA     BYTE      SPDAT
      00000094H   SFRSYM    DATA     BYTE      P0M0
      00000065H   SYMBOL    DATA     ---       param_combinationFunTrigger_3S5S
LX51 LINKER/LOCATER V4.66.41.0                                                        02/15/2019  15:28:07  PAGE 101


      01005419H   SYMBOL    CODE     ---       _normalBussiness_shortTouchTrig
      0100582EH   SYMBOL    CODE     ---       _touchPad_functionTrigNormal
      0100748EH   SYMBOL    CODE     ---       _normalBussiness_longA_touchKeepTrig
      0100607CH   SYMBOL    CODE     ---       _touchPad_functionTrigContinue
      00000068H   SYMBOL    DATA     ---       param_combinationFunTrigger_3S1L

      01006791H   BLOCK     CODE     ---       LVL=0
      ---         BLOCKEND  ---      ---       LVL=0

      0100706CH   BLOCK     CODE     ---       LVL=0
      0100706CH   LINE      CODE     ---       #108
      0100706CH   LINE      CODE     ---       #110
      0100707EH   LINE      CODE     ---       #112
      0100707EH   LINE      CODE     ---       #114
      01007086H   LINE      CODE     ---       #115
      0100708BH   LINE      CODE     ---       #117
      0100708BH   LINE      CODE     ---       #118
      0100708EH   LINE      CODE     ---       #119
      010070A3H   LINE      CODE     ---       #120
      010070A9H   LINE      CODE     ---       #121
      010070A9H   LINE      CODE     ---       #123
      010070A9H   LINE      CODE     ---       #124
      ---         BLOCKEND  ---      ---       LVL=0

      010073BEH   BLOCK     CODE     ---       LVL=0
      00000007H   SYMBOL    DATA     BYTE      valDcode
      010073BEH   LINE      CODE     ---       #126
      010073BEH   LINE      CODE     ---       #128
      010073BEH   LINE      CODE     ---       #156
      010073CCH   LINE      CODE     ---       #158
      010073CCH   LINE      CODE     ---       #160
      010073CFH   LINE      CODE     ---       #162
      010073D0H   LINE      CODE     ---       #164
      010073D0H   LINE      CODE     ---       #166
      010073D3H   LINE      CODE     ---       #168
      010073D4H   LINE      CODE     ---       #170
      010073D4H   LINE      CODE     ---       #172
      010073D7H   LINE      CODE     ---       #174
      010073D8H   LINE      CODE     ---       #176
      010073D8H   LINE      CODE     ---       #178
      010073DBH   LINE      CODE     ---       #180
      010073DBH   LINE      CODE     ---       #182
      010073DBH   LINE      CODE     ---       #183
      010073DBH   LINE      CODE     ---       #185
      ---         BLOCKEND  ---      ---       LVL=0

      010072A0H   BLOCK     CODE     ---       LVL=0
      010072ACH   BLOCK     CODE     NEAR LAB  LVL=1
      00000027H   SYMBOL    DATA     BYTE      touchVal_temp
      ---         BLOCKEND  ---      ---       LVL=1
      010072A0H   LINE      CODE     ---       #187
      010072A0H   LINE      CODE     ---       #198
      010072A3H   LINE      CODE     ---       #199
      010072A6H   LINE      CODE     ---       #201
      010072A9H   LINE      CODE     ---       #202
      010072ACH   LINE      CODE     ---       #204
      010072ACH   LINE      CODE     ---       #206
      010072B1H   LINE      CODE     ---       #208
      010072BCH   LINE      CODE     ---       #209
      ---         BLOCKEND  ---      ---       LVL=0

      01007635H   BLOCK     CODE     ---       LVL=0
      01007635H   LINE      CODE     ---       #215
      01007635H   LINE      CODE     ---       #217
      01007637H   LINE      CODE     ---       #218
LX51 LINKER/LOCATER V4.66.41.0                                                        02/15/2019  15:28:07  PAGE 102


      ---         BLOCKEND  ---      ---       LVL=0

      01006A66H   BLOCK     CODE     ---       LVL=0
      00000027H   SYMBOL    DATA     ---       funCB_Short
      0000002AH   SYMBOL    DATA     ---       funCB_LongA
      0000002DH   SYMBOL    DATA     ---       funCB_LongB
      01006A6CH   BLOCK     CODE     NEAR LAB  LVL=1
      01005A27H   SYMBOL    CODE     WORD      keyCfrmLoop_Short
      01005A29H   SYMBOL    CODE     WORD      keyCfrmLoop_LongA
      01005A2BH   SYMBOL    CODE     WORD      keyCfrmLoop_LongB
      01005A2DH   SYMBOL    CODE     WORD      keyCfrmLoop_MAX
      00000021H.7 SYMBOL    BIT      BIT       LongA_FLG
      00000022H.0 SYMBOL    BIT      BIT       LongB_FLG
      00000022H.1 SYMBOL    BIT      BIT       keyPress_FLG
      ---         BLOCKEND  ---      ---       LVL=1
      01006A66H   LINE      CODE     ---       #220
      01006A6CH   LINE      CODE     ---       #232
      01006A71H   LINE      CODE     ---       #234
      01006A73H   LINE      CODE     ---       #238
      01006A78H   LINE      CODE     ---       #240
      01006A89H   LINE      CODE     ---       #242
      01006A90H   LINE      CODE     ---       #244
      01006A92H   LINE      CODE     ---       #245
      01006A92H   LINE      CODE     ---       #247
      01006AA6H   LINE      CODE     ---       #249
      01006AADH   LINE      CODE     ---       #251
      01006AAFH   LINE      CODE     ---       #252
      01006AAFH   LINE      CODE     ---       #254
      01006AB0H   LINE      CODE     ---       #256
      01006AB2H   LINE      CODE     ---       #258
      01006AB5H   LINE      CODE     ---       #260
      01006AB7H   LINE      CODE     ---       #262
      01006AC4H   LINE      CODE     ---       #269
      01006ACBH   LINE      CODE     ---       #270
      01006ACBH   LINE      CODE     ---       #272
      01006AD0H   LINE      CODE     ---       #273
      01006AD2H   LINE      CODE     ---       #274
      01006AD4H   LINE      CODE     ---       #275
      01006AD4H   LINE      CODE     ---       #276
      01006AD4H   LINE      CODE     ---       #277
      ---         BLOCKEND  ---      ---       LVL=0

      01006FA9H   BLOCK     CODE     ---       LVL=0
      01006FA9H   BLOCK     CODE     NEAR LAB  LVL=1
      00000007H   SYMBOL    DATA     BYTE      val_Dcode
      ---         BLOCKEND  ---      ---       LVL=1
      01006FA9H   LINE      CODE     ---       #282
      01006FA9H   LINE      CODE     ---       #284
      01006FABH   LINE      CODE     ---       #286
      01006FB1H   LINE      CODE     ---       #287
      01006FB4H   LINE      CODE     ---       #289
      01006FBCH   LINE      CODE     ---       #290
      01006FBFH   LINE      CODE     ---       #292
      01006FC7H   LINE      CODE     ---       #293
      01006FCAH   LINE      CODE     ---       #295
      01006FD2H   LINE      CODE     ---       #296
      01006FD5H   LINE      CODE     ---       #298
      01006FDDH   LINE      CODE     ---       #299
      01006FE0H   LINE      CODE     ---       #301
      01006FE8H   LINE      CODE     ---       #302
      01006FEBH   LINE      CODE     ---       #304
      01006FEBH   LINE      CODE     ---       #305
      ---         BLOCKEND  ---      ---       LVL=0

      01006B42H   BLOCK     CODE     ---       LVL=0
LX51 LINKER/LOCATER V4.66.41.0                                                        02/15/2019  15:28:07  PAGE 103


      01006B42H   BLOCK     CODE     NEAR LAB  LVL=1
      00000061H   SYMBOL    DATA     BYTE      val_Dcode_Local
      00000062H   SYMBOL    DATA     BYTE      comfirm_Cnt
      00000027H   SYMBOL    DATA     BYTE      comfirm_Period
      00000028H   SYMBOL    DATA     BYTE      val_Dcode_differ
      00000020H.0 SYMBOL    BIT      BIT       val_CHG
      ---         BLOCKEND  ---      ---       LVL=1
      01006B42H   LINE      CODE     ---       #307
      01006B42H   LINE      CODE     ---       #311
      01006B45H   LINE      CODE     ---       #313
      01006B48H   LINE      CODE     ---       #315
      01006B4AH   LINE      CODE     ---       #317
      01006B51H   LINE      CODE     ---       #319
      01006B56H   LINE      CODE     ---       #321
      01006B5EH   LINE      CODE     ---       #323
      01006B69H   LINE      CODE     ---       #324
      01006B69H   LINE      CODE     ---       #326
      01006B6CH   LINE      CODE     ---       #327
      01006B6EH   LINE      CODE     ---       #328
      01006B6EH   LINE      CODE     ---       #329
      01006B6EH   LINE      CODE     ---       #331
      01006B71H   LINE      CODE     ---       #333
      01006B73H   LINE      CODE     ---       #335
      01006B78H   LINE      CODE     ---       #336
      01006B7AH   LINE      CODE     ---       #338
      01006B83H   LINE      CODE     ---       #339
      01006B86H   LINE      CODE     ---       #341
      01006B86H   LINE      CODE     ---       #343
      01006B86H   LINE      CODE     ---       #346
      01006B86H   LINE      CODE     ---       #349
      01006B86H   LINE      CODE     ---       #350
      01006B86H   LINE      CODE     ---       #352
      01006B86H   LINE      CODE     ---       #354
      01006B86H   LINE      CODE     ---       #357
      01006B86H   LINE      CODE     ---       #360
      01006B86H   LINE      CODE     ---       #361
      01006B86H   LINE      CODE     ---       #363
      01006B8BH   LINE      CODE     ---       #365
      01006B93H   LINE      CODE     ---       #367
      01006B96H   LINE      CODE     ---       #369
      01006B98H   LINE      CODE     ---       #371
      01006B9BH   LINE      CODE     ---       #372
      01006B9BH   LINE      CODE     ---       #373
      01006B9BH   LINE      CODE     ---       #375
      01006BA1H   LINE      CODE     ---       #377
      01006BACH   LINE      CODE     ---       #378
      01006BACH   LINE      CODE     ---       #379
      01006BACH   LINE      CODE     ---       #380
      ---         BLOCKEND  ---      ---       LVL=0

      0100748EH   BLOCK     CODE     ---       LVL=0
      00000007H   SYMBOL    DATA     BYTE      statusPad
      0100748EH   BLOCK     CODE     NEAR LAB  LVL=1
      020006E9H   SYMBOL    XDATA    BYTE      trigCount_Loop
      01005A2FH   SYMBOL    CODE     BYTE      trigCount_Period
      ---         BLOCKEND  ---      ---       LVL=1
      0100748EH   LINE      CODE     ---       #382
      0100748EH   LINE      CODE     ---       #387
      010074A0H   LINE      CODE     ---       #388
      010074A0H   LINE      CODE     ---       #390
      010074A5H   LINE      CODE     ---       #415
      010074A5H   LINE      CODE     ---       #417
      010074A5H   LINE      CODE     ---       #418
      ---         BLOCKEND  ---      ---       LVL=0

LX51 LINKER/LOCATER V4.66.41.0                                                        02/15/2019  15:28:07  PAGE 104


      01007538H   BLOCK     CODE     ---       LVL=0
      01007538H   BLOCK     CODE     NEAR LAB  LVL=1
      00000007H   SYMBOL    DATA     BYTE      valKey_Temp
      ---         BLOCKEND  ---      ---       LVL=1
      01007538H   LINE      CODE     ---       #420
      01007538H   LINE      CODE     ---       #422
      0100753AH   LINE      CODE     ---       #424
      0100753EH   LINE      CODE     ---       #425
      01007544H   LINE      CODE     ---       #426
      0100754AH   LINE      CODE     ---       #428
      0100754AH   LINE      CODE     ---       #429
      ---         BLOCKEND  ---      ---       LVL=0

      010056F9H   BLOCK     CODE     ---       LVL=0
      010056F9H   BLOCK     CODE     NEAR LAB  LVL=1
      00000063H   SYMBOL    DATA     BYTE      touchPad_temp
      00000022H.2 SYMBOL    BIT      BIT       keyPress_FLG
      00000022H.3 SYMBOL    BIT      BIT       funTrigFLG_LongA
      00000022H.4 SYMBOL    BIT      BIT       funTrigFLG_LongB
      01005A30H   SYMBOL    CODE     WORD      touchCfrmLoop_Short
      01005A32H   SYMBOL    CODE     WORD      touchCfrmLoop_LongA
      01005A34H   SYMBOL    CODE     WORD      touchCfrmLoop_LongB
      01005A36H   SYMBOL    CODE     WORD      touchCfrmLoop_MAX
      00000064H   SYMBOL    DATA     BYTE      pressContinueGet
      00000027H   SYMBOL    DATA     BYTE      pressContinueCfm
      00000028H   SYMBOL    DATA     WORD      conterTemp
      ---         BLOCKEND  ---      ---       LVL=1
      010056F9H   LINE      CODE     ---       #431
      010056F9H   LINE      CODE     ---       #445
      010056FCH   LINE      CODE     ---       #447
      01005700H   LINE      CODE     ---       #449
      01005710H   LINE      CODE     ---       #451
      01005719H   LINE      CODE     ---       #453
      0100571CH   LINE      CODE     ---       #455
      0100571EH   LINE      CODE     ---       #456
      0100572EH   LINE      CODE     ---       #457
      0100572EH   LINE      CODE     ---       #458
      0100572EH   LINE      CODE     ---       #459
      01005731H   LINE      CODE     ---       #460
      01005731H   LINE      CODE     ---       #462
      01005739H   LINE      CODE     ---       #464
      0100573CH   LINE      CODE     ---       #479
      01005749H   LINE      CODE     ---       #481
      0100574EH   LINE      CODE     ---       #483
      01005751H   LINE      CODE     ---       #485
      01005753H   LINE      CODE     ---       #486
      0100575AH   LINE      CODE     ---       #487
      0100575AH   LINE      CODE     ---       #488
      0100575AH   LINE      CODE     ---       #489
      01005772H   LINE      CODE     ---       #491
      01005778H   LINE      CODE     ---       #493
      0100577AH   LINE      CODE     ---       #494
      01005781H   LINE      CODE     ---       #495
      01005781H   LINE      CODE     ---       #496
      01005781H   LINE      CODE     ---       #498
      01005781H   LINE      CODE     ---       #500
      010057A9H   LINE      CODE     ---       #502
      010057B1H   LINE      CODE     ---       #503
      010057BBH   LINE      CODE     ---       #504
      010057C0H   LINE      CODE     ---       #505
      010057C0H   LINE      CODE     ---       #506
      010057C0H   LINE      CODE     ---       #507
      010057C0H   LINE      CODE     ---       #509
      010057C1H   LINE      CODE     ---       #511
      010057C4H   LINE      CODE     ---       #513
LX51 LINKER/LOCATER V4.66.41.0                                                        02/15/2019  15:28:07  PAGE 105


      010057C7H   LINE      CODE     ---       #514
      010057D5H   LINE      CODE     ---       #516
      010057E1H   LINE      CODE     ---       #517
      010057ECH   LINE      CODE     ---       #518
      010057F3H   LINE      CODE     ---       #519
      010057F3H   LINE      CODE     ---       #520
      010057F3H   LINE      CODE     ---       #522
      01005801H   LINE      CODE     ---       #524
      01005803H   LINE      CODE     ---       #525
      01005806H   LINE      CODE     ---       #527
      0100580DH   LINE      CODE     ---       #536
      01005814H   LINE      CODE     ---       #537
      01005817H   LINE      CODE     ---       #538
      01005817H   LINE      CODE     ---       #540
      0100581AH   LINE      CODE     ---       #541
      0100581AH   LINE      CODE     ---       #543
      0100581DH   LINE      CODE     ---       #545
      0100581FH   LINE      CODE     ---       #556
      0100581FH   LINE      CODE     ---       #558
      01005824H   LINE      CODE     ---       #560
      0100582BH   LINE      CODE     ---       #561
      0100582DH   LINE      CODE     ---       #562
      0100582DH   LINE      CODE     ---       #563
      ---         BLOCKEND  ---      ---       LVL=0

      01005419H   BLOCK     CODE     ---       LVL=0
      00000005H   SYMBOL    DATA     BYTE      statusPad
      00000020H.0 SYMBOL    BIT      BIT       shortPressCnt_IF
      0100541BH   BLOCK     CODE     NEAR LAB  LVL=1
      00000022H.5 SYMBOL    BIT      BIT       tipsBeep_IF
      ---         BLOCKEND  ---      ---       LVL=1
      01005419H   LINE      CODE     ---       #565
      0100541BH   LINE      CODE     ---       #567
      0100541DH   LINE      CODE     ---       #706
      01005430H   LINE      CODE     ---       #708
      01005430H   LINE      CODE     ---       #710
      01005435H   LINE      CODE     ---       #712
      0100543AH   LINE      CODE     ---       #713
      0100543CH   LINE      CODE     ---       #714
      01005441H   LINE      CODE     ---       #716
      01005447H   LINE      CODE     ---       #717
      01005449H   LINE      CODE     ---       #718
      0100544EH   LINE      CODE     ---       #720
      0100545DH   LINE      CODE     ---       #721
      0100545FH   LINE      CODE     ---       #722
      0100545FH   LINE      CODE     ---       #724
      01005464H   LINE      CODE     ---       #725
      01005464H   LINE      CODE     ---       #727
      0100546EH   LINE      CODE     ---       #729
      01005471H   LINE      CODE     ---       #731
      01005471H   LINE      CODE     ---       #733
      01005476H   LINE      CODE     ---       #735
      01005479H   LINE      CODE     ---       #736
      0100547BH   LINE      CODE     ---       #737
      01005480H   LINE      CODE     ---       #739
      01005480H   LINE      CODE     ---       #740
      01005482H   LINE      CODE     ---       #741
      01005487H   LINE      CODE     ---       #743
      0100548DH   LINE      CODE     ---       #744
      0100548FH   LINE      CODE     ---       #745
      01005494H   LINE      CODE     ---       #747
      010054A7H   LINE      CODE     ---       #748
      010054A9H   LINE      CODE     ---       #749
      010054A9H   LINE      CODE     ---       #751
      010054AEH   LINE      CODE     ---       #752
LX51 LINKER/LOCATER V4.66.41.0                                                        02/15/2019  15:28:07  PAGE 106


      010054AEH   LINE      CODE     ---       #754
      010054B8H   LINE      CODE     ---       #756
      010054BBH   LINE      CODE     ---       #758
      010054BBH   LINE      CODE     ---       #760
      010054C0H   LINE      CODE     ---       #762
      010054C6H   LINE      CODE     ---       #763
      010054C8H   LINE      CODE     ---       #764
      010054CDH   LINE      CODE     ---       #766
      010054D0H   LINE      CODE     ---       #767
      010054D2H   LINE      CODE     ---       #768
      010054D7H   LINE      CODE     ---       #770
      010054E6H   LINE      CODE     ---       #771
      010054E8H   LINE      CODE     ---       #772
      010054E8H   LINE      CODE     ---       #774
      010054EDH   LINE      CODE     ---       #775
      010054EDH   LINE      CODE     ---       #777
      010054F4H   LINE      CODE     ---       #779
      010054F6H   LINE      CODE     ---       #781
      010054F6H   LINE      CODE     ---       #783
      01005506H   LINE      CODE     ---       #785
      01005506H   LINE      CODE     ---       #787
      0100550DH   LINE      CODE     ---       #788
      01005514H   LINE      CODE     ---       #790
      01005516H   LINE      CODE     ---       #792
      01005516H   LINE      CODE     ---       #794
      0100551DH   LINE      CODE     ---       #795
      01005528H   LINE      CODE     ---       #797
      01005530H   LINE      CODE     ---       #799
      01005532H   LINE      CODE     ---       #801
      01005532H   LINE      CODE     ---       #803
      01005539H   LINE      CODE     ---       #804
      01005544H   LINE      CODE     ---       #805
      0100554FH   LINE      CODE     ---       #807
      01005557H   LINE      CODE     ---       #809
      01005557H   LINE      CODE     ---       #811
      01005557H   LINE      CODE     ---       #815
      01005557H   LINE      CODE     ---       #816
      01005557H   LINE      CODE     ---       #818
      01005557H   LINE      CODE     ---       #819
      01005557H   LINE      CODE     ---       #821
      01005568H   LINE      CODE     ---       #823
      0100556EH   LINE      CODE     ---       #825
      01005570H   LINE      CODE     ---       #827
      01005576H   LINE      CODE     ---       #828
      01005576H   LINE      CODE     ---       #830
      01005579H   LINE      CODE     ---       #832
      01005594H   LINE      CODE     ---       #834
      0100559FH   LINE      CODE     ---       #835
      0100559FH   LINE      CODE     ---       #837
      010055A8H   LINE      CODE     ---       #838
      010055B4H   LINE      CODE     ---       #840
      ---         BLOCKEND  ---      ---       LVL=0

      0100582EH   BLOCK     CODE     ---       LVL=0
      0000002AH   SYMBOL    DATA     BYTE      statusPad
      0000002BH   SYMBOL    DATA     BYTE      statusCfm
      01005848H   BLOCK     CODE     NEAR LAB  LVL=1
      00000022H.6 SYMBOL    BIT      BIT       tipsBeep_IF
      ---         BLOCKEND  ---      ---       LVL=1
      0100582EH   LINE      CODE     ---       #842
      01005832H   LINE      CODE     ---       #844
      01005848H   LINE      CODE     ---       #846
      01005848H   LINE      CODE     ---       #848
      0100584AH   LINE      CODE     ---       #852
      0100584DH   LINE      CODE     ---       #853
LX51 LINKER/LOCATER V4.66.41.0                                                        02/15/2019  15:28:07  PAGE 107


      01005856H   LINE      CODE     ---       #854
      0100585CH   LINE      CODE     ---       #855
      0100585CH   LINE      CODE     ---       #857
      0100585EH   LINE      CODE     ---       #859
      01005860H   LINE      CODE     ---       #861
      01005860H   LINE      CODE     ---       #864
      01005860H   LINE      CODE     ---       #865
      01005863H   LINE      CODE     ---       #866
      0100586CH   LINE      CODE     ---       #867
      01005872H   LINE      CODE     ---       #868
      01005872H   LINE      CODE     ---       #870
      01005878H   LINE      CODE     ---       #872
      0100587CH   LINE      CODE     ---       #874
      0100587FH   LINE      CODE     ---       #875
      0100588DH   LINE      CODE     ---       #877
      0100588FH   LINE      CODE     ---       #879
      01005898H   LINE      CODE     ---       #880
      01005898H   LINE      CODE     ---       #882
      0100589FH   LINE      CODE     ---       #884
      010058A1H   LINE      CODE     ---       #886
      010058A1H   LINE      CODE     ---       #888
      010058AEH   LINE      CODE     ---       #890
      010058B6H   LINE      CODE     ---       #892
      010058B9H   LINE      CODE     ---       #895
      010058B9H   LINE      CODE     ---       #896
      010058BCH   LINE      CODE     ---       #897
      010058C5H   LINE      CODE     ---       #898
      010058C5H   LINE      CODE     ---       #899
      010058C5H   LINE      CODE     ---       #901
      010058C7H   LINE      CODE     ---       #904
      010058C7H   LINE      CODE     ---       #905
      010058CAH   LINE      CODE     ---       #906
      010058DFH   LINE      CODE     ---       #907
      010058E5H   LINE      CODE     ---       #908
      010058E5H   LINE      CODE     ---       #910
      010058E7H   LINE      CODE     ---       #912
      010058E7H   LINE      CODE     ---       #915
      010058E7H   LINE      CODE     ---       #917
      010058E7H   LINE      CODE     ---       #920
      010058E7H   LINE      CODE     ---       #922
      010058E7H   LINE      CODE     ---       #925
      010058E7H   LINE      CODE     ---       #927
      010058E7H   LINE      CODE     ---       #928
      010058E7H   LINE      CODE     ---       #929
      010058E7H   LINE      CODE     ---       #931
      010058E7H   LINE      CODE     ---       #933
      010058E7H   LINE      CODE     ---       #936
      010058E7H   LINE      CODE     ---       #937
      010058EAH   LINE      CODE     ---       #938
      010058FFH   LINE      CODE     ---       #939
      01005905H   LINE      CODE     ---       #940
      01005905H   LINE      CODE     ---       #942
      0100590AH   LINE      CODE     ---       #944
      0100590AH   LINE      CODE     ---       #946
      0100590AH   LINE      CODE     ---       #948
      0100590AH   LINE      CODE     ---       #950
      0100590AH   LINE      CODE     ---       #952
      0100590AH   LINE      CODE     ---       #953
      0100590AH   LINE      CODE     ---       #955
      0100590AH   LINE      CODE     ---       #957
      0100590AH   LINE      CODE     ---       #958
      0100590AH   LINE      CODE     ---       #960
      0100590AH   LINE      CODE     ---       #962
      01005910H   LINE      CODE     ---       #964
      01005910H   LINE      CODE     ---       #965
LX51 LINKER/LOCATER V4.66.41.0                                                        02/15/2019  15:28:07  PAGE 108


      01005913H   LINE      CODE     ---       #967
      0100591CH   LINE      CODE     ---       #968
      0100591CH   LINE      CODE     ---       #969
      0100591CH   LINE      CODE     ---       #970
      ---         BLOCKEND  ---      ---       LVL=0

      0100607CH   BLOCK     CODE     ---       LVL=0
      0000002AH   SYMBOL    DATA     BYTE      statusPad
      0000002BH   SYMBOL    DATA     BYTE      loopCount
      0100607CH   LINE      CODE     ---       #972
      01006080H   LINE      CODE     ---       #974
      0100609BH   LINE      CODE     ---       #976
      010060A6H   LINE      CODE     ---       #977
      010060A9H   LINE      CODE     ---       #980
      010060A9H   LINE      CODE     ---       #981
      010060ACH   LINE      CODE     ---       #982
      010060C7H   LINE      CODE     ---       #983
      010060CDH   LINE      CODE     ---       #984
      010060CDH   LINE      CODE     ---       #987
      010060DDH   LINE      CODE     ---       #989
      010060DDH   LINE      CODE     ---       #991
      010060DFH   LINE      CODE     ---       #993
      010060DFH   LINE      CODE     ---       #996
      010060DFH   LINE      CODE     ---       #998
      010060DFH   LINE      CODE     ---       #1001
      010060DFH   LINE      CODE     ---       #1003
      010060DFH   LINE      CODE     ---       #1006
      010060DFH   LINE      CODE     ---       #1008
      010060DFH   LINE      CODE     ---       #1009
      010060DFH   LINE      CODE     ---       #1011
      010060DFH   LINE      CODE     ---       #1013
      010060DFH   LINE      CODE     ---       #1015
      010060E2H   LINE      CODE     ---       #1016
      010060F0H   LINE      CODE     ---       #1017
      010060FAH   LINE      CODE     ---       #1019
      010060FCH   LINE      CODE     ---       #1021
      010060FCH   LINE      CODE     ---       #1023
      01006109H   LINE      CODE     ---       #1025
      01006111H   LINE      CODE     ---       #1027
      01006114H   LINE      CODE     ---       #1030
      01006114H   LINE      CODE     ---       #1031
      01006117H   LINE      CODE     ---       #1032
      01006126H   LINE      CODE     ---       #1033
      0100612CH   LINE      CODE     ---       #1034
      0100612CH   LINE      CODE     ---       #1036
      0100612CH   LINE      CODE     ---       #1038
      0100612EH   LINE      CODE     ---       #1040
      0100612EH   LINE      CODE     ---       #1043
      0100612EH   LINE      CODE     ---       #1045
      0100612EH   LINE      CODE     ---       #1047
      01006131H   LINE      CODE     ---       #1049
      01006131H   LINE      CODE     ---       #1051
      01006131H   LINE      CODE     ---       #1052
      01006131H   LINE      CODE     ---       #1054
      01006131H   LINE      CODE     ---       #1056
      01006131H   LINE      CODE     ---       #1057
      01006134H   LINE      CODE     ---       #1058
      0100613AH   LINE      CODE     ---       #1060
      0100613DH   LINE      CODE     ---       #1061
      0100613DH   LINE      CODE     ---       #1062
      0100613DH   LINE      CODE     ---       #1063
      ---         BLOCKEND  ---      ---       LVL=0

      010075EBH   BLOCK     CODE     ---       LVL=0
      010075EBH   LINE      CODE     ---       #1143
LX51 LINKER/LOCATER V4.66.41.0                                                        02/15/2019  15:28:07  PAGE 109


      010075EBH   LINE      CODE     ---       #1145
      010075F0H   LINE      CODE     ---       #1146
      ---         BLOCKEND  ---      ---       LVL=0

      01007413H   BLOCK     CODE     ---       LVL=0
      01007413H   LINE      CODE     ---       #1160
      01007413H   LINE      CODE     ---       #1162
      01007418H   LINE      CODE     ---       #1164
      0100741EH   LINE      CODE     ---       #1165
      01007425H   LINE      CODE     ---       #1167
      0100742AH   LINE      CODE     ---       #1169
      ---         BLOCKEND  ---      ---       LVL=0

      ---         MODULE    ---      ---       DS18B20
      000000D8H.2 SFRSYM    DATA     BIT       CCF2
      000000E0H.7 SFRSYM    DATA     BIT       ACC7
      00000093H   SFRSYM    DATA     BYTE      P0M1
      00000092H   SFRSYM    DATA     BYTE      P1M0
      00000096H   SFRSYM    DATA     BYTE      P2M0
      00000091H   SFRSYM    DATA     BYTE      P1M1
      00000080H   SFRSYM    DATA     BYTE      P0
      000000B2H   SFRSYM    DATA     BYTE      P3M0
      00000095H   SFRSYM    DATA     BYTE      P2M1
      00000090H   SFRSYM    DATA     BYTE      P1
      000000B4H   SFRSYM    DATA     BYTE      P4M0
      000000B1H   SFRSYM    DATA     BYTE      P3M1
      000000A0H   SFRSYM    DATA     BYTE      P2
      000000CAH   SFRSYM    DATA     BYTE      P5M0
      000000B3H   SFRSYM    DATA     BYTE      P4M1
      000000B0H   SFRSYM    DATA     BYTE      P3
      000000ABH   SFRSYM    DATA     BYTE      WKTCH
      000000B0H.4 SFRSYM    DATA     BIT       T0
      000000D0H.6 SFRSYM    DATA     BIT       AC
      000000CCH   SFRSYM    DATA     BYTE      P6M0
      000000C9H   SFRSYM    DATA     BYTE      P5M1
      000000C0H   SFRSYM    DATA     BYTE      P4
      000000B0H.5 SFRSYM    DATA     BIT       CLKOUT0
      000000B0H.5 SFRSYM    DATA     BIT       T1
      000000E2H   SFRSYM    DATA     BYTE      P7M0
      000000CBH   SFRSYM    DATA     BYTE      P6M1
      000000C8H   SFRSYM    DATA     BYTE      P5
      000000C6H   SFRSYM    DATA     BYTE      ISP_TRIG
      000000A8H.7 SFRSYM    DATA     BIT       EA
      000000B0H.4 SFRSYM    DATA     BIT       CLKOUT1
      000000A0H.4 SFRSYM    DATA     BIT       SPI_SS_2
      000000E8H   SFRSYM    DATA     BYTE      P6
      000000E1H   SFRSYM    DATA     BYTE      P7M1
      000000C8H.4 SFRSYM    DATA     BIT       SPI_SS_3
      00000090H.4 SFRSYM    DATA     BIT       SPI_MISO
      00000090H.3 SFRSYM    DATA     BIT       SPI_MOSI
      00000090H.1 SFRSYM    DATA     BIT       CCP0
      000000F8H   SFRSYM    DATA     BYTE      P7
      000000AAH   SFRSYM    DATA     BYTE      WKTCL
      00000090H   SFRSYM    DATA     BIT       CCP1
      000000CEH   SFRSYM    DATA     BYTE      SPCTL
      000000D8H.7 SFRSYM    DATA     BIT       CF
      000000B0H.7 SFRSYM    DATA     BIT       CCP2
      000000F9H   SFRSYM    DATA     BYTE      CH
      000000A2H   SFRSYM    DATA     BYTE      P_SW1
      000000BAH   SFRSYM    DATA     BYTE      P_SW2
      000000A8H.5 SFRSYM    DATA     BIT       EADC
      000000A0H.1 SFRSYM    DATA     BIT       SPI_SCLK_2
      000000A8H   SFRSYM    DATA     BYTE      IE
      000000C0H.3 SFRSYM    DATA     BIT       SPI_SCLK_3
      000000E9H   SFRSYM    DATA     BYTE      CL
LX51 LINKER/LOCATER V4.66.41.0                                                        02/15/2019  15:28:07  PAGE 110


      000000C5H   SFRSYM    DATA     BYTE      IAP_CMD
      000000FAH   SFRSYM    DATA     BYTE      CCAP0H
      000000FBH   SFRSYM    DATA     BYTE      CCAP1H
      000000FCH   SFRSYM    DATA     BYTE      CCAP2H
      000000BDH   SFRSYM    DATA     BYTE      ADC_RES
      000000B6H   SFRSYM    DATA     BYTE      IPH2
      000000D8H.6 SFRSYM    DATA     BIT       CR
      000000EAH   SFRSYM    DATA     BYTE      CCAP0L
      000000B0H.7 SFRSYM    DATA     BIT       RD
      000000EBH   SFRSYM    DATA     BYTE      CCAP1L
      000000DAH   SFRSYM    DATA     BYTE      CCAPM0
      000000ECH   SFRSYM    DATA     BYTE      CCAP2L
      000000DBH   SFRSYM    DATA     BYTE      CCAPM1
      000000A8H.4 SFRSYM    DATA     BIT       ES
      000000DCH   SFRSYM    DATA     BYTE      CCAPM2
      000000B8H.5 SFRSYM    DATA     BIT       PADC
      000000A0H.2 SFRSYM    DATA     BIT       SPI_MISO_2
      000000A0H.3 SFRSYM    DATA     BIT       SPI_MOSI_2
      000000B8H   SFRSYM    DATA     BYTE      IP
      000000C0H.1 SFRSYM    DATA     BIT       SPI_MISO_3
      000000C0H   SFRSYM    DATA     BIT       SPI_MOSI_3
      00000098H   SFRSYM    DATA     BIT       RI
      000000B0H.2 SFRSYM    DATA     BIT       INT0
      000000D0H.7 SFRSYM    DATA     BIT       CY
      00000098H.1 SFRSYM    DATA     BIT       TI
      000000B0H.3 SFRSYM    DATA     BIT       INT1
      00000097H   SFRSYM    DATA     BYTE      CLK_DIV
      000000C3H   SFRSYM    DATA     BYTE      IAP_ADDRH
      00000090H   SFRSYM    DATA     BIT       RXD2
      000000C5H   SFRSYM    DATA     BYTE      ISP_CMD
      000000B8H.4 SFRSYM    DATA     BIT       PS
      00000090H.1 SFRSYM    DATA     BIT       TXD2
      00000081H   SFRSYM    DATA     BYTE      SP
      000000D9H   SFRSYM    DATA     BYTE      CMOD
      000000D8H   SFRSYM    DATA     BYTE      CCON
      000000C4H   SFRSYM    DATA     BYTE      IAP_ADDRL
      000000B8H.7 SFRSYM    DATA     BIT       PPCA
      000000D0H.2 SFRSYM    DATA     BIT       OV
      000000B0H.6 SFRSYM    DATA     BIT       WR
      000000A8H.6 SFRSYM    DATA     BIT       ELVD
      00000080H   SFRSYM    DATA     BIT       P00
      00000090H   SFRSYM    DATA     BIT       P10
      00000080H.1 SFRSYM    DATA     BIT       P01
      000000BCH   SFRSYM    DATA     BYTE      ADC_CONTR
      00000099H   SFRSYM    DATA     BYTE      SBUF
      00000087H   SFRSYM    DATA     BYTE      PCON
      000000A0H   SFRSYM    DATA     BIT       P20
      00000090H.1 SFRSYM    DATA     BIT       P11
      00000080H.2 SFRSYM    DATA     BIT       P02
      000000C3H   SFRSYM    DATA     BYTE      ISP_ADDRH
      000000B0H   SFRSYM    DATA     BIT       P30
      000000A0H.1 SFRSYM    DATA     BIT       P21
      00000090H.2 SFRSYM    DATA     BIT       P12
      00000080H.3 SFRSYM    DATA     BIT       P03
      000000C0H   SFRSYM    DATA     BIT       P40
      000000B0H.1 SFRSYM    DATA     BIT       P31
      000000A0H.2 SFRSYM    DATA     BIT       P22
      00000090H.3 SFRSYM    DATA     BIT       P13
      00000080H.4 SFRSYM    DATA     BIT       P04
      00000098H   SFRSYM    DATA     BYTE      SCON
      0000008FH   SFRSYM    DATA     BYTE      WAKE_CLKO
      000000C8H   SFRSYM    DATA     BIT       P50
      000000C0H.1 SFRSYM    DATA     BIT       P41
      000000B0H.2 SFRSYM    DATA     BIT       P32
      000000A0H.3 SFRSYM    DATA     BIT       P23
LX51 LINKER/LOCATER V4.66.41.0                                                        02/15/2019  15:28:07  PAGE 111


      00000090H.4 SFRSYM    DATA     BIT       P14
      00000080H.5 SFRSYM    DATA     BIT       P05
      00000089H   SFRSYM    DATA     BYTE      TMOD
      00000088H   SFRSYM    DATA     BYTE      TCON
      000000C8H.1 SFRSYM    DATA     BIT       P51
      000000C0H.2 SFRSYM    DATA     BIT       P42
      000000B0H.3 SFRSYM    DATA     BIT       P33
      000000A0H.4 SFRSYM    DATA     BIT       P24
      00000090H.5 SFRSYM    DATA     BIT       P15
      00000080H.6 SFRSYM    DATA     BIT       P06
      000000C4H   SFRSYM    DATA     BYTE      ISP_ADDRL
      000000B8H.6 SFRSYM    DATA     BIT       PLVD
      000000C8H.2 SFRSYM    DATA     BIT       P52
      000000C0H.3 SFRSYM    DATA     BIT       P43
      000000B0H.4 SFRSYM    DATA     BIT       P34
      000000A0H.5 SFRSYM    DATA     BIT       P25
      00000090H.6 SFRSYM    DATA     BIT       P16
      00000080H.7 SFRSYM    DATA     BIT       P07
      000000C8H.3 SFRSYM    DATA     BIT       P53
      000000C0H.4 SFRSYM    DATA     BIT       P44
      000000B0H.5 SFRSYM    DATA     BIT       P35
      000000A0H.6 SFRSYM    DATA     BIT       P26
      00000090H.7 SFRSYM    DATA     BIT       P17
      000000C8H.4 SFRSYM    DATA     BIT       P54
      000000C0H.5 SFRSYM    DATA     BIT       P45
      000000B0H.6 SFRSYM    DATA     BIT       P36
      000000A0H.7 SFRSYM    DATA     BIT       P27
      000000C8H.5 SFRSYM    DATA     BIT       P55
      000000C0H.6 SFRSYM    DATA     BIT       P46
      000000B0H.7 SFRSYM    DATA     BIT       P37
      000000C8H.6 SFRSYM    DATA     BIT       P56
      000000C0H.7 SFRSYM    DATA     BIT       P47
      000000C8H.7 SFRSYM    DATA     BIT       P57
      00000088H.1 SFRSYM    DATA     BIT       IE0
      000000A1H   SFRSYM    DATA     BYTE      BUS_SPEED
      00000088H.3 SFRSYM    DATA     BIT       IE1
      000000AFH   SFRSYM    DATA     BYTE      IE2
      000000F0H   SFRSYM    DATA     BYTE      B
      0000008EH   SFRSYM    DATA     BYTE      AUXR
      000000C7H   SFRSYM    DATA     BYTE      IAP_CONTR
      000000E0H   SFRSYM    DATA     BYTE      ACC
      000000A8H.1 SFRSYM    DATA     BIT       ET0
      000000A8H.3 SFRSYM    DATA     BIT       ET1
      00000088H.5 SFRSYM    DATA     BIT       TF0
      00000088H.7 SFRSYM    DATA     BIT       TF1
      000000B5H   SFRSYM    DATA     BYTE      IP2
      0000008CH   SFRSYM    DATA     BYTE      RL_TH0
      00000098H.2 SFRSYM    DATA     BIT       RB8
      0000008DH   SFRSYM    DATA     BYTE      RL_TH1
      0000008CH   SFRSYM    DATA     BYTE      TH0
      000000A8H   SFRSYM    DATA     BIT       EX0
      00000088H   SFRSYM    DATA     BIT       IT0
      000000D6H   SFRSYM    DATA     BYTE      RL_T2H
      0000008DH   SFRSYM    DATA     BYTE      TH1
      000000A8H.2 SFRSYM    DATA     BIT       EX1
      00000098H.3 SFRSYM    DATA     BIT       TB8
      00000088H.2 SFRSYM    DATA     BIT       IT1
      000000D4H   SFRSYM    DATA     BYTE      RL_T3H
      000000D6H   SFRSYM    DATA     BYTE      TH2
      000000D6H   SFRSYM    DATA     BYTE      T2H
      000000D0H   SFRSYM    DATA     BIT       P
      000000D2H   SFRSYM    DATA     BYTE      RL_T4H
      000000D4H   SFRSYM    DATA     BYTE      TH3
      000000D4H   SFRSYM    DATA     BYTE      T3H
      0000008AH   SFRSYM    DATA     BYTE      RL_TL0
LX51 LINKER/LOCATER V4.66.41.0                                                        02/15/2019  15:28:07  PAGE 112


      00000098H.7 SFRSYM    DATA     BIT       SM0
      000000D2H   SFRSYM    DATA     BYTE      TH4
      000000D2H   SFRSYM    DATA     BYTE      T4H
      0000008BH   SFRSYM    DATA     BYTE      RL_TL1
      0000008AH   SFRSYM    DATA     BYTE      TL0
      00000098H.6 SFRSYM    DATA     BIT       SM1
      000000D7H   SFRSYM    DATA     BYTE      RL_T2L
      0000008BH   SFRSYM    DATA     BYTE      TL1
      00000098H.5 SFRSYM    DATA     BIT       SM2
      000000D5H   SFRSYM    DATA     BYTE      RL_T3L
      000000D7H   SFRSYM    DATA     BYTE      TL2
      000000D7H   SFRSYM    DATA     BYTE      T2L
      000000D3H   SFRSYM    DATA     BYTE      RL_T4L
      000000D5H   SFRSYM    DATA     BYTE      TL3
      000000D5H   SFRSYM    DATA     BYTE      T3L
      000000B8H.1 SFRSYM    DATA     BIT       PT0
      000000D3H   SFRSYM    DATA     BYTE      TL4
      000000D3H   SFRSYM    DATA     BYTE      T4L
      000000B8H.3 SFRSYM    DATA     BIT       PT1
      000000D0H.3 SFRSYM    DATA     BIT       RS0
      000000C7H   SFRSYM    DATA     BYTE      ISP_CONTR
      00000088H.4 SFRSYM    DATA     BIT       TR0
      000000D0H.4 SFRSYM    DATA     BIT       RS1
      000000C2H   SFRSYM    DATA     BYTE      IAP_DATA
      00000088H.6 SFRSYM    DATA     BIT       TR1
      000000B8H   SFRSYM    DATA     BIT       PX0
      000000C1H   SFRSYM    DATA     BYTE      WDT_CONTR
      000000B8H.2 SFRSYM    DATA     BIT       PX1
      000000F2H   SFRSYM    DATA     BYTE      PCA_PWM0
      000000F3H   SFRSYM    DATA     BYTE      PCA_PWM1
      000000F4H   SFRSYM    DATA     BYTE      PCA_PWM2
      0000009DH   SFRSYM    DATA     BYTE      P1ASF
      00000083H   SFRSYM    DATA     BYTE      DPH
      000000D1H   SFRSYM    DATA     BYTE      T4T3M
      000000BEH   SFRSYM    DATA     BYTE      ADC_RESL
      00000082H   SFRSYM    DATA     BYTE      DPL
      000000CDH   SFRSYM    DATA     BYTE      SPSTAT
      000000B7H   SFRSYM    DATA     BYTE      IPH
      0000009BH   SFRSYM    DATA     BYTE      S2BUF
      00000097H   SFRSYM    DATA     BYTE      PCON2
      000000ADH   SFRSYM    DATA     BYTE      S3BUF
      00000098H.4 SFRSYM    DATA     BIT       REN
      00000085H   SFRSYM    DATA     BYTE      S4BUF
      0000009AH   SFRSYM    DATA     BYTE      S2CON
      000000ACH   SFRSYM    DATA     BYTE      S3CON
      000000C2H   SFRSYM    DATA     BYTE      ISP_DATA
      00000084H   SFRSYM    DATA     BYTE      S4CON
      000000B9H   SFRSYM    DATA     BYTE      SADEN
      000000B0H   SFRSYM    DATA     BIT       RXD
      000000A9H   SFRSYM    DATA     BYTE      SADDR
      000000B0H.1 SFRSYM    DATA     BIT       TXD
      000000F0H   SFRSYM    DATA     BIT       B0
      000000F0H.1 SFRSYM    DATA     BIT       B1
      000000C6H   SFRSYM    DATA     BYTE      IAP_TRIG
      000000A2H   SFRSYM    DATA     BYTE      AUXR1
      000000F0H.2 SFRSYM    DATA     BIT       B2
      00000090H.2 SFRSYM    DATA     BIT       SPI_SS
      0000008FH   SFRSYM    DATA     BYTE      AUXR2
      000000F0H.3 SFRSYM    DATA     BIT       B3
      000000F0H.4 SFRSYM    DATA     BIT       B4
      000000D0H.5 SFRSYM    DATA     BIT       F0
      000000F0H.5 SFRSYM    DATA     BIT       B5
      000000D0H.1 SFRSYM    DATA     BIT       F1
      0000008FH   SFRSYM    DATA     BYTE      INT_CLKO
      000000F0H.6 SFRSYM    DATA     BIT       B6
LX51 LINKER/LOCATER V4.66.41.0                                                        02/15/2019  15:28:07  PAGE 113


      000000E0H   SFRSYM    DATA     BIT       ACC0
      000000F0H.7 SFRSYM    DATA     BIT       B7
      000000E0H.1 SFRSYM    DATA     BIT       ACC1
      000000E0H.2 SFRSYM    DATA     BIT       ACC2
      000000E0H.3 SFRSYM    DATA     BIT       ACC3
      000000D0H   SFRSYM    DATA     BYTE      PSW
      000000E0H.4 SFRSYM    DATA     BIT       ACC4
      00000090H.5 SFRSYM    DATA     BIT       SPI_SCLK
      000000D8H   SFRSYM    DATA     BIT       CCF0
      000000E0H.5 SFRSYM    DATA     BIT       ACC5
      000000D8H.1 SFRSYM    DATA     BIT       CCF1
      000000E0H.6 SFRSYM    DATA     BIT       ACC6
      000000CFH   SFRSYM    DATA     BYTE      SPDAT
      00000094H   SFRSYM    DATA     BYTE      P0M0

      ---         MODULE    ---      ---       RELAY
      00000025H.7 PUBLIC    BIT      BIT       statusRelay_saveEn
      020006E8H   PUBLIC    XDATA    BYTE      relayStatus_ifSave
      020006E5H   PUBLIC    XDATA    ---       curtainAct_Param
      00000025H.6 PUBLIC    BIT      BIT       specialFlg_curtainEachctrlEn
      020006E3H   PUBLIC    XDATA    ---       devActionPush_IF
      00000025H.5 PUBLIC    BIT      BIT       EACHCTRL_reportFLG
      020006E2H   PUBLIC    XDATA    BYTE      status_Relay
      020006E1H   PUBLIC    XDATA    BYTE      EACHCTRL_realesFLG
      020006DFH   PUBLIC    XDATA    ---       swCommand_fromUsr
      01006FECH   PUBLIC    CODE     ---       thread_Relay
      00000027H   PUBLIC    DATA     BYTE      ?relay_Act?BYTE
      01005ED3H   PUBLIC    CODE     ---       relay_Act
      010061E7H   PUBLIC    CODE     ---       relay_pinInit
      01005DFDH   PUBLIC    CODE     ---       relay_statusReales
      000000D8H.2 SFRSYM    DATA     BIT       CCF2
      000000E0H.7 SFRSYM    DATA     BIT       ACC7
      00000093H   SFRSYM    DATA     BYTE      P0M1
      00000092H   SFRSYM    DATA     BYTE      P1M0
      00000096H   SFRSYM    DATA     BYTE      P2M0
      00000091H   SFRSYM    DATA     BYTE      P1M1
      00000080H   SFRSYM    DATA     BYTE      P0
      000000B2H   SFRSYM    DATA     BYTE      P3M0
      00000095H   SFRSYM    DATA     BYTE      P2M1
      00000090H   SFRSYM    DATA     BYTE      P1
      000000B4H   SFRSYM    DATA     BYTE      P4M0
      000000B1H   SFRSYM    DATA     BYTE      P3M1
      000000A0H   SFRSYM    DATA     BYTE      P2
      000000CAH   SFRSYM    DATA     BYTE      P5M0
      000000B3H   SFRSYM    DATA     BYTE      P4M1
      000000B0H   SFRSYM    DATA     BYTE      P3
      000000ABH   SFRSYM    DATA     BYTE      WKTCH
      000000B0H.4 SFRSYM    DATA     BIT       T0
      000000D0H.6 SFRSYM    DATA     BIT       AC
      000000CCH   SFRSYM    DATA     BYTE      P6M0
      000000C9H   SFRSYM    DATA     BYTE      P5M1
      000000C0H   SFRSYM    DATA     BYTE      P4
      000000B0H.5 SFRSYM    DATA     BIT       CLKOUT0
      000000B0H.5 SFRSYM    DATA     BIT       T1
      000000E2H   SFRSYM    DATA     BYTE      P7M0
      000000CBH   SFRSYM    DATA     BYTE      P6M1
      000000C8H   SFRSYM    DATA     BYTE      P5
      000000C6H   SFRSYM    DATA     BYTE      ISP_TRIG
      000000A8H.7 SFRSYM    DATA     BIT       EA
      000000B0H.4 SFRSYM    DATA     BIT       CLKOUT1
      000000A0H.4 SFRSYM    DATA     BIT       SPI_SS_2
      000000E8H   SFRSYM    DATA     BYTE      P6
      000000E1H   SFRSYM    DATA     BYTE      P7M1
      000000C8H.4 SFRSYM    DATA     BIT       SPI_SS_3
      00000090H.4 SFRSYM    DATA     BIT       SPI_MISO
LX51 LINKER/LOCATER V4.66.41.0                                                        02/15/2019  15:28:07  PAGE 114


      00000090H.3 SFRSYM    DATA     BIT       SPI_MOSI
      00000090H.1 SFRSYM    DATA     BIT       CCP0
      000000F8H   SFRSYM    DATA     BYTE      P7
      000000AAH   SFRSYM    DATA     BYTE      WKTCL
      00000090H   SFRSYM    DATA     BIT       CCP1
      000000CEH   SFRSYM    DATA     BYTE      SPCTL
      000000D8H.7 SFRSYM    DATA     BIT       CF
      000000B0H.7 SFRSYM    DATA     BIT       CCP2
      000000F9H   SFRSYM    DATA     BYTE      CH
      000000A2H   SFRSYM    DATA     BYTE      P_SW1
      000000BAH   SFRSYM    DATA     BYTE      P_SW2
      000000A8H.5 SFRSYM    DATA     BIT       EADC
      000000A0H.1 SFRSYM    DATA     BIT       SPI_SCLK_2
      000000A8H   SFRSYM    DATA     BYTE      IE
      000000C0H.3 SFRSYM    DATA     BIT       SPI_SCLK_3
      000000E9H   SFRSYM    DATA     BYTE      CL
      000000C5H   SFRSYM    DATA     BYTE      IAP_CMD
      000000FAH   SFRSYM    DATA     BYTE      CCAP0H
      000000FBH   SFRSYM    DATA     BYTE      CCAP1H
      000000FCH   SFRSYM    DATA     BYTE      CCAP2H
      000000BDH   SFRSYM    DATA     BYTE      ADC_RES
      000000B6H   SFRSYM    DATA     BYTE      IPH2
      000000D8H.6 SFRSYM    DATA     BIT       CR
      000000EAH   SFRSYM    DATA     BYTE      CCAP0L
      000000B0H.7 SFRSYM    DATA     BIT       RD
      000000EBH   SFRSYM    DATA     BYTE      CCAP1L
      000000DAH   SFRSYM    DATA     BYTE      CCAPM0
      000000ECH   SFRSYM    DATA     BYTE      CCAP2L
      000000DBH   SFRSYM    DATA     BYTE      CCAPM1
      000000A8H.4 SFRSYM    DATA     BIT       ES
      000000DCH   SFRSYM    DATA     BYTE      CCAPM2
      000000B8H.5 SFRSYM    DATA     BIT       PADC
      000000A0H.2 SFRSYM    DATA     BIT       SPI_MISO_2
      000000A0H.3 SFRSYM    DATA     BIT       SPI_MOSI_2
      000000B8H   SFRSYM    DATA     BYTE      IP
      000000C0H.1 SFRSYM    DATA     BIT       SPI_MISO_3
      000000C0H   SFRSYM    DATA     BIT       SPI_MOSI_3
      00000098H   SFRSYM    DATA     BIT       RI
      000000B0H.2 SFRSYM    DATA     BIT       INT0
      000000D0H.7 SFRSYM    DATA     BIT       CY
      00000098H.1 SFRSYM    DATA     BIT       TI
      000000B0H.3 SFRSYM    DATA     BIT       INT1
      00000097H   SFRSYM    DATA     BYTE      CLK_DIV
      000000C3H   SFRSYM    DATA     BYTE      IAP_ADDRH
      00000090H   SFRSYM    DATA     BIT       RXD2
      000000C5H   SFRSYM    DATA     BYTE      ISP_CMD
      000000B8H.4 SFRSYM    DATA     BIT       PS
      00000090H.1 SFRSYM    DATA     BIT       TXD2
      00000081H   SFRSYM    DATA     BYTE      SP
      000000D9H   SFRSYM    DATA     BYTE      CMOD
      000000D8H   SFRSYM    DATA     BYTE      CCON
      000000C4H   SFRSYM    DATA     BYTE      IAP_ADDRL
      000000B8H.7 SFRSYM    DATA     BIT       PPCA
      000000D0H.2 SFRSYM    DATA     BIT       OV
      000000B0H.6 SFRSYM    DATA     BIT       WR
      000000A8H.6 SFRSYM    DATA     BIT       ELVD
      00000080H   SFRSYM    DATA     BIT       P00
      00000090H   SFRSYM    DATA     BIT       P10
      00000080H.1 SFRSYM    DATA     BIT       P01
      000000BCH   SFRSYM    DATA     BYTE      ADC_CONTR
      00000099H   SFRSYM    DATA     BYTE      SBUF
      00000087H   SFRSYM    DATA     BYTE      PCON
      000000A0H   SFRSYM    DATA     BIT       P20
      00000090H.1 SFRSYM    DATA     BIT       P11
      00000080H.2 SFRSYM    DATA     BIT       P02
LX51 LINKER/LOCATER V4.66.41.0                                                        02/15/2019  15:28:07  PAGE 115


      000000C3H   SFRSYM    DATA     BYTE      ISP_ADDRH
      000000B0H   SFRSYM    DATA     BIT       P30
      000000A0H.1 SFRSYM    DATA     BIT       P21
      00000090H.2 SFRSYM    DATA     BIT       P12
      00000080H.3 SFRSYM    DATA     BIT       P03
      000000C0H   SFRSYM    DATA     BIT       P40
      000000B0H.1 SFRSYM    DATA     BIT       P31
      000000A0H.2 SFRSYM    DATA     BIT       P22
      00000090H.3 SFRSYM    DATA     BIT       P13
      00000080H.4 SFRSYM    DATA     BIT       P04
      00000098H   SFRSYM    DATA     BYTE      SCON
      0000008FH   SFRSYM    DATA     BYTE      WAKE_CLKO
      000000C8H   SFRSYM    DATA     BIT       P50
      000000C0H.1 SFRSYM    DATA     BIT       P41
      000000B0H.2 SFRSYM    DATA     BIT       P32
      000000A0H.3 SFRSYM    DATA     BIT       P23
      00000090H.4 SFRSYM    DATA     BIT       P14
      00000080H.5 SFRSYM    DATA     BIT       P05
      00000089H   SFRSYM    DATA     BYTE      TMOD
      00000088H   SFRSYM    DATA     BYTE      TCON
      000000C8H.1 SFRSYM    DATA     BIT       P51
      000000C0H.2 SFRSYM    DATA     BIT       P42
      000000B0H.3 SFRSYM    DATA     BIT       P33
      000000A0H.4 SFRSYM    DATA     BIT       P24
      00000090H.5 SFRSYM    DATA     BIT       P15
      00000080H.6 SFRSYM    DATA     BIT       P06
      000000C4H   SFRSYM    DATA     BYTE      ISP_ADDRL
      000000B8H.6 SFRSYM    DATA     BIT       PLVD
      000000C8H.2 SFRSYM    DATA     BIT       P52
      000000C0H.3 SFRSYM    DATA     BIT       P43
      000000B0H.4 SFRSYM    DATA     BIT       P34
      000000A0H.5 SFRSYM    DATA     BIT       P25
      00000090H.6 SFRSYM    DATA     BIT       P16
      00000080H.7 SFRSYM    DATA     BIT       P07
      000000C8H.3 SFRSYM    DATA     BIT       P53
      000000C0H.4 SFRSYM    DATA     BIT       P44
      000000B0H.5 SFRSYM    DATA     BIT       P35
      000000A0H.6 SFRSYM    DATA     BIT       P26
      00000090H.7 SFRSYM    DATA     BIT       P17
      000000C8H.4 SFRSYM    DATA     BIT       P54
      000000C0H.5 SFRSYM    DATA     BIT       P45
      000000B0H.6 SFRSYM    DATA     BIT       P36
      000000A0H.7 SFRSYM    DATA     BIT       P27
      000000C8H.5 SFRSYM    DATA     BIT       P55
      000000C0H.6 SFRSYM    DATA     BIT       P46
      000000B0H.7 SFRSYM    DATA     BIT       P37
      000000C8H.6 SFRSYM    DATA     BIT       P56
      000000C0H.7 SFRSYM    DATA     BIT       P47
      000000C8H.7 SFRSYM    DATA     BIT       P57
      00000088H.1 SFRSYM    DATA     BIT       IE0
      000000A1H   SFRSYM    DATA     BYTE      BUS_SPEED
      00000088H.3 SFRSYM    DATA     BIT       IE1
      000000AFH   SFRSYM    DATA     BYTE      IE2
      000000F0H   SFRSYM    DATA     BYTE      B
      0000008EH   SFRSYM    DATA     BYTE      AUXR
      000000C7H   SFRSYM    DATA     BYTE      IAP_CONTR
      000000E0H   SFRSYM    DATA     BYTE      ACC
      000000A8H.1 SFRSYM    DATA     BIT       ET0
      000000A8H.3 SFRSYM    DATA     BIT       ET1
      00000088H.5 SFRSYM    DATA     BIT       TF0
      00000088H.7 SFRSYM    DATA     BIT       TF1
      000000B5H   SFRSYM    DATA     BYTE      IP2
      0000008CH   SFRSYM    DATA     BYTE      RL_TH0
      00000098H.2 SFRSYM    DATA     BIT       RB8
      0000008DH   SFRSYM    DATA     BYTE      RL_TH1
LX51 LINKER/LOCATER V4.66.41.0                                                        02/15/2019  15:28:07  PAGE 116


      0000008CH   SFRSYM    DATA     BYTE      TH0
      000000A8H   SFRSYM    DATA     BIT       EX0
      00000088H   SFRSYM    DATA     BIT       IT0
      000000D6H   SFRSYM    DATA     BYTE      RL_T2H
      0000008DH   SFRSYM    DATA     BYTE      TH1
      000000A8H.2 SFRSYM    DATA     BIT       EX1
      00000098H.3 SFRSYM    DATA     BIT       TB8
      00000088H.2 SFRSYM    DATA     BIT       IT1
      000000D4H   SFRSYM    DATA     BYTE      RL_T3H
      000000D6H   SFRSYM    DATA     BYTE      TH2
      000000D6H   SFRSYM    DATA     BYTE      T2H
      000000D0H   SFRSYM    DATA     BIT       P
      000000D2H   SFRSYM    DATA     BYTE      RL_T4H
      000000D4H   SFRSYM    DATA     BYTE      TH3
      000000D4H   SFRSYM    DATA     BYTE      T3H
      0000008AH   SFRSYM    DATA     BYTE      RL_TL0
      00000098H.7 SFRSYM    DATA     BIT       SM0
      000000D2H   SFRSYM    DATA     BYTE      TH4
      000000D2H   SFRSYM    DATA     BYTE      T4H
      0000008BH   SFRSYM    DATA     BYTE      RL_TL1
      0000008AH   SFRSYM    DATA     BYTE      TL0
      00000098H.6 SFRSYM    DATA     BIT       SM1
      000000D7H   SFRSYM    DATA     BYTE      RL_T2L
      0000008BH   SFRSYM    DATA     BYTE      TL1
      00000098H.5 SFRSYM    DATA     BIT       SM2
      000000D5H   SFRSYM    DATA     BYTE      RL_T3L
      000000D7H   SFRSYM    DATA     BYTE      TL2
      000000D7H   SFRSYM    DATA     BYTE      T2L
      000000D3H   SFRSYM    DATA     BYTE      RL_T4L
      000000D5H   SFRSYM    DATA     BYTE      TL3
      000000D5H   SFRSYM    DATA     BYTE      T3L
      000000B8H.1 SFRSYM    DATA     BIT       PT0
      000000D3H   SFRSYM    DATA     BYTE      TL4
      000000D3H   SFRSYM    DATA     BYTE      T4L
      000000B8H.3 SFRSYM    DATA     BIT       PT1
      000000D0H.3 SFRSYM    DATA     BIT       RS0
      000000C7H   SFRSYM    DATA     BYTE      ISP_CONTR
      00000088H.4 SFRSYM    DATA     BIT       TR0
      000000D0H.4 SFRSYM    DATA     BIT       RS1
      000000C2H   SFRSYM    DATA     BYTE      IAP_DATA
      00000088H.6 SFRSYM    DATA     BIT       TR1
      000000B8H   SFRSYM    DATA     BIT       PX0
      000000C1H   SFRSYM    DATA     BYTE      WDT_CONTR
      000000B8H.2 SFRSYM    DATA     BIT       PX1
      000000F2H   SFRSYM    DATA     BYTE      PCA_PWM0
      000000F3H   SFRSYM    DATA     BYTE      PCA_PWM1
      000000F4H   SFRSYM    DATA     BYTE      PCA_PWM2
      0000009DH   SFRSYM    DATA     BYTE      P1ASF
      00000083H   SFRSYM    DATA     BYTE      DPH
      000000D1H   SFRSYM    DATA     BYTE      T4T3M
      000000BEH   SFRSYM    DATA     BYTE      ADC_RESL
      00000082H   SFRSYM    DATA     BYTE      DPL
      000000CDH   SFRSYM    DATA     BYTE      SPSTAT
      000000B7H   SFRSYM    DATA     BYTE      IPH
      0000009BH   SFRSYM    DATA     BYTE      S2BUF
      00000097H   SFRSYM    DATA     BYTE      PCON2
      000000ADH   SFRSYM    DATA     BYTE      S3BUF
      00000098H.4 SFRSYM    DATA     BIT       REN
      00000085H   SFRSYM    DATA     BYTE      S4BUF
      0000009AH   SFRSYM    DATA     BYTE      S2CON
      000000ACH   SFRSYM    DATA     BYTE      S3CON
      000000C2H   SFRSYM    DATA     BYTE      ISP_DATA
      00000084H   SFRSYM    DATA     BYTE      S4CON
      000000B9H   SFRSYM    DATA     BYTE      SADEN
      000000B0H   SFRSYM    DATA     BIT       RXD
LX51 LINKER/LOCATER V4.66.41.0                                                        02/15/2019  15:28:07  PAGE 117


      000000A9H   SFRSYM    DATA     BYTE      SADDR
      000000B0H.1 SFRSYM    DATA     BIT       TXD
      000000F0H   SFRSYM    DATA     BIT       B0
      000000F0H.1 SFRSYM    DATA     BIT       B1
      000000C6H   SFRSYM    DATA     BYTE      IAP_TRIG
      000000A2H   SFRSYM    DATA     BYTE      AUXR1
      000000F0H.2 SFRSYM    DATA     BIT       B2
      00000090H.2 SFRSYM    DATA     BIT       SPI_SS
      0000008FH   SFRSYM    DATA     BYTE      AUXR2
      000000F0H.3 SFRSYM    DATA     BIT       B3
      000000F0H.4 SFRSYM    DATA     BIT       B4
      000000D0H.5 SFRSYM    DATA     BIT       F0
      000000F0H.5 SFRSYM    DATA     BIT       B5
      000000D0H.1 SFRSYM    DATA     BIT       F1
      0000008FH   SFRSYM    DATA     BYTE      INT_CLKO
      000000F0H.6 SFRSYM    DATA     BIT       B6
      000000E0H   SFRSYM    DATA     BIT       ACC0
      000000F0H.7 SFRSYM    DATA     BIT       B7
      000000E0H.1 SFRSYM    DATA     BIT       ACC1
      000000E0H.2 SFRSYM    DATA     BIT       ACC2
      000000E0H.3 SFRSYM    DATA     BIT       ACC3
      000000D0H   SFRSYM    DATA     BYTE      PSW
      000000E0H.4 SFRSYM    DATA     BIT       ACC4
      00000090H.5 SFRSYM    DATA     BIT       SPI_SCLK
      000000D8H   SFRSYM    DATA     BIT       CCF0
      000000E0H.5 SFRSYM    DATA     BIT       ACC5
      000000D8H.1 SFRSYM    DATA     BIT       CCF1
      000000E0H.6 SFRSYM    DATA     BIT       ACC6
      000000CFH   SFRSYM    DATA     BYTE      SPDAT
      00000094H   SFRSYM    DATA     BYTE      P0M0

      01007621H   BLOCK     CODE     ---       LVL=0
      ---         BLOCKEND  ---      ---       LVL=0

      01005DFDH   BLOCK     CODE     ---       LVL=0
      01005DFDH   LINE      CODE     ---       #41
      01005DFDH   LINE      CODE     ---       #141
      01005E13H   LINE      CODE     ---       #143
      01005E13H   LINE      CODE     ---       #145
      01005E1FH   LINE      CODE     ---       #147
      01005E1FH   LINE      CODE     ---       #149
      01005E21H   LINE      CODE     ---       #150
      01005E25H   LINE      CODE     ---       #151
      01005E2BH   LINE      CODE     ---       #153
      01005E2EH   LINE      CODE     ---       #155
      01005E2EH   LINE      CODE     ---       #157
      01005E30H   LINE      CODE     ---       #158
      01005E34H   LINE      CODE     ---       #159
      01005E3AH   LINE      CODE     ---       #161
      01005E3DH   LINE      CODE     ---       #163
      01005E3DH   LINE      CODE     ---       #164
      01005E3DH   LINE      CODE     ---       #166
      01005E43H   LINE      CODE     ---       #167
      01005E48H   LINE      CODE     ---       #169
      01005E5EH   LINE      CODE     ---       #171
      01005E60H   LINE      CODE     ---       #172
      01005E60H   LINE      CODE     ---       #174
      01005E60H   LINE      CODE     ---       #176
      01005E60H   LINE      CODE     ---       #178
      01005E72H   LINE      CODE     ---       #180
      01005E74H   LINE      CODE     ---       #182
      01005E74H   LINE      CODE     ---       #184
      01005E86H   LINE      CODE     ---       #185
      01005E98H   LINE      CODE     ---       #187
      01005E9AH   LINE      CODE     ---       #189
LX51 LINKER/LOCATER V4.66.41.0                                                        02/15/2019  15:28:07  PAGE 118


      01005E9AH   LINE      CODE     ---       #191
      01005EACH   LINE      CODE     ---       #192
      01005EBEH   LINE      CODE     ---       #193
      01005ED0H   LINE      CODE     ---       #195
      01005ED0H   LINE      CODE     ---       #197
      01005ED0H   LINE      CODE     ---       #198
      01005ED0H   LINE      CODE     ---       #201
      ---         BLOCKEND  ---      ---       LVL=0

      010061E7H   BLOCK     CODE     ---       LVL=0
      010061E7H   BLOCK     CODE     NEAR LAB  LVL=1
      000000BEH   SYMBOL    IDATA    BYTE      statusTemp
      ---         BLOCKEND  ---      ---       LVL=1
      010061E7H   LINE      CODE     ---       #205
      010061E7H   LINE      CODE     ---       #207
      010061EBH   LINE      CODE     ---       #255
      010061EEH   LINE      CODE     ---       #256
      010061F1H   LINE      CODE     ---       #257
      010061F7H   LINE      CODE     ---       #260
      01006208H   LINE      CODE     ---       #261
      01006211H   LINE      CODE     ---       #262
      01006224H   LINE      CODE     ---       #263
      0100622DH   LINE      CODE     ---       #266
      0100622DH   LINE      CODE     ---       #268
      01006239H   LINE      CODE     ---       #269
      0100625AH   LINE      CODE     ---       #270
      01006260H   LINE      CODE     ---       #271
      01006260H   LINE      CODE     ---       #277
      01006267H   LINE      CODE     ---       #280
      0100626FH   LINE      CODE     ---       #285
      01006273H   LINE      CODE     ---       #287
      01006274H   LINE      CODE     ---       #289
      01006278H   LINE      CODE     ---       #290
      01006288H   LINE      CODE     ---       #291
      0100628BH   LINE      CODE     ---       #292
      0100628BH   LINE      CODE     ---       #293
      ---         BLOCKEND  ---      ---       LVL=0

      01005ED3H   BLOCK     CODE     ---       LVL=0
      00000027H   SYMBOL    DATA     ---       dats
      01005ED3H   BLOCK     CODE     NEAR LAB  LVL=1
      00000029H   SYMBOL    DATA     BYTE      statusTemp
      ---         BLOCKEND  ---      ---       LVL=1
      01005ED3H   LINE      CODE     ---       #317
      01005ED3H   LINE      CODE     ---       #319
      01005ED6H   LINE      CODE     ---       #334
      01005EDDH   LINE      CODE     ---       #336
      01005EE6H   LINE      CODE     ---       #338
      01005EE6H   LINE      CODE     ---       #340
      01005EF2H   LINE      CODE     ---       #341
      01005EFEH   LINE      CODE     ---       #342
      01005F0AH   LINE      CODE     ---       #344
      01005F0CH   LINE      CODE     ---       #346
      01005F0CH   LINE      CODE     ---       #348
      01005F1EH   LINE      CODE     ---       #349
      01005F30H   LINE      CODE     ---       #350
      01005F42H   LINE      CODE     ---       #352
      01005F42H   LINE      CODE     ---       #354
      01005F42H   LINE      CODE     ---       #356
      01005F45H   LINE      CODE     ---       #358
      01005F4AH   LINE      CODE     ---       #359
      01005F55H   LINE      CODE     ---       #366
      01005F64H   LINE      CODE     ---       #367
      01005F79H   LINE      CODE     ---       #368
      01005F8FH   LINE      CODE     ---       #370
LX51 LINKER/LOCATER V4.66.41.0                                                        02/15/2019  15:28:07  PAGE 119


      01005F98H   LINE      CODE     ---       #372
      01005F9FH   LINE      CODE     ---       #375
      01005FA7H   LINE      CODE     ---       #380
      01005FA7H   LINE      CODE     ---       #383
      ---         BLOCKEND  ---      ---       LVL=0

      01006FECH   BLOCK     CODE     ---       LVL=0
      01007018H   BLOCK     CODE     NEAR LAB  LVL=1
      000000BEH   SYMBOL    IDATA    BYTE      statusTemp
      ---         BLOCKEND  ---      ---       LVL=1
      01006FECH   LINE      CODE     ---       #386
      01006FECH   LINE      CODE     ---       #388
      01006FF4H   LINE      CODE     ---       #390
      0100700AH   LINE      CODE     ---       #392
      01007010H   LINE      CODE     ---       #393
      01007015H   LINE      CODE     ---       #394
      01007015H   LINE      CODE     ---       #396
      01007018H   LINE      CODE     ---       #398
      0100701CH   LINE      CODE     ---       #400
      0100701EH   LINE      CODE     ---       #411
      01007025H   LINE      CODE     ---       #414
      0100702DH   LINE      CODE     ---       #419
      0100702DH   LINE      CODE     ---       #420
      0100702DH   LINE      CODE     ---       #440
      ---         BLOCKEND  ---      ---       LVL=0

      ---         MODULE    ---      ---       TIMERACT
      000000D8H   PUBLIC    IDATA    BYTE      delayPeriod_onoff
      000000D7H   PUBLIC    IDATA    BYTE      delayUp_act
      000000D6H   PUBLIC    IDATA    BYTE      ifDelay_sw_running_FLAG
      000000D4H   PUBLIC    IDATA    WORD      sysTimeKeep_counter
      000000D2H   PUBLIC    IDATA    WORD      delayCnt_closeLoop
      000000D1H   PUBLIC    IDATA    BYTE      swTim_oneShoot_FLAG
      02000687H   PUBLIC    XDATA    BYTE      sysTimeZone_M
      02000686H   PUBLIC    XDATA    BYTE      sysTimeZone_H
      02000685H   PUBLIC    XDATA    BYTE      sysTimeReales_counter
      000000CFH   PUBLIC    IDATA    WORD      delayCnt_onoff
      00000025H.4 PUBLIC    BIT      BIT       ifTim_sw_running_FLAG
      0200067EH   PUBLIC    XDATA    ---       systemTime_current
      000000CEH   PUBLIC    IDATA    BYTE      delayPeriod_closeLoop
      00000025H.3 PUBLIC    BIT      BIT       ifNightMode_sw_running_FLAG
      01004129H   PUBLIC    CODE     ---       thread_Timing
      01007628H   PUBLIC    CODE     ---       timerActionDone_FLG_RESET
      00000028H   PUBLIC    DATA     BYTE      ?time_Logout?BYTE
      0100613EH   PUBLIC    CODE     ---       time_Logout
      0100724EH   PUBLIC    CODE     ---       _weekend_judge
      01007611H   PUBLIC    CODE     ---       itrf_datsTimNight_read_eeprom
      0100670BH   PUBLIC    CODE     ---       _datsTimNight_read_eeprom
      01007608H   PUBLIC    CODE     ---       itrf_datsTiming_read_eeprom
      01006685H   PUBLIC    CODE     ---       _datsTiming_read_eeprom
      010073DCH   PUBLIC    CODE     ---       timeZone_Reales
      000000D8H.2 SFRSYM    DATA     BIT       CCF2
      000000E0H.7 SFRSYM    DATA     BIT       ACC7
      00000093H   SFRSYM    DATA     BYTE      P0M1
      00000092H   SFRSYM    DATA     BYTE      P1M0
      00000096H   SFRSYM    DATA     BYTE      P2M0
      00000091H   SFRSYM    DATA     BYTE      P1M1
      00000080H   SFRSYM    DATA     BYTE      P0
      000000B2H   SFRSYM    DATA     BYTE      P3M0
      00000095H   SFRSYM    DATA     BYTE      P2M1
      00000090H   SFRSYM    DATA     BYTE      P1
      000000B4H   SFRSYM    DATA     BYTE      P4M0
      000000B1H   SFRSYM    DATA     BYTE      P3M1
      000000A0H   SFRSYM    DATA     BYTE      P2
      000000CAH   SFRSYM    DATA     BYTE      P5M0
LX51 LINKER/LOCATER V4.66.41.0                                                        02/15/2019  15:28:07  PAGE 120


      000000B3H   SFRSYM    DATA     BYTE      P4M1
      000000B0H   SFRSYM    DATA     BYTE      P3
      000000ABH   SFRSYM    DATA     BYTE      WKTCH
      000000B0H.4 SFRSYM    DATA     BIT       T0
      000000D0H.6 SFRSYM    DATA     BIT       AC
      000000CCH   SFRSYM    DATA     BYTE      P6M0
      000000C9H   SFRSYM    DATA     BYTE      P5M1
      000000C0H   SFRSYM    DATA     BYTE      P4
      000000B0H.5 SFRSYM    DATA     BIT       CLKOUT0
      000000B0H.5 SFRSYM    DATA     BIT       T1
      000000E2H   SFRSYM    DATA     BYTE      P7M0
      000000CBH   SFRSYM    DATA     BYTE      P6M1
      000000C8H   SFRSYM    DATA     BYTE      P5
      000000C6H   SFRSYM    DATA     BYTE      ISP_TRIG
      000000A8H.7 SFRSYM    DATA     BIT       EA
      000000B0H.4 SFRSYM    DATA     BIT       CLKOUT1
      000000A0H.4 SFRSYM    DATA     BIT       SPI_SS_2
      000000E8H   SFRSYM    DATA     BYTE      P6
      000000E1H   SFRSYM    DATA     BYTE      P7M1
      000000C8H.4 SFRSYM    DATA     BIT       SPI_SS_3
      00000090H.4 SFRSYM    DATA     BIT       SPI_MISO
      00000090H.3 SFRSYM    DATA     BIT       SPI_MOSI
      00000090H.1 SFRSYM    DATA     BIT       CCP0
      000000F8H   SFRSYM    DATA     BYTE      P7
      000000AAH   SFRSYM    DATA     BYTE      WKTCL
      00000090H   SFRSYM    DATA     BIT       CCP1
      000000CEH   SFRSYM    DATA     BYTE      SPCTL
      000000D8H.7 SFRSYM    DATA     BIT       CF
      000000B0H.7 SFRSYM    DATA     BIT       CCP2
      000000F9H   SFRSYM    DATA     BYTE      CH
      000000A2H   SFRSYM    DATA     BYTE      P_SW1
      000000BAH   SFRSYM    DATA     BYTE      P_SW2
      000000A8H.5 SFRSYM    DATA     BIT       EADC
      000000A0H.1 SFRSYM    DATA     BIT       SPI_SCLK_2
      000000A8H   SFRSYM    DATA     BYTE      IE
      000000C0H.3 SFRSYM    DATA     BIT       SPI_SCLK_3
      000000E9H   SFRSYM    DATA     BYTE      CL
      000000C5H   SFRSYM    DATA     BYTE      IAP_CMD
      000000FAH   SFRSYM    DATA     BYTE      CCAP0H
      00000090H   SFRSYM    DATA     BIT       Dcode0
      000000FBH   SFRSYM    DATA     BYTE      CCAP1H
      00000090H.1 SFRSYM    DATA     BIT       Dcode1
      000000FCH   SFRSYM    DATA     BYTE      CCAP2H
      00000090H.2 SFRSYM    DATA     BIT       Dcode2
      000000BDH   SFRSYM    DATA     BYTE      ADC_RES
      000000B6H   SFRSYM    DATA     BYTE      IPH2
      00000090H.3 SFRSYM    DATA     BIT       Dcode3
      000000D8H.6 SFRSYM    DATA     BIT       CR
      000000EAH   SFRSYM    DATA     BYTE      CCAP0L
      00000090H.4 SFRSYM    DATA     BIT       Dcode4
      000000B0H.7 SFRSYM    DATA     BIT       RD
      000000EBH   SFRSYM    DATA     BYTE      CCAP1L
      000000DAH   SFRSYM    DATA     BYTE      CCAPM0
      00000090H.3 SFRSYM    DATA     BIT       Dcode5
      000000ECH   SFRSYM    DATA     BYTE      CCAP2L
      000000DBH   SFRSYM    DATA     BYTE      CCAPM1
      000000A8H.4 SFRSYM    DATA     BIT       ES
      000000DCH   SFRSYM    DATA     BYTE      CCAPM2
      000000B8H.5 SFRSYM    DATA     BIT       PADC
      000000A0H.2 SFRSYM    DATA     BIT       SPI_MISO_2
      000000A0H.3 SFRSYM    DATA     BIT       SPI_MOSI_2
      000000B8H   SFRSYM    DATA     BYTE      IP
      000000C0H.1 SFRSYM    DATA     BIT       SPI_MISO_3
      000000C0H   SFRSYM    DATA     BIT       SPI_MOSI_3
      00000098H   SFRSYM    DATA     BIT       RI
LX51 LINKER/LOCATER V4.66.41.0                                                        02/15/2019  15:28:07  PAGE 121


      000000B0H.2 SFRSYM    DATA     BIT       INT0
      000000D0H.7 SFRSYM    DATA     BIT       CY
      00000098H.1 SFRSYM    DATA     BIT       TI
      000000B0H.3 SFRSYM    DATA     BIT       INT1
      00000097H   SFRSYM    DATA     BYTE      CLK_DIV
      000000C3H   SFRSYM    DATA     BYTE      IAP_ADDRH
      00000090H   SFRSYM    DATA     BIT       RXD2
      000000C5H   SFRSYM    DATA     BYTE      ISP_CMD
      000000B8H.4 SFRSYM    DATA     BIT       PS
      00000090H.1 SFRSYM    DATA     BIT       TXD2
      00000081H   SFRSYM    DATA     BYTE      SP
      000000D9H   SFRSYM    DATA     BYTE      CMOD
      000000D8H   SFRSYM    DATA     BYTE      CCON
      000000C4H   SFRSYM    DATA     BYTE      IAP_ADDRL
      000000B8H.7 SFRSYM    DATA     BIT       PPCA
      000000D0H.2 SFRSYM    DATA     BIT       OV
      000000B0H.6 SFRSYM    DATA     BIT       WR
      000000A8H.6 SFRSYM    DATA     BIT       ELVD
      00000080H   SFRSYM    DATA     BIT       P00
      00000090H   SFRSYM    DATA     BIT       P10
      00000080H.1 SFRSYM    DATA     BIT       P01
      000000BCH   SFRSYM    DATA     BYTE      ADC_CONTR
      00000099H   SFRSYM    DATA     BYTE      SBUF
      00000087H   SFRSYM    DATA     BYTE      PCON
      000000A0H   SFRSYM    DATA     BIT       P20
      00000090H.1 SFRSYM    DATA     BIT       P11
      00000080H.2 SFRSYM    DATA     BIT       P02
      000000C3H   SFRSYM    DATA     BYTE      ISP_ADDRH
      000000B0H   SFRSYM    DATA     BIT       P30
      000000A0H.1 SFRSYM    DATA     BIT       P21
      00000090H.2 SFRSYM    DATA     BIT       P12
      00000080H.3 SFRSYM    DATA     BIT       P03
      000000C0H   SFRSYM    DATA     BIT       P40
      000000B0H.1 SFRSYM    DATA     BIT       P31
      000000A0H.2 SFRSYM    DATA     BIT       P22
      00000090H.3 SFRSYM    DATA     BIT       P13
      00000080H.4 SFRSYM    DATA     BIT       P04
      00000098H   SFRSYM    DATA     BYTE      SCON
      0000008FH   SFRSYM    DATA     BYTE      WAKE_CLKO
      000000C8H   SFRSYM    DATA     BIT       P50
      000000C0H.1 SFRSYM    DATA     BIT       P41
      000000B0H.2 SFRSYM    DATA     BIT       P32
      000000A0H.3 SFRSYM    DATA     BIT       P23
      00000090H.4 SFRSYM    DATA     BIT       P14
      00000080H.5 SFRSYM    DATA     BIT       P05
      00000089H   SFRSYM    DATA     BYTE      TMOD
      00000088H   SFRSYM    DATA     BYTE      TCON
      000000C8H.1 SFRSYM    DATA     BIT       P51
      000000C0H.2 SFRSYM    DATA     BIT       P42
      000000B0H.3 SFRSYM    DATA     BIT       P33
      000000A0H.4 SFRSYM    DATA     BIT       P24
      00000090H.5 SFRSYM    DATA     BIT       P15
      00000080H.6 SFRSYM    DATA     BIT       P06
      000000C4H   SFRSYM    DATA     BYTE      ISP_ADDRL
      000000B8H.6 SFRSYM    DATA     BIT       PLVD
      000000C8H.2 SFRSYM    DATA     BIT       P52
      000000C0H.3 SFRSYM    DATA     BIT       P43
      000000B0H.4 SFRSYM    DATA     BIT       P34
      000000A0H.5 SFRSYM    DATA     BIT       P25
      00000090H.6 SFRSYM    DATA     BIT       P16
      00000080H.7 SFRSYM    DATA     BIT       P07
      000000C8H.3 SFRSYM    DATA     BIT       P53
      000000C0H.4 SFRSYM    DATA     BIT       P44
      000000B0H.5 SFRSYM    DATA     BIT       P35
      000000A0H.6 SFRSYM    DATA     BIT       P26
LX51 LINKER/LOCATER V4.66.41.0                                                        02/15/2019  15:28:07  PAGE 122


      00000090H.7 SFRSYM    DATA     BIT       P17
      000000C8H.4 SFRSYM    DATA     BIT       P54
      000000C0H.5 SFRSYM    DATA     BIT       P45
      000000B0H.6 SFRSYM    DATA     BIT       P36
      000000A0H.7 SFRSYM    DATA     BIT       P27
      000000C8H.5 SFRSYM    DATA     BIT       P55
      000000C0H.6 SFRSYM    DATA     BIT       P46
      000000B0H.7 SFRSYM    DATA     BIT       P37
      000000C8H.6 SFRSYM    DATA     BIT       P56
      000000C0H.7 SFRSYM    DATA     BIT       P47
      000000C8H.7 SFRSYM    DATA     BIT       P57
      00000088H.1 SFRSYM    DATA     BIT       IE0
      000000A1H   SFRSYM    DATA     BYTE      BUS_SPEED
      00000088H.3 SFRSYM    DATA     BIT       IE1
      000000AFH   SFRSYM    DATA     BYTE      IE2
      000000F0H   SFRSYM    DATA     BYTE      B
      0000008EH   SFRSYM    DATA     BYTE      AUXR
      000000C7H   SFRSYM    DATA     BYTE      IAP_CONTR
      000000E0H   SFRSYM    DATA     BYTE      ACC
      000000A8H.1 SFRSYM    DATA     BIT       ET0
      000000A8H.3 SFRSYM    DATA     BIT       ET1
      00000088H.5 SFRSYM    DATA     BIT       TF0
      00000088H.7 SFRSYM    DATA     BIT       TF1
      000000B5H   SFRSYM    DATA     BYTE      IP2
      0000008CH   SFRSYM    DATA     BYTE      RL_TH0
      00000098H.2 SFRSYM    DATA     BIT       RB8
      0000008DH   SFRSYM    DATA     BYTE      RL_TH1
      0000008CH   SFRSYM    DATA     BYTE      TH0
      000000A8H   SFRSYM    DATA     BIT       EX0
      00000088H   SFRSYM    DATA     BIT       IT0
      000000D6H   SFRSYM    DATA     BYTE      RL_T2H
      0000008DH   SFRSYM    DATA     BYTE      TH1
      00000090H.6 SFRSYM    DATA     BIT       touchPad_1
      000000A8H.2 SFRSYM    DATA     BIT       EX1
      00000098H.3 SFRSYM    DATA     BIT       TB8
      00000088H.2 SFRSYM    DATA     BIT       IT1
      000000D4H   SFRSYM    DATA     BYTE      RL_T3H
      000000D6H   SFRSYM    DATA     BYTE      TH2
      000000D6H   SFRSYM    DATA     BYTE      T2H
      00000090H.7 SFRSYM    DATA     BIT       touchPad_2
      000000D0H   SFRSYM    DATA     BIT       P
      000000D2H   SFRSYM    DATA     BYTE      RL_T4H
      000000D4H   SFRSYM    DATA     BYTE      TH3
      000000D4H   SFRSYM    DATA     BYTE      T3H
      0000008AH   SFRSYM    DATA     BYTE      RL_TL0
      00000090H.5 SFRSYM    DATA     BIT       touchPad_3
      00000098H.7 SFRSYM    DATA     BIT       SM0
      000000D2H   SFRSYM    DATA     BYTE      TH4
      000000D2H   SFRSYM    DATA     BYTE      T4H
      0000008BH   SFRSYM    DATA     BYTE      RL_TL1
      0000008AH   SFRSYM    DATA     BYTE      TL0
      00000098H.6 SFRSYM    DATA     BIT       SM1
      000000D7H   SFRSYM    DATA     BYTE      RL_T2L
      0000008BH   SFRSYM    DATA     BYTE      TL1
      00000098H.5 SFRSYM    DATA     BIT       SM2
      000000D5H   SFRSYM    DATA     BYTE      RL_T3L
      000000D7H   SFRSYM    DATA     BYTE      TL2
      000000D7H   SFRSYM    DATA     BYTE      T2L
      000000D3H   SFRSYM    DATA     BYTE      RL_T4L
      000000D5H   SFRSYM    DATA     BYTE      TL3
      000000D5H   SFRSYM    DATA     BYTE      T3L
      000000B8H.1 SFRSYM    DATA     BIT       PT0
      000000D3H   SFRSYM    DATA     BYTE      TL4
      000000D3H   SFRSYM    DATA     BYTE      T4L
      000000B8H.3 SFRSYM    DATA     BIT       PT1
LX51 LINKER/LOCATER V4.66.41.0                                                        02/15/2019  15:28:07  PAGE 123


      000000D0H.3 SFRSYM    DATA     BIT       RS0
      000000C7H   SFRSYM    DATA     BYTE      ISP_CONTR
      00000088H.4 SFRSYM    DATA     BIT       TR0
      000000D0H.4 SFRSYM    DATA     BIT       RS1
      000000C2H   SFRSYM    DATA     BYTE      IAP_DATA
      00000088H.6 SFRSYM    DATA     BIT       TR1
      000000B8H   SFRSYM    DATA     BIT       PX0
      000000C1H   SFRSYM    DATA     BYTE      WDT_CONTR
      000000B8H.2 SFRSYM    DATA     BIT       PX1
      000000F2H   SFRSYM    DATA     BYTE      PCA_PWM0
      000000F3H   SFRSYM    DATA     BYTE      PCA_PWM1
      000000F4H   SFRSYM    DATA     BYTE      PCA_PWM2
      0000009DH   SFRSYM    DATA     BYTE      P1ASF
      00000083H   SFRSYM    DATA     BYTE      DPH
      000000D1H   SFRSYM    DATA     BYTE      T4T3M
      000000BEH   SFRSYM    DATA     BYTE      ADC_RESL
      00000082H   SFRSYM    DATA     BYTE      DPL
      000000CDH   SFRSYM    DATA     BYTE      SPSTAT
      000000B7H   SFRSYM    DATA     BYTE      IPH
      0000009BH   SFRSYM    DATA     BYTE      S2BUF
      00000097H   SFRSYM    DATA     BYTE      PCON2
      000000ADH   SFRSYM    DATA     BYTE      S3BUF
      00000098H.4 SFRSYM    DATA     BIT       REN
      00000085H   SFRSYM    DATA     BYTE      S4BUF
      00000080H.2 SFRSYM    DATA     BIT       Usr_key
      0000009AH   SFRSYM    DATA     BYTE      S2CON
      000000ACH   SFRSYM    DATA     BYTE      S3CON
      000000C2H   SFRSYM    DATA     BYTE      ISP_DATA
      00000084H   SFRSYM    DATA     BYTE      S4CON
      000000B9H   SFRSYM    DATA     BYTE      SADEN
      000000B0H   SFRSYM    DATA     BIT       RXD
      000000A9H   SFRSYM    DATA     BYTE      SADDR
      000000B0H.1 SFRSYM    DATA     BIT       TXD
      000000F0H   SFRSYM    DATA     BIT       B0
      000000F0H.1 SFRSYM    DATA     BIT       B1
      000000C6H   SFRSYM    DATA     BYTE      IAP_TRIG
      000000A2H   SFRSYM    DATA     BYTE      AUXR1
      000000F0H.2 SFRSYM    DATA     BIT       B2
      00000090H.2 SFRSYM    DATA     BIT       SPI_SS
      0000008FH   SFRSYM    DATA     BYTE      AUXR2
      000000F0H.3 SFRSYM    DATA     BIT       B3
      000000F0H.4 SFRSYM    DATA     BIT       B4
      000000D0H.5 SFRSYM    DATA     BIT       F0
      000000F0H.5 SFRSYM    DATA     BIT       B5
      000000D0H.1 SFRSYM    DATA     BIT       F1
      0000008FH   SFRSYM    DATA     BYTE      INT_CLKO
      000000F0H.6 SFRSYM    DATA     BIT       B6
      000000E0H   SFRSYM    DATA     BIT       ACC0
      000000F0H.7 SFRSYM    DATA     BIT       B7
      000000E0H.1 SFRSYM    DATA     BIT       ACC1
      000000E0H.2 SFRSYM    DATA     BIT       ACC2
      000000E0H.3 SFRSYM    DATA     BIT       ACC3
      000000D0H   SFRSYM    DATA     BYTE      PSW
      000000E0H.4 SFRSYM    DATA     BIT       ACC4
      00000090H.5 SFRSYM    DATA     BIT       SPI_SCLK
      000000D8H   SFRSYM    DATA     BIT       CCF0
      000000E0H.5 SFRSYM    DATA     BIT       ACC5
      000000D8H.1 SFRSYM    DATA     BIT       CCF1
      000000E0H.6 SFRSYM    DATA     BIT       ACC6
      000000CFH   SFRSYM    DATA     BYTE      SPDAT
      00000094H   SFRSYM    DATA     BYTE      P0M0
      000000CCH   SYMBOL    IDATA    INT       timeUp_actionDone_flg
      01005BBAH   SYMBOL    CODE     ---       _?ix1000
      01005BD2H   SYMBOL    CODE     ---       _?ix1001
      01005BD8H   SYMBOL    CODE     ---       _?ix1002
LX51 LINKER/LOCATER V4.66.41.0                                                        02/15/2019  15:28:07  PAGE 124


      02000688H   SYMBOL    XDATA    ---       nightDatsTemp_CalibrateTab
      0200068EH   SYMBOL    XDATA    ---       timDatsTemp_CalibrateTab

      01005C2CH   BLOCK     CODE     ---       LVL=0
      ---         BLOCKEND  ---      ---       LVL=0

      010073DCH   BLOCK     CODE     ---       LVL=0
      010073DCH   LINE      CODE     ---       #41
      010073DCH   LINE      CODE     ---       #43
      010073EAH   LINE      CODE     ---       #44
      ---         BLOCKEND  ---      ---       LVL=0

      01006685H   BLOCK     CODE     ---       LVL=0
      00000033H   SYMBOL    DATA     ---       timDats_tab
      0100668BH   BLOCK     CODE     NEAR LAB  LVL=1
      00000036H   SYMBOL    DATA     ---       dats_Temp
      0000004EH   SYMBOL    DATA     BYTE      loop
      ---         BLOCKEND  ---      ---       LVL=1
      01006685H   LINE      CODE     ---       #47
      0100668BH   LINE      CODE     ---       #49
      01006698H   LINE      CODE     ---       #50
      0100669BH   LINE      CODE     ---       #52
      010066ABH   LINE      CODE     ---       #54
      010066AEH   LINE      CODE     ---       #56
      010066C8H   LINE      CODE     ---       #57
      010066D0H   LINE      CODE     ---       #58
      010066E5H   LINE      CODE     ---       #59
      010066EDH   LINE      CODE     ---       #60
      01006702H   LINE      CODE     ---       #61
      0100670AH   LINE      CODE     ---       #62
      ---         BLOCKEND  ---      ---       LVL=0

      01007608H   BLOCK     CODE     ---       LVL=0
      01007608H   LINE      CODE     ---       #64
      01007608H   LINE      CODE     ---       #66
      ---         BLOCKEND  ---      ---       LVL=0

      0100670BH   BLOCK     CODE     ---       LVL=0
      00000033H   SYMBOL    DATA     ---       timDats_tab
      01006711H   BLOCK     CODE     NEAR LAB  LVL=1
      00000036H   SYMBOL    DATA     ---       dats_Temp
      0000003CH   SYMBOL    DATA     BYTE      loop
      ---         BLOCKEND  ---      ---       LVL=1
      0100670BH   LINE      CODE     ---       #69
      01006711H   LINE      CODE     ---       #71
      0100671EH   LINE      CODE     ---       #72
      01006721H   LINE      CODE     ---       #74
      01006731H   LINE      CODE     ---       #76
      01006734H   LINE      CODE     ---       #78
      0100674EH   LINE      CODE     ---       #79
      01006756H   LINE      CODE     ---       #80
      0100676BH   LINE      CODE     ---       #81
      01006773H   LINE      CODE     ---       #82
      01006788H   LINE      CODE     ---       #83
      01006790H   LINE      CODE     ---       #84
      ---         BLOCKEND  ---      ---       LVL=0

      01007611H   BLOCK     CODE     ---       LVL=0
      01007611H   LINE      CODE     ---       #86
      01007611H   LINE      CODE     ---       #88
      ---         BLOCKEND  ---      ---       LVL=0

      0100724EH   BLOCK     CODE     ---       LVL=0
      00000004H   SYMBOL    DATA     BYTE      weekNum
      00000001H   SYMBOL    DATA     BYTE      HoldNum
LX51 LINKER/LOCATER V4.66.41.0                                                        02/15/2019  15:28:07  PAGE 125


      01007252H   BLOCK     CODE     NEAR LAB  LVL=1
      00000005H   SYMBOL    DATA     BYTE      loop
      ---         BLOCKEND  ---      ---       LVL=1
      0100724EH   LINE      CODE     ---       #92
      01007252H   LINE      CODE     ---       #96
      01007253H   LINE      CODE     ---       #97
      01007255H   LINE      CODE     ---       #99
      0100726CH   LINE      CODE     ---       #101
      01007272H   LINE      CODE     ---       #102
      01007272H   LINE      CODE     ---       #103
      01007276H   LINE      CODE     ---       #105
      01007277H   LINE      CODE     ---       #106
      ---         BLOCKEND  ---      ---       LVL=0

      0100613EH   BLOCK     CODE     ---       LVL=0
      00000028H   SYMBOL    DATA     ---       timeDats
      0100613EH   BLOCK     CODE     NEAR LAB  LVL=1
      02000006H   SYMBOL    XDATA    ---       Log
      ---         BLOCKEND  ---      ---       LVL=1
      0100613EH   LINE      CODE     ---       #109
      0100613EH   LINE      CODE     ---       #111
      01006151H   LINE      CODE     ---       #133
      01006172H   LINE      CODE     ---       #136
      01006175H   LINE      CODE     ---       #142
      01006190H   LINE      CODE     ---       #145
      01006193H   LINE      CODE     ---       #149
      010061A5H   LINE      CODE     ---       #151
      010061ABH   LINE      CODE     ---       #155
      010061BAH   LINE      CODE     ---       #157
      010061C0H   LINE      CODE     ---       #158
      ---         BLOCKEND  ---      ---       LVL=0

      01007628H   BLOCK     CODE     ---       LVL=0
      01007628H   LINE      CODE     ---       #161
      01007628H   LINE      CODE     ---       #163
      0100762EH   LINE      CODE     ---       #164
      ---         BLOCKEND  ---      ---       LVL=0

      01004129H   BLOCK     CODE     ---       LVL=0
      01004129H   BLOCK     CODE     NEAR LAB  LVL=1
      00000027H   SYMBOL    DATA     BYTE      loop
      0100412CH   BLOCK     CODE     NEAR LAB  LVL=2
      01005C28H   SYMBOL    CODE     WORD      log_period
      0200067CH   SYMBOL    XDATA    WORD      log_Count
      00000025H.1 SYMBOL    BIT      BIT       read_FLG
      00000025H.2 SYMBOL    BIT      BIT       timeTab_reserveFLG
      02000000H   SYMBOL    XDATA    WORD      minutesTemp_CalibrateTab_A
      02000002H   SYMBOL    XDATA    WORD      minutesTemp_CalibrateTab_B
      02000004H   SYMBOL    XDATA    WORD      minutesTemp_CalibrateTab_cur
      ---         BLOCKEND  ---      ---       LVL=2
      0100416BH   BLOCK     CODE     NEAR LAB  LVL=2
      00000025H.1 SYMBOL    BIT      BIT       read_FLG
      00000025H.2 SYMBOL    BIT      BIT       timeTab_reserveFLG
      02000000H   SYMBOL    XDATA    WORD      minutesTemp_CalibrateTab_A
      02000002H   SYMBOL    XDATA    WORD      minutesTemp_CalibrateTab_B
      02000004H   SYMBOL    XDATA    WORD      minutesTemp_CalibrateTab_cur
      ---         BLOCKEND  ---      ---       LVL=2
      01004202H   BLOCK     CODE     NEAR LAB  LVL=2
      00000025H.2 SYMBOL    BIT      BIT       timeTab_reserveFLG
      02000000H   SYMBOL    XDATA    WORD      minutesTemp_CalibrateTab_A
      02000002H   SYMBOL    XDATA    WORD      minutesTemp_CalibrateTab_B
      02000004H   SYMBOL    XDATA    WORD      minutesTemp_CalibrateTab_cur
      ---         BLOCKEND  ---      ---       LVL=2
      0100439CH   BLOCK     CODE     NEAR LAB  LVL=2
      01005C2AH   SYMBOL    CODE     BYTE      dats_Temp
LX51 LINKER/LOCATER V4.66.41.0                                                        02/15/2019  15:28:07  PAGE 126


      01005C2BH   SYMBOL    CODE     BYTE      dats_Temp
      ---         BLOCKEND  ---      ---       LVL=2
      0100443CH   BLOCK     CODE     NEAR LAB  LVL=2
      01005C2BH   SYMBOL    CODE     BYTE      dats_Temp
      ---         BLOCKEND  ---      ---       LVL=2
      ---         BLOCKEND  ---      ---       LVL=1
      01004129H   LINE      CODE     ---       #166
      01004129H   LINE      CODE     ---       #168
      0100412CH   LINE      CODE     ---       #176
      01004150H   LINE      CODE     ---       #177
      01004150H   LINE      CODE     ---       #179
      01004157H   LINE      CODE     ---       #181
      0100416BH   LINE      CODE     ---       #182
      0100416BH   LINE      CODE     ---       #183
      0100416BH   LINE      CODE     ---       #187
      0100416BH   LINE      CODE     ---       #191
      0100416EH   LINE      CODE     ---       #193
      01004170H   LINE      CODE     ---       #195
      01004180H   LINE      CODE     ---       #196
      01004190H   LINE      CODE     ---       #198
      01004199H   LINE      CODE     ---       #199
      010041A2H   LINE      CODE     ---       #200
      010041A2H   LINE      CODE     ---       #201
      010041A2H   LINE      CODE     ---       #204
      010041A2H   LINE      CODE     ---       #206
      010041B2H   LINE      CODE     ---       #207
      010041BAH   LINE      CODE     ---       #209
      010041C6H   LINE      CODE     ---       #211
      010041C6H   LINE      CODE     ---       #213
      010041CCH   LINE      CODE     ---       #214
      010041DFH   LINE      CODE     ---       #215
      010041F3H   LINE      CODE     ---       #216
      010041F3H   LINE      CODE     ---       #222
      010041F3H   LINE      CODE     ---       #225
      010041FDH   LINE      CODE     ---       #227
      010041FFH   LINE      CODE     ---       #229
      01004202H   LINE      CODE     ---       #231
      01004204H   LINE      CODE     ---       #232
      01004221H   LINE      CODE     ---       #233
      01004239H   LINE      CODE     ---       #234
      01004246H   LINE      CODE     ---       #236
      01004259H   LINE      CODE     ---       #238
      01004260H   LINE      CODE     ---       #240
      01004263H   LINE      CODE     ---       #242
      0100427CH   LINE      CODE     ---       #246
      0100427EH   LINE      CODE     ---       #248
      01004298H   LINE      CODE     ---       #251
      01004298H   LINE      CODE     ---       #253
      0100429AH   LINE      CODE     ---       #255
      0100429CH   LINE      CODE     ---       #256
      0100429CH   LINE      CODE     ---       #257
      0100429CH   LINE      CODE     ---       #259
      0100429FH   LINE      CODE     ---       #261
      010042ABH   LINE      CODE     ---       #263
      010042ADH   LINE      CODE     ---       #264
      010042AFH   LINE      CODE     ---       #266
      010042AFH   LINE      CODE     ---       #268
      010042B1H   LINE      CODE     ---       #269
      010042B1H   LINE      CODE     ---       #270
      010042B8H   LINE      CODE     ---       #273
      010042BEH   LINE      CODE     ---       #275
      010042C1H   LINE      CODE     ---       #277
      010042D4H   LINE      CODE     ---       #279
      010042E3H   LINE      CODE     ---       #302
      01004312H   LINE      CODE     ---       #304
LX51 LINKER/LOCATER V4.66.41.0                                                        02/15/2019  15:28:07  PAGE 127


      01004312H   LINE      CODE     ---       #306
      0100431EH   LINE      CODE     ---       #307
      0100431EH   LINE      CODE     ---       #309
      01004350H   LINE      CODE     ---       #311
      01004350H   LINE      CODE     ---       #313
      01004350H   LINE      CODE     ---       #314
      0100435CH   LINE      CODE     ---       #315
      01004374H   LINE      CODE     ---       #316
      0100437DH   LINE      CODE     ---       #317
      0100437DH   LINE      CODE     ---       #319
      01004393H   LINE      CODE     ---       #322
      0100439CH   LINE      CODE     ---       #326
      010043AEH   LINE      CODE     ---       #327
      010043B5H   LINE      CODE     ---       #328
      010043B8H   LINE      CODE     ---       #329
      010043B8H   LINE      CODE     ---       #339
      010043BEH   LINE      CODE     ---       #340
      010043D4H   LINE      CODE     ---       #341
      010043DBH   LINE      CODE     ---       #342
      010043E2H   LINE      CODE     ---       #363
      0100440BH   LINE      CODE     ---       #365
      01004416H   LINE      CODE     ---       #368
      01004418H   LINE      CODE     ---       #370
      01004426H   LINE      CODE     ---       #373
      0100443CH   LINE      CODE     ---       #377
      0100444EH   LINE      CODE     ---       #378
      01004455H   LINE      CODE     ---       #379
      01004455H   LINE      CODE     ---       #380
      01004455H   LINE      CODE     ---       #381
      01004455H   LINE      CODE     ---       #382
      01004455H   LINE      CODE     ---       #383
      01004461H   LINE      CODE     ---       #384
      01004461H   LINE      CODE     ---       #385
      ---         BLOCKEND  ---      ---       LVL=0

      ---         MODULE    ---      ---       TOUCHPAD
      020006F5H   PUBLIC    XDATA    BYTE      touchPad_resetTimeCount
      0100762FH   PUBLIC    CODE     ---       _touchPad_resetOpreat
      010075DFH   PUBLIC    CODE     ---       touchPad_processThread
      000000D8H.2 SFRSYM    DATA     BIT       CCF2
      000000E0H.7 SFRSYM    DATA     BIT       ACC7
      00000093H   SFRSYM    DATA     BYTE      P0M1
      00000092H   SFRSYM    DATA     BYTE      P1M0
      00000096H   SFRSYM    DATA     BYTE      P2M0
      00000091H   SFRSYM    DATA     BYTE      P1M1
      00000080H   SFRSYM    DATA     BYTE      P0
      000000B2H   SFRSYM    DATA     BYTE      P3M0
      00000095H   SFRSYM    DATA     BYTE      P2M1
      00000090H   SFRSYM    DATA     BYTE      P1
      000000B4H   SFRSYM    DATA     BYTE      P4M0
      000000B1H   SFRSYM    DATA     BYTE      P3M1
      000000A0H   SFRSYM    DATA     BYTE      P2
      000000CAH   SFRSYM    DATA     BYTE      P5M0
      000000B3H   SFRSYM    DATA     BYTE      P4M1
      000000B0H   SFRSYM    DATA     BYTE      P3
      000000ABH   SFRSYM    DATA     BYTE      WKTCH
      000000B0H.4 SFRSYM    DATA     BIT       T0
      000000D0H.6 SFRSYM    DATA     BIT       AC
      000000CCH   SFRSYM    DATA     BYTE      P6M0
      000000C9H   SFRSYM    DATA     BYTE      P5M1
      000000C0H   SFRSYM    DATA     BYTE      P4
      000000B0H.5 SFRSYM    DATA     BIT       CLKOUT0
      000000B0H.5 SFRSYM    DATA     BIT       T1
      000000E2H   SFRSYM    DATA     BYTE      P7M0
      000000CBH   SFRSYM    DATA     BYTE      P6M1
LX51 LINKER/LOCATER V4.66.41.0                                                        02/15/2019  15:28:07  PAGE 128


      000000C8H   SFRSYM    DATA     BYTE      P5
      000000C6H   SFRSYM    DATA     BYTE      ISP_TRIG
      000000A8H.7 SFRSYM    DATA     BIT       EA
      000000B0H.4 SFRSYM    DATA     BIT       CLKOUT1
      000000A0H.4 SFRSYM    DATA     BIT       SPI_SS_2
      000000E8H   SFRSYM    DATA     BYTE      P6
      000000E1H   SFRSYM    DATA     BYTE      P7M1
      000000C8H.4 SFRSYM    DATA     BIT       SPI_SS_3
      00000090H.4 SFRSYM    DATA     BIT       SPI_MISO
      00000090H.3 SFRSYM    DATA     BIT       SPI_MOSI
      00000090H.1 SFRSYM    DATA     BIT       CCP0
      000000F8H   SFRSYM    DATA     BYTE      P7
      000000AAH   SFRSYM    DATA     BYTE      WKTCL
      00000090H   SFRSYM    DATA     BIT       CCP1
      000000CEH   SFRSYM    DATA     BYTE      SPCTL
      000000D8H.7 SFRSYM    DATA     BIT       CF
      000000B0H.7 SFRSYM    DATA     BIT       CCP2
      000000F9H   SFRSYM    DATA     BYTE      CH
      000000A2H   SFRSYM    DATA     BYTE      P_SW1
      000000BAH   SFRSYM    DATA     BYTE      P_SW2
      000000A8H.5 SFRSYM    DATA     BIT       EADC
      000000A0H.1 SFRSYM    DATA     BIT       SPI_SCLK_2
      000000A8H   SFRSYM    DATA     BYTE      IE
      000000C0H.3 SFRSYM    DATA     BIT       SPI_SCLK_3
      000000E9H   SFRSYM    DATA     BYTE      CL
      000000C5H   SFRSYM    DATA     BYTE      IAP_CMD
      000000FAH   SFRSYM    DATA     BYTE      CCAP0H
      000000FBH   SFRSYM    DATA     BYTE      CCAP1H
      000000FCH   SFRSYM    DATA     BYTE      CCAP2H
      000000BDH   SFRSYM    DATA     BYTE      ADC_RES
      000000B6H   SFRSYM    DATA     BYTE      IPH2
      000000D8H.6 SFRSYM    DATA     BIT       CR
      000000EAH   SFRSYM    DATA     BYTE      CCAP0L
      000000B0H.7 SFRSYM    DATA     BIT       RD
      000000EBH   SFRSYM    DATA     BYTE      CCAP1L
      000000DAH   SFRSYM    DATA     BYTE      CCAPM0
      000000ECH   SFRSYM    DATA     BYTE      CCAP2L
      000000DBH   SFRSYM    DATA     BYTE      CCAPM1
      000000A8H.4 SFRSYM    DATA     BIT       ES
      000000DCH   SFRSYM    DATA     BYTE      CCAPM2
      000000B8H.5 SFRSYM    DATA     BIT       PADC
      000000A0H.2 SFRSYM    DATA     BIT       SPI_MISO_2
      000000A0H.3 SFRSYM    DATA     BIT       SPI_MOSI_2
      000000B8H   SFRSYM    DATA     BYTE      IP
      000000C0H.1 SFRSYM    DATA     BIT       SPI_MISO_3
      000000C0H   SFRSYM    DATA     BIT       SPI_MOSI_3
      00000098H   SFRSYM    DATA     BIT       RI
      000000B0H.2 SFRSYM    DATA     BIT       INT0
      000000D0H.7 SFRSYM    DATA     BIT       CY
      00000098H.1 SFRSYM    DATA     BIT       TI
      000000B0H.3 SFRSYM    DATA     BIT       INT1
      00000097H   SFRSYM    DATA     BYTE      CLK_DIV
      000000C3H   SFRSYM    DATA     BYTE      IAP_ADDRH
      00000090H   SFRSYM    DATA     BIT       RXD2
      000000C5H   SFRSYM    DATA     BYTE      ISP_CMD
      000000B8H.4 SFRSYM    DATA     BIT       PS
      00000090H.1 SFRSYM    DATA     BIT       TXD2
      00000081H   SFRSYM    DATA     BYTE      SP
      000000D9H   SFRSYM    DATA     BYTE      CMOD
      000000D8H   SFRSYM    DATA     BYTE      CCON
      000000C4H   SFRSYM    DATA     BYTE      IAP_ADDRL
      000000B8H.7 SFRSYM    DATA     BIT       PPCA
      000000D0H.2 SFRSYM    DATA     BIT       OV
      000000B0H.6 SFRSYM    DATA     BIT       WR
      000000A8H.6 SFRSYM    DATA     BIT       ELVD
LX51 LINKER/LOCATER V4.66.41.0                                                        02/15/2019  15:28:07  PAGE 129


      00000080H   SFRSYM    DATA     BIT       P00
      00000090H   SFRSYM    DATA     BIT       P10
      00000080H.1 SFRSYM    DATA     BIT       P01
      000000BCH   SFRSYM    DATA     BYTE      ADC_CONTR
      00000099H   SFRSYM    DATA     BYTE      SBUF
      00000087H   SFRSYM    DATA     BYTE      PCON
      000000A0H   SFRSYM    DATA     BIT       P20
      00000090H.1 SFRSYM    DATA     BIT       P11
      00000080H.2 SFRSYM    DATA     BIT       P02
      000000C3H   SFRSYM    DATA     BYTE      ISP_ADDRH
      000000B0H   SFRSYM    DATA     BIT       P30
      000000A0H.1 SFRSYM    DATA     BIT       P21
      00000090H.2 SFRSYM    DATA     BIT       P12
      00000080H.3 SFRSYM    DATA     BIT       P03
      000000C0H   SFRSYM    DATA     BIT       P40
      000000B0H.1 SFRSYM    DATA     BIT       P31
      000000A0H.2 SFRSYM    DATA     BIT       P22
      00000090H.3 SFRSYM    DATA     BIT       P13
      00000080H.4 SFRSYM    DATA     BIT       P04
      00000098H   SFRSYM    DATA     BYTE      SCON
      0000008FH   SFRSYM    DATA     BYTE      WAKE_CLKO
      000000C8H   SFRSYM    DATA     BIT       P50
      000000C0H.1 SFRSYM    DATA     BIT       P41
      000000B0H.2 SFRSYM    DATA     BIT       P32
      000000A0H.3 SFRSYM    DATA     BIT       P23
      00000090H.4 SFRSYM    DATA     BIT       P14
      00000080H.5 SFRSYM    DATA     BIT       P05
      00000089H   SFRSYM    DATA     BYTE      TMOD
      00000088H   SFRSYM    DATA     BYTE      TCON
      000000C8H.1 SFRSYM    DATA     BIT       P51
      000000C0H.2 SFRSYM    DATA     BIT       P42
      000000B0H.3 SFRSYM    DATA     BIT       P33
      000000A0H.4 SFRSYM    DATA     BIT       P24
      00000090H.5 SFRSYM    DATA     BIT       P15
      00000080H.6 SFRSYM    DATA     BIT       P06
      000000C4H   SFRSYM    DATA     BYTE      ISP_ADDRL
      000000B8H.6 SFRSYM    DATA     BIT       PLVD
      000000C8H.2 SFRSYM    DATA     BIT       P52
      000000C0H.3 SFRSYM    DATA     BIT       P43
      000000B0H.4 SFRSYM    DATA     BIT       P34
      000000A0H.5 SFRSYM    DATA     BIT       P25
      00000090H.6 SFRSYM    DATA     BIT       P16
      00000080H.7 SFRSYM    DATA     BIT       P07
      000000C8H.3 SFRSYM    DATA     BIT       P53
      000000C0H.4 SFRSYM    DATA     BIT       P44
      000000B0H.5 SFRSYM    DATA     BIT       P35
      000000A0H.6 SFRSYM    DATA     BIT       P26
      00000090H.7 SFRSYM    DATA     BIT       P17
      000000C8H.4 SFRSYM    DATA     BIT       P54
      000000C0H.5 SFRSYM    DATA     BIT       P45
      000000B0H.6 SFRSYM    DATA     BIT       P36
      000000A0H.7 SFRSYM    DATA     BIT       P27
      000000C8H.5 SFRSYM    DATA     BIT       P55
      000000C0H.6 SFRSYM    DATA     BIT       P46
      000000B0H.7 SFRSYM    DATA     BIT       P37
      000000C8H.6 SFRSYM    DATA     BIT       P56
      000000C0H.7 SFRSYM    DATA     BIT       P47
      000000C8H.7 SFRSYM    DATA     BIT       P57
      00000088H.1 SFRSYM    DATA     BIT       IE0
      000000A1H   SFRSYM    DATA     BYTE      BUS_SPEED
      00000088H.3 SFRSYM    DATA     BIT       IE1
      000000AFH   SFRSYM    DATA     BYTE      IE2
      000000F0H   SFRSYM    DATA     BYTE      B
      0000008EH   SFRSYM    DATA     BYTE      AUXR
      000000C7H   SFRSYM    DATA     BYTE      IAP_CONTR
LX51 LINKER/LOCATER V4.66.41.0                                                        02/15/2019  15:28:07  PAGE 130


      000000E0H   SFRSYM    DATA     BYTE      ACC
      000000A8H.1 SFRSYM    DATA     BIT       ET0
      000000A8H.3 SFRSYM    DATA     BIT       ET1
      00000088H.5 SFRSYM    DATA     BIT       TF0
      00000088H.7 SFRSYM    DATA     BIT       TF1
      000000B5H   SFRSYM    DATA     BYTE      IP2
      0000008CH   SFRSYM    DATA     BYTE      RL_TH0
      00000098H.2 SFRSYM    DATA     BIT       RB8
      0000008DH   SFRSYM    DATA     BYTE      RL_TH1
      0000008CH   SFRSYM    DATA     BYTE      TH0
      000000A8H   SFRSYM    DATA     BIT       EX0
      00000088H   SFRSYM    DATA     BIT       IT0
      000000D6H   SFRSYM    DATA     BYTE      RL_T2H
      0000008DH   SFRSYM    DATA     BYTE      TH1
      000000A8H.2 SFRSYM    DATA     BIT       EX1
      00000098H.3 SFRSYM    DATA     BIT       TB8
      00000088H.2 SFRSYM    DATA     BIT       IT1
      000000D4H   SFRSYM    DATA     BYTE      RL_T3H
      000000D6H   SFRSYM    DATA     BYTE      TH2
      000000D6H   SFRSYM    DATA     BYTE      T2H
      000000D0H   SFRSYM    DATA     BIT       P
      000000D2H   SFRSYM    DATA     BYTE      RL_T4H
      000000D4H   SFRSYM    DATA     BYTE      TH3
      000000D4H   SFRSYM    DATA     BYTE      T3H
      0000008AH   SFRSYM    DATA     BYTE      RL_TL0
      00000098H.7 SFRSYM    DATA     BIT       SM0
      000000D2H   SFRSYM    DATA     BYTE      TH4
      000000D2H   SFRSYM    DATA     BYTE      T4H
      0000008BH   SFRSYM    DATA     BYTE      RL_TL1
      0000008AH   SFRSYM    DATA     BYTE      TL0
      00000098H.6 SFRSYM    DATA     BIT       SM1
      000000D7H   SFRSYM    DATA     BYTE      RL_T2L
      0000008BH   SFRSYM    DATA     BYTE      TL1
      00000098H.5 SFRSYM    DATA     BIT       SM2
      000000D5H   SFRSYM    DATA     BYTE      RL_T3L
      000000D7H   SFRSYM    DATA     BYTE      TL2
      000000D7H   SFRSYM    DATA     BYTE      T2L
      000000D3H   SFRSYM    DATA     BYTE      RL_T4L
      000000D5H   SFRSYM    DATA     BYTE      TL3
      000000D5H   SFRSYM    DATA     BYTE      T3L
      000000B8H.1 SFRSYM    DATA     BIT       PT0
      000000D3H   SFRSYM    DATA     BYTE      TL4
      000000D3H   SFRSYM    DATA     BYTE      T4L
      000000B8H.3 SFRSYM    DATA     BIT       PT1
      000000D0H.3 SFRSYM    DATA     BIT       RS0
      000000C7H   SFRSYM    DATA     BYTE      ISP_CONTR
      00000088H.4 SFRSYM    DATA     BIT       TR0
      000000D0H.4 SFRSYM    DATA     BIT       RS1
      000000C2H   SFRSYM    DATA     BYTE      IAP_DATA
      00000088H.6 SFRSYM    DATA     BIT       TR1
      000000B8H   SFRSYM    DATA     BIT       PX0
      000000C1H   SFRSYM    DATA     BYTE      WDT_CONTR
      000000B8H.2 SFRSYM    DATA     BIT       PX1
      000000F2H   SFRSYM    DATA     BYTE      PCA_PWM0
      000000F3H   SFRSYM    DATA     BYTE      PCA_PWM1
      000000F4H   SFRSYM    DATA     BYTE      PCA_PWM2
      0000009DH   SFRSYM    DATA     BYTE      P1ASF
      00000083H   SFRSYM    DATA     BYTE      DPH
      000000D1H   SFRSYM    DATA     BYTE      T4T3M
      000000BEH   SFRSYM    DATA     BYTE      ADC_RESL
      00000082H   SFRSYM    DATA     BYTE      DPL
      000000CDH   SFRSYM    DATA     BYTE      SPSTAT
      000000B7H   SFRSYM    DATA     BYTE      IPH
      0000009BH   SFRSYM    DATA     BYTE      S2BUF
      00000097H   SFRSYM    DATA     BYTE      PCON2
LX51 LINKER/LOCATER V4.66.41.0                                                        02/15/2019  15:28:07  PAGE 131


      000000ADH   SFRSYM    DATA     BYTE      S3BUF
      00000098H.4 SFRSYM    DATA     BIT       REN
      00000085H   SFRSYM    DATA     BYTE      S4BUF
      0000009AH   SFRSYM    DATA     BYTE      S2CON
      000000ACH   SFRSYM    DATA     BYTE      S3CON
      000000C2H   SFRSYM    DATA     BYTE      ISP_DATA
      00000084H   SFRSYM    DATA     BYTE      S4CON
      000000B9H   SFRSYM    DATA     BYTE      SADEN
      000000B0H   SFRSYM    DATA     BIT       RXD
      000000A9H   SFRSYM    DATA     BYTE      SADDR
      000000B0H.1 SFRSYM    DATA     BIT       TXD
      000000F0H   SFRSYM    DATA     BIT       B0
      000000F0H.1 SFRSYM    DATA     BIT       B1
      000000C6H   SFRSYM    DATA     BYTE      IAP_TRIG
      000000A2H   SFRSYM    DATA     BYTE      AUXR1
      000000F0H.2 SFRSYM    DATA     BIT       B2
      00000090H.2 SFRSYM    DATA     BIT       SPI_SS
      0000008FH   SFRSYM    DATA     BYTE      AUXR2
      000000F0H.3 SFRSYM    DATA     BIT       B3
      000000F0H.4 SFRSYM    DATA     BIT       B4
      000000D0H.5 SFRSYM    DATA     BIT       F0
      000000F0H.5 SFRSYM    DATA     BIT       B5
      000000D0H.1 SFRSYM    DATA     BIT       F1
      0000008FH   SFRSYM    DATA     BYTE      INT_CLKO
      000000F0H.6 SFRSYM    DATA     BIT       B6
      000000E0H   SFRSYM    DATA     BIT       ACC0
      000000F0H.7 SFRSYM    DATA     BIT       B7
      000000E0H.1 SFRSYM    DATA     BIT       ACC1
      000000E0H.2 SFRSYM    DATA     BIT       ACC2
      000000E0H.3 SFRSYM    DATA     BIT       ACC3
      000000D0H   SFRSYM    DATA     BYTE      PSW
      000000E0H.4 SFRSYM    DATA     BIT       ACC4
      00000090H.5 SFRSYM    DATA     BIT       SPI_SCLK
      000000D8H   SFRSYM    DATA     BIT       CCF0
      000000E0H.5 SFRSYM    DATA     BIT       ACC5
      000000D8H.1 SFRSYM    DATA     BIT       CCF1
      000000E0H.6 SFRSYM    DATA     BIT       ACC6
      000000CFH   SFRSYM    DATA     BYTE      SPDAT
      00000094H   SFRSYM    DATA     BYTE      P0M0

      010075DFH   BLOCK     CODE     ---       LVL=0
      010075DFH   LINE      CODE     ---       #10
      010075DFH   LINE      CODE     ---       #12
      010075EAH   LINE      CODE     ---       #13
      ---         BLOCKEND  ---      ---       LVL=0

      0100762FH   BLOCK     CODE     ---       LVL=0
      00000007H   SYMBOL    DATA     BYTE      holdTime
      0100762FH   LINE      CODE     ---       #15
      0100762FH   LINE      CODE     ---       #17
      01007634H   LINE      CODE     ---       #18
      ---         BLOCKEND  ---      ---       LVL=0

      ---         MODULE    ---      ---       DRIVER_I2C_HXD019D
      000000D8H.2 SFRSYM    DATA     BIT       CCF2
      000000E0H.7 SFRSYM    DATA     BIT       ACC7
      00000093H   SFRSYM    DATA     BYTE      P0M1
      00000092H   SFRSYM    DATA     BYTE      P1M0
      00000096H   SFRSYM    DATA     BYTE      P2M0
      00000091H   SFRSYM    DATA     BYTE      P1M1
      00000080H   SFRSYM    DATA     BYTE      P0
      000000B2H   SFRSYM    DATA     BYTE      P3M0
      00000095H   SFRSYM    DATA     BYTE      P2M1
      00000090H   SFRSYM    DATA     BYTE      P1
      000000B4H   SFRSYM    DATA     BYTE      P4M0
LX51 LINKER/LOCATER V4.66.41.0                                                        02/15/2019  15:28:07  PAGE 132


      000000B1H   SFRSYM    DATA     BYTE      P3M1
      000000A0H   SFRSYM    DATA     BYTE      P2
      000000CAH   SFRSYM    DATA     BYTE      P5M0
      000000B3H   SFRSYM    DATA     BYTE      P4M1
      000000B0H   SFRSYM    DATA     BYTE      P3
      000000ABH   SFRSYM    DATA     BYTE      WKTCH
      000000B0H.4 SFRSYM    DATA     BIT       T0
      000000D0H.6 SFRSYM    DATA     BIT       AC
      000000CCH   SFRSYM    DATA     BYTE      P6M0
      000000C9H   SFRSYM    DATA     BYTE      P5M1
      000000C0H   SFRSYM    DATA     BYTE      P4
      000000B0H.5 SFRSYM    DATA     BIT       CLKOUT0
      000000B0H.5 SFRSYM    DATA     BIT       T1
      000000E2H   SFRSYM    DATA     BYTE      P7M0
      000000CBH   SFRSYM    DATA     BYTE      P6M1
      000000C8H   SFRSYM    DATA     BYTE      P5
      000000C6H   SFRSYM    DATA     BYTE      ISP_TRIG
      000000A8H.7 SFRSYM    DATA     BIT       EA
      000000B0H.4 SFRSYM    DATA     BIT       CLKOUT1
      000000A0H.4 SFRSYM    DATA     BIT       SPI_SS_2
      000000E8H   SFRSYM    DATA     BYTE      P6
      000000E1H   SFRSYM    DATA     BYTE      P7M1
      000000C8H.4 SFRSYM    DATA     BIT       SPI_SS_3
      00000090H.4 SFRSYM    DATA     BIT       SPI_MISO
      00000090H.3 SFRSYM    DATA     BIT       SPI_MOSI
      00000090H.1 SFRSYM    DATA     BIT       CCP0
      000000F8H   SFRSYM    DATA     BYTE      P7
      000000AAH   SFRSYM    DATA     BYTE      WKTCL
      00000090H   SFRSYM    DATA     BIT       CCP1
      000000CEH   SFRSYM    DATA     BYTE      SPCTL
      000000D8H.7 SFRSYM    DATA     BIT       CF
      000000B0H.7 SFRSYM    DATA     BIT       CCP2
      000000F9H   SFRSYM    DATA     BYTE      CH
      000000A2H   SFRSYM    DATA     BYTE      P_SW1
      000000BAH   SFRSYM    DATA     BYTE      P_SW2
      000000A8H.5 SFRSYM    DATA     BIT       EADC
      000000A0H.1 SFRSYM    DATA     BIT       SPI_SCLK_2
      000000A8H   SFRSYM    DATA     BYTE      IE
      000000C0H.3 SFRSYM    DATA     BIT       SPI_SCLK_3
      000000E9H   SFRSYM    DATA     BYTE      CL
      000000C5H   SFRSYM    DATA     BYTE      IAP_CMD
      000000FAH   SFRSYM    DATA     BYTE      CCAP0H
      000000FBH   SFRSYM    DATA     BYTE      CCAP1H
      000000FCH   SFRSYM    DATA     BYTE      CCAP2H
      000000BDH   SFRSYM    DATA     BYTE      ADC_RES
      000000B6H   SFRSYM    DATA     BYTE      IPH2
      000000D8H.6 SFRSYM    DATA     BIT       CR
      000000EAH   SFRSYM    DATA     BYTE      CCAP0L
      000000B0H.7 SFRSYM    DATA     BIT       RD
      000000EBH   SFRSYM    DATA     BYTE      CCAP1L
      000000DAH   SFRSYM    DATA     BYTE      CCAPM0
      000000ECH   SFRSYM    DATA     BYTE      CCAP2L
      000000DBH   SFRSYM    DATA     BYTE      CCAPM1
      000000A8H.4 SFRSYM    DATA     BIT       ES
      000000DCH   SFRSYM    DATA     BYTE      CCAPM2
      000000B8H.5 SFRSYM    DATA     BIT       PADC
      000000A0H.2 SFRSYM    DATA     BIT       SPI_MISO_2
      000000A0H.3 SFRSYM    DATA     BIT       SPI_MOSI_2
      000000B8H   SFRSYM    DATA     BYTE      IP
      000000C0H.1 SFRSYM    DATA     BIT       SPI_MISO_3
      000000C0H   SFRSYM    DATA     BIT       SPI_MOSI_3
      00000098H   SFRSYM    DATA     BIT       RI
      000000B0H.2 SFRSYM    DATA     BIT       INT0
      000000D0H.7 SFRSYM    DATA     BIT       CY
      00000098H.1 SFRSYM    DATA     BIT       TI
LX51 LINKER/LOCATER V4.66.41.0                                                        02/15/2019  15:28:07  PAGE 133


      000000B0H.3 SFRSYM    DATA     BIT       INT1
      00000097H   SFRSYM    DATA     BYTE      CLK_DIV
      000000C3H   SFRSYM    DATA     BYTE      IAP_ADDRH
      00000090H   SFRSYM    DATA     BIT       RXD2
      000000C5H   SFRSYM    DATA     BYTE      ISP_CMD
      000000B8H.4 SFRSYM    DATA     BIT       PS
      00000090H.1 SFRSYM    DATA     BIT       TXD2
      00000081H   SFRSYM    DATA     BYTE      SP
      000000D9H   SFRSYM    DATA     BYTE      CMOD
      000000D8H   SFRSYM    DATA     BYTE      CCON
      000000C4H   SFRSYM    DATA     BYTE      IAP_ADDRL
      000000B8H.7 SFRSYM    DATA     BIT       PPCA
      000000D0H.2 SFRSYM    DATA     BIT       OV
      000000B0H.6 SFRSYM    DATA     BIT       WR
      000000A8H.6 SFRSYM    DATA     BIT       ELVD
      00000080H   SFRSYM    DATA     BIT       P00
      00000090H   SFRSYM    DATA     BIT       P10
      00000080H.1 SFRSYM    DATA     BIT       P01
      000000BCH   SFRSYM    DATA     BYTE      ADC_CONTR
      00000099H   SFRSYM    DATA     BYTE      SBUF
      00000087H   SFRSYM    DATA     BYTE      PCON
      000000A0H   SFRSYM    DATA     BIT       P20
      00000090H.1 SFRSYM    DATA     BIT       P11
      00000080H.2 SFRSYM    DATA     BIT       P02
      000000C3H   SFRSYM    DATA     BYTE      ISP_ADDRH
      000000B0H   SFRSYM    DATA     BIT       P30
      000000A0H.1 SFRSYM    DATA     BIT       P21
      00000090H.2 SFRSYM    DATA     BIT       P12
      00000080H.3 SFRSYM    DATA     BIT       P03
      000000C0H   SFRSYM    DATA     BIT       P40
      000000B0H.1 SFRSYM    DATA     BIT       P31
      000000A0H.2 SFRSYM    DATA     BIT       P22
      00000090H.3 SFRSYM    DATA     BIT       P13
      00000080H.4 SFRSYM    DATA     BIT       P04
      00000098H   SFRSYM    DATA     BYTE      SCON
      0000008FH   SFRSYM    DATA     BYTE      WAKE_CLKO
      000000C8H   SFRSYM    DATA     BIT       P50
      000000C0H.1 SFRSYM    DATA     BIT       P41
      000000B0H.2 SFRSYM    DATA     BIT       P32
      000000A0H.3 SFRSYM    DATA     BIT       P23
      00000090H.4 SFRSYM    DATA     BIT       P14
      00000080H.5 SFRSYM    DATA     BIT       P05
      00000089H   SFRSYM    DATA     BYTE      TMOD
      00000088H   SFRSYM    DATA     BYTE      TCON
      000000C8H.1 SFRSYM    DATA     BIT       P51
      000000C0H.2 SFRSYM    DATA     BIT       P42
      000000B0H.3 SFRSYM    DATA     BIT       P33
      000000A0H.4 SFRSYM    DATA     BIT       P24
      00000090H.5 SFRSYM    DATA     BIT       P15
      00000080H.6 SFRSYM    DATA     BIT       P06
      000000C4H   SFRSYM    DATA     BYTE      ISP_ADDRL
      000000B8H.6 SFRSYM    DATA     BIT       PLVD
      000000C8H.2 SFRSYM    DATA     BIT       P52
      000000C0H.3 SFRSYM    DATA     BIT       P43
      000000B0H.4 SFRSYM    DATA     BIT       P34
      000000A0H.5 SFRSYM    DATA     BIT       P25
      00000090H.6 SFRSYM    DATA     BIT       P16
      00000080H.7 SFRSYM    DATA     BIT       P07
      000000C8H.3 SFRSYM    DATA     BIT       P53
      000000C0H.4 SFRSYM    DATA     BIT       P44
      000000B0H.5 SFRSYM    DATA     BIT       P35
      000000A0H.6 SFRSYM    DATA     BIT       P26
      00000090H.7 SFRSYM    DATA     BIT       P17
      000000C8H.4 SFRSYM    DATA     BIT       P54
      000000C0H.5 SFRSYM    DATA     BIT       P45
LX51 LINKER/LOCATER V4.66.41.0                                                        02/15/2019  15:28:07  PAGE 134


      000000B0H.6 SFRSYM    DATA     BIT       P36
      000000A0H.7 SFRSYM    DATA     BIT       P27
      000000C8H.5 SFRSYM    DATA     BIT       P55
      000000C0H.6 SFRSYM    DATA     BIT       P46
      000000B0H.7 SFRSYM    DATA     BIT       P37
      000000C8H.6 SFRSYM    DATA     BIT       P56
      000000C0H.7 SFRSYM    DATA     BIT       P47
      000000C8H.7 SFRSYM    DATA     BIT       P57
      00000088H.1 SFRSYM    DATA     BIT       IE0
      000000A1H   SFRSYM    DATA     BYTE      BUS_SPEED
      00000088H.3 SFRSYM    DATA     BIT       IE1
      000000AFH   SFRSYM    DATA     BYTE      IE2
      000000F0H   SFRSYM    DATA     BYTE      B
      0000008EH   SFRSYM    DATA     BYTE      AUXR
      000000C7H   SFRSYM    DATA     BYTE      IAP_CONTR
      000000E0H   SFRSYM    DATA     BYTE      ACC
      000000A8H.1 SFRSYM    DATA     BIT       ET0
      000000A8H.3 SFRSYM    DATA     BIT       ET1
      00000088H.5 SFRSYM    DATA     BIT       TF0
      00000088H.7 SFRSYM    DATA     BIT       TF1
      000000B5H   SFRSYM    DATA     BYTE      IP2
      0000008CH   SFRSYM    DATA     BYTE      RL_TH0
      00000098H.2 SFRSYM    DATA     BIT       RB8
      0000008DH   SFRSYM    DATA     BYTE      RL_TH1
      0000008CH   SFRSYM    DATA     BYTE      TH0
      000000A8H   SFRSYM    DATA     BIT       EX0
      00000088H   SFRSYM    DATA     BIT       IT0
      000000D6H   SFRSYM    DATA     BYTE      RL_T2H
      0000008DH   SFRSYM    DATA     BYTE      TH1
      000000A8H.2 SFRSYM    DATA     BIT       EX1
      00000098H.3 SFRSYM    DATA     BIT       TB8
      00000088H.2 SFRSYM    DATA     BIT       IT1
      000000D4H   SFRSYM    DATA     BYTE      RL_T3H
      000000D6H   SFRSYM    DATA     BYTE      TH2
      000000D6H   SFRSYM    DATA     BYTE      T2H
      000000D0H   SFRSYM    DATA     BIT       P
      000000D2H   SFRSYM    DATA     BYTE      RL_T4H
      000000D4H   SFRSYM    DATA     BYTE      TH3
      000000D4H   SFRSYM    DATA     BYTE      T3H
      0000008AH   SFRSYM    DATA     BYTE      RL_TL0
      00000098H.7 SFRSYM    DATA     BIT       SM0
      000000D2H   SFRSYM    DATA     BYTE      TH4
      000000D2H   SFRSYM    DATA     BYTE      T4H
      0000008BH   SFRSYM    DATA     BYTE      RL_TL1
      0000008AH   SFRSYM    DATA     BYTE      TL0
      00000098H.6 SFRSYM    DATA     BIT       SM1
      000000D7H   SFRSYM    DATA     BYTE      RL_T2L
      0000008BH   SFRSYM    DATA     BYTE      TL1
      00000098H.5 SFRSYM    DATA     BIT       SM2
      000000D5H   SFRSYM    DATA     BYTE      RL_T3L
      000000D7H   SFRSYM    DATA     BYTE      TL2
      000000D7H   SFRSYM    DATA     BYTE      T2L
      000000D3H   SFRSYM    DATA     BYTE      RL_T4L
      000000D5H   SFRSYM    DATA     BYTE      TL3
      000000D5H   SFRSYM    DATA     BYTE      T3L
      000000B8H.1 SFRSYM    DATA     BIT       PT0
      000000D3H   SFRSYM    DATA     BYTE      TL4
      000000D3H   SFRSYM    DATA     BYTE      T4L
      000000B8H.3 SFRSYM    DATA     BIT       PT1
      000000D0H.3 SFRSYM    DATA     BIT       RS0
      000000C7H   SFRSYM    DATA     BYTE      ISP_CONTR
      00000088H.4 SFRSYM    DATA     BIT       TR0
      000000D0H.4 SFRSYM    DATA     BIT       RS1
      000000C2H   SFRSYM    DATA     BYTE      IAP_DATA
      00000088H.6 SFRSYM    DATA     BIT       TR1
LX51 LINKER/LOCATER V4.66.41.0                                                        02/15/2019  15:28:07  PAGE 135


      000000B8H   SFRSYM    DATA     BIT       PX0
      000000C1H   SFRSYM    DATA     BYTE      WDT_CONTR
      000000B8H.2 SFRSYM    DATA     BIT       PX1
      000000F2H   SFRSYM    DATA     BYTE      PCA_PWM0
      000000F3H   SFRSYM    DATA     BYTE      PCA_PWM1
      000000F4H   SFRSYM    DATA     BYTE      PCA_PWM2
      0000009DH   SFRSYM    DATA     BYTE      P1ASF
      00000083H   SFRSYM    DATA     BYTE      DPH
      000000D1H   SFRSYM    DATA     BYTE      T4T3M
      000000BEH   SFRSYM    DATA     BYTE      ADC_RESL
      00000082H   SFRSYM    DATA     BYTE      DPL
      000000CDH   SFRSYM    DATA     BYTE      SPSTAT
      000000B7H   SFRSYM    DATA     BYTE      IPH
      0000009BH   SFRSYM    DATA     BYTE      S2BUF
      00000097H   SFRSYM    DATA     BYTE      PCON2
      000000ADH   SFRSYM    DATA     BYTE      S3BUF
      00000098H.4 SFRSYM    DATA     BIT       REN
      00000085H   SFRSYM    DATA     BYTE      S4BUF
      0000009AH   SFRSYM    DATA     BYTE      S2CON
      000000ACH   SFRSYM    DATA     BYTE      S3CON
      000000C2H   SFRSYM    DATA     BYTE      ISP_DATA
      00000084H   SFRSYM    DATA     BYTE      S4CON
      000000B9H   SFRSYM    DATA     BYTE      SADEN
      000000B0H   SFRSYM    DATA     BIT       RXD
      000000A9H   SFRSYM    DATA     BYTE      SADDR
      000000B0H.1 SFRSYM    DATA     BIT       TXD
      000000F0H   SFRSYM    DATA     BIT       B0
      000000F0H.1 SFRSYM    DATA     BIT       B1
      000000C6H   SFRSYM    DATA     BYTE      IAP_TRIG
      000000A2H   SFRSYM    DATA     BYTE      AUXR1
      000000F0H.2 SFRSYM    DATA     BIT       B2
      00000090H.2 SFRSYM    DATA     BIT       SPI_SS
      0000008FH   SFRSYM    DATA     BYTE      AUXR2
      000000F0H.3 SFRSYM    DATA     BIT       B3
      000000F0H.4 SFRSYM    DATA     BIT       B4
      000000D0H.5 SFRSYM    DATA     BIT       F0
      000000F0H.5 SFRSYM    DATA     BIT       B5
      000000D0H.1 SFRSYM    DATA     BIT       F1
      0000008FH   SFRSYM    DATA     BYTE      INT_CLKO
      000000F0H.6 SFRSYM    DATA     BIT       B6
      000000E0H   SFRSYM    DATA     BIT       ACC0
      000000F0H.7 SFRSYM    DATA     BIT       B7
      000000E0H.1 SFRSYM    DATA     BIT       ACC1
      000000E0H.2 SFRSYM    DATA     BIT       ACC2
      000000E0H.3 SFRSYM    DATA     BIT       ACC3
      000000D0H   SFRSYM    DATA     BYTE      PSW
      000000E0H.4 SFRSYM    DATA     BIT       ACC4
      00000090H.5 SFRSYM    DATA     BIT       SPI_SCLK
      000000D8H   SFRSYM    DATA     BIT       CCF0
      000000E0H.5 SFRSYM    DATA     BIT       ACC5
      000000D8H.1 SFRSYM    DATA     BIT       CCF1
      000000E0H.6 SFRSYM    DATA     BIT       ACC6
      000000CFH   SFRSYM    DATA     BYTE      SPDAT
      00000094H   SFRSYM    DATA     BYTE      P0M0

      ---         MODULE    ---      ---       USART
      020005E3H   PUBLIC    XDATA    ---       TX1_Buffer
      0200054AH   PUBLIC    XDATA    ---       RX1_Buffer
      00000077H   PUBLIC    DATA     ---       COM1
      010072EEH   PUBLIC    CODE     ---       _uart1_datsSend
      01007158H   PUBLIC    CODE     ---       _PrintString1_logOut
      0100754BH   PUBLIC    CODE     ---       _PrintString1
      01007339H   PUBLIC    CODE     ---       _TX1_write2buff
      000000D8H.2 SFRSYM    DATA     BIT       CCF2
      000000E0H.7 SFRSYM    DATA     BIT       ACC7
LX51 LINKER/LOCATER V4.66.41.0                                                        02/15/2019  15:28:07  PAGE 136


      00000093H   SFRSYM    DATA     BYTE      P0M1
      00000092H   SFRSYM    DATA     BYTE      P1M0
      00000096H   SFRSYM    DATA     BYTE      P2M0
      00000091H   SFRSYM    DATA     BYTE      P1M1
      00000080H   SFRSYM    DATA     BYTE      P0
      000000B2H   SFRSYM    DATA     BYTE      P3M0
      00000095H   SFRSYM    DATA     BYTE      P2M1
      00000090H   SFRSYM    DATA     BYTE      P1
      000000B4H   SFRSYM    DATA     BYTE      P4M0
      000000B1H   SFRSYM    DATA     BYTE      P3M1
      000000A0H   SFRSYM    DATA     BYTE      P2
      000000CAH   SFRSYM    DATA     BYTE      P5M0
      000000B3H   SFRSYM    DATA     BYTE      P4M1
      000000B0H   SFRSYM    DATA     BYTE      P3
      000000ABH   SFRSYM    DATA     BYTE      WKTCH
      000000B0H.4 SFRSYM    DATA     BIT       T0
      000000D0H.6 SFRSYM    DATA     BIT       AC
      000000CCH   SFRSYM    DATA     BYTE      P6M0
      000000C9H   SFRSYM    DATA     BYTE      P5M1
      000000C0H   SFRSYM    DATA     BYTE      P4
      000000B0H.5 SFRSYM    DATA     BIT       CLKOUT0
      000000B0H.5 SFRSYM    DATA     BIT       T1
      000000E2H   SFRSYM    DATA     BYTE      P7M0
      000000CBH   SFRSYM    DATA     BYTE      P6M1
      000000C8H   SFRSYM    DATA     BYTE      P5
      000000C6H   SFRSYM    DATA     BYTE      ISP_TRIG
      000000A8H.7 SFRSYM    DATA     BIT       EA
      000000B0H.4 SFRSYM    DATA     BIT       CLKOUT1
      000000A0H.4 SFRSYM    DATA     BIT       SPI_SS_2
      000000E8H   SFRSYM    DATA     BYTE      P6
      000000E1H   SFRSYM    DATA     BYTE      P7M1
      000000C8H.4 SFRSYM    DATA     BIT       SPI_SS_3
      00000090H.4 SFRSYM    DATA     BIT       SPI_MISO
      00000090H.3 SFRSYM    DATA     BIT       SPI_MOSI
      00000090H.1 SFRSYM    DATA     BIT       CCP0
      000000F8H   SFRSYM    DATA     BYTE      P7
      000000AAH   SFRSYM    DATA     BYTE      WKTCL
      00000090H   SFRSYM    DATA     BIT       CCP1
      000000CEH   SFRSYM    DATA     BYTE      SPCTL
      000000D8H.7 SFRSYM    DATA     BIT       CF
      000000B0H.7 SFRSYM    DATA     BIT       CCP2
      000000F9H   SFRSYM    DATA     BYTE      CH
      000000A2H   SFRSYM    DATA     BYTE      P_SW1
      000000BAH   SFRSYM    DATA     BYTE      P_SW2
      000000A8H.5 SFRSYM    DATA     BIT       EADC
      000000A0H.1 SFRSYM    DATA     BIT       SPI_SCLK_2
      000000A8H   SFRSYM    DATA     BYTE      IE
      000000C0H.3 SFRSYM    DATA     BIT       SPI_SCLK_3
      000000E9H   SFRSYM    DATA     BYTE      CL
      000000C5H   SFRSYM    DATA     BYTE      IAP_CMD
      000000FAH   SFRSYM    DATA     BYTE      CCAP0H
      000000FBH   SFRSYM    DATA     BYTE      CCAP1H
      000000FCH   SFRSYM    DATA     BYTE      CCAP2H
      000000BDH   SFRSYM    DATA     BYTE      ADC_RES
      000000B6H   SFRSYM    DATA     BYTE      IPH2
      000000D8H.6 SFRSYM    DATA     BIT       CR
      000000EAH   SFRSYM    DATA     BYTE      CCAP0L
      000000B0H.7 SFRSYM    DATA     BIT       RD
      000000EBH   SFRSYM    DATA     BYTE      CCAP1L
      000000DAH   SFRSYM    DATA     BYTE      CCAPM0
      000000ECH   SFRSYM    DATA     BYTE      CCAP2L
      000000DBH   SFRSYM    DATA     BYTE      CCAPM1
      000000A8H.4 SFRSYM    DATA     BIT       ES
      000000DCH   SFRSYM    DATA     BYTE      CCAPM2
      000000B8H.5 SFRSYM    DATA     BIT       PADC
LX51 LINKER/LOCATER V4.66.41.0                                                        02/15/2019  15:28:07  PAGE 137


      000000A0H.2 SFRSYM    DATA     BIT       SPI_MISO_2
      000000A0H.3 SFRSYM    DATA     BIT       SPI_MOSI_2
      000000B8H   SFRSYM    DATA     BYTE      IP
      000000C0H.1 SFRSYM    DATA     BIT       SPI_MISO_3
      000000C0H   SFRSYM    DATA     BIT       SPI_MOSI_3
      00000098H   SFRSYM    DATA     BIT       RI
      000000B0H.2 SFRSYM    DATA     BIT       INT0
      000000D0H.7 SFRSYM    DATA     BIT       CY
      00000098H.1 SFRSYM    DATA     BIT       TI
      000000B0H.3 SFRSYM    DATA     BIT       INT1
      00000097H   SFRSYM    DATA     BYTE      CLK_DIV
      000000C3H   SFRSYM    DATA     BYTE      IAP_ADDRH
      00000090H   SFRSYM    DATA     BIT       RXD2
      000000C5H   SFRSYM    DATA     BYTE      ISP_CMD
      000000B8H.4 SFRSYM    DATA     BIT       PS
      00000090H.1 SFRSYM    DATA     BIT       TXD2
      00000081H   SFRSYM    DATA     BYTE      SP
      000000D9H   SFRSYM    DATA     BYTE      CMOD
      000000D8H   SFRSYM    DATA     BYTE      CCON
      000000C4H   SFRSYM    DATA     BYTE      IAP_ADDRL
      000000B8H.7 SFRSYM    DATA     BIT       PPCA
      000000D0H.2 SFRSYM    DATA     BIT       OV
      000000B0H.6 SFRSYM    DATA     BIT       WR
      000000A8H.6 SFRSYM    DATA     BIT       ELVD
      00000080H   SFRSYM    DATA     BIT       P00
      00000090H   SFRSYM    DATA     BIT       P10
      00000080H.1 SFRSYM    DATA     BIT       P01
      000000BCH   SFRSYM    DATA     BYTE      ADC_CONTR
      00000099H   SFRSYM    DATA     BYTE      SBUF
      00000087H   SFRSYM    DATA     BYTE      PCON
      000000A0H   SFRSYM    DATA     BIT       P20
      00000090H.1 SFRSYM    DATA     BIT       P11
      00000080H.2 SFRSYM    DATA     BIT       P02
      000000C3H   SFRSYM    DATA     BYTE      ISP_ADDRH
      000000B0H   SFRSYM    DATA     BIT       P30
      000000A0H.1 SFRSYM    DATA     BIT       P21
      00000090H.2 SFRSYM    DATA     BIT       P12
      00000080H.3 SFRSYM    DATA     BIT       P03
      000000C0H   SFRSYM    DATA     BIT       P40
      000000B0H.1 SFRSYM    DATA     BIT       P31
      000000A0H.2 SFRSYM    DATA     BIT       P22
      00000090H.3 SFRSYM    DATA     BIT       P13
      00000080H.4 SFRSYM    DATA     BIT       P04
      00000098H   SFRSYM    DATA     BYTE      SCON
      0000008FH   SFRSYM    DATA     BYTE      WAKE_CLKO
      000000C8H   SFRSYM    DATA     BIT       P50
      000000C0H.1 SFRSYM    DATA     BIT       P41
      000000B0H.2 SFRSYM    DATA     BIT       P32
      000000A0H.3 SFRSYM    DATA     BIT       P23
      00000090H.4 SFRSYM    DATA     BIT       P14
      00000080H.5 SFRSYM    DATA     BIT       P05
      00000089H   SFRSYM    DATA     BYTE      TMOD
      00000088H   SFRSYM    DATA     BYTE      TCON
      000000C8H.1 SFRSYM    DATA     BIT       P51
      000000C0H.2 SFRSYM    DATA     BIT       P42
      000000B0H.3 SFRSYM    DATA     BIT       P33
      000000A0H.4 SFRSYM    DATA     BIT       P24
      00000090H.5 SFRSYM    DATA     BIT       P15
      00000080H.6 SFRSYM    DATA     BIT       P06
      000000C4H   SFRSYM    DATA     BYTE      ISP_ADDRL
      000000B8H.6 SFRSYM    DATA     BIT       PLVD
      000000C8H.2 SFRSYM    DATA     BIT       P52
      000000C0H.3 SFRSYM    DATA     BIT       P43
      000000B0H.4 SFRSYM    DATA     BIT       P34
      000000A0H.5 SFRSYM    DATA     BIT       P25
LX51 LINKER/LOCATER V4.66.41.0                                                        02/15/2019  15:28:07  PAGE 138


      00000090H.6 SFRSYM    DATA     BIT       P16
      00000080H.7 SFRSYM    DATA     BIT       P07
      000000C8H.3 SFRSYM    DATA     BIT       P53
      000000C0H.4 SFRSYM    DATA     BIT       P44
      000000B0H.5 SFRSYM    DATA     BIT       P35
      000000A0H.6 SFRSYM    DATA     BIT       P26
      00000090H.7 SFRSYM    DATA     BIT       P17
      000000C8H.4 SFRSYM    DATA     BIT       P54
      000000C0H.5 SFRSYM    DATA     BIT       P45
      000000B0H.6 SFRSYM    DATA     BIT       P36
      000000A0H.7 SFRSYM    DATA     BIT       P27
      000000C8H.5 SFRSYM    DATA     BIT       P55
      000000C0H.6 SFRSYM    DATA     BIT       P46
      000000B0H.7 SFRSYM    DATA     BIT       P37
      000000C8H.6 SFRSYM    DATA     BIT       P56
      000000C0H.7 SFRSYM    DATA     BIT       P47
      000000C8H.7 SFRSYM    DATA     BIT       P57
      00000088H.1 SFRSYM    DATA     BIT       IE0
      000000A1H   SFRSYM    DATA     BYTE      BUS_SPEED
      00000088H.3 SFRSYM    DATA     BIT       IE1
      000000AFH   SFRSYM    DATA     BYTE      IE2
      000000F0H   SFRSYM    DATA     BYTE      B
      0000008EH   SFRSYM    DATA     BYTE      AUXR
      000000C7H   SFRSYM    DATA     BYTE      IAP_CONTR
      000000E0H   SFRSYM    DATA     BYTE      ACC
      000000A8H.1 SFRSYM    DATA     BIT       ET0
      000000A8H.3 SFRSYM    DATA     BIT       ET1
      00000088H.5 SFRSYM    DATA     BIT       TF0
      00000088H.7 SFRSYM    DATA     BIT       TF1
      000000B5H   SFRSYM    DATA     BYTE      IP2
      0000008CH   SFRSYM    DATA     BYTE      RL_TH0
      00000098H.2 SFRSYM    DATA     BIT       RB8
      0000008DH   SFRSYM    DATA     BYTE      RL_TH1
      0000008CH   SFRSYM    DATA     BYTE      TH0
      000000A8H   SFRSYM    DATA     BIT       EX0
      00000088H   SFRSYM    DATA     BIT       IT0
      000000D6H   SFRSYM    DATA     BYTE      RL_T2H
      0000008DH   SFRSYM    DATA     BYTE      TH1
      000000A8H.2 SFRSYM    DATA     BIT       EX1
      00000098H.3 SFRSYM    DATA     BIT       TB8
      00000088H.2 SFRSYM    DATA     BIT       IT1
      000000D4H   SFRSYM    DATA     BYTE      RL_T3H
      000000D6H   SFRSYM    DATA     BYTE      TH2
      000000D6H   SFRSYM    DATA     BYTE      T2H
      000000D0H   SFRSYM    DATA     BIT       P
      000000D2H   SFRSYM    DATA     BYTE      RL_T4H
      000000D4H   SFRSYM    DATA     BYTE      TH3
      000000D4H   SFRSYM    DATA     BYTE      T3H
      0000008AH   SFRSYM    DATA     BYTE      RL_TL0
      00000098H.7 SFRSYM    DATA     BIT       SM0
      000000D2H   SFRSYM    DATA     BYTE      TH4
      000000D2H   SFRSYM    DATA     BYTE      T4H
      0000008BH   SFRSYM    DATA     BYTE      RL_TL1
      0000008AH   SFRSYM    DATA     BYTE      TL0
      00000098H.6 SFRSYM    DATA     BIT       SM1
      000000D7H   SFRSYM    DATA     BYTE      RL_T2L
      0000008BH   SFRSYM    DATA     BYTE      TL1
      00000098H.5 SFRSYM    DATA     BIT       SM2
      000000D5H   SFRSYM    DATA     BYTE      RL_T3L
      000000D7H   SFRSYM    DATA     BYTE      TL2
      000000D7H   SFRSYM    DATA     BYTE      T2L
      000000D3H   SFRSYM    DATA     BYTE      RL_T4L
      000000D5H   SFRSYM    DATA     BYTE      TL3
      000000D5H   SFRSYM    DATA     BYTE      T3L
      000000B8H.1 SFRSYM    DATA     BIT       PT0
LX51 LINKER/LOCATER V4.66.41.0                                                        02/15/2019  15:28:07  PAGE 139


      000000D3H   SFRSYM    DATA     BYTE      TL4
      000000D3H   SFRSYM    DATA     BYTE      T4L
      000000B8H.3 SFRSYM    DATA     BIT       PT1
      000000D0H.3 SFRSYM    DATA     BIT       RS0
      000000C7H   SFRSYM    DATA     BYTE      ISP_CONTR
      00000088H.4 SFRSYM    DATA     BIT       TR0
      000000D0H.4 SFRSYM    DATA     BIT       RS1
      000000C2H   SFRSYM    DATA     BYTE      IAP_DATA
      00000088H.6 SFRSYM    DATA     BIT       TR1
      000000B8H   SFRSYM    DATA     BIT       PX0
      000000C1H   SFRSYM    DATA     BYTE      WDT_CONTR
      000000B8H.2 SFRSYM    DATA     BIT       PX1
      000000F2H   SFRSYM    DATA     BYTE      PCA_PWM0
      000000F3H   SFRSYM    DATA     BYTE      PCA_PWM1
      000000F4H   SFRSYM    DATA     BYTE      PCA_PWM2
      0000009DH   SFRSYM    DATA     BYTE      P1ASF
      00000083H   SFRSYM    DATA     BYTE      DPH
      000000D1H   SFRSYM    DATA     BYTE      T4T3M
      000000BEH   SFRSYM    DATA     BYTE      ADC_RESL
      00000082H   SFRSYM    DATA     BYTE      DPL
      000000CDH   SFRSYM    DATA     BYTE      SPSTAT
      000000B7H   SFRSYM    DATA     BYTE      IPH
      0000009BH   SFRSYM    DATA     BYTE      S2BUF
      00000097H   SFRSYM    DATA     BYTE      PCON2
      000000ADH   SFRSYM    DATA     BYTE      S3BUF
      00000098H.4 SFRSYM    DATA     BIT       REN
      00000085H   SFRSYM    DATA     BYTE      S4BUF
      0000009AH   SFRSYM    DATA     BYTE      S2CON
      000000ACH   SFRSYM    DATA     BYTE      S3CON
      000000C2H   SFRSYM    DATA     BYTE      ISP_DATA
      00000084H   SFRSYM    DATA     BYTE      S4CON
      000000B9H   SFRSYM    DATA     BYTE      SADEN
      000000B0H   SFRSYM    DATA     BIT       RXD
      000000A9H   SFRSYM    DATA     BYTE      SADDR
      000000B0H.1 SFRSYM    DATA     BIT       TXD
      000000F0H   SFRSYM    DATA     BIT       B0
      000000F0H.1 SFRSYM    DATA     BIT       B1
      000000C6H   SFRSYM    DATA     BYTE      IAP_TRIG
      000000A2H   SFRSYM    DATA     BYTE      AUXR1
      000000F0H.2 SFRSYM    DATA     BIT       B2
      00000090H.2 SFRSYM    DATA     BIT       SPI_SS
      0000008FH   SFRSYM    DATA     BYTE      AUXR2
      000000F0H.3 SFRSYM    DATA     BIT       B3
      000000F0H.4 SFRSYM    DATA     BIT       B4
      000000D0H.5 SFRSYM    DATA     BIT       F0
      000000F0H.5 SFRSYM    DATA     BIT       B5
      000000D0H.1 SFRSYM    DATA     BIT       F1
      0000008FH   SFRSYM    DATA     BYTE      INT_CLKO
      000000F0H.6 SFRSYM    DATA     BIT       B6
      000000E0H   SFRSYM    DATA     BIT       ACC0
      000000F0H.7 SFRSYM    DATA     BIT       B7
      000000E0H.1 SFRSYM    DATA     BIT       ACC1
      000000E0H.2 SFRSYM    DATA     BIT       ACC2
      000000E0H.3 SFRSYM    DATA     BIT       ACC3
      000000D0H   SFRSYM    DATA     BYTE      PSW
      000000E0H.4 SFRSYM    DATA     BIT       ACC4
      00000090H.5 SFRSYM    DATA     BIT       SPI_SCLK
      000000D8H   SFRSYM    DATA     BIT       CCF0
      000000E0H.5 SFRSYM    DATA     BIT       ACC5
      000000D8H.1 SFRSYM    DATA     BIT       CCF1
      000000E0H.6 SFRSYM    DATA     BIT       ACC6
      000000CFH   SFRSYM    DATA     BYTE      SPDAT
      00000094H   SFRSYM    DATA     BYTE      P0M0

      01007339H   BLOCK     CODE     ---       LVL=0
LX51 LINKER/LOCATER V4.66.41.0                                                        02/15/2019  15:28:07  PAGE 140


      00000007H   SYMBOL    DATA     BYTE      dat
      01007339H   LINE      CODE     ---       #130
      01007339H   LINE      CODE     ---       #131
      01007339H   LINE      CODE     ---       #132
      01007346H   LINE      CODE     ---       #133
      01007352H   LINE      CODE     ---       #135
      01007356H   LINE      CODE     ---       #136
      01007356H   LINE      CODE     ---       #137
      01007359H   LINE      CODE     ---       #138
      0100735BH   LINE      CODE     ---       #139
      0100735BH   LINE      CODE     ---       #140
      ---         BLOCKEND  ---      ---       LVL=0

      0100754BH   BLOCK     CODE     ---       LVL=0
      00000001H   SYMBOL    DATA     ---       puts
      0100754BH   LINE      CODE     ---       #154
      0100754BH   LINE      CODE     ---       #155
      0100754BH   LINE      CODE     ---       #156
      0100755DH   LINE      CODE     ---       #157
      ---         BLOCKEND  ---      ---       LVL=0

      01007158H   BLOCK     CODE     ---       LVL=0
      00000038H   SYMBOL    DATA     ---       puts
      01007158H   LINE      CODE     ---       #159
      0100715EH   LINE      CODE     ---       #164
      01007161H   LINE      CODE     ---       #165
      01007169H   LINE      CODE     ---       #166
      0100716CH   LINE      CODE     ---       #167
      01007175H   LINE      CODE     ---       #168
      0100717CH   LINE      CODE     ---       #169
      0100717FH   LINE      CODE     ---       #170
      01007186H   LINE      CODE     ---       #172
      ---         BLOCKEND  ---      ---       LVL=0

      010072EEH   BLOCK     CODE     ---       LVL=0
      0000004AH   SYMBOL    DATA     ---       dats
      00000005H   SYMBOL    DATA     BYTE      datsLen
      010072F4H   BLOCK     CODE     NEAR LAB  LVL=1
      00000006H   SYMBOL    DATA     BYTE      loop
      ---         BLOCKEND  ---      ---       LVL=1
      010072EEH   LINE      CODE     ---       #179
      010072F4H   LINE      CODE     ---       #181
      010072F6H   LINE      CODE     ---       #183
      010072FBH   LINE      CODE     ---       #185
      01007310H   LINE      CODE     ---       #186
      01007313H   LINE      CODE     ---       #187
      ---         BLOCKEND  ---      ---       LVL=0

      ---         MODULE    ---      ---       DELAY
      010074EAH   PUBLIC    CODE     ---       _delayMs
      010075B3H   PUBLIC    CODE     ---       _delay_ms
      000000D8H.2 SFRSYM    DATA     BIT       CCF2
      000000E0H.7 SFRSYM    DATA     BIT       ACC7
      00000093H   SFRSYM    DATA     BYTE      P0M1
      00000092H   SFRSYM    DATA     BYTE      P1M0
      00000096H   SFRSYM    DATA     BYTE      P2M0
      00000091H   SFRSYM    DATA     BYTE      P1M1
      00000080H   SFRSYM    DATA     BYTE      P0
      000000B2H   SFRSYM    DATA     BYTE      P3M0
      00000095H   SFRSYM    DATA     BYTE      P2M1
      00000090H   SFRSYM    DATA     BYTE      P1
      000000B4H   SFRSYM    DATA     BYTE      P4M0
      000000B1H   SFRSYM    DATA     BYTE      P3M1
      000000A0H   SFRSYM    DATA     BYTE      P2
      000000CAH   SFRSYM    DATA     BYTE      P5M0
LX51 LINKER/LOCATER V4.66.41.0                                                        02/15/2019  15:28:07  PAGE 141


      000000B3H   SFRSYM    DATA     BYTE      P4M1
      000000B0H   SFRSYM    DATA     BYTE      P3
      000000ABH   SFRSYM    DATA     BYTE      WKTCH
      000000B0H.4 SFRSYM    DATA     BIT       T0
      000000D0H.6 SFRSYM    DATA     BIT       AC
      000000CCH   SFRSYM    DATA     BYTE      P6M0
      000000C9H   SFRSYM    DATA     BYTE      P5M1
      000000C0H   SFRSYM    DATA     BYTE      P4
      000000B0H.5 SFRSYM    DATA     BIT       CLKOUT0
      000000B0H.5 SFRSYM    DATA     BIT       T1
      000000E2H   SFRSYM    DATA     BYTE      P7M0
      000000CBH   SFRSYM    DATA     BYTE      P6M1
      000000C8H   SFRSYM    DATA     BYTE      P5
      000000C6H   SFRSYM    DATA     BYTE      ISP_TRIG
      000000A8H.7 SFRSYM    DATA     BIT       EA
      000000B0H.4 SFRSYM    DATA     BIT       CLKOUT1
      000000A0H.4 SFRSYM    DATA     BIT       SPI_SS_2
      000000E8H   SFRSYM    DATA     BYTE      P6
      000000E1H   SFRSYM    DATA     BYTE      P7M1
      000000C8H.4 SFRSYM    DATA     BIT       SPI_SS_3
      00000090H.4 SFRSYM    DATA     BIT       SPI_MISO
      00000090H.3 SFRSYM    DATA     BIT       SPI_MOSI
      00000090H.1 SFRSYM    DATA     BIT       CCP0
      000000F8H   SFRSYM    DATA     BYTE      P7
      000000AAH   SFRSYM    DATA     BYTE      WKTCL
      00000090H   SFRSYM    DATA     BIT       CCP1
      000000CEH   SFRSYM    DATA     BYTE      SPCTL
      000000D8H.7 SFRSYM    DATA     BIT       CF
      000000B0H.7 SFRSYM    DATA     BIT       CCP2
      000000F9H   SFRSYM    DATA     BYTE      CH
      000000A2H   SFRSYM    DATA     BYTE      P_SW1
      000000BAH   SFRSYM    DATA     BYTE      P_SW2
      000000A8H.5 SFRSYM    DATA     BIT       EADC
      000000A0H.1 SFRSYM    DATA     BIT       SPI_SCLK_2
      000000A8H   SFRSYM    DATA     BYTE      IE
      000000C0H.3 SFRSYM    DATA     BIT       SPI_SCLK_3
      000000E9H   SFRSYM    DATA     BYTE      CL
      000000C5H   SFRSYM    DATA     BYTE      IAP_CMD
      000000FAH   SFRSYM    DATA     BYTE      CCAP0H
      000000FBH   SFRSYM    DATA     BYTE      CCAP1H
      000000FCH   SFRSYM    DATA     BYTE      CCAP2H
      000000BDH   SFRSYM    DATA     BYTE      ADC_RES
      000000B6H   SFRSYM    DATA     BYTE      IPH2
      000000D8H.6 SFRSYM    DATA     BIT       CR
      000000EAH   SFRSYM    DATA     BYTE      CCAP0L
      000000B0H.7 SFRSYM    DATA     BIT       RD
      000000EBH   SFRSYM    DATA     BYTE      CCAP1L
      000000DAH   SFRSYM    DATA     BYTE      CCAPM0
      000000ECH   SFRSYM    DATA     BYTE      CCAP2L
      000000DBH   SFRSYM    DATA     BYTE      CCAPM1
      000000A8H.4 SFRSYM    DATA     BIT       ES
      000000DCH   SFRSYM    DATA     BYTE      CCAPM2
      000000B8H.5 SFRSYM    DATA     BIT       PADC
      000000A0H.2 SFRSYM    DATA     BIT       SPI_MISO_2
      000000A0H.3 SFRSYM    DATA     BIT       SPI_MOSI_2
      000000B8H   SFRSYM    DATA     BYTE      IP
      000000C0H.1 SFRSYM    DATA     BIT       SPI_MISO_3
      000000C0H   SFRSYM    DATA     BIT       SPI_MOSI_3
      00000098H   SFRSYM    DATA     BIT       RI
      000000B0H.2 SFRSYM    DATA     BIT       INT0
      000000D0H.7 SFRSYM    DATA     BIT       CY
      00000098H.1 SFRSYM    DATA     BIT       TI
      000000B0H.3 SFRSYM    DATA     BIT       INT1
      00000097H   SFRSYM    DATA     BYTE      CLK_DIV
      000000C3H   SFRSYM    DATA     BYTE      IAP_ADDRH
LX51 LINKER/LOCATER V4.66.41.0                                                        02/15/2019  15:28:07  PAGE 142


      00000090H   SFRSYM    DATA     BIT       RXD2
      000000C5H   SFRSYM    DATA     BYTE      ISP_CMD
      000000B8H.4 SFRSYM    DATA     BIT       PS
      00000090H.1 SFRSYM    DATA     BIT       TXD2
      00000081H   SFRSYM    DATA     BYTE      SP
      000000D9H   SFRSYM    DATA     BYTE      CMOD
      000000D8H   SFRSYM    DATA     BYTE      CCON
      000000C4H   SFRSYM    DATA     BYTE      IAP_ADDRL
      000000B8H.7 SFRSYM    DATA     BIT       PPCA
      000000D0H.2 SFRSYM    DATA     BIT       OV
      000000B0H.6 SFRSYM    DATA     BIT       WR
      000000A8H.6 SFRSYM    DATA     BIT       ELVD
      00000080H   SFRSYM    DATA     BIT       P00
      00000090H   SFRSYM    DATA     BIT       P10
      00000080H.1 SFRSYM    DATA     BIT       P01
      000000BCH   SFRSYM    DATA     BYTE      ADC_CONTR
      00000099H   SFRSYM    DATA     BYTE      SBUF
      00000087H   SFRSYM    DATA     BYTE      PCON
      000000A0H   SFRSYM    DATA     BIT       P20
      00000090H.1 SFRSYM    DATA     BIT       P11
      00000080H.2 SFRSYM    DATA     BIT       P02
      000000C3H   SFRSYM    DATA     BYTE      ISP_ADDRH
      000000B0H   SFRSYM    DATA     BIT       P30
      000000A0H.1 SFRSYM    DATA     BIT       P21
      00000090H.2 SFRSYM    DATA     BIT       P12
      00000080H.3 SFRSYM    DATA     BIT       P03
      000000C0H   SFRSYM    DATA     BIT       P40
      000000B0H.1 SFRSYM    DATA     BIT       P31
      000000A0H.2 SFRSYM    DATA     BIT       P22
      00000090H.3 SFRSYM    DATA     BIT       P13
      00000080H.4 SFRSYM    DATA     BIT       P04
      00000098H   SFRSYM    DATA     BYTE      SCON
      0000008FH   SFRSYM    DATA     BYTE      WAKE_CLKO
      000000C8H   SFRSYM    DATA     BIT       P50
      000000C0H.1 SFRSYM    DATA     BIT       P41
      000000B0H.2 SFRSYM    DATA     BIT       P32
      000000A0H.3 SFRSYM    DATA     BIT       P23
      00000090H.4 SFRSYM    DATA     BIT       P14
      00000080H.5 SFRSYM    DATA     BIT       P05
      00000089H   SFRSYM    DATA     BYTE      TMOD
      00000088H   SFRSYM    DATA     BYTE      TCON
      000000C8H.1 SFRSYM    DATA     BIT       P51
      000000C0H.2 SFRSYM    DATA     BIT       P42
      000000B0H.3 SFRSYM    DATA     BIT       P33
      000000A0H.4 SFRSYM    DATA     BIT       P24
      00000090H.5 SFRSYM    DATA     BIT       P15
      00000080H.6 SFRSYM    DATA     BIT       P06
      000000C4H   SFRSYM    DATA     BYTE      ISP_ADDRL
      000000B8H.6 SFRSYM    DATA     BIT       PLVD
      000000C8H.2 SFRSYM    DATA     BIT       P52
      000000C0H.3 SFRSYM    DATA     BIT       P43
      000000B0H.4 SFRSYM    DATA     BIT       P34
      000000A0H.5 SFRSYM    DATA     BIT       P25
      00000090H.6 SFRSYM    DATA     BIT       P16
      00000080H.7 SFRSYM    DATA     BIT       P07
      000000C8H.3 SFRSYM    DATA     BIT       P53
      000000C0H.4 SFRSYM    DATA     BIT       P44
      000000B0H.5 SFRSYM    DATA     BIT       P35
      000000A0H.6 SFRSYM    DATA     BIT       P26
      00000090H.7 SFRSYM    DATA     BIT       P17
      000000C8H.4 SFRSYM    DATA     BIT       P54
      000000C0H.5 SFRSYM    DATA     BIT       P45
      000000B0H.6 SFRSYM    DATA     BIT       P36
      000000A0H.7 SFRSYM    DATA     BIT       P27
      000000C8H.5 SFRSYM    DATA     BIT       P55
LX51 LINKER/LOCATER V4.66.41.0                                                        02/15/2019  15:28:07  PAGE 143


      000000C0H.6 SFRSYM    DATA     BIT       P46
      000000B0H.7 SFRSYM    DATA     BIT       P37
      000000C8H.6 SFRSYM    DATA     BIT       P56
      000000C0H.7 SFRSYM    DATA     BIT       P47
      000000C8H.7 SFRSYM    DATA     BIT       P57
      00000088H.1 SFRSYM    DATA     BIT       IE0
      000000A1H   SFRSYM    DATA     BYTE      BUS_SPEED
      00000088H.3 SFRSYM    DATA     BIT       IE1
      000000AFH   SFRSYM    DATA     BYTE      IE2
      000000F0H   SFRSYM    DATA     BYTE      B
      0000008EH   SFRSYM    DATA     BYTE      AUXR
      000000C7H   SFRSYM    DATA     BYTE      IAP_CONTR
      000000E0H   SFRSYM    DATA     BYTE      ACC
      000000A8H.1 SFRSYM    DATA     BIT       ET0
      000000A8H.3 SFRSYM    DATA     BIT       ET1
      00000088H.5 SFRSYM    DATA     BIT       TF0
      00000088H.7 SFRSYM    DATA     BIT       TF1
      000000B5H   SFRSYM    DATA     BYTE      IP2
      0000008CH   SFRSYM    DATA     BYTE      RL_TH0
      00000098H.2 SFRSYM    DATA     BIT       RB8
      0000008DH   SFRSYM    DATA     BYTE      RL_TH1
      0000008CH   SFRSYM    DATA     BYTE      TH0
      000000A8H   SFRSYM    DATA     BIT       EX0
      00000088H   SFRSYM    DATA     BIT       IT0
      000000D6H   SFRSYM    DATA     BYTE      RL_T2H
      0000008DH   SFRSYM    DATA     BYTE      TH1
      000000A8H.2 SFRSYM    DATA     BIT       EX1
      00000098H.3 SFRSYM    DATA     BIT       TB8
      00000088H.2 SFRSYM    DATA     BIT       IT1
      000000D4H   SFRSYM    DATA     BYTE      RL_T3H
      000000D6H   SFRSYM    DATA     BYTE      TH2
      000000D6H   SFRSYM    DATA     BYTE      T2H
      000000D0H   SFRSYM    DATA     BIT       P
      000000D2H   SFRSYM    DATA     BYTE      RL_T4H
      000000D4H   SFRSYM    DATA     BYTE      TH3
      000000D4H   SFRSYM    DATA     BYTE      T3H
      0000008AH   SFRSYM    DATA     BYTE      RL_TL0
      00000098H.7 SFRSYM    DATA     BIT       SM0
      000000D2H   SFRSYM    DATA     BYTE      TH4
      000000D2H   SFRSYM    DATA     BYTE      T4H
      0000008BH   SFRSYM    DATA     BYTE      RL_TL1
      0000008AH   SFRSYM    DATA     BYTE      TL0
      00000098H.6 SFRSYM    DATA     BIT       SM1
      000000D7H   SFRSYM    DATA     BYTE      RL_T2L
      0000008BH   SFRSYM    DATA     BYTE      TL1
      00000098H.5 SFRSYM    DATA     BIT       SM2
      000000D5H   SFRSYM    DATA     BYTE      RL_T3L
      000000D7H   SFRSYM    DATA     BYTE      TL2
      000000D7H   SFRSYM    DATA     BYTE      T2L
      000000D3H   SFRSYM    DATA     BYTE      RL_T4L
      000000D5H   SFRSYM    DATA     BYTE      TL3
      000000D5H   SFRSYM    DATA     BYTE      T3L
      000000B8H.1 SFRSYM    DATA     BIT       PT0
      000000D3H   SFRSYM    DATA     BYTE      TL4
      000000D3H   SFRSYM    DATA     BYTE      T4L
      000000B8H.3 SFRSYM    DATA     BIT       PT1
      000000D0H.3 SFRSYM    DATA     BIT       RS0
      000000C7H   SFRSYM    DATA     BYTE      ISP_CONTR
      00000088H.4 SFRSYM    DATA     BIT       TR0
      000000D0H.4 SFRSYM    DATA     BIT       RS1
      000000C2H   SFRSYM    DATA     BYTE      IAP_DATA
      00000088H.6 SFRSYM    DATA     BIT       TR1
      000000B8H   SFRSYM    DATA     BIT       PX0
      000000C1H   SFRSYM    DATA     BYTE      WDT_CONTR
      000000B8H.2 SFRSYM    DATA     BIT       PX1
LX51 LINKER/LOCATER V4.66.41.0                                                        02/15/2019  15:28:07  PAGE 144


      000000F2H   SFRSYM    DATA     BYTE      PCA_PWM0
      000000F3H   SFRSYM    DATA     BYTE      PCA_PWM1
      000000F4H   SFRSYM    DATA     BYTE      PCA_PWM2
      0000009DH   SFRSYM    DATA     BYTE      P1ASF
      00000083H   SFRSYM    DATA     BYTE      DPH
      000000D1H   SFRSYM    DATA     BYTE      T4T3M
      000000BEH   SFRSYM    DATA     BYTE      ADC_RESL
      00000082H   SFRSYM    DATA     BYTE      DPL
      000000CDH   SFRSYM    DATA     BYTE      SPSTAT
      000000B7H   SFRSYM    DATA     BYTE      IPH
      0000009BH   SFRSYM    DATA     BYTE      S2BUF
      00000097H   SFRSYM    DATA     BYTE      PCON2
      000000ADH   SFRSYM    DATA     BYTE      S3BUF
      00000098H.4 SFRSYM    DATA     BIT       REN
      00000085H   SFRSYM    DATA     BYTE      S4BUF
      0000009AH   SFRSYM    DATA     BYTE      S2CON
      000000ACH   SFRSYM    DATA     BYTE      S3CON
      000000C2H   SFRSYM    DATA     BYTE      ISP_DATA
      00000084H   SFRSYM    DATA     BYTE      S4CON
      000000B9H   SFRSYM    DATA     BYTE      SADEN
      000000B0H   SFRSYM    DATA     BIT       RXD
      000000A9H   SFRSYM    DATA     BYTE      SADDR
      000000B0H.1 SFRSYM    DATA     BIT       TXD
      000000F0H   SFRSYM    DATA     BIT       B0
      000000F0H.1 SFRSYM    DATA     BIT       B1
      000000C6H   SFRSYM    DATA     BYTE      IAP_TRIG
      000000A2H   SFRSYM    DATA     BYTE      AUXR1
      000000F0H.2 SFRSYM    DATA     BIT       B2
      00000090H.2 SFRSYM    DATA     BIT       SPI_SS
      0000008FH   SFRSYM    DATA     BYTE      AUXR2
      000000F0H.3 SFRSYM    DATA     BIT       B3
      000000F0H.4 SFRSYM    DATA     BIT       B4
      000000D0H.5 SFRSYM    DATA     BIT       F0
      000000F0H.5 SFRSYM    DATA     BIT       B5
      000000D0H.1 SFRSYM    DATA     BIT       F1
      0000008FH   SFRSYM    DATA     BYTE      INT_CLKO
      000000F0H.6 SFRSYM    DATA     BIT       B6
      000000E0H   SFRSYM    DATA     BIT       ACC0
      000000F0H.7 SFRSYM    DATA     BIT       B7
      000000E0H.1 SFRSYM    DATA     BIT       ACC1
      000000E0H.2 SFRSYM    DATA     BIT       ACC2
      000000E0H.3 SFRSYM    DATA     BIT       ACC3
      000000D0H   SFRSYM    DATA     BYTE      PSW
      000000E0H.4 SFRSYM    DATA     BIT       ACC4
      00000090H.5 SFRSYM    DATA     BIT       SPI_SCLK
      000000D8H   SFRSYM    DATA     BIT       CCF0
      000000E0H.5 SFRSYM    DATA     BIT       ACC5
      000000D8H.1 SFRSYM    DATA     BIT       CCF1
      000000E0H.6 SFRSYM    DATA     BIT       ACC6
      000000CFH   SFRSYM    DATA     BYTE      SPDAT
      00000094H   SFRSYM    DATA     BYTE      P0M0

      010075B3H   BLOCK     CODE     ---       LVL=0
      00000007H   SYMBOL    DATA     BYTE      ms
      010075B3H   BLOCK     CODE     NEAR LAB  LVL=1
      00000004H   SYMBOL    DATA     WORD      i
      ---         BLOCKEND  ---      ---       LVL=1
      010075B3H   LINE      CODE     ---       #31
      010075B3H   LINE      CODE     ---       #32
      010075B3H   LINE      CODE     ---       #34
      010075B3H   LINE      CODE     ---       #35
      010075B7H   LINE      CODE     ---       #36
      010075C0H   LINE      CODE     ---       #37
      010075C2H   LINE      CODE     ---       #38
      ---         BLOCKEND  ---      ---       LVL=0
LX51 LINKER/LOCATER V4.66.41.0                                                        02/15/2019  15:28:07  PAGE 145



      010074EAH   BLOCK     CODE     ---       LVL=0
      00000002H   SYMBOL    DATA     WORD      ms
      010074EAH   LINE      CODE     ---       #40
      010074EEH   LINE      CODE     ---       #42
      010074FEH   LINE      CODE     ---       #43
      ---         BLOCKEND  ---      ---       LVL=0
      00000007H   SYMBOL    DATA     BYTE      count
      00000006H   SYMBOL    DATA     BYTE      i

      ---         MODULE    ---      ---       EEPROM
      00000038H   PUBLIC    DATA     BYTE      ?_coverEEPROM_write_n?BYTE
      01006D3AH   PUBLIC    CODE     ---       _coverEEPROM_write_n
      0000003FH   PUBLIC    DATA     BYTE      ?_EEPROM_write_n?BYTE
      01007121H   PUBLIC    CODE     ---       _EEPROM_write_n
      0100742DH   PUBLIC    CODE     ---       _EEPROM_SectorErase
      0000004FH   PUBLIC    DATA     BYTE      ?_EEPROM_read_n?BYTE
      010071F2H   PUBLIC    CODE     ---       _EEPROM_read_n
      010075D1H   PUBLIC    CODE     ---       DisableEEPROM
      000000D8H.2 SFRSYM    DATA     BIT       CCF2
      000000E0H.7 SFRSYM    DATA     BIT       ACC7
      00000093H   SFRSYM    DATA     BYTE      P0M1
      00000092H   SFRSYM    DATA     BYTE      P1M0
      00000096H   SFRSYM    DATA     BYTE      P2M0
      00000091H   SFRSYM    DATA     BYTE      P1M1
      00000080H   SFRSYM    DATA     BYTE      P0
      000000B2H   SFRSYM    DATA     BYTE      P3M0
      00000095H   SFRSYM    DATA     BYTE      P2M1
      00000090H   SFRSYM    DATA     BYTE      P1
      000000B4H   SFRSYM    DATA     BYTE      P4M0
      000000B1H   SFRSYM    DATA     BYTE      P3M1
      000000A0H   SFRSYM    DATA     BYTE      P2
      000000CAH   SFRSYM    DATA     BYTE      P5M0
      000000B3H   SFRSYM    DATA     BYTE      P4M1
      000000B0H   SFRSYM    DATA     BYTE      P3
      000000ABH   SFRSYM    DATA     BYTE      WKTCH
      000000B0H.4 SFRSYM    DATA     BIT       T0
      000000D0H.6 SFRSYM    DATA     BIT       AC
      000000CCH   SFRSYM    DATA     BYTE      P6M0
      000000C9H   SFRSYM    DATA     BYTE      P5M1
      000000C0H   SFRSYM    DATA     BYTE      P4
      000000B0H.5 SFRSYM    DATA     BIT       CLKOUT0
      000000B0H.5 SFRSYM    DATA     BIT       T1
      000000E2H   SFRSYM    DATA     BYTE      P7M0
      000000CBH   SFRSYM    DATA     BYTE      P6M1
      000000C8H   SFRSYM    DATA     BYTE      P5
      000000C6H   SFRSYM    DATA     BYTE      ISP_TRIG
      000000A8H.7 SFRSYM    DATA     BIT       EA
      000000B0H.4 SFRSYM    DATA     BIT       CLKOUT1
      000000A0H.4 SFRSYM    DATA     BIT       SPI_SS_2
      000000E8H   SFRSYM    DATA     BYTE      P6
      000000E1H   SFRSYM    DATA     BYTE      P7M1
      000000C8H.4 SFRSYM    DATA     BIT       SPI_SS_3
      00000090H.4 SFRSYM    DATA     BIT       SPI_MISO
      00000090H.3 SFRSYM    DATA     BIT       SPI_MOSI
      00000090H.1 SFRSYM    DATA     BIT       CCP0
      000000F8H   SFRSYM    DATA     BYTE      P7
      000000AAH   SFRSYM    DATA     BYTE      WKTCL
      00000090H   SFRSYM    DATA     BIT       CCP1
      000000CEH   SFRSYM    DATA     BYTE      SPCTL
      000000D8H.7 SFRSYM    DATA     BIT       CF
      000000B0H.7 SFRSYM    DATA     BIT       CCP2
      000000F9H   SFRSYM    DATA     BYTE      CH
      000000A2H   SFRSYM    DATA     BYTE      P_SW1
      000000BAH   SFRSYM    DATA     BYTE      P_SW2
LX51 LINKER/LOCATER V4.66.41.0                                                        02/15/2019  15:28:07  PAGE 146


      000000A8H.5 SFRSYM    DATA     BIT       EADC
      000000A0H.1 SFRSYM    DATA     BIT       SPI_SCLK_2
      000000A8H   SFRSYM    DATA     BYTE      IE
      000000C0H.3 SFRSYM    DATA     BIT       SPI_SCLK_3
      000000E9H   SFRSYM    DATA     BYTE      CL
      000000C5H   SFRSYM    DATA     BYTE      IAP_CMD
      000000FAH   SFRSYM    DATA     BYTE      CCAP0H
      000000FBH   SFRSYM    DATA     BYTE      CCAP1H
      000000FCH   SFRSYM    DATA     BYTE      CCAP2H
      000000BDH   SFRSYM    DATA     BYTE      ADC_RES
      000000B6H   SFRSYM    DATA     BYTE      IPH2
      000000D8H.6 SFRSYM    DATA     BIT       CR
      000000EAH   SFRSYM    DATA     BYTE      CCAP0L
      000000B0H.7 SFRSYM    DATA     BIT       RD
      000000EBH   SFRSYM    DATA     BYTE      CCAP1L
      000000DAH   SFRSYM    DATA     BYTE      CCAPM0
      000000ECH   SFRSYM    DATA     BYTE      CCAP2L
      000000DBH   SFRSYM    DATA     BYTE      CCAPM1
      000000A8H.4 SFRSYM    DATA     BIT       ES
      000000DCH   SFRSYM    DATA     BYTE      CCAPM2
      000000B8H.5 SFRSYM    DATA     BIT       PADC
      000000A0H.2 SFRSYM    DATA     BIT       SPI_MISO_2
      000000A0H.3 SFRSYM    DATA     BIT       SPI_MOSI_2
      000000B8H   SFRSYM    DATA     BYTE      IP
      000000C0H.1 SFRSYM    DATA     BIT       SPI_MISO_3
      000000C0H   SFRSYM    DATA     BIT       SPI_MOSI_3
      00000098H   SFRSYM    DATA     BIT       RI
      000000B0H.2 SFRSYM    DATA     BIT       INT0
      000000D0H.7 SFRSYM    DATA     BIT       CY
      00000098H.1 SFRSYM    DATA     BIT       TI
      000000B0H.3 SFRSYM    DATA     BIT       INT1
      00000097H   SFRSYM    DATA     BYTE      CLK_DIV
      000000C3H   SFRSYM    DATA     BYTE      IAP_ADDRH
      00000090H   SFRSYM    DATA     BIT       RXD2
      000000C5H   SFRSYM    DATA     BYTE      ISP_CMD
      000000B8H.4 SFRSYM    DATA     BIT       PS
      00000090H.1 SFRSYM    DATA     BIT       TXD2
      00000081H   SFRSYM    DATA     BYTE      SP
      000000D9H   SFRSYM    DATA     BYTE      CMOD
      000000D8H   SFRSYM    DATA     BYTE      CCON
      000000C4H   SFRSYM    DATA     BYTE      IAP_ADDRL
      000000B8H.7 SFRSYM    DATA     BIT       PPCA
      000000D0H.2 SFRSYM    DATA     BIT       OV
      000000B0H.6 SFRSYM    DATA     BIT       WR
      000000A8H.6 SFRSYM    DATA     BIT       ELVD
      00000080H   SFRSYM    DATA     BIT       P00
      00000090H   SFRSYM    DATA     BIT       P10
      00000080H.1 SFRSYM    DATA     BIT       P01
      000000BCH   SFRSYM    DATA     BYTE      ADC_CONTR
      00000099H   SFRSYM    DATA     BYTE      SBUF
      00000087H   SFRSYM    DATA     BYTE      PCON
      000000A0H   SFRSYM    DATA     BIT       P20
      00000090H.1 SFRSYM    DATA     BIT       P11
      00000080H.2 SFRSYM    DATA     BIT       P02
      000000C3H   SFRSYM    DATA     BYTE      ISP_ADDRH
      000000B0H   SFRSYM    DATA     BIT       P30
      000000A0H.1 SFRSYM    DATA     BIT       P21
      00000090H.2 SFRSYM    DATA     BIT       P12
      00000080H.3 SFRSYM    DATA     BIT       P03
      000000C0H   SFRSYM    DATA     BIT       P40
      000000B0H.1 SFRSYM    DATA     BIT       P31
      000000A0H.2 SFRSYM    DATA     BIT       P22
      00000090H.3 SFRSYM    DATA     BIT       P13
      00000080H.4 SFRSYM    DATA     BIT       P04
      00000098H   SFRSYM    DATA     BYTE      SCON
LX51 LINKER/LOCATER V4.66.41.0                                                        02/15/2019  15:28:07  PAGE 147


      0000008FH   SFRSYM    DATA     BYTE      WAKE_CLKO
      000000C8H   SFRSYM    DATA     BIT       P50
      000000C0H.1 SFRSYM    DATA     BIT       P41
      000000B0H.2 SFRSYM    DATA     BIT       P32
      000000A0H.3 SFRSYM    DATA     BIT       P23
      00000090H.4 SFRSYM    DATA     BIT       P14
      00000080H.5 SFRSYM    DATA     BIT       P05
      00000089H   SFRSYM    DATA     BYTE      TMOD
      00000088H   SFRSYM    DATA     BYTE      TCON
      000000C8H.1 SFRSYM    DATA     BIT       P51
      000000C0H.2 SFRSYM    DATA     BIT       P42
      000000B0H.3 SFRSYM    DATA     BIT       P33
      000000A0H.4 SFRSYM    DATA     BIT       P24
      00000090H.5 SFRSYM    DATA     BIT       P15
      00000080H.6 SFRSYM    DATA     BIT       P06
      000000C4H   SFRSYM    DATA     BYTE      ISP_ADDRL
      000000B8H.6 SFRSYM    DATA     BIT       PLVD
      000000C8H.2 SFRSYM    DATA     BIT       P52
      000000C0H.3 SFRSYM    DATA     BIT       P43
      000000B0H.4 SFRSYM    DATA     BIT       P34
      000000A0H.5 SFRSYM    DATA     BIT       P25
      00000090H.6 SFRSYM    DATA     BIT       P16
      00000080H.7 SFRSYM    DATA     BIT       P07
      000000C8H.3 SFRSYM    DATA     BIT       P53
      000000C0H.4 SFRSYM    DATA     BIT       P44
      000000B0H.5 SFRSYM    DATA     BIT       P35
      000000A0H.6 SFRSYM    DATA     BIT       P26
      00000090H.7 SFRSYM    DATA     BIT       P17
      000000C8H.4 SFRSYM    DATA     BIT       P54
      000000C0H.5 SFRSYM    DATA     BIT       P45
      000000B0H.6 SFRSYM    DATA     BIT       P36
      000000A0H.7 SFRSYM    DATA     BIT       P27
      000000C8H.5 SFRSYM    DATA     BIT       P55
      000000C0H.6 SFRSYM    DATA     BIT       P46
      000000B0H.7 SFRSYM    DATA     BIT       P37
      000000C8H.6 SFRSYM    DATA     BIT       P56
      000000C0H.7 SFRSYM    DATA     BIT       P47
      000000C8H.7 SFRSYM    DATA     BIT       P57
      00000088H.1 SFRSYM    DATA     BIT       IE0
      000000A1H   SFRSYM    DATA     BYTE      BUS_SPEED
      00000088H.3 SFRSYM    DATA     BIT       IE1
      000000AFH   SFRSYM    DATA     BYTE      IE2
      000000F0H   SFRSYM    DATA     BYTE      B
      0000008EH   SFRSYM    DATA     BYTE      AUXR
      000000C7H   SFRSYM    DATA     BYTE      IAP_CONTR
      000000E0H   SFRSYM    DATA     BYTE      ACC
      000000A8H.1 SFRSYM    DATA     BIT       ET0
      000000A8H.3 SFRSYM    DATA     BIT       ET1
      00000088H.5 SFRSYM    DATA     BIT       TF0
      00000088H.7 SFRSYM    DATA     BIT       TF1
      000000B5H   SFRSYM    DATA     BYTE      IP2
      0000008CH   SFRSYM    DATA     BYTE      RL_TH0
      00000098H.2 SFRSYM    DATA     BIT       RB8
      0000008DH   SFRSYM    DATA     BYTE      RL_TH1
      0000008CH   SFRSYM    DATA     BYTE      TH0
      000000A8H   SFRSYM    DATA     BIT       EX0
      00000088H   SFRSYM    DATA     BIT       IT0
      000000D6H   SFRSYM    DATA     BYTE      RL_T2H
      0000008DH   SFRSYM    DATA     BYTE      TH1
      000000A8H.2 SFRSYM    DATA     BIT       EX1
      00000098H.3 SFRSYM    DATA     BIT       TB8
      00000088H.2 SFRSYM    DATA     BIT       IT1
      000000D4H   SFRSYM    DATA     BYTE      RL_T3H
      000000D6H   SFRSYM    DATA     BYTE      TH2
      000000D6H   SFRSYM    DATA     BYTE      T2H
LX51 LINKER/LOCATER V4.66.41.0                                                        02/15/2019  15:28:07  PAGE 148


      000000D0H   SFRSYM    DATA     BIT       P
      000000D2H   SFRSYM    DATA     BYTE      RL_T4H
      000000D4H   SFRSYM    DATA     BYTE      TH3
      000000D4H   SFRSYM    DATA     BYTE      T3H
      0000008AH   SFRSYM    DATA     BYTE      RL_TL0
      00000098H.7 SFRSYM    DATA     BIT       SM0
      000000D2H   SFRSYM    DATA     BYTE      TH4
      000000D2H   SFRSYM    DATA     BYTE      T4H
      0000008BH   SFRSYM    DATA     BYTE      RL_TL1
      0000008AH   SFRSYM    DATA     BYTE      TL0
      00000098H.6 SFRSYM    DATA     BIT       SM1
      000000D7H   SFRSYM    DATA     BYTE      RL_T2L
      0000008BH   SFRSYM    DATA     BYTE      TL1
      00000098H.5 SFRSYM    DATA     BIT       SM2
      000000D5H   SFRSYM    DATA     BYTE      RL_T3L
      000000D7H   SFRSYM    DATA     BYTE      TL2
      000000D7H   SFRSYM    DATA     BYTE      T2L
      000000D3H   SFRSYM    DATA     BYTE      RL_T4L
      000000D5H   SFRSYM    DATA     BYTE      TL3
      000000D5H   SFRSYM    DATA     BYTE      T3L
      000000B8H.1 SFRSYM    DATA     BIT       PT0
      000000D3H   SFRSYM    DATA     BYTE      TL4
      000000D3H   SFRSYM    DATA     BYTE      T4L
      000000B8H.3 SFRSYM    DATA     BIT       PT1
      000000D0H.3 SFRSYM    DATA     BIT       RS0
      000000C7H   SFRSYM    DATA     BYTE      ISP_CONTR
      00000088H.4 SFRSYM    DATA     BIT       TR0
      000000D0H.4 SFRSYM    DATA     BIT       RS1
      000000C2H   SFRSYM    DATA     BYTE      IAP_DATA
      00000088H.6 SFRSYM    DATA     BIT       TR1
      000000B8H   SFRSYM    DATA     BIT       PX0
      000000C1H   SFRSYM    DATA     BYTE      WDT_CONTR
      000000B8H.2 SFRSYM    DATA     BIT       PX1
      000000F2H   SFRSYM    DATA     BYTE      PCA_PWM0
      000000F3H   SFRSYM    DATA     BYTE      PCA_PWM1
      000000F4H   SFRSYM    DATA     BYTE      PCA_PWM2
      0000009DH   SFRSYM    DATA     BYTE      P1ASF
      00000083H   SFRSYM    DATA     BYTE      DPH
      000000D1H   SFRSYM    DATA     BYTE      T4T3M
      000000BEH   SFRSYM    DATA     BYTE      ADC_RESL
      00000082H   SFRSYM    DATA     BYTE      DPL
      000000CDH   SFRSYM    DATA     BYTE      SPSTAT
      000000B7H   SFRSYM    DATA     BYTE      IPH
      0000009BH   SFRSYM    DATA     BYTE      S2BUF
      00000097H   SFRSYM    DATA     BYTE      PCON2
      000000ADH   SFRSYM    DATA     BYTE      S3BUF
      00000098H.4 SFRSYM    DATA     BIT       REN
      00000085H   SFRSYM    DATA     BYTE      S4BUF
      0000009AH   SFRSYM    DATA     BYTE      S2CON
      000000ACH   SFRSYM    DATA     BYTE      S3CON
      000000C2H   SFRSYM    DATA     BYTE      ISP_DATA
      00000084H   SFRSYM    DATA     BYTE      S4CON
      000000B9H   SFRSYM    DATA     BYTE      SADEN
      000000B0H   SFRSYM    DATA     BIT       RXD
      000000A9H   SFRSYM    DATA     BYTE      SADDR
      000000B0H.1 SFRSYM    DATA     BIT       TXD
      000000F0H   SFRSYM    DATA     BIT       B0
      000000F0H.1 SFRSYM    DATA     BIT       B1
      000000C6H   SFRSYM    DATA     BYTE      IAP_TRIG
      000000A2H   SFRSYM    DATA     BYTE      AUXR1
      000000F0H.2 SFRSYM    DATA     BIT       B2
      00000090H.2 SFRSYM    DATA     BIT       SPI_SS
      0000008FH   SFRSYM    DATA     BYTE      AUXR2
      000000F0H.3 SFRSYM    DATA     BIT       B3
      000000F0H.4 SFRSYM    DATA     BIT       B4
LX51 LINKER/LOCATER V4.66.41.0                                                        02/15/2019  15:28:07  PAGE 149


      000000D0H.5 SFRSYM    DATA     BIT       F0
      000000F0H.5 SFRSYM    DATA     BIT       B5
      000000D0H.1 SFRSYM    DATA     BIT       F1
      0000008FH   SFRSYM    DATA     BYTE      INT_CLKO
      000000F0H.6 SFRSYM    DATA     BIT       B6
      000000E0H   SFRSYM    DATA     BIT       ACC0
      000000F0H.7 SFRSYM    DATA     BIT       B7
      000000E0H.1 SFRSYM    DATA     BIT       ACC1
      000000E0H.2 SFRSYM    DATA     BIT       ACC2
      000000E0H.3 SFRSYM    DATA     BIT       ACC3
      000000D0H   SFRSYM    DATA     BYTE      PSW
      000000E0H.4 SFRSYM    DATA     BIT       ACC4
      00000090H.5 SFRSYM    DATA     BIT       SPI_SCLK
      000000D8H   SFRSYM    DATA     BIT       CCF0
      000000E0H.5 SFRSYM    DATA     BIT       ACC5
      000000D8H.1 SFRSYM    DATA     BIT       CCF1
      000000E0H.6 SFRSYM    DATA     BIT       ACC6
      000000CFH   SFRSYM    DATA     BYTE      SPDAT
      00000094H   SFRSYM    DATA     BYTE      P0M0
      01007638H   SYMBOL    CONST    ---       _?ix1000

      010074A6H   BLOCK     CODE     ---       LVL=0
      ---         BLOCKEND  ---      ---       LVL=0

      010075D1H   BLOCK     CODE     ---       LVL=0
      010075D1H   LINE      CODE     ---       #17
      010075D1H   LINE      CODE     ---       #18
      010075D1H   LINE      CODE     ---       #19
      010075D4H   LINE      CODE     ---       #20
      010075D6H   LINE      CODE     ---       #21
      010075D8H   LINE      CODE     ---       #22
      010075DBH   LINE      CODE     ---       #23
      010075DEH   LINE      CODE     ---       #24
      ---         BLOCKEND  ---      ---       LVL=0

      010071F2H   BLOCK     CODE     ---       LVL=0
      00000004H   SYMBOL    DATA     WORD      EE_address
      00000001H   SYMBOL    DATA     ---       DataAddress
      00000054H   SYMBOL    DATA     WORD      number
      010071F2H   LINE      CODE     ---       #36
      010071F6H   LINE      CODE     ---       #37
      010071F6H   LINE      CODE     ---       #39
      010071F9H   LINE      CODE     ---       #40
      010071FCH   LINE      CODE     ---       #42
      010071FCH   LINE      CODE     ---       #43
      010071FCH   LINE      CODE     ---       #44
      010071FFH   LINE      CODE     ---       #45
      01007202H   LINE      CODE     ---       #48
      01007203H   LINE      CODE     ---       #49
      01007208H   LINE      CODE     ---       #50
      0100720DH   LINE      CODE     ---       #51
      01007214H   LINE      CODE     ---       #52
      01007221H   LINE      CODE     ---       #54
      ---         BLOCKEND  ---      ---       LVL=0

      0100742DH   BLOCK     CODE     ---       LVL=0
      00000004H   SYMBOL    DATA     WORD      EE_address
      0100742DH   LINE      CODE     ---       #67
      01007431H   LINE      CODE     ---       #68
      01007431H   LINE      CODE     ---       #69
      01007433H   LINE      CODE     ---       #72
      01007433H   LINE      CODE     ---       #73
      01007436H   LINE      CODE     ---       #74
      01007439H   LINE      CODE     ---       #75
      0100743CH   LINE      CODE     ---       #76
LX51 LINKER/LOCATER V4.66.41.0                                                        02/15/2019  15:28:07  PAGE 150


      0100743FH   LINE      CODE     ---       #77
      01007440H   LINE      CODE     ---       #78
      01007443H   LINE      CODE     ---       #79
      01007445H   LINE      CODE     ---       #80
      ---         BLOCKEND  ---      ---       LVL=0

      01007121H   BLOCK     CODE     ---       LVL=0
      00000004H   SYMBOL    DATA     WORD      EE_address
      00000001H   SYMBOL    DATA     ---       DataAddress
      00000044H   SYMBOL    DATA     WORD      number
      01007121H   LINE      CODE     ---       #91
      01007125H   LINE      CODE     ---       #92
      01007125H   LINE      CODE     ---       #93
      01007127H   LINE      CODE     ---       #95
      0100712AH   LINE      CODE     ---       #96
      0100712DH   LINE      CODE     ---       #98
      0100712DH   LINE      CODE     ---       #99
      0100712DH   LINE      CODE     ---       #100
      01007130H   LINE      CODE     ---       #101
      01007135H   LINE      CODE     ---       #102
      01007138H   LINE      CODE     ---       #103
      01007139H   LINE      CODE     ---       #104
      0100713EH   LINE      CODE     ---       #105
      01007145H   LINE      CODE     ---       #106
      01007152H   LINE      CODE     ---       #108
      01007155H   LINE      CODE     ---       #109
      01007157H   LINE      CODE     ---       #110
      ---         BLOCKEND  ---      ---       LVL=0

      01006D3AH   BLOCK     CODE     ---       LVL=0
      00000038H   SYMBOL    DATA     WORD      EE_address
      0000003AH   SYMBOL    DATA     ---       DataAddress
      0000003DH   SYMBOL    DATA     WORD      number
      01006D44H   BLOCK     CODE     NEAR LAB  LVL=1
      02000293H   SYMBOL    XDATA    ---       datsTemp
      ---         BLOCKEND  ---      ---       LVL=1
      01006D3AH   LINE      CODE     ---       #122
      01006D44H   LINE      CODE     ---       #124
      01006D54H   LINE      CODE     ---       #126
      01006D63H   LINE      CODE     ---       #127
      01006D68H   LINE      CODE     ---       #129
      01006D80H   LINE      CODE     ---       #131
      ---         BLOCKEND  ---      ---       LVL=0

      ---         MODULE    ---      ---       PARS_METHOD
      00000046H   PUBLIC    DATA     BYTE      ?_memmem?BYTE
      01000026H   PUBLIC    CODE     ---       _memmem

      010075F5H   BLOCK     CODE     ---       LVL=0
      ---         BLOCKEND  ---      ---       LVL=0

      01000026H   BLOCK     CODE     ---       LVL=0
      00000046H   SYMBOL    DATA     ---       start
      00000049H   SYMBOL    DATA     BYTE      s_len
      0000004AH   SYMBOL    DATA     ---       find
      0000004DH   SYMBOL    DATA     BYTE      f_len
      0100002EH   BLOCK     CODE     NEAR LAB  LVL=1
      0000004EH   SYMBOL    DATA     BYTE      len
      0000004FH   SYMBOL    DATA     ---       p
      00000052H   SYMBOL    DATA     ---       q
      ---         BLOCKEND  ---      ---       LVL=1
      01000026H   LINE      CODE     ---       #4
      0100002EH   LINE      CODE     ---       #6
      01000031H   LINE      CODE     ---       #7
      01000037H   LINE      CODE     ---       #8
LX51 LINKER/LOCATER V4.66.41.0                                                        02/15/2019  15:28:07  PAGE 151


      0100003AH   LINE      CODE     ---       #10
      01000059H   LINE      CODE     ---       #12
      0100007FH   LINE      CODE     ---       #14
      01000081H   LINE      CODE     ---       #15
      01000092H   LINE      CODE     ---       #16
      01000092H   LINE      CODE     ---       #18
      01000095H   LINE      CODE     ---       #19
      01000098H   LINE      CODE     ---       #20
      0100009AH   LINE      CODE     ---       #22
      010000A0H   LINE      CODE     ---       #23
      ---         BLOCKEND  ---      ---       LVL=0

      ---         MODULE    ---      ---       ?C_STARTUP
      01000000H   PUBLIC    CODE     ---       ?C_STARTUP

      ---         MODULE    ---      ---       ?C?COPY
      010032CFH   PUBLIC    CODE     ---       ?C?COPY

      ---         MODULE    ---      ---       ?C?CLDPTR
      010032F5H   PUBLIC    CODE     ---       ?C?CLDPTR

      ---         MODULE    ---      ---       ?C?CLDOPTR
      0100330EH   PUBLIC    CODE     ---       ?C?CLDOPTR

      ---         MODULE    ---      ---       ?C?CSTPTR
      0100333BH   PUBLIC    CODE     ---       ?C?CSTPTR

      ---         MODULE    ---      ---       ?C?CSTOPTR
      0100334DH   PUBLIC    CODE     ---       ?C?CSTOPTR

      ---         MODULE    ---      ---       ?C?IMUL
      0100336FH   PUBLIC    CODE     ---       ?C?IMUL

      ---         MODULE    ---      ---       ?C?UIDIV
      01003381H   PUBLIC    CODE     ---       ?C?UIDIV

      ---         MODULE    ---      ---       ?C?LMUL
      010033D6H   PUBLIC    CODE     ---       ?C?LMUL

      ---         MODULE    ---      ---       ?C?ULCMP
      01003425H   PUBLIC    CODE     ---       ?C?ULCMP

      ---         MODULE    ---      ---       ?C?ULSHR
      01003436H   PUBLIC    CODE     ---       ?C?ULSHR

      ---         MODULE    ---      ---       ?C?LSHL
      01003449H   PUBLIC    CODE     ---       ?C?LSHL

      ---         MODULE    ---      ---       ?C?OFFXADD
      0100345CH   PUBLIC    CODE     ---       ?C?OFFXADD

      ---         MODULE    ---      ---       ?C?CCASE
      01003468H   PUBLIC    CODE     ---       ?C?CCASE

      ---         MODULE    ---      ---       ?C?ICALL
      0100348EH   PUBLIC    CODE     ---       ?C?ICALL
      01003492H   PUBLIC    CODE     ---       ?C?ICALL2

      ---         MODULE    ---      ---       PRINTF
      00000038H   PUBLIC    DATA     ---       ?_PRINTF517?BYTE
      00000038H   PUBLIC    DATA     ---       ?_PRINTF?BYTE
      00000038H   PUBLIC    DATA     ---       ?_SPRINTF517?BYTE
      00000038H   PUBLIC    DATA     ---       ?_SPRINTF?BYTE
      01003E2FH   PUBLIC    CODE     ---       _PRINTF
      01003E2FH   PUBLIC    CODE     ---       _PRINTF517
LX51 LINKER/LOCATER V4.66.41.0                                                        02/15/2019  15:28:07  PAGE 152


      01003E29H   PUBLIC    CODE     ---       _SPRINTF
      01003E29H   PUBLIC    CODE     ---       _SPRINTF517

      ---         MODULE    ---      ---       ?C?MEMCMP
      0100361AH   PUBLIC    CODE     ---       ?C?MEMCMP

      ---         MODULE    ---      ---       ?C?MEMSET
      0100363EH   PUBLIC    CODE     ---       ?C?MEMSET

      ---         MODULE    ---      ---       ?C_INIT
      0100652DH   PUBLIC    CODE     ---       ?C_START

      ---         MODULE    ---      ---       ?C?PLDIIDATA
      0100366AH   PUBLIC    CODE     ---       ?C?PLDIIDATA

      ---         MODULE    ---      ---       PUTCHAR
      010072C7H   PUBLIC    CODE     ---       _PUTCHAR

Program Size: data=220.3 xdata=1782 const=135 code=30263
LX51 RUN COMPLETE.  0 WARNING(S),  0 ERROR(S)
