LX51 LINKER/LOCATER V4.66.41.0                                                          09/02/2018  12:30:49  PAGE 1


LX51 LINKER/LOCATER V4.66.41.0, INVOKED BY:
E:\KEIL\MDK_5.18&C51_V9.54A\SOFTWARE\C51\BIN\LX51.EXE .\Output\Usr_Main.obj, .\Output\appTimer.obj, .\Output\dataManage.
>> obj, .\Output\Tips.obj, .\Output\dataTrans.obj, .\Output\usrKin.obj, .\Output\Relay.obj, .\Output\timerAct.obj, .\Out
>> put\USART.obj, .\Output\delay.obj, .\Output\EEPROM.obj, .\Output\pars_Method.obj TO .\Output\swZigbNode_sw3bit PRINT 
>> (.\Listings\swZigbNode_sw3bit.map) REMOVEUNUSED


CPU MODE:     8051 MODE
MEMORY MODEL: SMALL


INPUT MODULES INCLUDED:
  .\Output\Usr_Main.obj (USR_MAIN)
         COMMENT TYPE 0: C51 V9.54
  .\Output\appTimer.obj (APPTIMER)
         COMMENT TYPE 0: C51 V9.54
  .\Output\dataManage.obj (DATAMANAGE)
         COMMENT TYPE 0: C51 V9.54
  .\Output\Tips.obj (TIPS)
         COMMENT TYPE 0: C51 V9.54
  .\Output\dataTrans.obj (DATATRANS)
         COMMENT TYPE 0: C51 V9.54
  .\Output\usrKin.obj (USRKIN)
         COMMENT TYPE 0: C51 V9.54
  .\Output\Relay.obj (RELAY)
         COMMENT TYPE 0: C51 V9.54
  .\Output\timerAct.obj (TIMERACT)
         COMMENT TYPE 0: C51 V9.54
  .\Output\USART.obj (USART)
         COMMENT TYPE 0: C51 V9.54
  .\Output\delay.obj (DELAY)
         COMMENT TYPE 0: C51 V9.54
  .\Output\EEPROM.obj (EEPROM)
         COMMENT TYPE 0: C51 V9.54
  .\Output\pars_Method.obj (PARS_METHOD)
         COMMENT TYPE 0: C51 V9.54
  E:\KEIL\MDK_5.18&C51_V9.54A\SOFTWARE\C51\LIB\C51S.LIB (?C_STARTUP)
         COMMENT TYPE 1: A51 / ASM51 Assembler
  E:\KEIL\MDK_5.18&C51_V9.54A\SOFTWARE\C51\LIB\C51S.LIB (?C?COPY)
         COMMENT TYPE 1: A51 / ASM51 Assembler
  E:\KEIL\MDK_5.18&C51_V9.54A\SOFTWARE\C51\LIB\C51S.LIB (?C?CLDPTR)
         COMMENT TYPE 1: A51 / ASM51 Assembler
  E:\KEIL\MDK_5.18&C51_V9.54A\SOFTWARE\C51\LIB\C51S.LIB (?C?CLDOPTR)
         COMMENT TYPE 1: A51 / ASM51 Assembler
  E:\KEIL\MDK_5.18&C51_V9.54A\SOFTWARE\C51\LIB\C51S.LIB (?C?CSTPTR)
         COMMENT TYPE 1: A51 / ASM51 Assembler
  E:\KEIL\MDK_5.18&C51_V9.54A\SOFTWARE\C51\LIB\C51S.LIB (?C?CSTOPTR)
         COMMENT TYPE 1: A51 / ASM51 Assembler
  E:\KEIL\MDK_5.18&C51_V9.54A\SOFTWARE\C51\LIB\C51S.LIB (?C?IMUL)
         COMMENT TYPE 1: A51 / ASM51 Assembler
  E:\KEIL\MDK_5.18&C51_V9.54A\SOFTWARE\C51\LIB\C51S.LIB (?C?UIDIV)
         COMMENT TYPE 1: A51 / ASM51 Assembler
  E:\KEIL\MDK_5.18&C51_V9.54A\SOFTWARE\C51\LIB\C51S.LIB (?C?ILDIX)
         COMMENT TYPE 1: A51 / ASM51 Assembler
  E:\KEIL\MDK_5.18&C51_V9.54A\SOFTWARE\C51\LIB\C51S.LIB (?C?LMUL)
         COMMENT TYPE 1: A51 / ASM51 Assembler
  E:\KEIL\MDK_5.18&C51_V9.54A\SOFTWARE\C51\LIB\C51S.LIB (?C?ULSHR)
         COMMENT TYPE 1: A51 / ASM51 Assembler
  E:\KEIL\MDK_5.18&C51_V9.54A\SOFTWARE\C51\LIB\C51S.LIB (?C?LSHL)
         COMMENT TYPE 1: A51 / ASM51 Assembler
  E:\KEIL\MDK_5.18&C51_V9.54A\SOFTWARE\C51\LIB\C51S.LIB (?C?CCASE)
         COMMENT TYPE 1: A51 / ASM51 Assembler
  E:\KEIL\MDK_5.18&C51_V9.54A\SOFTWARE\C51\LIB\C51S.LIB (?C?ICALL)
         COMMENT TYPE 1: A51 / ASM51 Assembler
  E:\KEIL\MDK_5.18&C51_V9.54A\SOFTWARE\C51\LIB\C51S.LIB (PRINTF)
         COMMENT TYPE 1: A51 / ASM51 Assembler
LX51 LINKER/LOCATER V4.66.41.0                                                        09/02/2018  12:30:49  PAGE 2


  E:\KEIL\MDK_5.18&C51_V9.54A\SOFTWARE\C51\LIB\C51S.LIB (?C?MEMCMP)
         COMMENT TYPE 1: A51 / ASM51 Assembler
  E:\KEIL\MDK_5.18&C51_V9.54A\SOFTWARE\C51\LIB\C51S.LIB (?C?MEMSET)
         COMMENT TYPE 1: A51 / ASM51 Assembler
  E:\KEIL\MDK_5.18&C51_V9.54A\SOFTWARE\C51\LIB\C51S.LIB (?C_INIT)
         COMMENT TYPE 1: A51 / ASM51 Assembler
  E:\KEIL\MDK_5.18&C51_V9.54A\SOFTWARE\C51\LIB\C51S.LIB (?C?PLDIIDATA)
         COMMENT TYPE 1: A51 / ASM51 Assembler
  E:\KEIL\MDK_5.18&C51_V9.54A\SOFTWARE\C51\LIB\C51S.LIB (PUTCHAR)
         COMMENT TYPE 1: A51 / ASM51 Assembler


ACTIVE MEMORY CLASSES OF MODULE:  .\Output\swZigbNode_sw3bit (USR_MAIN)

BASE        START       END         USED      MEMORY CLASS
==========================================================
C:000000H   C:000000H   C:00FFFFH   004844H   CODE
X:000000H   X:000000H   X:00FFFFH   0004C2H   XDATA
I:000020H.0 I:000020H.0 I:00002FH.7 000004H.6 BIT
I:000000H   I:000000H   I:00007FH   000076H   DATA
C:000000H   C:000000H   C:00FFFFH   00015FH   CONST
I:000000H   I:000000H   I:0000FFH   000015H   IDATA


MEMORY MAP OF MODULE:  .\Output\swZigbNode_sw3bit (USR_MAIN)


START     STOP      LENGTH    ALIGN  RELOC    MEMORY CLASS   SEGMENT NAME
=========================================================================

* * * * * * * * * * *   D A T A   M E M O R Y   * * * * * * * * * * * * *
000000H   000007H   000008H   ---    AT..     DATA           "REG BANK 0"
000008H   000013H   00000CH   BYTE   UNIT     DATA           ?DT?DATATRANS
000014H   00001AH   000007H   BYTE   UNIT     DATA           ?DT?USART
00001BH   00001FH   000005H   BYTE   UNIT     DATA           ?DT?DATAMANAGE
000020H.0 000021H.5 000001H.6 BIT    UNIT     BIT            _BIT_GROUP_
000021H.6 000022H.5 000001H.0 BIT    UNIT     BIT            ?BI?USRKIN
000022H.6 000023H.4 000000H.7 BIT    UNIT     BIT            ?BI?DATATRANS
000023H.5 000024H.0 000000H.4 BIT    UNIT     BIT            ?BI?TIPS
000024H.1 000024H.3 000000H.3 BIT    UNIT     BIT            ?BI?TIMERACT
000024H.4 000024H.4 000000H.1 BIT    UNIT     BIT            ?BI?APPTIMER
000024H.5 000024H.5 000000H.1 BIT    UNIT     BIT            ?BI?DATAMANAGE
000024H.6 000024H   000000H.2 ---    ---      **GAP**
000025H   000053H   00002FH   BYTE   UNIT     DATA           _DATA_GROUP_
000054H   00006FH   00001CH   BYTE   UNIT     DATA           ?DT?TIPS
000070H   000075H   000006H   BYTE   UNIT     DATA           ?DT?USRKIN
000076H   000079H   000004H   BYTE   UNIT     DATA           ?DT?APPTIMER
00007AH   00007AH   000001H   BYTE   UNIT     DATA           ?DT?RELAY
00007BH   000085H   00000BH   BYTE   UNIT     IDATA          ?ID?TIMERACT
000086H   00008DH   000008H   BYTE   UNIT     IDATA          _IDATA_GROUP_
00008EH   00008EH   000001H   BYTE   UNIT     IDATA          ?ID?USRKIN
00008FH   00008FH   000001H   BYTE   UNIT     IDATA          ?STACK

* * * * * * * * * * *   C O D E   M E M O R Y   * * * * * * * * * * * * *
000000H   000002H   000003H   ---    OFFS..   CODE           ?CO??C_STARTUP?0
000003H   000009H   000007H   BYTE   INBLOCK  CODE           ?PR?TIPS_STATUSCHANGETONORMAL?TIPS
00000AH   00000AH   000001H   BYTE   INBLOCK  CODE           ?PR?FUN_TEST?USRKIN
00000BH   00000DH   000003H   BYTE   OFFS..   CODE           ?APPTIMER?0000B
00000EH   000022H   000015H   BYTE   INBLOCK  CODE           ?PR?APPTIMER0_INIT?APPTIMER
000023H   000025H   000003H   BYTE   OFFS..   CODE           ?DATATRANS?00023
000026H   0006AAH   000685H   BYTE   INBLOCK  CODE           ?PR?_DATAPARING_NOMAL?DATATRANS
0006ABH   0007EEH   000144H   BYTE   INBLOCK  CODE           ?PR?TOUCHPAD_SCAN?USRKIN
0007EFH   0007FEH   000010H   BYTE   INBLOCK  CODE           ?PR?_DELAY_MS?DELAY
0007FFH   0007FFH   000001H   ---    ---      **GAP**
000800H   000C8EH   00048FH   BYTE   INBLOCK  CODE           ?PR?TIMER0_ROUNTINE?APPTIMER
LX51 LINKER/LOCATER V4.66.41.0                                                        09/02/2018  12:30:49  PAGE 3


000C8FH   000FC8H   00033AH   BYTE   INBLOCK  CODE           ?PR?THREAD_TIMING?TIMERACT
000FC9H   000FFEH   000036H   BYTE   INBLOCK  CODE           ?PR?_PRINTSTRING1_LOGOUT?USART
000FFFH   000FFFH   000001H   ---    ---      **GAP**
001000H   00130FH   000310H   BYTE   INBLOCK  CODE           ?PR?TIPS_SYSSTANDBY?TIPS
001310H   0015F4H   0002E5H   BYTE   INBLOCK  CODE           ?PR?ZIGB_NWKJOINREQUEST?DATATRANS
0015F5H   0017C9H   0001D5H   BYTE   INBLOCK  CODE           ?PR?_TIPS_SPECIFIED?TIPS
0017CAH   0017F3H   00002AH   BYTE   INBLOCK  CODE           ?PR?_FRAME_CHECK?DATATRANS
0017F4H   0017FFH   00000CH   BYTE   INBLOCK  CODE           ?PR?BSP_DATSREALES?USR_MAIN
001800H   001AB0H   0002B1H   BYTE   INBLOCK  CODE           ?PR?THREAD_DATATRANS?DATATRANS
001AB1H   001CFDH   00024DH   BYTE   INBLOCK  CODE           ?PR?THREAD_TIPS?TIPS
001CFEH   001ED1H   0001D4H   BYTE   INBLOCK  CODE           ?PR?DATATRANSREQUEST_DATSSEND?DATATRANS
001ED2H   001FDAH   000109H   BYTE   INBLOCK  CODE           ?PR?GETSYSTEMTIME_REALES?DATATRANS
001FDBH   001FFFH   000025H   BYTE   INBLOCK  CODE           ?PR?_TOUCHPAD_FUNCTIONTRIGCONTINUE?USRKIN
002000H   002134H   000135H   BYTE   INBLOCK  CODE           ?PR?DTASTX_LOADBASIC_CUST?DATATRANS
002135H   00223AH   000106H   BYTE   INBLOCK  CODE           ?PR?_DATAPARING_ZIGBSYSCTRL?DATATRANS
00223BH   00232EH   0000F4H   BYTE   INBLOCK  CODE           ?PR?_ZIGB_SYSTIMESET?DATATRANS
00232FH   00241CH   0000EEH   BYTE   INBLOCK  CODE           ?PR?_DATSTIMING_READ_EEPROM?TIMERACT
00241DH   00250AH   0000EEH   BYTE   INBLOCK  CODE           ?PR?_DATSTIMNIGHT_READ_EEPROM?TIMERACT
00250BH   0025CCH   0000C2H   BYTE   INBLOCK  CODE           ?PR?_ZIGB_TXFRAMELOAD?DATATRANS
0025CDH   002671H   0000A5H   BYTE   INBLOCK  CODE           ?PR?_ZIGB_VALIDA_INPUT?DATATRANS
002672H   00270DH   00009CH   BYTE   INBLOCK  CODE           ?PR?_USRKEYSCAN?USRKIN
00270EH   0027A3H   000096H   BYTE   INBLOCK  CODE           ?PR?UART1_ROUNTINE?DATATRANS
0027A4H   0027FDH   00005AH   BYTE   INBLOCK  CODE           ?PR?SWSCENARIONUM_FINDFROMEEPROM?DATAMANAGE
0027FEH   0027FFH   000002H   ---    ---      **GAP**
002800H   002894H   000095H   BYTE   INBLOCK  CODE           ?PR?RELAY_ACT?RELAY
002895H   00291BH   000087H   BYTE   INBLOCK  CODE           ?PR?_ZIGB_DATSLOAD_DATSSEND?DATATRANS
00291CH   0029A2H   000087H   BYTE   INBLOCK  CODE           ?PR?_MEMMEM?PARS_METHOD
0029A3H   002A26H   000084H   BYTE   INBLOCK  CODE           ?PR?_ZIGB_DATSREQUEST?DATATRANS
002A27H   002AA1H   00007BH   BYTE   INBLOCK  CODE           ?PR?UARTOBJZIGB_INIT?DATATRANS
002AA2H   002B16H   000075H   BYTE   INBLOCK  CODE           ?PR?_THREAD_TIPSGETDARK?TIPS
002B17H   002B8BH   000075H   BYTE   INBLOCK  CODE           ?PR?DCODESCAN?USRKIN
002B8CH   002BFEH   000073H   BYTE   INBLOCK  CODE           ?PR?_TIPSLED_COLORSET?TIPS
002BFFH   002C71H   000073H   BYTE   INBLOCK  CODE           ?PR?TIME_LOGOUT?TIMERACT
002C72H   002CD7H   000066H   BYTE   INBLOCK  CODE           ?PR?_SWSCENARIO_OPRATESAVE?DATAMANAGE
002CD8H   002D39H   000062H   BYTE   INBLOCK  CODE           ?PR?ZIGB_NWKOPEN?DATATRANS
002D3AH   002D9AH   000061H   BYTE   INBLOCK  CODE           ?PR?_COVEREEPROM_WRITE_N?EEPROM
002D9BH   002DEDH   000053H   BYTE   INBLOCK  CODE           ?PR?ZIGB_GETPANIDCURRENT?DATATRANS
002DEEH   002E38H   00004BH   BYTE   INBLOCK  CODE           ?PR?RELAY_PININIT?RELAY
002E39H   002E7DH   000045H   BYTE   INBLOCK  CODE           ?PR?FACTORY_RECOVER?DATAMANAGE
002E7EH   002EC2H   000045H   BYTE   INBLOCK  CODE           ?PR?_TOUCHPAD_FUNCTIONTRIGNORMAL?USRKIN
002EC3H   002F06H   000044H   BYTE   INBLOCK  CODE           ?PR?_SWSCENARIO_OPRATEDELE?DATAMANAGE
002F07H   002F49H   000043H   BYTE   INBLOCK  CODE           ?PR?DCODESCAN_ONESHOOT?USRKIN
002F4AH   002F87H   00003EH   BYTE   INBLOCK  CODE           ?PR?MAIN?USR_MAIN
002F88H   002FC4H   00003DH   BYTE   INBLOCK  CODE           ?PR?_EEPROM_READ_N?EEPROM
002FC5H   002FFFH   00003BH   BYTE   INBLOCK  CODE           ?PR?LEDBKGCOLORSW_REALES?TIPS
003000H   00303CH   00003DH   BYTE   INBLOCK  CODE           ?PR?_EEPROM_WRITE_N?EEPROM
00303DH   003078H   00003CH   BYTE   INBLOCK  CODE           ?PR?TIPLED_PININIT?TIPS
003079H   0030B1H   000039H   BYTE   INBLOCK  CODE           ?PR?RELAY_STATUSREALES?RELAY
0030B2H   0030DBH   00002AH   BYTE   INBLOCK  CODE           ?PR?THREAD_RELAY?RELAY
0030DCH   003105H   00002AH   BYTE   INBLOCK  CODE           ?PR?_WEEKEND_JUDGE?TIMERACT
003106H   00312DH   000028H   BYTE   INBLOCK  CODE           ?PR?_SWSCENARIO_OPRATECHECK?DATAMANAGE
00312EH   003153H   000026H   BYTE   INBLOCK  CODE           ?PR?TIMEZONE_REALES?TIMERACT
003154H   003179H   000026H   BYTE   INBLOCK  CODE           ?PR?_UART1_DATSSEND?USART
00317AH   00319CH   000023H   BYTE   INBLOCK  CODE           ?PR?_TX1_WRITE2BUFF?USART
00319DH   0031BEH   000022H   BYTE   INBLOCK  CODE           ?PR?BIRTHDAY_JUDGE?DATAMANAGE
0031BFH   0031DEH   000020H   BYTE   INBLOCK  CODE           ?PR?_BEEPS_USRACTIVE?TIPS
0031DFH   0031FDH   00001FH   BYTE   INBLOCK  CODE           ?PR?_EEPROM_SECTORERASE?EEPROM
0031FEH   00321AH   00001DH   BYTE   INBLOCK  CODE           ?PR?MAC_ID_RELAES?DATAMANAGE
00321BH   003234H   00001AH   BYTE   INBLOCK  CODE           ?PR?SWITCHTYPERESERVE_GET?DATAMANAGE
003235H   00324AH   000016H   BYTE   INBLOCK  CODE           ?PR?USRKIN_PININIT?USRKIN
00324BH   00325FH   000015H   BYTE   INBLOCK  CODE           ?PR?_DELAYMS?DELAY
003260H   003272H   000013H   BYTE   INBLOCK  CODE           ?PR?PORTCTRLEACHOTHER_REALES?DATAMANAGE
003273H   003285H   000013H   BYTE   INBLOCK  CODE           ?PR?ZIGBUART_PININIT?DATATRANS
003286H   003298H   000013H   BYTE   INBLOCK  CODE           ?PR?TOUCHPADSCAN_ONESHOOT?USRKIN
003299H   0032ABH   000013H   BYTE   INBLOCK  CODE           ?PR?_PRINTSTRING1?USART
LX51 LINKER/LOCATER V4.66.41.0                                                        09/02/2018  12:30:49  PAGE 4


0032ACH   0032BDH   000012H   BYTE   INBLOCK  CODE           ?PR?BSP_INIT?USR_MAIN
0032BEH   0032CBH   00000EH   BYTE   INBLOCK  CODE           ?PR?DISABLEEEPROM?EEPROM
0032CCH   0032D5H   00000AH   BYTE   INBLOCK  CODE           ?PR?USRKEYFUN_ZIGBNWKREJOIN?USRKIN
0032D6H   0032D8H   000003H   BYTE   INBLOCK  CODE           ?PR?USRKEYSCAN_ONESHOOT?USRKIN
0032D9H   003CFFH   000A27H   BYTE   UNIT     CODE           ?CO?DATATRANS
003D00H   004173H   000474H   BYTE   UNIT     CODE           ?C?LIB_CODE
004174H   0044CFH   00035CH   BYTE   UNIT     CODE           ?PR?PRINTF?PRINTF
0044D0H   0046D8H   000209H   BYTE   UNIT     CODE           ?C_INITSEG
0046D9H   004794H   0000BCH   BYTE   UNIT     CODE           ?CO?TIMERACT
004795H   004820H   00008CH   BYTE   UNIT     CODE           ?C_C51STARTUP
004821H   004847H   000027H   BYTE   UNIT     CODE           ?PR?PUTCHAR?PUTCHAR
004848H   0048E6H   00009FH   BYTE   UNIT     CONST          ?CO?DATAMANAGE
0048E7H   004966H   000080H   BYTE   UNIT     CONST          ?CO?EEPROM
004967H   004992H   00002CH   BYTE   UNIT     CONST          ?CO?TIPS
004993H   0049A2H   000010H   BYTE   UNIT     CONST          ?CO?USRKIN
0049A3H   0049A6H   000004H   BYTE   UNIT     CONST          ?CO?APPTIMER

* * * * * * * * * * *  X D A T A   M E M O R Y  * * * * * * * * * * * * *
000000H   000263H   000264H   BYTE   UNIT     XDATA          _XDATA_GROUP_
000264H   00037EH   00011BH   BYTE   UNIT     XDATA          ?XD?DATATRANS
00037FH   00047EH   000100H   BYTE   UNIT     XDATA          ?XD?USART
00047FH   000491H   000013H   BYTE   UNIT     XDATA          ?XD?APPTIMER
000492H   0004A1H   000010H   BYTE   UNIT     XDATA          ?XD?TIPS
0004A2H   0004ADH   00000CH   BYTE   UNIT     XDATA          ?XD?DATAMANAGE
0004AEH   0004B9H   00000CH   BYTE   UNIT     XDATA          ?XD?TIMERACT
0004BAH   0004BDH   000004H   BYTE   UNIT     XDATA          ?XD?USRKIN
0004BEH   0004C1H   000004H   BYTE   UNIT     XDATA          ?XD?RELAY

* * * * * * * * *   R E M O V E D     S E G M E N T S   * * * * * * * *
   *DEL*:           000022H   BYTE   INBLOCK  CODE           ?PR?DEVLOCKINFO_REALES?DATAMANAGE
   *DEL*:           000001H   BYTE   UNIT     XDATA          ?XD?DEVLOCKINFO_REALES?DATAMANAGE
   *DEL*:           000007H   BYTE   INBLOCK  CODE           ?PR?PINBEEP_INIT?TIPS
   *DEL*:           000071H   BYTE   INBLOCK  CODE           ?PR?TIPS_BREATH?TIPS
   *DEL*:           000280H   BYTE   INBLOCK  CODE           ?PR?TIPS_FADEOUT?TIPS
   *DEL*:           000028H   BYTE   INBLOCK  CODE           ?PR?_XORNUM_CHECK?DATATRANS
   *DEL*:           000003H   BYTE   UNIT     DATA           ?DT?_XORNUM_CHECK?DATATRANS
   *DEL*:           00002DH   BYTE   INBLOCK  CODE           ?PR?_UART1_LOGOUT?USART
   *DEL*:           000004H   BYTE   UNIT     DATA           ?DT?_UART1_LOGOUT?USART



OVERLAY MAP OF MODULE:   .\Output\swZigbNode_sw3bit (USR_MAIN)


FUNCTION/MODULE                               BIT_GROUP   DATA_GROUP   IDATA_GROUP  XDATA_GROUP
--> CALLED FUNCTION/MODULE                   START  STOP  START  STOP  START  STOP  START  STOP
===============================================================================================
TIMER0_ROUNTINE/APPTIMER                     ----- -----  ----- -----  ----- -----  ----- -----
  +--> ?CO?APPTIMER

?CO?APPTIMER                                 ----- -----  ----- -----  ----- -----  ----- -----

*** NEW ROOT *******************************

UART1_ROUNTINE/DATATRANS                     ----- -----  ----- -----  ----- -----  ----- -----

*** NEW ROOT *******************************

?C_C51STARTUP                                ----- -----  ----- -----  ----- -----  ----- -----
  +--> MAIN/USR_MAIN
  +--> ?C_INITSEG

MAIN/USR_MAIN                                ----- -----  ----- -----  ----- -----  ----- -----
  +--> BSP_INIT/USR_MAIN
  +--> BSP_DATSREALES/USR_MAIN
LX51 LINKER/LOCATER V4.66.41.0                                                        09/02/2018  12:30:49  PAGE 5


  +--> BIRTHDAY_JUDGE/DATAMANAGE
  +--> TOUCHPAD_SCAN/USRKIN
  +--> FUN_TEST/USRKIN
  +--> USRKEYFUN_ZIGBNWKREJOIN/USRKIN
  +--> _USRKEYSCAN/USRKIN
  +--> DCODESCAN/USRKIN
  +--> THREAD_TIMING/TIMERACT
  +--> THREAD_RELAY/RELAY
  +--> THREAD_DATATRANS/DATATRANS
  +--> THREAD_TIPS/TIPS

BSP_INIT/USR_MAIN                            ----- -----  ----- -----  ----- -----  ----- -----
  +--> APPTIMER0_INIT/APPTIMER
  +--> ZIGBUART_PININIT/DATATRANS
  +--> UARTOBJZIGB_INIT/DATATRANS
  +--> TIPLED_PININIT/TIPS
  +--> USRKIN_PININIT/USRKIN
  +--> RELAY_PININIT/RELAY

APPTIMER0_INIT/APPTIMER                      ----- -----  ----- -----  ----- -----  ----- -----

ZIGBUART_PININIT/DATATRANS                   ----- -----  ----- -----  ----- -----  ----- -----

UARTOBJZIGB_INIT/DATATRANS                   ----- -----  0025H 0028H  ----- -----  ----- -----
  +--> ?CO?DATATRANS
  +--> _PRINTSTRING1/USART
  +--> _PRINTSTRING1_LOGOUT/USART

?CO?DATATRANS                                ----- -----  ----- -----  ----- -----  ----- -----

_PRINTSTRING1/USART                          ----- -----  ----- -----  ----- -----  ----- -----
  +--> _TX1_WRITE2BUFF/USART

_TX1_WRITE2BUFF/USART                        ----- -----  ----- -----  ----- -----  ----- -----

_PRINTSTRING1_LOGOUT/USART                   ----- -----  002EH 0030H  ----- -----  ----- -----
  +--> _DELAYMS/DELAY
  +--> _PRINTSTRING1/USART

_DELAYMS/DELAY                               ----- -----  ----- -----  ----- -----  ----- -----
  +--> _DELAY_MS/DELAY

_DELAY_MS/DELAY                              ----- -----  ----- -----  ----- -----  ----- -----

TIPLED_PININIT/TIPS                          ----- -----  ----- -----  ----- -----  ----- -----
  +--> _TIPSLED_COLORSET/TIPS

_TIPSLED_COLORSET/TIPS                       ----- -----  0025H 0028H  ----- -----  ----- -----
  +--> ?CO?TIPS

?CO?TIPS                                     ----- -----  ----- -----  ----- -----  ----- -----

USRKIN_PININIT/USRKIN                        ----- -----  ----- -----  ----- -----  ----- -----

RELAY_PININIT/RELAY                          ----- -----  ----- -----  0086H 0086H  ----- -----
  +--> _EEPROM_READ_N/EEPROM
  +--> _COVEREEPROM_WRITE_N/EEPROM
  +--> RELAY_STATUSREALES/RELAY

_EEPROM_READ_N/EEPROM                        ----- -----  0039H 003FH  ----- -----  ----- -----
  +--> DISABLEEEPROM/EEPROM

DISABLEEEPROM/EEPROM                         ----- -----  ----- -----  ----- -----  ----- -----

_COVEREEPROM_WRITE_N/EEPROM                  ----- -----  0032H 0038H  ----- -----  01E4H 0263H
LX51 LINKER/LOCATER V4.66.41.0                                                        09/02/2018  12:30:49  PAGE 6


  +--> ?CO?EEPROM
  +--> _EEPROM_READ_N/EEPROM
  +--> _EEPROM_SECTORERASE/EEPROM
  +--> _EEPROM_WRITE_N/EEPROM

?CO?EEPROM                                   ----- -----  ----- -----  ----- -----  ----- -----

_EEPROM_SECTORERASE/EEPROM                   ----- -----  ----- -----  ----- -----  ----- -----
  +--> DISABLEEEPROM/EEPROM

_EEPROM_WRITE_N/EEPROM                       ----- -----  0039H 003FH  ----- -----  ----- -----
  +--> DISABLEEEPROM/EEPROM

RELAY_STATUSREALES/RELAY                     ----- -----  ----- -----  ----- -----  ----- -----
  +--> TIPS_STATUSCHANGETONORMAL/TIPS

TIPS_STATUSCHANGETONORMAL/TIPS               ----- -----  ----- -----  ----- -----  ----- -----

BSP_DATSREALES/USR_MAIN                      ----- -----  ----- -----  ----- -----  ----- -----
  +--> MAC_ID_RELAES/DATAMANAGE
  +--> PORTCTRLEACHOTHER_REALES/DATAMANAGE
  +--> LEDBKGCOLORSW_REALES/TIPS
  +--> TIMEZONE_REALES/TIMERACT

MAC_ID_RELAES/DATAMANAGE                     ----- -----  ----- -----  ----- -----  ----- -----

PORTCTRLEACHOTHER_REALES/DATAMANAGE          ----- -----  ----- -----  ----- -----  ----- -----
  +--> _EEPROM_READ_N/EEPROM

LEDBKGCOLORSW_REALES/TIPS                    ----- -----  ----- -----  ----- -----  ----- -----
  +--> _EEPROM_READ_N/EEPROM

TIMEZONE_REALES/TIMERACT                     ----- -----  ----- -----  ----- -----  ----- -----
  +--> _EEPROM_READ_N/EEPROM

BIRTHDAY_JUDGE/DATAMANAGE                    ----- -----  ----- -----  ----- -----  0000H 0000H
  +--> _EEPROM_READ_N/EEPROM
  +--> FACTORY_RECOVER/DATAMANAGE

FACTORY_RECOVER/DATAMANAGE                   ----- -----  ----- -----  ----- -----  0164H 01E3H
  +--> ?CO?DATAMANAGE
  +--> _COVEREEPROM_WRITE_N/EEPROM
  +--> _DELAYMS/DELAY

?CO?DATAMANAGE                               ----- -----  ----- -----  ----- -----  ----- -----

TOUCHPAD_SCAN/USRKIN                         ----- -----  0025H 0027H  ----- -----  ----- -----
  +--> TOUCHPADSCAN_ONESHOOT/USRKIN
  +--> ?CO?USRKIN
  +--> _TOUCHPAD_FUNCTIONTRIGNORMAL/USRKIN
  +--> _BEEPS_USRACTIVE/TIPS
  +--> _TOUCHPAD_FUNCTIONTRIGCONTINUE/USRKIN

TOUCHPADSCAN_ONESHOOT/USRKIN                 ----- -----  ----- -----  ----- -----  ----- -----

?CO?USRKIN                                   ----- -----  ----- -----  ----- -----  ----- -----

_TOUCHPAD_FUNCTIONTRIGNORMAL/USRKIN          ----- -----  ----- -----  ----- -----  ----- -----

_BEEPS_USRACTIVE/TIPS                        ----- -----  ----- -----  ----- -----  ----- -----

_TOUCHPAD_FUNCTIONTRIGCONTINUE/USRKIN        ----- -----  0028H 0028H  ----- -----  ----- -----
  +--> ZIGB_NWKOPEN/DATATRANS

ZIGB_NWKOPEN/DATATRANS                       20H.1 20H.2  002DH 002EH  ----- -----  00E2H 00E4H
LX51 LINKER/LOCATER V4.66.41.0                                                        09/02/2018  12:30:49  PAGE 7


  +--> ?CO?DATATRANS
  +--> _ZIGB_VALIDA_INPUT/DATATRANS

_ZIGB_VALIDA_INPUT/DATATRANS                 ----- -----  0035H 0044H  ----- -----  00EDH 014CH
  +--> ?CO?DATATRANS
  +--> _ZIGB_TXFRAMELOAD/DATATRANS
  +--> _UART1_DATSSEND/USART
  +--> _DELAYMS/DELAY
  +--> _MEMMEM/PARS_METHOD

_ZIGB_TXFRAMELOAD/DATATRANS                  ----- -----  0045H 0051H  ----- -----  ----- -----

_UART1_DATSSEND/USART                        ----- -----  0045H 0047H  ----- -----  ----- -----
  +--> _TX1_WRITE2BUFF/USART

_MEMMEM/PARS_METHOD                          ----- -----  0045H 0053H  ----- -----  ----- -----

FUN_TEST/USRKIN                              ----- -----  ----- -----  ----- -----  ----- -----

USRKEYFUN_ZIGBNWKREJOIN/USRKIN               ----- -----  ----- -----  ----- -----  ----- -----

_USRKEYSCAN/USRKIN                           ----- -----  0025H 002DH  ----- -----  ----- -----
  +--> USRKEYSCAN_ONESHOOT/USRKIN
  +--> ?CO?USRKIN

USRKEYSCAN_ONESHOOT/USRKIN                   ----- -----  ----- -----  ----- -----  ----- -----

DCODESCAN/USRKIN                             20H.0 20H.0  0025H 0026H  ----- -----  ----- -----
  +--> DCODESCAN_ONESHOOT/USRKIN
  +--> SWITCHTYPERESERVE_GET/DATAMANAGE

DCODESCAN_ONESHOOT/USRKIN                    ----- -----  ----- -----  ----- -----  ----- -----

SWITCHTYPERESERVE_GET/DATAMANAGE             ----- -----  ----- -----  ----- -----  ----- -----

THREAD_TIMING/TIMERACT                       ----- -----  0025H 0025H  ----- -----  0000H 0011H
  +--> ?CO?TIMERACT
  +--> TIME_LOGOUT/TIMERACT
  +--> _EEPROM_READ_N/EEPROM
  +--> _DATSTIMNIGHT_READ_EEPROM/TIMERACT
  +--> _DATSTIMING_READ_EEPROM/TIMERACT
  +--> _WEEKEND_JUDGE/TIMERACT
  +--> _COVEREEPROM_WRITE_N/EEPROM

?CO?TIMERACT                                 ----- -----  ----- -----  ----- -----  ----- -----

TIME_LOGOUT/TIMERACT                         ----- -----  0026H 002CH  ----- -----  0012H 0061H
  +--> ?CO?TIMERACT
  +--> PRINTF/PRINTF
  +--> _PRINTSTRING1_LOGOUT/USART

PRINTF/PRINTF                                20H.5 21H.5  002EH 0041H  ----- -----  ----- -----
  +--> PUTCHAR/PUTCHAR

PUTCHAR/PUTCHAR                              ----- -----  ----- -----  ----- -----  ----- -----

_DATSTIMNIGHT_READ_EEPROM/TIMERACT           ----- -----  0026H 002FH  ----- -----  ----- -----
  +--> ?CO?TIMERACT
  +--> _EEPROM_READ_N/EEPROM

_DATSTIMING_READ_EEPROM/TIMERACT             ----- -----  0026H 0035H  ----- -----  ----- -----
  +--> ?CO?TIMERACT
  +--> _EEPROM_READ_N/EEPROM

_WEEKEND_JUDGE/TIMERACT                      ----- -----  ----- -----  ----- -----  ----- -----
LX51 LINKER/LOCATER V4.66.41.0                                                        09/02/2018  12:30:49  PAGE 8



THREAD_RELAY/RELAY                           ----- -----  ----- -----  ----- -----  ----- -----
  +--> RELAY_ACT/RELAY

RELAY_ACT/RELAY                              ----- -----  0025H 0027H  ----- -----  ----- -----
  +--> RELAY_STATUSREALES/RELAY
  +--> _COVEREEPROM_WRITE_N/EEPROM

THREAD_DATATRANS/DATATRANS                   ----- -----  0025H 0025H  0086H 008AH  0000H 00BFH
  +--> ?CO?DATATRANS
  +--> GETSYSTEMTIME_REALES/DATATRANS
  +--> _ZIGB_SYSTIMESET/DATATRANS
  +--> _DATAPARING_NOMAL/DATATRANS
  +--> _DATAPARING_ZIGBSYSCTRL/DATATRANS
  +--> ZIGB_NWKJOINREQUEST/DATATRANS
  +--> DATATRANSREQUEST_DATSSEND/DATATRANS

GETSYSTEMTIME_REALES/DATATRANS               20H.0 20H.0  0026H 002DH  ----- -----  00C0H 00DFH
  +--> ?CO?DATATRANS
  +--> _ZIGB_DATSREQUEST/DATATRANS

_ZIGB_DATSREQUEST/DATATRANS                  ----- -----  0030H 003FH  ----- -----  ----- -----
  +--> _UART1_DATSSEND/USART
  +--> _DELAYMS/DELAY

_ZIGB_SYSTIMESET/DATATRANS                   20H.1 20H.1  002DH 0034H  ----- -----  00E2H 00ECH
  +--> ?CO?DATATRANS
  +--> _ZIGB_VALIDA_INPUT/DATATRANS

_DATAPARING_NOMAL/DATATRANS                  20H.0 20H.4  0026H 002DH  ----- -----  00C0H 0163H
  +--> ?CO?DATATRANS
  +--> _FRAME_CHECK/DATATRANS
  +--> PRINTF/PRINTF
  +--> _PRINTSTRING1_LOGOUT/USART
  +--> ZIGB_GETPANIDCURRENT/DATATRANS
  +--> _COVEREEPROM_WRITE_N/EEPROM
  +--> _EEPROM_READ_N/EEPROM
  +--> FACTORY_RECOVER/DATAMANAGE
  +--> _SWSCENARIO_OPRATESAVE/DATAMANAGE
  +--> _SWSCENARIO_OPRATECHECK/DATAMANAGE
  +--> _SWSCENARIO_OPRATEDELE/DATAMANAGE
  +--> DTASTX_LOADBASIC_CUST/DATATRANS

_FRAME_CHECK/DATATRANS                       ----- -----  0034H 0036H  ----- -----  ----- -----

ZIGB_GETPANIDCURRENT/DATATRANS               ----- -----  002EH 002FH  ----- -----  0164H 0183H
  +--> ?CO?DATATRANS
  +--> _ZIGB_DATSREQUEST/DATATRANS

_SWSCENARIO_OPRATESAVE/DATAMANAGE            ----- -----  002EH 0031H  ----- -----  ----- -----
  +--> SWSCENARIONUM_FINDFROMEEPROM/DATAMANAGE
  +--> _COVEREEPROM_WRITE_N/EEPROM

SWSCENARIONUM_FINDFROMEEPROM/DATAMANAGE      20H.5 20H.5  0032H 0032H  ----- -----  0164H 0182H
  +--> ?CO?DATAMANAGE
  +--> _EEPROM_READ_N/EEPROM

_SWSCENARIO_OPRATECHECK/DATAMANAGE           ----- -----  002EH 002EH  ----- -----  ----- -----
  +--> SWSCENARIONUM_FINDFROMEEPROM/DATAMANAGE
  +--> _EEPROM_READ_N/EEPROM

_SWSCENARIO_OPRATEDELE/DATAMANAGE            ----- -----  002EH 002FH  ----- -----  ----- -----
  +--> SWSCENARIONUM_FINDFROMEEPROM/DATAMANAGE
  +--> _COVEREEPROM_WRITE_N/EEPROM

LX51 LINKER/LOCATER V4.66.41.0                                                        09/02/2018  12:30:49  PAGE 9


DTASTX_LOADBASIC_CUST/DATATRANS              20H.5 20H.6  002EH 0033H  ----- -----  0164H 01A3H
  +--> _FRAME_CHECK/DATATRANS
  +--> ?CO?DATATRANS

_DATAPARING_ZIGBSYSCTRL/DATATRANS            20H.0 20H.0  0026H 002CH  ----- -----  00C0H 00E1H
  +--> ?CO?DATATRANS
  +--> ZIGB_NWKOPEN/DATATRANS
  +--> _ZIGB_SYSTIMESET/DATATRANS

ZIGB_NWKJOINREQUEST/DATATRANS                20H.0 20H.0  0026H 0036H  ----- -----  00C0H 00FFH
  +--> ?CO?DATATRANS
  +--> _MEMMEM/PARS_METHOD
  +--> _ZIGB_TXFRAMELOAD/DATATRANS
  +--> _UART1_DATSSEND/USART

DATATRANSREQUEST_DATSSEND/DATATRANS          ----- -----  0026H 002AH  008BH 008DH  00C0H 015FH
  +--> ?CO?DATATRANS
  +--> _ZIGB_TXFRAMELOAD/DATATRANS
  +--> _ZIGB_DATSLOAD_DATSSEND/DATATRANS
  +--> _UART1_DATSSEND/USART
  +--> _MEMMEM/PARS_METHOD

_ZIGB_DATSLOAD_DATSSEND/DATATRANS            ----- -----  002BH 0035H  ----- -----  0160H 01A7H
  +--> ?CO?DATATRANS
  +--> _ZIGB_TXFRAMELOAD/DATATRANS

THREAD_TIPS/TIPS                             ----- -----  ----- -----  ----- -----  ----- -----
  +--> TIPS_STATUSCHANGETONORMAL/TIPS
  +--> _THREAD_TIPSGETDARK/TIPS
  +--> TIPS_SYSSTANDBY/TIPS
  +--> ?CO?TIPS
  +--> _TIPSLED_COLORSET/TIPS
  +--> _TIPS_SPECIFIED/TIPS

_THREAD_TIPSGETDARK/TIPS                     ----- -----  ----- -----  ----- -----  ----- -----

TIPS_SYSSTANDBY/TIPS                         ----- -----  ----- -----  ----- -----  ----- -----
  +--> ?CO?TIPS

_TIPS_SPECIFIED/TIPS                         ----- -----  ----- -----  ----- -----  ----- -----
  +--> ?CO?TIPS

?C_INITSEG                                   ----- -----  ----- -----  ----- -----  ----- -----



PUBLIC SYMBOLS OF MODULE:  .\Output\swZigbNode_sw3bit (USR_MAIN)


      VALUE       CLASS    TYPE      PUBLIC SYMBOL NAME
      =================================================
      00000032H   DATA     BYTE      ?_coverEEPROM_write_n?BYTE
      00000039H   DATA     BYTE      ?_EEPROM_read_n?BYTE
      00000039H   DATA     BYTE      ?_EEPROM_write_n?BYTE
      00000045H   DATA     BYTE      ?_memmem?BYTE
      0000002EH   DATA     ---       ?_PRINTF517?BYTE
      0000002EH   DATA     ---       ?_PRINTF?BYTE
      0000002EH   DATA     ---       ?_SPRINTF517?BYTE
      0000002EH   DATA     ---       ?_SPRINTF?BYTE
      00000025H   DATA     BYTE      ?_tipsLED_colorSet?BYTE
      00000025H   DATA     BYTE      ?_UsrKEYScan?BYTE
      00000035H   DATA     BYTE      ?_zigb_VALIDA_INPUT?BYTE
      01003F62H   CODE     ---       ?C?CCASE
      01003E0FH   CODE     ---       ?C?CLDOPTR
      01003DF6H   CODE     ---       ?C?CLDPTR
LX51 LINKER/LOCATER V4.66.41.0                                                        09/02/2018  12:30:49  PAGE 10


      00000000H   NUMBER   ---       ?C?CODESEG
      01003DD0H   CODE     ---       ?C?COPY
      01003E4EH   CODE     ---       ?C?CSTOPTR
      01003E3CH   CODE     ---       ?C?CSTPTR
      01003F88H   CODE     ---       ?C?ICALL
      01003F8CH   CODE     ---       ?C?ICALL2
      01003ED7H   CODE     ---       ?C?ILDIX
      01003E70H   CODE     ---       ?C?IMUL
      01003EEDH   CODE     ---       ?C?LMUL
      01003F4FH   CODE     ---       ?C?LSHL
      01004114H   CODE     ---       ?C?MEMCMP
      01004138H   CODE     ---       ?C?MEMSET
      01004164H   CODE     ---       ?C?PLDIIDATA
      01003E82H   CODE     ---       ?C?UIDIV
      01003F3CH   CODE     ---       ?C?ULSHR
      00000000H   NUMBER   ---       ?C?XDATASEG
      010047DCH   CODE     ---       ?C_START
      01000000H   CODE     ---       ?C_STARTUP
      00000025H   DATA     BYTE      ?relay_Act?BYTE
      00000020H.5 BIT      BIT       ?swScenarioNum_findFromEEPROM?BIT
      00000032H   DATA     BYTE      ?swScenarioNum_findFromEEPROM?BYTE
      00000026H   DATA     BYTE      ?time_Logout?BYTE
      00000020H.1 BIT      BIT       ?ZigB_nwkOpen?BIT
      0000002DH   DATA     BYTE      ?ZigB_nwkOpen?BYTE
      010031BFH   CODE     ---       _beeps_usrActive
      01002D3AH   CODE     ---       _coverEEPROM_write_n
      0100232FH   CODE     ---       _datsTiming_read_eeprom
      0100241DH   CODE     ---       _datsTimNight_read_eeprom
      010007EFH   CODE     ---       _delay_ms
      0100324BH   CODE     ---       _delayMs
      01002F88H   CODE     ---       _EEPROM_read_n
      010031DFH   CODE     ---       _EEPROM_SectorErase
      01003000H   CODE     ---       _EEPROM_write_n
      0100291CH   CODE     ---       _memmem
      010041D6H   CODE     ---       _PRINTF
      010041D6H   CODE     ---       _PRINTF517
      01003299H   CODE     ---       _PrintString1
      01000FC9H   CODE     ---       _PrintString1_logOut
      01004821H   CODE     ---       _PUTCHAR
      010041D0H   CODE     ---       _SPRINTF
      010041D0H   CODE     ---       _SPRINTF517
      01003106H   CODE     ---       _swScenario_oprateCheck
      01002EC3H   CODE     ---       _swScenario_oprateDele
      01002C72H   CODE     ---       _swScenario_oprateSave
      01002AA2H   CODE     ---       _thread_tipsGetDark
      010015F5H   CODE     ---       _tips_specified
      01002B8CH   CODE     ---       _tipsLED_colorSet
      01001FDBH   CODE     ---       _touchPad_functionTrigContinue
      01002E7EH   CODE     ---       _touchPad_functionTrigNormal
      0100317AH   CODE     ---       _TX1_write2buff
      01003154H   CODE     ---       _uart1_datsSend
*DEL*:00000000H   CODE     ---       _uart1_logOut
      01002672H   CODE     ---       _UsrKEYScan
      010030DCH   CODE     ---       _weekend_judge
      0100223BH   CODE     ---       _zigB_sysTimeSet
      010025CDH   CODE     ---       _zigb_VALIDA_INPUT
*SFR* 000000D0H.6 DATA     BIT       AC
*SFR* 000000E0H   DATA     BYTE      ACC
*SFR* 000000E0H   DATA     BIT       ACC0
*SFR* 000000E0H.1 DATA     BIT       ACC1
*SFR* 000000E0H.2 DATA     BIT       ACC2
*SFR* 000000E0H.3 DATA     BIT       ACC3
*SFR* 000000E0H.4 DATA     BIT       ACC4
*SFR* 000000E0H.5 DATA     BIT       ACC5
*SFR* 000000E0H.6 DATA     BIT       ACC6
LX51 LINKER/LOCATER V4.66.41.0                                                        09/02/2018  12:30:49  PAGE 11


*SFR* 000000E0H.7 DATA     BIT       ACC7
*SFR* 000000BCH   DATA     BYTE      ADC_CONTR
*SFR* 000000BDH   DATA     BYTE      ADC_RES
*SFR* 000000BEH   DATA     BYTE      ADC_RESL
      0100000EH   CODE     ---       appTimer0_Init
*SFR* 0000008EH   DATA     BYTE      AUXR
*SFR* 000000A2H   DATA     BYTE      AUXR1
*SFR* 0000008FH   DATA     BYTE      AUXR2
*SFR* 000000F0H   DATA     BYTE      B
*SFR* 000000F0H   DATA     BIT       B0
*SFR* 000000F0H.1 DATA     BIT       B1
*SFR* 000000F0H.2 DATA     BIT       B2
*SFR* 000000F0H.3 DATA     BIT       B3
*SFR* 000000F0H.4 DATA     BIT       B4
*SFR* 000000F0H.5 DATA     BIT       B5
*SFR* 000000F0H.6 DATA     BIT       B6
*SFR* 000000F0H.7 DATA     BIT       B7
      0100319DH   CODE     ---       birthDay_Judge
      010017F4H   CODE     ---       bsp_datsReales
      010032ACH   CODE     ---       bsp_Init
*SFR* 000000A1H   DATA     BYTE      BUS_SPEED
*SFR* 000000FAH   DATA     BYTE      CCAP0H
*SFR* 000000EAH   DATA     BYTE      CCAP0L
*SFR* 000000FBH   DATA     BYTE      CCAP1H
*SFR* 000000EBH   DATA     BYTE      CCAP1L
*SFR* 000000FCH   DATA     BYTE      CCAP2H
*SFR* 000000ECH   DATA     BYTE      CCAP2L
*SFR* 000000DAH   DATA     BYTE      CCAPM0
*SFR* 000000DBH   DATA     BYTE      CCAPM1
*SFR* 000000DCH   DATA     BYTE      CCAPM2
*SFR* 000000D8H   DATA     BIT       CCF0
*SFR* 000000D8H.1 DATA     BIT       CCF1
*SFR* 000000D8H.2 DATA     BIT       CCF2
*SFR* 000000D8H   DATA     BYTE      CCON
*SFR* 00000090H.1 DATA     BIT       CCP0
*SFR* 00000090H   DATA     BIT       CCP1
*SFR* 000000B0H.7 DATA     BIT       CCP2
*SFR* 000000D8H.7 DATA     BIT       CF
*SFR* 000000F9H   DATA     BYTE      CH
*SFR* 000000E9H   DATA     BYTE      CL
*SFR* 00000097H   DATA     BYTE      CLK_DIV
*SFR* 000000B0H.5 DATA     BIT       CLKOUT0
*SFR* 000000B0H.4 DATA     BIT       CLKOUT1
*SFR* 000000D9H   DATA     BYTE      CMOD
      0100496AH   CONST    ---       color_Tab
      00000014H   DATA     ---       COM1
      00000023H.0 BIT      BIT       coordinatorOnline_IF
      0000006DH   DATA     BYTE      counter_ifTipsFree
      02000492H   XDATA    BYTE      counter_tipsAct
*SFR* 000000D8H.6 DATA     BIT       CR
      0000001BH   DATA     ---       CTRLEATHER_PORT
*SFR* 000000D0H.7 DATA     BIT       CY
      00000013H   DATA     BYTE      datsRcv_length
      020002B2H   XDATA    ---       datsRcv_respond
      020002FEH   XDATA    ---       datsRcv_ZIGB
      02000266H   XDATA    ---       datsSend_request
*SFR* 00000090H   DATA     BIT       Dcode0
*SFR* 00000090H.1 DATA     BIT       Dcode1
*SFR* 00000090H.2 DATA     BIT       Dcode2
*SFR* 00000090H.3 DATA     BIT       Dcode3
*SFR* 00000090H.3 DATA     BIT       Dcode4
*SFR* 00000090H.4 DATA     BIT       Dcode5
      01002B17H   CODE     ---       DcodeScan
      01002F07H   CODE     ---       DcodeScan_oneShoot
      0000007EH   IDATA    WORD      delayCnt_closeLoop
LX51 LINKER/LOCATER V4.66.41.0                                                        09/02/2018  12:30:49  PAGE 12


      0000007CH   IDATA    WORD      delayCnt_onoff
      0000007BH   IDATA    BYTE      delayPeriod_closeLoop
      00000085H   IDATA    BYTE      delayPeriod_onoff
      00000084H   IDATA    BYTE      delayUp_act
      0000001EH   DATA     BYTE      DEV_actReserve
      0000006CH   DATA     BYTE      dev_statusBeeps
      00000024H.5 BIT      BIT       deviceLock_flag
*DEL*:00000000H   CODE     ---       devLockInfo_Reales
      0000000EH   DATA     BYTE      devRunning_Status
      00000011H   DATA     ---       devStatus_switch
      0200049CH   XDATA    ---       devTips_beep
      0000006AH   DATA     BYTE      devTips_nwkZigb
      0000006EH   DATA     BYTE      devTips_status
      010032BEH   CODE     ---       DisableEEPROM
*SFR* 00000083H   DATA     BYTE      DPH
*SFR* 00000082H   DATA     BYTE      DPL
*SFR* 000000A8H.7 DATA     BIT       EA
      0000007AH   DATA     BYTE      EACHCTRL_realesFLG
*SFR* 000000A8H.5 DATA     BIT       EADC
*SFR* 000000A8H.6 DATA     BIT       ELVD
*SFR* 000000A8H.4 DATA     BIT       ES
*SFR* 000000A8H.1 DATA     BIT       ET0
*SFR* 000000A8H.3 DATA     BIT       ET1
*SFR* 000000A8H   DATA     BIT       EX0
*SFR* 000000A8H.2 DATA     BIT       EX1
*SFR* 000000D0H.5 DATA     BIT       F0
*SFR* 000000D0H.1 DATA     BIT       F1
      01002E39H   CODE     ---       Factory_recover
      0100000AH   CODE     ---       fun_Test
      0000000FH   DATA     BYTE      heartBeatCount
      00000023H.2 BIT      BIT       heartBeatCycle_FLG
*SFR* 000000C3H   DATA     BYTE      IAP_ADDRH
*SFR* 000000C4H   DATA     BYTE      IAP_ADDRL
*SFR* 000000C5H   DATA     BYTE      IAP_CMD
*SFR* 000000C7H   DATA     BYTE      IAP_CONTR
*SFR* 000000C2H   DATA     BYTE      IAP_DATA
*SFR* 000000C6H   DATA     BYTE      IAP_TRIG
*SFR* 000000A8H   DATA     BYTE      IE
*SFR* 00000088H.1 DATA     BIT       IE0
*SFR* 00000088H.3 DATA     BIT       IE1
*SFR* 000000AFH   DATA     BYTE      IE2
      00000083H   IDATA    BYTE      ifDelay_sw_running_FLAG
      00000024H.2 BIT      BIT       ifNightMode_sw_running_FLAG
      00000024H.3 BIT      BIT       ifTim_sw_running_FLAG
*SFR* 000000B0H.2 DATA     BIT       INT0
*SFR* 000000B0H.3 DATA     BIT       INT1
*SFR* 0000008FH   DATA     BYTE      INT_CLKO
*SFR* 000000B8H   DATA     BYTE      IP
*SFR* 000000B5H   DATA     BYTE      IP2
*SFR* 000000B7H   DATA     BYTE      IPH
*SFR* 000000B6H   DATA     BYTE      IPH2
*SFR* 000000C3H   DATA     BYTE      ISP_ADDRH
*SFR* 000000C4H   DATA     BYTE      ISP_ADDRL
*SFR* 000000C5H   DATA     BYTE      ISP_CMD
*SFR* 000000C7H   DATA     BYTE      ISP_CONTR
*SFR* 000000C2H   DATA     BYTE      ISP_DATA
*SFR* 000000C6H   DATA     BYTE      ISP_TRIG
*SFR* 00000088H   DATA     BIT       IT0
*SFR* 00000088H.2 DATA     BIT       IT1
      00000022H.5 BIT      BIT       ledBackground_method
      01002FC5H   CODE     ---       ledBKGColorSw_Reales
      020004A8H   XDATA    ---       MAC_ID
      020004A2H   XDATA    ---       MAC_ID_DST
      010031FEH   CODE     ---       MAC_ID_Relaes
      01002F4AH   CODE     ---       main
LX51 LINKER/LOCATER V4.66.41.0                                                        09/02/2018  12:30:49  PAGE 13


*SFR* 000000D0H.2 DATA     BIT       OV
*SFR* 000000D0H   DATA     BIT       P
*SFR* 00000080H   DATA     BYTE      P0
*SFR* 00000080H   DATA     BIT       P00
*SFR* 00000080H.1 DATA     BIT       P01
*SFR* 00000080H.2 DATA     BIT       P02
*SFR* 00000080H.3 DATA     BIT       P03
*SFR* 00000080H.4 DATA     BIT       P04
*SFR* 00000080H.5 DATA     BIT       P05
*SFR* 00000080H.6 DATA     BIT       P06
*SFR* 00000080H.7 DATA     BIT       P07
*SFR* 00000094H   DATA     BYTE      P0M0
*SFR* 00000093H   DATA     BYTE      P0M1
*SFR* 00000090H   DATA     BYTE      P1
*SFR* 00000090H   DATA     BIT       P10
*SFR* 00000090H.1 DATA     BIT       P11
*SFR* 00000090H.2 DATA     BIT       P12
*SFR* 00000090H.3 DATA     BIT       P13
*SFR* 00000090H.4 DATA     BIT       P14
*SFR* 00000090H.5 DATA     BIT       P15
*SFR* 00000090H.6 DATA     BIT       P16
*SFR* 00000090H.7 DATA     BIT       P17
*SFR* 0000009DH   DATA     BYTE      P1ASF
*SFR* 00000092H   DATA     BYTE      P1M0
*SFR* 00000091H   DATA     BYTE      P1M1
*SFR* 000000A0H   DATA     BYTE      P2
*SFR* 000000A0H   DATA     BIT       P20
*SFR* 000000A0H.1 DATA     BIT       P21
*SFR* 000000A0H.2 DATA     BIT       P22
*SFR* 000000A0H.3 DATA     BIT       P23
*SFR* 000000A0H.4 DATA     BIT       P24
*SFR* 000000A0H.5 DATA     BIT       P25
*SFR* 000000A0H.6 DATA     BIT       P26
*SFR* 000000A0H.7 DATA     BIT       P27
*SFR* 00000096H   DATA     BYTE      P2M0
*SFR* 00000095H   DATA     BYTE      P2M1
*SFR* 000000B0H   DATA     BYTE      P3
*SFR* 000000B0H   DATA     BIT       P30
*SFR* 000000B0H.1 DATA     BIT       P31
*SFR* 000000B0H.2 DATA     BIT       P32
*SFR* 000000B0H.3 DATA     BIT       P33
*SFR* 000000B0H.4 DATA     BIT       P34
*SFR* 000000B0H.5 DATA     BIT       P35
*SFR* 000000B0H.6 DATA     BIT       P36
*SFR* 000000B0H.7 DATA     BIT       P37
*SFR* 000000B2H   DATA     BYTE      P3M0
*SFR* 000000B1H   DATA     BYTE      P3M1
*SFR* 000000C0H   DATA     BYTE      P4
*SFR* 000000C0H   DATA     BIT       P40
*SFR* 000000C0H.1 DATA     BIT       P41
*SFR* 000000C0H.2 DATA     BIT       P42
*SFR* 000000C0H.3 DATA     BIT       P43
*SFR* 000000C0H.4 DATA     BIT       P44
*SFR* 000000C0H.5 DATA     BIT       P45
*SFR* 000000C0H.6 DATA     BIT       P46
*SFR* 000000C0H.7 DATA     BIT       P47
*SFR* 000000B4H   DATA     BYTE      P4M0
*SFR* 000000B3H   DATA     BYTE      P4M1
*SFR* 000000C8H   DATA     BYTE      P5
*SFR* 000000C8H   DATA     BIT       P50
*SFR* 000000C8H.1 DATA     BIT       P51
*SFR* 000000C8H.2 DATA     BIT       P52
*SFR* 000000C8H.3 DATA     BIT       P53
*SFR* 000000C8H.4 DATA     BIT       P54
*SFR* 000000C8H.5 DATA     BIT       P55
LX51 LINKER/LOCATER V4.66.41.0                                                        09/02/2018  12:30:49  PAGE 14


*SFR* 000000C8H.6 DATA     BIT       P56
*SFR* 000000C8H.7 DATA     BIT       P57
*SFR* 000000CAH   DATA     BYTE      P5M0
*SFR* 000000C9H   DATA     BYTE      P5M1
*SFR* 000000E8H   DATA     BYTE      P6
*SFR* 000000CCH   DATA     BYTE      P6M0
*SFR* 000000CBH   DATA     BYTE      P6M1
*SFR* 000000F8H   DATA     BYTE      P7
*SFR* 000000E2H   DATA     BYTE      P7M0
*SFR* 000000E1H   DATA     BYTE      P7M1
*SFR* 000000A2H   DATA     BYTE      P_SW1
*SFR* 000000BAH   DATA     BYTE      P_SW2
*SFR* 000000B8H.5 DATA     BIT       PADC
*SFR* 000000F2H   DATA     BYTE      PCA_PWM0
*SFR* 000000F3H   DATA     BYTE      PCA_PWM1
*SFR* 000000F4H   DATA     BYTE      PCA_PWM2
*SFR* 00000087H   DATA     BYTE      PCON
*SFR* 00000097H   DATA     BYTE      PCON2
*DEL*:00000000H   CODE     ---       pinBeep_Init
*SFR* 000000B8H.6 DATA     BIT       PLVD
      01003260H   CODE     ---       portCtrlEachOther_Reales
*SFR* 000000B8H.7 DATA     BIT       PPCA
*SFR* 000000B8H.4 DATA     BIT       PS
*SFR* 000000D0H   DATA     BYTE      PSW
*SFR* 000000B8H.1 DATA     BIT       PT0
*SFR* 000000B8H.3 DATA     BIT       PT1
*SFR* 000000B8H   DATA     BIT       PX0
*SFR* 000000B8H.2 DATA     BIT       PX1
*SFR* 00000098H.2 DATA     BIT       RB8
*SFR* 000000B0H.7 DATA     BIT       RD
      00000023H.3 BIT      BIT       reConnectAfterDatsReq_IF
      02000493H   XDATA    ---       relay1_Tips
      02000496H   XDATA    ---       relay2_Tips
      02000499H   XDATA    ---       relay3_Tips
      01002800H   CODE     ---       relay_Act
      01002DEEH   CODE     ---       relay_pinInit
      01003079H   CODE     ---       relay_statusReales
      020004C1H   XDATA    BYTE      relayStatus_ifSave
*SFR* 00000098H.4 DATA     BIT       REN
*SFR* 00000098H   DATA     BIT       RI
*SFR* 000000D6H   DATA     BYTE      RL_T2H
*SFR* 000000D7H   DATA     BYTE      RL_T2L
*SFR* 000000D4H   DATA     BYTE      RL_T3H
*SFR* 000000D5H   DATA     BYTE      RL_T3L
*SFR* 000000D2H   DATA     BYTE      RL_T4H
*SFR* 000000D3H   DATA     BYTE      RL_T4L
*SFR* 0000008CH   DATA     BYTE      RL_TH0
*SFR* 0000008DH   DATA     BYTE      RL_TH1
*SFR* 0000008AH   DATA     BYTE      RL_TL0
*SFR* 0000008BH   DATA     BYTE      RL_TL1
*SFR* 000000D0H.3 DATA     BIT       RS0
*SFR* 000000D0H.4 DATA     BIT       RS1
      0200037FH   XDATA    ---       RX1_Buffer
*SFR* 000000B0H   DATA     BIT       RXD
*SFR* 00000090H   DATA     BIT       RXD2
      00000010H   DATA     BYTE      rxTout_count
      00000023H.1 BIT      BIT       rxTout_count_EN
*SFR* 0000009BH   DATA     BYTE      S2BUF
*SFR* 0000009AH   DATA     BYTE      S2CON
*SFR* 000000ADH   DATA     BYTE      S3BUF
*SFR* 000000ACH   DATA     BYTE      S3CON
*SFR* 00000085H   DATA     BYTE      S4BUF
*SFR* 00000084H   DATA     BYTE      S4CON
*SFR* 000000A9H   DATA     BYTE      SADDR
*SFR* 000000B9H   DATA     BYTE      SADEN
LX51 LINKER/LOCATER V4.66.41.0                                                        09/02/2018  12:30:49  PAGE 15


*SFR* 00000099H   DATA     BYTE      SBUF
*SFR* 00000098H   DATA     BYTE      SCON
*SFR* 00000098H.7 DATA     BIT       SM0
*SFR* 00000098H.6 DATA     BIT       SM1
*SFR* 00000098H.5 DATA     BIT       SM2
*SFR* 00000081H   DATA     BYTE      SP
*SFR* 000000CEH   DATA     BYTE      SPCTL
*SFR* 000000CFH   DATA     BYTE      SPDAT
*SFR* 00000090H.4 DATA     BIT       SPI_MISO
*SFR* 000000A0H.2 DATA     BIT       SPI_MISO_2
*SFR* 000000C0H.1 DATA     BIT       SPI_MISO_3
*SFR* 00000090H.3 DATA     BIT       SPI_MOSI
*SFR* 000000A0H.3 DATA     BIT       SPI_MOSI_2
*SFR* 000000C0H   DATA     BIT       SPI_MOSI_3
*SFR* 00000090H.5 DATA     BIT       SPI_SCLK
*SFR* 000000A0H.1 DATA     BIT       SPI_SCLK_2
*SFR* 000000C0H.3 DATA     BIT       SPI_SCLK_3
*SFR* 00000090H.2 DATA     BIT       SPI_SS
*SFR* 000000A0H.4 DATA     BIT       SPI_SS_2
*SFR* 000000C8H.4 DATA     BIT       SPI_SS_3
*SFR* 000000CDH   DATA     BYTE      SPSTAT
      020004C0H   XDATA    BYTE      status_Relay
      020004BEH   XDATA    ---       swCommand_fromUsr
      0000001FH   DATA     BYTE      SWITCH_TYPE
      0100321BH   CODE     ---       switchTypeReserve_GET
      010027A4H   CODE     ---       swScenarioNum_findFromEEPROM
      00000082H   IDATA    BYTE      swTim_onShoot_FLAG
      020004B0H   XDATA    ---       systemTime_current
      00000080H   IDATA    WORD      sysTimeKeep_counter
      020004B7H   XDATA    BYTE      sysTimeReales_counter
      020004B8H   XDATA    CHAR      sysTimeZone_H
      020004B9H   XDATA    CHAR      sysTimeZone_M
*SFR* 000000B0H.4 DATA     BIT       T0
*SFR* 000000B0H.5 DATA     BIT       T1
*SFR* 000000D6H   DATA     BYTE      T2H
*SFR* 000000D7H   DATA     BYTE      T2L
*SFR* 000000D4H   DATA     BYTE      T3H
*SFR* 000000D5H   DATA     BYTE      T3L
*SFR* 000000D2H   DATA     BYTE      T4H
*SFR* 000000D3H   DATA     BYTE      T4L
*SFR* 000000D1H   DATA     BYTE      T4T3M
*SFR* 00000098H.3 DATA     BIT       TB8
*SFR* 00000088H   DATA     BYTE      TCON
*SFR* 00000088H.5 DATA     BIT       TF0
*SFR* 00000088H.7 DATA     BIT       TF1
*SFR* 0000008CH   DATA     BYTE      TH0
*SFR* 0000008DH   DATA     BYTE      TH1
*SFR* 000000D6H   DATA     BYTE      TH2
*SFR* 000000D4H   DATA     BYTE      TH3
*SFR* 000000D2H   DATA     BYTE      TH4
      01001800H   CODE     ---       thread_dataTrans
      010030B2H   CODE     ---       thread_Relay
      01000C8FH   CODE     ---       thread_Timing
      01001AB1H   CODE     ---       thread_Tips
*SFR* 00000098H.1 DATA     BIT       TI
      01002BFFH   CODE     ---       time_Logout
      01000800H   CODE     ---       timer0_Rountine
      0100312EH   CODE     ---       timeZone_Reales
      0100303DH   CODE     ---       tipLED_pinInit
*DEL*:00000000H   CODE     ---       tips_breath
*DEL*:00000000H   CODE     ---       tips_fadeOut
      01004967H   CONST    ---       tips_relayUnused
      01000003H   CODE     ---       tips_statusChangeToNormal
      01001000H   CODE     ---       tips_sysStandBy
      0000006BH   DATA     BYTE      tipsInsert_swLedBKG_OFF
LX51 LINKER/LOCATER V4.66.41.0                                                        09/02/2018  12:30:49  PAGE 16


      0000006FH   DATA     BYTE      tipsInsert_swLedBKG_ON
*SFR* 0000008AH   DATA     BYTE      TL0
*SFR* 0000008BH   DATA     BYTE      TL1
*SFR* 000000D7H   DATA     BYTE      TL2
*SFR* 000000D5H   DATA     BYTE      TL3
*SFR* 000000D3H   DATA     BYTE      TL4
*SFR* 00000089H   DATA     BYTE      TMOD
*SFR* 00000090H.6 DATA     BIT       touchPad_1
*SFR* 00000090H.7 DATA     BIT       touchPad_2
*SFR* 00000090H.5 DATA     BIT       touchPad_3
      010006ABH   CODE     ---       touchPad_Scan
      020004BCH   XDATA    WORD      touchPadActCounter
      020004BAH   XDATA    WORD      touchPadContinueCnt
      01003286H   CODE     ---       touchPadScan_oneShoot
*SFR* 00000088H.4 DATA     BIT       TR0
*SFR* 00000088H.6 DATA     BIT       TR1
      020003FFH   XDATA    ---       TX1_Buffer
*SFR* 000000B0H.1 DATA     BIT       TXD
*SFR* 00000090H.1 DATA     BIT       TXD2
      0100270EH   CODE     ---       UART1_Rountine
      01002A27H   CODE     ---       uartObjZigb_Init
      00000023H.4 BIT      BIT       uartRX_toutFLG
*SFR* 00000080H.2 DATA     BIT       Usr_key
      00000074H   DATA     WORD      usrKeyCount
      00000022H.4 BIT      BIT       usrKeyCount_EN
      010032CCH   CODE     ---       usrKeyFun_zigbNwkRejoin
      010032D6H   CODE     ---       UsrKEYScan_oneShoot
      01003235H   CODE     ---       usrKin_pinInit
      0000008EH   IDATA    BYTE      val_DcodeCfm
*SFR* 0000008FH   DATA     BYTE      WAKE_CLKO
*SFR* 000000C1H   DATA     BYTE      WDT_CONTR
*SFR* 000000ABH   DATA     BYTE      WKTCH
*SFR* 000000AAH   DATA     BYTE      WKTCL
*SFR* 000000B0H.6 DATA     BIT       WR
      01002CD8H   CODE     ---       ZigB_nwkOpen
      0200049FH   XDATA    ---       zigbNwk_Tips
      02000264H   XDATA    WORD      zigbNwkAction_counter
      01003273H   CODE     ---       zigbUart_pinInit



SYMBOL TABLE OF MODULE:  .\Output\swZigbNode_sw3bit (USR_MAIN)

      VALUE       REP       CLASS    TYPE      SYMBOL NAME
      ====================================================
      ---         MODULE    ---      ---       USR_MAIN
      01002F4AH   PUBLIC    CODE     ---       main
      010017F4H   PUBLIC    CODE     ---       bsp_datsReales
      010032ACH   PUBLIC    CODE     ---       bsp_Init
      000000D8H.2 SFRSYM    DATA     BIT       CCF2
      000000E0H.7 SFRSYM    DATA     BIT       ACC7
      00000093H   SFRSYM    DATA     BYTE      P0M1
      00000092H   SFRSYM    DATA     BYTE      P1M0
      00000096H   SFRSYM    DATA     BYTE      P2M0
      00000091H   SFRSYM    DATA     BYTE      P1M1
      00000080H   SFRSYM    DATA     BYTE      P0
      000000B2H   SFRSYM    DATA     BYTE      P3M0
      00000095H   SFRSYM    DATA     BYTE      P2M1
      00000090H   SFRSYM    DATA     BYTE      P1
      000000B4H   SFRSYM    DATA     BYTE      P4M0
      000000B1H   SFRSYM    DATA     BYTE      P3M1
      000000A0H   SFRSYM    DATA     BYTE      P2
      000000CAH   SFRSYM    DATA     BYTE      P5M0
      000000B3H   SFRSYM    DATA     BYTE      P4M1
      000000B0H   SFRSYM    DATA     BYTE      P3
LX51 LINKER/LOCATER V4.66.41.0                                                        09/02/2018  12:30:49  PAGE 17


      000000ABH   SFRSYM    DATA     BYTE      WKTCH
      000000B0H.4 SFRSYM    DATA     BIT       T0
      000000D0H.6 SFRSYM    DATA     BIT       AC
      000000CCH   SFRSYM    DATA     BYTE      P6M0
      000000C9H   SFRSYM    DATA     BYTE      P5M1
      000000C0H   SFRSYM    DATA     BYTE      P4
      000000B0H.5 SFRSYM    DATA     BIT       CLKOUT0
      000000B0H.5 SFRSYM    DATA     BIT       T1
      000000E2H   SFRSYM    DATA     BYTE      P7M0
      000000CBH   SFRSYM    DATA     BYTE      P6M1
      000000C8H   SFRSYM    DATA     BYTE      P5
      000000C6H   SFRSYM    DATA     BYTE      ISP_TRIG
      000000A8H.7 SFRSYM    DATA     BIT       EA
      000000B0H.4 SFRSYM    DATA     BIT       CLKOUT1
      000000A0H.4 SFRSYM    DATA     BIT       SPI_SS_2
      000000E8H   SFRSYM    DATA     BYTE      P6
      000000E1H   SFRSYM    DATA     BYTE      P7M1
      000000C8H.4 SFRSYM    DATA     BIT       SPI_SS_3
      00000090H.4 SFRSYM    DATA     BIT       SPI_MISO
      00000090H.3 SFRSYM    DATA     BIT       SPI_MOSI
      00000090H.1 SFRSYM    DATA     BIT       CCP0
      000000F8H   SFRSYM    DATA     BYTE      P7
      000000AAH   SFRSYM    DATA     BYTE      WKTCL
      00000090H   SFRSYM    DATA     BIT       CCP1
      000000CEH   SFRSYM    DATA     BYTE      SPCTL
      000000D8H.7 SFRSYM    DATA     BIT       CF
      000000B0H.7 SFRSYM    DATA     BIT       CCP2
      000000F9H   SFRSYM    DATA     BYTE      CH
      000000A2H   SFRSYM    DATA     BYTE      P_SW1
      000000BAH   SFRSYM    DATA     BYTE      P_SW2
      000000A8H.5 SFRSYM    DATA     BIT       EADC
      000000A0H.1 SFRSYM    DATA     BIT       SPI_SCLK_2
      000000A8H   SFRSYM    DATA     BYTE      IE
      000000C0H.3 SFRSYM    DATA     BIT       SPI_SCLK_3
      000000E9H   SFRSYM    DATA     BYTE      CL
      000000C5H   SFRSYM    DATA     BYTE      IAP_CMD
      000000FAH   SFRSYM    DATA     BYTE      CCAP0H
      00000090H   SFRSYM    DATA     BIT       Dcode0
      000000FBH   SFRSYM    DATA     BYTE      CCAP1H
      00000090H.1 SFRSYM    DATA     BIT       Dcode1
      000000FCH   SFRSYM    DATA     BYTE      CCAP2H
      00000090H.2 SFRSYM    DATA     BIT       Dcode2
      000000BDH   SFRSYM    DATA     BYTE      ADC_RES
      000000B6H   SFRSYM    DATA     BYTE      IPH2
      00000090H.3 SFRSYM    DATA     BIT       Dcode3
      000000D8H.6 SFRSYM    DATA     BIT       CR
      000000EAH   SFRSYM    DATA     BYTE      CCAP0L
      00000090H.3 SFRSYM    DATA     BIT       Dcode4
      000000B0H.7 SFRSYM    DATA     BIT       RD
      000000EBH   SFRSYM    DATA     BYTE      CCAP1L
      000000DAH   SFRSYM    DATA     BYTE      CCAPM0
      00000090H.4 SFRSYM    DATA     BIT       Dcode5
      000000ECH   SFRSYM    DATA     BYTE      CCAP2L
      000000DBH   SFRSYM    DATA     BYTE      CCAPM1
      000000A8H.4 SFRSYM    DATA     BIT       ES
      000000DCH   SFRSYM    DATA     BYTE      CCAPM2
      000000B8H.5 SFRSYM    DATA     BIT       PADC
      000000A0H.2 SFRSYM    DATA     BIT       SPI_MISO_2
      000000A0H.3 SFRSYM    DATA     BIT       SPI_MOSI_2
      000000B8H   SFRSYM    DATA     BYTE      IP
      000000C0H.1 SFRSYM    DATA     BIT       SPI_MISO_3
      000000C0H   SFRSYM    DATA     BIT       SPI_MOSI_3
      00000098H   SFRSYM    DATA     BIT       RI
      000000B0H.2 SFRSYM    DATA     BIT       INT0
      000000D0H.7 SFRSYM    DATA     BIT       CY
LX51 LINKER/LOCATER V4.66.41.0                                                        09/02/2018  12:30:49  PAGE 18


      00000098H.1 SFRSYM    DATA     BIT       TI
      000000B0H.3 SFRSYM    DATA     BIT       INT1
      00000097H   SFRSYM    DATA     BYTE      CLK_DIV
      000000C3H   SFRSYM    DATA     BYTE      IAP_ADDRH
      00000090H   SFRSYM    DATA     BIT       RXD2
      000000C5H   SFRSYM    DATA     BYTE      ISP_CMD
      000000B8H.4 SFRSYM    DATA     BIT       PS
      00000090H.1 SFRSYM    DATA     BIT       TXD2
      00000081H   SFRSYM    DATA     BYTE      SP
      000000D9H   SFRSYM    DATA     BYTE      CMOD
      000000D8H   SFRSYM    DATA     BYTE      CCON
      000000C4H   SFRSYM    DATA     BYTE      IAP_ADDRL
      000000B8H.7 SFRSYM    DATA     BIT       PPCA
      000000D0H.2 SFRSYM    DATA     BIT       OV
      000000B0H.6 SFRSYM    DATA     BIT       WR
      000000A8H.6 SFRSYM    DATA     BIT       ELVD
      00000080H   SFRSYM    DATA     BIT       P00
      00000090H   SFRSYM    DATA     BIT       P10
      00000080H.1 SFRSYM    DATA     BIT       P01
      000000BCH   SFRSYM    DATA     BYTE      ADC_CONTR
      00000099H   SFRSYM    DATA     BYTE      SBUF
      00000087H   SFRSYM    DATA     BYTE      PCON
      000000A0H   SFRSYM    DATA     BIT       P20
      00000090H.1 SFRSYM    DATA     BIT       P11
      00000080H.2 SFRSYM    DATA     BIT       P02
      000000C3H   SFRSYM    DATA     BYTE      ISP_ADDRH
      000000B0H   SFRSYM    DATA     BIT       P30
      000000A0H.1 SFRSYM    DATA     BIT       P21
      00000090H.2 SFRSYM    DATA     BIT       P12
      00000080H.3 SFRSYM    DATA     BIT       P03
      000000C0H   SFRSYM    DATA     BIT       P40
      000000B0H.1 SFRSYM    DATA     BIT       P31
      000000A0H.2 SFRSYM    DATA     BIT       P22
      00000090H.3 SFRSYM    DATA     BIT       P13
      00000080H.4 SFRSYM    DATA     BIT       P04
      00000098H   SFRSYM    DATA     BYTE      SCON
      0000008FH   SFRSYM    DATA     BYTE      WAKE_CLKO
      000000C8H   SFRSYM    DATA     BIT       P50
      000000C0H.1 SFRSYM    DATA     BIT       P41
      000000B0H.2 SFRSYM    DATA     BIT       P32
      000000A0H.3 SFRSYM    DATA     BIT       P23
      00000090H.4 SFRSYM    DATA     BIT       P14
      00000080H.5 SFRSYM    DATA     BIT       P05
      00000089H   SFRSYM    DATA     BYTE      TMOD
      00000088H   SFRSYM    DATA     BYTE      TCON
      000000C8H.1 SFRSYM    DATA     BIT       P51
      000000C0H.2 SFRSYM    DATA     BIT       P42
      000000B0H.3 SFRSYM    DATA     BIT       P33
      000000A0H.4 SFRSYM    DATA     BIT       P24
      00000090H.5 SFRSYM    DATA     BIT       P15
      00000080H.6 SFRSYM    DATA     BIT       P06
      000000C4H   SFRSYM    DATA     BYTE      ISP_ADDRL
      000000B8H.6 SFRSYM    DATA     BIT       PLVD
      000000C8H.2 SFRSYM    DATA     BIT       P52
      000000C0H.3 SFRSYM    DATA     BIT       P43
      000000B0H.4 SFRSYM    DATA     BIT       P34
      000000A0H.5 SFRSYM    DATA     BIT       P25
      00000090H.6 SFRSYM    DATA     BIT       P16
      00000080H.7 SFRSYM    DATA     BIT       P07
      000000C8H.3 SFRSYM    DATA     BIT       P53
      000000C0H.4 SFRSYM    DATA     BIT       P44
      000000B0H.5 SFRSYM    DATA     BIT       P35
      000000A0H.6 SFRSYM    DATA     BIT       P26
      00000090H.7 SFRSYM    DATA     BIT       P17
      000000C8H.4 SFRSYM    DATA     BIT       P54
LX51 LINKER/LOCATER V4.66.41.0                                                        09/02/2018  12:30:49  PAGE 19


      000000C0H.5 SFRSYM    DATA     BIT       P45
      000000B0H.6 SFRSYM    DATA     BIT       P36
      000000A0H.7 SFRSYM    DATA     BIT       P27
      000000C8H.5 SFRSYM    DATA     BIT       P55
      000000C0H.6 SFRSYM    DATA     BIT       P46
      000000B0H.7 SFRSYM    DATA     BIT       P37
      000000C8H.6 SFRSYM    DATA     BIT       P56
      000000C0H.7 SFRSYM    DATA     BIT       P47
      000000C8H.7 SFRSYM    DATA     BIT       P57
      00000088H.1 SFRSYM    DATA     BIT       IE0
      000000A1H   SFRSYM    DATA     BYTE      BUS_SPEED
      00000088H.3 SFRSYM    DATA     BIT       IE1
      000000AFH   SFRSYM    DATA     BYTE      IE2
      000000F0H   SFRSYM    DATA     BYTE      B
      0000008EH   SFRSYM    DATA     BYTE      AUXR
      000000C7H   SFRSYM    DATA     BYTE      IAP_CONTR
      000000E0H   SFRSYM    DATA     BYTE      ACC
      000000A8H.1 SFRSYM    DATA     BIT       ET0
      000000A8H.3 SFRSYM    DATA     BIT       ET1
      00000088H.5 SFRSYM    DATA     BIT       TF0
      00000088H.7 SFRSYM    DATA     BIT       TF1
      000000B5H   SFRSYM    DATA     BYTE      IP2
      0000008CH   SFRSYM    DATA     BYTE      RL_TH0
      00000098H.2 SFRSYM    DATA     BIT       RB8
      0000008DH   SFRSYM    DATA     BYTE      RL_TH1
      0000008CH   SFRSYM    DATA     BYTE      TH0
      000000A8H   SFRSYM    DATA     BIT       EX0
      00000088H   SFRSYM    DATA     BIT       IT0
      000000D6H   SFRSYM    DATA     BYTE      RL_T2H
      0000008DH   SFRSYM    DATA     BYTE      TH1
      00000090H.6 SFRSYM    DATA     BIT       touchPad_1
      000000A8H.2 SFRSYM    DATA     BIT       EX1
      00000098H.3 SFRSYM    DATA     BIT       TB8
      00000088H.2 SFRSYM    DATA     BIT       IT1
      000000D4H   SFRSYM    DATA     BYTE      RL_T3H
      000000D6H   SFRSYM    DATA     BYTE      TH2
      000000D6H   SFRSYM    DATA     BYTE      T2H
      00000090H.7 SFRSYM    DATA     BIT       touchPad_2
      000000D0H   SFRSYM    DATA     BIT       P
      000000D2H   SFRSYM    DATA     BYTE      RL_T4H
      000000D4H   SFRSYM    DATA     BYTE      TH3
      000000D4H   SFRSYM    DATA     BYTE      T3H
      0000008AH   SFRSYM    DATA     BYTE      RL_TL0
      00000090H.5 SFRSYM    DATA     BIT       touchPad_3
      00000098H.7 SFRSYM    DATA     BIT       SM0
      000000D2H   SFRSYM    DATA     BYTE      TH4
      000000D2H   SFRSYM    DATA     BYTE      T4H
      0000008BH   SFRSYM    DATA     BYTE      RL_TL1
      0000008AH   SFRSYM    DATA     BYTE      TL0
      00000098H.6 SFRSYM    DATA     BIT       SM1
      000000D7H   SFRSYM    DATA     BYTE      RL_T2L
      0000008BH   SFRSYM    DATA     BYTE      TL1
      00000098H.5 SFRSYM    DATA     BIT       SM2
      000000D5H   SFRSYM    DATA     BYTE      RL_T3L
      000000D7H   SFRSYM    DATA     BYTE      TL2
      000000D7H   SFRSYM    DATA     BYTE      T2L
      000000D3H   SFRSYM    DATA     BYTE      RL_T4L
      000000D5H   SFRSYM    DATA     BYTE      TL3
      000000D5H   SFRSYM    DATA     BYTE      T3L
      000000B8H.1 SFRSYM    DATA     BIT       PT0
      000000D3H   SFRSYM    DATA     BYTE      TL4
      000000D3H   SFRSYM    DATA     BYTE      T4L
      000000B8H.3 SFRSYM    DATA     BIT       PT1
      000000D0H.3 SFRSYM    DATA     BIT       RS0
      000000C7H   SFRSYM    DATA     BYTE      ISP_CONTR
LX51 LINKER/LOCATER V4.66.41.0                                                        09/02/2018  12:30:49  PAGE 20


      00000088H.4 SFRSYM    DATA     BIT       TR0
      000000D0H.4 SFRSYM    DATA     BIT       RS1
      000000C2H   SFRSYM    DATA     BYTE      IAP_DATA
      00000088H.6 SFRSYM    DATA     BIT       TR1
      000000B8H   SFRSYM    DATA     BIT       PX0
      000000C1H   SFRSYM    DATA     BYTE      WDT_CONTR
      000000B8H.2 SFRSYM    DATA     BIT       PX1
      000000F2H   SFRSYM    DATA     BYTE      PCA_PWM0
      000000F3H   SFRSYM    DATA     BYTE      PCA_PWM1
      000000F4H   SFRSYM    DATA     BYTE      PCA_PWM2
      0000009DH   SFRSYM    DATA     BYTE      P1ASF
      00000083H   SFRSYM    DATA     BYTE      DPH
      000000D1H   SFRSYM    DATA     BYTE      T4T3M
      000000BEH   SFRSYM    DATA     BYTE      ADC_RESL
      00000082H   SFRSYM    DATA     BYTE      DPL
      000000CDH   SFRSYM    DATA     BYTE      SPSTAT
      000000B7H   SFRSYM    DATA     BYTE      IPH
      0000009BH   SFRSYM    DATA     BYTE      S2BUF
      00000097H   SFRSYM    DATA     BYTE      PCON2
      000000ADH   SFRSYM    DATA     BYTE      S3BUF
      00000098H.4 SFRSYM    DATA     BIT       REN
      00000085H   SFRSYM    DATA     BYTE      S4BUF
      00000080H.2 SFRSYM    DATA     BIT       Usr_key
      0000009AH   SFRSYM    DATA     BYTE      S2CON
      000000ACH   SFRSYM    DATA     BYTE      S3CON
      000000C2H   SFRSYM    DATA     BYTE      ISP_DATA
      00000084H   SFRSYM    DATA     BYTE      S4CON
      000000B9H   SFRSYM    DATA     BYTE      SADEN
      000000B0H   SFRSYM    DATA     BIT       RXD
      000000A9H   SFRSYM    DATA     BYTE      SADDR
      000000B0H.1 SFRSYM    DATA     BIT       TXD
      000000F0H   SFRSYM    DATA     BIT       B0
      000000F0H.1 SFRSYM    DATA     BIT       B1
      000000C6H   SFRSYM    DATA     BYTE      IAP_TRIG
      000000A2H   SFRSYM    DATA     BYTE      AUXR1
      000000F0H.2 SFRSYM    DATA     BIT       B2
      00000090H.2 SFRSYM    DATA     BIT       SPI_SS
      0000008FH   SFRSYM    DATA     BYTE      AUXR2
      000000F0H.3 SFRSYM    DATA     BIT       B3
      000000F0H.4 SFRSYM    DATA     BIT       B4
      000000D0H.5 SFRSYM    DATA     BIT       F0
      000000F0H.5 SFRSYM    DATA     BIT       B5
      000000D0H.1 SFRSYM    DATA     BIT       F1
      0000008FH   SFRSYM    DATA     BYTE      INT_CLKO
      000000F0H.6 SFRSYM    DATA     BIT       B6
      000000E0H   SFRSYM    DATA     BIT       ACC0
      000000F0H.7 SFRSYM    DATA     BIT       B7
      000000E0H.1 SFRSYM    DATA     BIT       ACC1
      000000E0H.2 SFRSYM    DATA     BIT       ACC2
      000000E0H.3 SFRSYM    DATA     BIT       ACC3
      000000D0H   SFRSYM    DATA     BYTE      PSW
      000000E0H.4 SFRSYM    DATA     BIT       ACC4
      00000090H.5 SFRSYM    DATA     BIT       SPI_SCLK
      000000D8H   SFRSYM    DATA     BIT       CCF0
      000000E0H.5 SFRSYM    DATA     BIT       ACC5
      000000D8H.1 SFRSYM    DATA     BIT       CCF1
      000000E0H.6 SFRSYM    DATA     BIT       ACC6
      000000CFH   SFRSYM    DATA     BYTE      SPDAT
      00000094H   SFRSYM    DATA     BYTE      P0M0

      010032ACH   BLOCK     CODE     ---       LVL=0
      010032ACH   LINE      CODE     ---       #17
      010032ACH   LINE      CODE     ---       #19
      010032AFH   LINE      CODE     ---       #20
      010032B2H   LINE      CODE     ---       #21
LX51 LINKER/LOCATER V4.66.41.0                                                        09/02/2018  12:30:49  PAGE 21


      010032B5H   LINE      CODE     ---       #22
      010032B8H   LINE      CODE     ---       #23
      010032BBH   LINE      CODE     ---       #24
      ---         BLOCKEND  ---      ---       LVL=0

      010017F4H   BLOCK     CODE     ---       LVL=0
      010017F4H   LINE      CODE     ---       #27
      010017F4H   LINE      CODE     ---       #29
      010017F7H   LINE      CODE     ---       #30
      010017FAH   LINE      CODE     ---       #31
      010017FDH   LINE      CODE     ---       #32
      ---         BLOCKEND  ---      ---       LVL=0

      01002F4AH   BLOCK     CODE     ---       LVL=0
      01002F4AH   LINE      CODE     ---       #35
      01002F4AH   LINE      CODE     ---       #37
      01002F4DH   LINE      CODE     ---       #38
      01002F50H   LINE      CODE     ---       #39
      01002F53H   LINE      CODE     ---       #43
      01002F56H   LINE      CODE     ---       #44
      01002F59H   LINE      CODE     ---       #48
      01002F59H   LINE      CODE     ---       #50
      01002F5CH   LINE      CODE     ---       #51
      01002F77H   LINE      CODE     ---       #52
      01002F7AH   LINE      CODE     ---       #54
      01002F7DH   LINE      CODE     ---       #56
      01002F80H   LINE      CODE     ---       #58
      01002F83H   LINE      CODE     ---       #60
      01002F86H   LINE      CODE     ---       #61
      ---         BLOCKEND  ---      ---       LVL=0

      ---         MODULE    ---      ---       APPTIMER
      01000800H   PUBLIC    CODE     ---       timer0_Rountine
      0100000EH   PUBLIC    CODE     ---       appTimer0_Init
      000000D8H.2 SFRSYM    DATA     BIT       CCF2
      000000E0H.7 SFRSYM    DATA     BIT       ACC7
      00000093H   SFRSYM    DATA     BYTE      P0M1
      00000092H   SFRSYM    DATA     BYTE      P1M0
      00000096H   SFRSYM    DATA     BYTE      P2M0
      00000091H   SFRSYM    DATA     BYTE      P1M1
      00000080H   SFRSYM    DATA     BYTE      P0
      000000B2H   SFRSYM    DATA     BYTE      P3M0
      00000095H   SFRSYM    DATA     BYTE      P2M1
      00000090H   SFRSYM    DATA     BYTE      P1
      000000B4H   SFRSYM    DATA     BYTE      P4M0
      000000B1H   SFRSYM    DATA     BYTE      P3M1
      000000A0H   SFRSYM    DATA     BYTE      P2
      000000CAH   SFRSYM    DATA     BYTE      P5M0
      000000B3H   SFRSYM    DATA     BYTE      P4M1
      000000B0H   SFRSYM    DATA     BYTE      P3
      000000ABH   SFRSYM    DATA     BYTE      WKTCH
      000000B0H.4 SFRSYM    DATA     BIT       T0
      000000D0H.6 SFRSYM    DATA     BIT       AC
      000000CCH   SFRSYM    DATA     BYTE      P6M0
      000000C9H   SFRSYM    DATA     BYTE      P5M1
      000000C0H   SFRSYM    DATA     BYTE      P4
      000000B0H.5 SFRSYM    DATA     BIT       CLKOUT0
      000000B0H.5 SFRSYM    DATA     BIT       T1
      000000E2H   SFRSYM    DATA     BYTE      P7M0
      000000CBH   SFRSYM    DATA     BYTE      P6M1
      000000C8H   SFRSYM    DATA     BYTE      P5
      000000C6H   SFRSYM    DATA     BYTE      ISP_TRIG
      000000A8H.7 SFRSYM    DATA     BIT       EA
      000000B0H.4 SFRSYM    DATA     BIT       CLKOUT1
      000000A0H.4 SFRSYM    DATA     BIT       SPI_SS_2
LX51 LINKER/LOCATER V4.66.41.0                                                        09/02/2018  12:30:49  PAGE 22


      000000E8H   SFRSYM    DATA     BYTE      P6
      000000E1H   SFRSYM    DATA     BYTE      P7M1
      000000C8H.4 SFRSYM    DATA     BIT       SPI_SS_3
      00000090H.4 SFRSYM    DATA     BIT       SPI_MISO
      00000090H.3 SFRSYM    DATA     BIT       SPI_MOSI
      00000090H.1 SFRSYM    DATA     BIT       CCP0
      000000F8H   SFRSYM    DATA     BYTE      P7
      000000AAH   SFRSYM    DATA     BYTE      WKTCL
      00000090H   SFRSYM    DATA     BIT       CCP1
      000000CEH   SFRSYM    DATA     BYTE      SPCTL
      000000D8H.7 SFRSYM    DATA     BIT       CF
      000000B0H.7 SFRSYM    DATA     BIT       CCP2
      000000F9H   SFRSYM    DATA     BYTE      CH
      000000A2H   SFRSYM    DATA     BYTE      P_SW1
      000000BAH   SFRSYM    DATA     BYTE      P_SW2
      000000A8H.5 SFRSYM    DATA     BIT       EADC
      000000A0H.1 SFRSYM    DATA     BIT       SPI_SCLK_2
      000000A8H   SFRSYM    DATA     BYTE      IE
      000000C0H.3 SFRSYM    DATA     BIT       SPI_SCLK_3
      000000E9H   SFRSYM    DATA     BYTE      CL
      000000C5H   SFRSYM    DATA     BYTE      IAP_CMD
      000000FAH   SFRSYM    DATA     BYTE      CCAP0H
      000000FBH   SFRSYM    DATA     BYTE      CCAP1H
      000000FCH   SFRSYM    DATA     BYTE      CCAP2H
      000000BDH   SFRSYM    DATA     BYTE      ADC_RES
      000000B6H   SFRSYM    DATA     BYTE      IPH2
      000000D8H.6 SFRSYM    DATA     BIT       CR
      000000EAH   SFRSYM    DATA     BYTE      CCAP0L
      000000B0H.7 SFRSYM    DATA     BIT       RD
      000000EBH   SFRSYM    DATA     BYTE      CCAP1L
      000000DAH   SFRSYM    DATA     BYTE      CCAPM0
      000000ECH   SFRSYM    DATA     BYTE      CCAP2L
      000000DBH   SFRSYM    DATA     BYTE      CCAPM1
      000000A8H.4 SFRSYM    DATA     BIT       ES
      000000DCH   SFRSYM    DATA     BYTE      CCAPM2
      000000B8H.5 SFRSYM    DATA     BIT       PADC
      000000A0H.2 SFRSYM    DATA     BIT       SPI_MISO_2
      000000A0H.3 SFRSYM    DATA     BIT       SPI_MOSI_2
      000000B8H   SFRSYM    DATA     BYTE      IP
      000000C0H.1 SFRSYM    DATA     BIT       SPI_MISO_3
      000000C0H   SFRSYM    DATA     BIT       SPI_MOSI_3
      00000098H   SFRSYM    DATA     BIT       RI
      000000B0H.2 SFRSYM    DATA     BIT       INT0
      000000D0H.7 SFRSYM    DATA     BIT       CY
      00000098H.1 SFRSYM    DATA     BIT       TI
      000000B0H.3 SFRSYM    DATA     BIT       INT1
      00000097H   SFRSYM    DATA     BYTE      CLK_DIV
      000000C3H   SFRSYM    DATA     BYTE      IAP_ADDRH
      00000090H   SFRSYM    DATA     BIT       RXD2
      000000C5H   SFRSYM    DATA     BYTE      ISP_CMD
      000000B8H.4 SFRSYM    DATA     BIT       PS
      00000090H.1 SFRSYM    DATA     BIT       TXD2
      00000081H   SFRSYM    DATA     BYTE      SP
      000000D9H   SFRSYM    DATA     BYTE      CMOD
      000000D8H   SFRSYM    DATA     BYTE      CCON
      000000C4H   SFRSYM    DATA     BYTE      IAP_ADDRL
      000000B8H.7 SFRSYM    DATA     BIT       PPCA
      000000D0H.2 SFRSYM    DATA     BIT       OV
      000000B0H.6 SFRSYM    DATA     BIT       WR
      000000A8H.6 SFRSYM    DATA     BIT       ELVD
      00000080H   SFRSYM    DATA     BIT       P00
      00000090H   SFRSYM    DATA     BIT       P10
      00000080H.1 SFRSYM    DATA     BIT       P01
      000000BCH   SFRSYM    DATA     BYTE      ADC_CONTR
      00000099H   SFRSYM    DATA     BYTE      SBUF
LX51 LINKER/LOCATER V4.66.41.0                                                        09/02/2018  12:30:49  PAGE 23


      00000087H   SFRSYM    DATA     BYTE      PCON
      000000A0H   SFRSYM    DATA     BIT       P20
      00000090H.1 SFRSYM    DATA     BIT       P11
      00000080H.2 SFRSYM    DATA     BIT       P02
      000000C3H   SFRSYM    DATA     BYTE      ISP_ADDRH
      000000B0H   SFRSYM    DATA     BIT       P30
      000000A0H.1 SFRSYM    DATA     BIT       P21
      00000090H.2 SFRSYM    DATA     BIT       P12
      00000080H.3 SFRSYM    DATA     BIT       P03
      000000C0H   SFRSYM    DATA     BIT       P40
      000000B0H.1 SFRSYM    DATA     BIT       P31
      000000A0H.2 SFRSYM    DATA     BIT       P22
      00000090H.3 SFRSYM    DATA     BIT       P13
      00000080H.4 SFRSYM    DATA     BIT       P04
      00000098H   SFRSYM    DATA     BYTE      SCON
      0000008FH   SFRSYM    DATA     BYTE      WAKE_CLKO
      000000C8H   SFRSYM    DATA     BIT       P50
      000000C0H.1 SFRSYM    DATA     BIT       P41
      000000B0H.2 SFRSYM    DATA     BIT       P32
      000000A0H.3 SFRSYM    DATA     BIT       P23
      00000090H.4 SFRSYM    DATA     BIT       P14
      00000080H.5 SFRSYM    DATA     BIT       P05
      00000089H   SFRSYM    DATA     BYTE      TMOD
      00000088H   SFRSYM    DATA     BYTE      TCON
      000000C8H.1 SFRSYM    DATA     BIT       P51
      000000C0H.2 SFRSYM    DATA     BIT       P42
      000000B0H.3 SFRSYM    DATA     BIT       P33
      000000A0H.4 SFRSYM    DATA     BIT       P24
      00000090H.5 SFRSYM    DATA     BIT       P15
      00000080H.6 SFRSYM    DATA     BIT       P06
      000000C4H   SFRSYM    DATA     BYTE      ISP_ADDRL
      000000B8H.6 SFRSYM    DATA     BIT       PLVD
      000000C8H.2 SFRSYM    DATA     BIT       P52
      000000C0H.3 SFRSYM    DATA     BIT       P43
      000000B0H.4 SFRSYM    DATA     BIT       P34
      000000A0H.5 SFRSYM    DATA     BIT       P25
      00000090H.6 SFRSYM    DATA     BIT       P16
      00000080H.7 SFRSYM    DATA     BIT       P07
      000000C8H.3 SFRSYM    DATA     BIT       P53
      000000C0H.4 SFRSYM    DATA     BIT       P44
      000000B0H.5 SFRSYM    DATA     BIT       P35
      000000A0H.6 SFRSYM    DATA     BIT       P26
      00000090H.7 SFRSYM    DATA     BIT       P17
      000000C8H.4 SFRSYM    DATA     BIT       P54
      000000C0H.5 SFRSYM    DATA     BIT       P45
      000000B0H.6 SFRSYM    DATA     BIT       P36
      000000A0H.7 SFRSYM    DATA     BIT       P27
      000000C8H.5 SFRSYM    DATA     BIT       P55
      000000C0H.6 SFRSYM    DATA     BIT       P46
      000000B0H.7 SFRSYM    DATA     BIT       P37
      000000C8H.6 SFRSYM    DATA     BIT       P56
      000000C0H.7 SFRSYM    DATA     BIT       P47
      000000C8H.7 SFRSYM    DATA     BIT       P57
      00000088H.1 SFRSYM    DATA     BIT       IE0
      000000A1H   SFRSYM    DATA     BYTE      BUS_SPEED
      00000088H.3 SFRSYM    DATA     BIT       IE1
      000000AFH   SFRSYM    DATA     BYTE      IE2
      000000F0H   SFRSYM    DATA     BYTE      B
      0000008EH   SFRSYM    DATA     BYTE      AUXR
      000000C7H   SFRSYM    DATA     BYTE      IAP_CONTR
      000000E0H   SFRSYM    DATA     BYTE      ACC
      000000A8H.1 SFRSYM    DATA     BIT       ET0
      000000A8H.3 SFRSYM    DATA     BIT       ET1
      00000088H.5 SFRSYM    DATA     BIT       TF0
      00000088H.7 SFRSYM    DATA     BIT       TF1
LX51 LINKER/LOCATER V4.66.41.0                                                        09/02/2018  12:30:49  PAGE 24


      000000B5H   SFRSYM    DATA     BYTE      IP2
      0000008CH   SFRSYM    DATA     BYTE      RL_TH0
      00000098H.2 SFRSYM    DATA     BIT       RB8
      0000008DH   SFRSYM    DATA     BYTE      RL_TH1
      0000008CH   SFRSYM    DATA     BYTE      TH0
      000000A8H   SFRSYM    DATA     BIT       EX0
      00000088H   SFRSYM    DATA     BIT       IT0
      000000D6H   SFRSYM    DATA     BYTE      RL_T2H
      0000008DH   SFRSYM    DATA     BYTE      TH1
      000000A8H.2 SFRSYM    DATA     BIT       EX1
      00000098H.3 SFRSYM    DATA     BIT       TB8
      00000088H.2 SFRSYM    DATA     BIT       IT1
      000000D4H   SFRSYM    DATA     BYTE      RL_T3H
      000000D6H   SFRSYM    DATA     BYTE      TH2
      000000D6H   SFRSYM    DATA     BYTE      T2H
      000000D0H   SFRSYM    DATA     BIT       P
      000000D2H   SFRSYM    DATA     BYTE      RL_T4H
      000000D4H   SFRSYM    DATA     BYTE      TH3
      000000D4H   SFRSYM    DATA     BYTE      T3H
      0000008AH   SFRSYM    DATA     BYTE      RL_TL0
      00000098H.7 SFRSYM    DATA     BIT       SM0
      000000D2H   SFRSYM    DATA     BYTE      TH4
      000000D2H   SFRSYM    DATA     BYTE      T4H
      0000008BH   SFRSYM    DATA     BYTE      RL_TL1
      0000008AH   SFRSYM    DATA     BYTE      TL0
      00000098H.6 SFRSYM    DATA     BIT       SM1
      000000D7H   SFRSYM    DATA     BYTE      RL_T2L
      0000008BH   SFRSYM    DATA     BYTE      TL1
      00000098H.5 SFRSYM    DATA     BIT       SM2
      000000D5H   SFRSYM    DATA     BYTE      RL_T3L
      000000D7H   SFRSYM    DATA     BYTE      TL2
      000000D7H   SFRSYM    DATA     BYTE      T2L
      000000D3H   SFRSYM    DATA     BYTE      RL_T4L
      000000D5H   SFRSYM    DATA     BYTE      TL3
      000000D5H   SFRSYM    DATA     BYTE      T3L
      000000B8H.1 SFRSYM    DATA     BIT       PT0
      000000D3H   SFRSYM    DATA     BYTE      TL4
      000000D3H   SFRSYM    DATA     BYTE      T4L
      000000B8H.3 SFRSYM    DATA     BIT       PT1
      000000D0H.3 SFRSYM    DATA     BIT       RS0
      000000C7H   SFRSYM    DATA     BYTE      ISP_CONTR
      00000088H.4 SFRSYM    DATA     BIT       TR0
      000000D0H.4 SFRSYM    DATA     BIT       RS1
      000000C2H   SFRSYM    DATA     BYTE      IAP_DATA
      00000088H.6 SFRSYM    DATA     BIT       TR1
      000000B8H   SFRSYM    DATA     BIT       PX0
      000000C1H   SFRSYM    DATA     BYTE      WDT_CONTR
      000000B8H.2 SFRSYM    DATA     BIT       PX1
      000000F2H   SFRSYM    DATA     BYTE      PCA_PWM0
      000000F3H   SFRSYM    DATA     BYTE      PCA_PWM1
      000000F4H   SFRSYM    DATA     BYTE      PCA_PWM2
      0000009DH   SFRSYM    DATA     BYTE      P1ASF
      00000083H   SFRSYM    DATA     BYTE      DPH
      000000D1H   SFRSYM    DATA     BYTE      T4T3M
      000000BEH   SFRSYM    DATA     BYTE      ADC_RESL
      00000082H   SFRSYM    DATA     BYTE      DPL
      000000CDH   SFRSYM    DATA     BYTE      SPSTAT
      000000B7H   SFRSYM    DATA     BYTE      IPH
      0000009BH   SFRSYM    DATA     BYTE      S2BUF
      00000097H   SFRSYM    DATA     BYTE      PCON2
      000000ADH   SFRSYM    DATA     BYTE      S3BUF
      00000098H.4 SFRSYM    DATA     BIT       REN
      00000085H   SFRSYM    DATA     BYTE      S4BUF
      0000009AH   SFRSYM    DATA     BYTE      S2CON
      000000ACH   SFRSYM    DATA     BYTE      S3CON
LX51 LINKER/LOCATER V4.66.41.0                                                        09/02/2018  12:30:49  PAGE 25


      000000C2H   SFRSYM    DATA     BYTE      ISP_DATA
      00000084H   SFRSYM    DATA     BYTE      S4CON
      000000B9H   SFRSYM    DATA     BYTE      SADEN
      000000B0H   SFRSYM    DATA     BIT       RXD
      000000A9H   SFRSYM    DATA     BYTE      SADDR
      000000B0H.1 SFRSYM    DATA     BIT       TXD
      000000F0H   SFRSYM    DATA     BIT       B0
      000000F0H.1 SFRSYM    DATA     BIT       B1
      000000C6H   SFRSYM    DATA     BYTE      IAP_TRIG
      000000A2H   SFRSYM    DATA     BYTE      AUXR1
      000000F0H.2 SFRSYM    DATA     BIT       B2
      00000090H.2 SFRSYM    DATA     BIT       SPI_SS
      0000008FH   SFRSYM    DATA     BYTE      AUXR2
      000000F0H.3 SFRSYM    DATA     BIT       B3
      000000F0H.4 SFRSYM    DATA     BIT       B4
      000000D0H.5 SFRSYM    DATA     BIT       F0
      000000F0H.5 SFRSYM    DATA     BIT       B5
      000000D0H.1 SFRSYM    DATA     BIT       F1
      0000008FH   SFRSYM    DATA     BYTE      INT_CLKO
      000000F0H.6 SFRSYM    DATA     BIT       B6
      000000E0H   SFRSYM    DATA     BIT       ACC0
      000000F0H.7 SFRSYM    DATA     BIT       B7
      000000E0H.1 SFRSYM    DATA     BIT       ACC1
      000000E0H.2 SFRSYM    DATA     BIT       ACC2
      000000E0H.3 SFRSYM    DATA     BIT       ACC3
      000000D0H   SFRSYM    DATA     BYTE      PSW
      000000E0H.4 SFRSYM    DATA     BIT       ACC4
      00000090H.5 SFRSYM    DATA     BIT       SPI_SCLK
      000000D8H   SFRSYM    DATA     BIT       CCF0
      000000E0H.5 SFRSYM    DATA     BIT       ACC5
      000000D8H.1 SFRSYM    DATA     BIT       CCF1
      000000E0H.6 SFRSYM    DATA     BIT       ACC6
      000000CFH   SFRSYM    DATA     BYTE      SPDAT
      00000094H   SFRSYM    DATA     BYTE      P0M0

      0100000EH   BLOCK     CODE     ---       LVL=0
      0100000EH   LINE      CODE     ---       #38
      0100000EH   LINE      CODE     ---       #40
      01000011H   LINE      CODE     ---       #41
      01000014H   LINE      CODE     ---       #42
      01000017H   LINE      CODE     ---       #43
      0100001AH   LINE      CODE     ---       #44
      0100001CH   LINE      CODE     ---       #45
      0100001EH   LINE      CODE     ---       #46
      01000020H   LINE      CODE     ---       #48
      01000022H   LINE      CODE     ---       #49
      ---         BLOCKEND  ---      ---       LVL=0

      01000800H   BLOCK     CODE     ---       LVL=0
      0100081DH   BLOCK     CODE     NEAR LAB  LVL=1
      010049A3H   SYMBOL    CONST    WORD      period_1second
      00000076H   SYMBOL    DATA     WORD      counter_1second
      010049A5H   SYMBOL    CONST    BYTE      period_1ms
      00000078H   SYMBOL    DATA     BYTE      counter_1ms
      010049A6H   SYMBOL    CONST    BYTE      period_tipsColor
      00000079H   SYMBOL    DATA     BYTE      counter_tipsColor
      02000484H   SYMBOL    XDATA    ---       cnt_relay1_Tips
      02000487H   SYMBOL    XDATA    ---       cnt_relay2_Tips
      0200048AH   SYMBOL    XDATA    ---       cnt_relay3_Tips
      0200048DH   SYMBOL    XDATA    ---       cnt_zigbNwk_Tips
      02000490H   SYMBOL    XDATA    BYTE      period_beep
      02000491H   SYMBOL    XDATA    BYTE      count_beep
      010009A7H   BLOCK     CODE     NEAR LAB  LVL=2
      0200047FH   SYMBOL    XDATA    WORD      tips_Period
      02000481H   SYMBOL    XDATA    WORD      tips_Count
LX51 LINKER/LOCATER V4.66.41.0                                                        09/02/2018  12:30:49  PAGE 26


      02000483H   SYMBOL    XDATA    BYTE      tips_Loop
      00000024H.4 SYMBOL    BIT      BIT       beeps_en
      ---         BLOCKEND  ---      ---       LVL=2
      ---         BLOCKEND  ---      ---       LVL=1
      01000800H   LINE      CODE     ---       #51
      0100081DH   LINE      CODE     ---       #70
      0100082DH   LINE      CODE     ---       #71
      0100082DH   LINE      CODE     ---       #73
      01000830H   LINE      CODE     ---       #76
      01000848H   LINE      CODE     ---       #79
      01000855H   LINE      CODE     ---       #80
      0100085BH   LINE      CODE     ---       #83
      01000873H   LINE      CODE     ---       #86
      0100088BH   LINE      CODE     ---       #89
      01000893H   LINE      CODE     ---       #90
      01000893H   LINE      CODE     ---       #93
      010008ACH   LINE      CODE     ---       #94
      010008ACH   LINE      CODE     ---       #96
      010008B2H   LINE      CODE     ---       #99
      010008B5H   LINE      CODE     ---       #101
      010008C0H   LINE      CODE     ---       #102
      010008C0H   LINE      CODE     ---       #104
      010008C3H   LINE      CODE     ---       #105
      010008C5H   LINE      CODE     ---       #106
      010008C5H   LINE      CODE     ---       #107
      010008C5H   LINE      CODE     ---       #110
      010008CCH   LINE      CODE     ---       #112
      010008ECH   LINE      CODE     ---       #113
      010008ECH   LINE      CODE     ---       #115
      010008F3H   LINE      CODE     ---       #117
      010008F9H   LINE      CODE     ---       #119
      010008FFH   LINE      CODE     ---       #120
      01000906H   LINE      CODE     ---       #121
      01000906H   LINE      CODE     ---       #122
      01000906H   LINE      CODE     ---       #125
      01000912H   LINE      CODE     ---       #127
      01000932H   LINE      CODE     ---       #128
      01000932H   LINE      CODE     ---       #130
      01000939H   LINE      CODE     ---       #132
      0100093FH   LINE      CODE     ---       #133
      01000944H   LINE      CODE     ---       #134
      01000944H   LINE      CODE     ---       #135
      01000944H   LINE      CODE     ---       #138
      0100094CH   LINE      CODE     ---       #141
      01000952H   LINE      CODE     ---       #144
      0100095AH   LINE      CODE     ---       #145
      0100095AH   LINE      CODE     ---       #148
      0100095DH   LINE      CODE     ---       #150
      01000968H   LINE      CODE     ---       #151
      01000968H   LINE      CODE     ---       #153
      0100096BH   LINE      CODE     ---       #155
      0100096DH   LINE      CODE     ---       #157
      0100097CH   LINE      CODE     ---       #158
      0100098FH   LINE      CODE     ---       #159
      01000995H   LINE      CODE     ---       #160
      01000995H   LINE      CODE     ---       #161
      01000997H   LINE      CODE     ---       #162
      01000997H   LINE      CODE     ---       #163
      01000997H   LINE      CODE     ---       #166
      010009A7H   LINE      CODE     ---       #167
      010009A7H   LINE      CODE     ---       #174
      010009ACH   LINE      CODE     ---       #176
      010009BDH   LINE      CODE     ---       #178
      010009BDH   LINE      CODE     ---       #180
      010009C8H   LINE      CODE     ---       #181
LX51 LINKER/LOCATER V4.66.41.0                                                        09/02/2018  12:30:49  PAGE 27


      010009E0H   LINE      CODE     ---       #182
      010009ECH   LINE      CODE     ---       #183
      010009F3H   LINE      CODE     ---       #184
      010009F5H   LINE      CODE     ---       #185
      010009F8H   LINE      CODE     ---       #187
      010009FAH   LINE      CODE     ---       #189
      010009FAH   LINE      CODE     ---       #191
      01000A00H   LINE      CODE     ---       #193
      01000A15H   LINE      CODE     ---       #195
      01000A21H   LINE      CODE     ---       #196
      01000A2AH   LINE      CODE     ---       #198
      01000A2CH   LINE      CODE     ---       #200
      01000A33H   LINE      CODE     ---       #201
      01000A35H   LINE      CODE     ---       #202
      01000A39H   LINE      CODE     ---       #203
      01000A39H   LINE      CODE     ---       #205
      01000A3BH   LINE      CODE     ---       #207
      01000A3EH   LINE      CODE     ---       #208
      01000A3EH   LINE      CODE     ---       #210
      01000A40H   LINE      CODE     ---       #212
      01000A40H   LINE      CODE     ---       #214
      01000A47H   LINE      CODE     ---       #215
      01000A49H   LINE      CODE     ---       #216
      01000A4BH   LINE      CODE     ---       #217
      01000A4DH   LINE      CODE     ---       #219
      01000A4FH   LINE      CODE     ---       #221
      01000A4FH   LINE      CODE     ---       #223
      01000A51H   LINE      CODE     ---       #225
      01000A51H   LINE      CODE     ---       #226
      01000A51H   LINE      CODE     ---       #227
      01000A51H   LINE      CODE     ---       #230
      01000A5FH   LINE      CODE     ---       #232
      01000A62H   LINE      CODE     ---       #234
      01000A71H   LINE      CODE     ---       #235
      01000A80H   LINE      CODE     ---       #236
      01000A8FH   LINE      CODE     ---       #238
      01000A9EH   LINE      CODE     ---       #239
      01000AADH   LINE      CODE     ---       #240
      01000ABCH   LINE      CODE     ---       #242
      01000ACBH   LINE      CODE     ---       #243
      01000ADAH   LINE      CODE     ---       #244
      01000AE9H   LINE      CODE     ---       #246
      01000AF8H   LINE      CODE     ---       #247
      01000B07H   LINE      CODE     ---       #248
      01000B16H   LINE      CODE     ---       #249
      01000B18H   LINE      CODE     ---       #250
      01000B18H   LINE      CODE     ---       #252
      01000B1AH   LINE      CODE     ---       #254
      01000B28H   LINE      CODE     ---       #256
      01000B3FH   LINE      CODE     ---       #257
      01000B41H   LINE      CODE     ---       #258
      01000B58H   LINE      CODE     ---       #259
      01000B5AH   LINE      CODE     ---       #260
      01000B71H   LINE      CODE     ---       #261
      01000B73H   LINE      CODE     ---       #262
      01000B8AH   LINE      CODE     ---       #263
      01000B8CH   LINE      CODE     ---       #265
      01000B8EH   LINE      CODE     ---       #266
      01000B9CH   LINE      CODE     ---       #268
      01000BB3H   LINE      CODE     ---       #269
      01000BB5H   LINE      CODE     ---       #270
      01000BCCH   LINE      CODE     ---       #271
      01000BCEH   LINE      CODE     ---       #272
      01000BE5H   LINE      CODE     ---       #273
      01000BE7H   LINE      CODE     ---       #274
LX51 LINKER/LOCATER V4.66.41.0                                                        09/02/2018  12:30:49  PAGE 28


      01000BFEH   LINE      CODE     ---       #275
      01000C00H   LINE      CODE     ---       #277
      01000C02H   LINE      CODE     ---       #278
      01000C10H   LINE      CODE     ---       #280
      01000C27H   LINE      CODE     ---       #281
      01000C29H   LINE      CODE     ---       #282
      01000C40H   LINE      CODE     ---       #283
      01000C42H   LINE      CODE     ---       #284
      01000C59H   LINE      CODE     ---       #285
      01000C5BH   LINE      CODE     ---       #286
      01000C72H   LINE      CODE     ---       #287
      01000C74H   LINE      CODE     ---       #288
      01000C74H   LINE      CODE     ---       #289
      01000C74H   LINE      CODE     ---       #290
      ---         BLOCKEND  ---      ---       LVL=0

      ---         MODULE    ---      ---       DATAMANAGE
      00000024H.5 PUBLIC    BIT      BIT       deviceLock_flag
      0000001FH   PUBLIC    DATA     BYTE      SWITCH_TYPE
      0000001EH   PUBLIC    DATA     BYTE      DEV_actReserve
      020004A8H   PUBLIC    XDATA    ---       MAC_ID
      0000001BH   PUBLIC    DATA     ---       CTRLEATHER_PORT
      020004A2H   PUBLIC    XDATA    ---       MAC_ID_DST
      0100319DH   PUBLIC    CODE     ---       birthDay_Judge
      01002E39H   PUBLIC    CODE     ---       Factory_recover
      01003106H   PUBLIC    CODE     ---       _swScenario_oprateCheck
      01002EC3H   PUBLIC    CODE     ---       _swScenario_oprateDele
      01002C72H   PUBLIC    CODE     ---       _swScenario_oprateSave
      00000020H.5 PUBLIC    BIT      BIT       ?swScenarioNum_findFromEEPROM?BIT
      00000032H   PUBLIC    DATA     BYTE      ?swScenarioNum_findFromEEPROM?BYTE
      010027A4H   PUBLIC    CODE     ---       swScenarioNum_findFromEEPROM
      0100321BH   PUBLIC    CODE     ---       switchTypeReserve_GET
      01003260H   PUBLIC    CODE     ---       portCtrlEachOther_Reales
      010031FEH   PUBLIC    CODE     ---       MAC_ID_Relaes
      000000D8H.2 SFRSYM    DATA     BIT       CCF2
      000000E0H.7 SFRSYM    DATA     BIT       ACC7
      00000093H   SFRSYM    DATA     BYTE      P0M1
      00000092H   SFRSYM    DATA     BYTE      P1M0
      00000096H   SFRSYM    DATA     BYTE      P2M0
      00000091H   SFRSYM    DATA     BYTE      P1M1
      00000080H   SFRSYM    DATA     BYTE      P0
      000000B2H   SFRSYM    DATA     BYTE      P3M0
      00000095H   SFRSYM    DATA     BYTE      P2M1
      00000090H   SFRSYM    DATA     BYTE      P1
      000000B4H   SFRSYM    DATA     BYTE      P4M0
      000000B1H   SFRSYM    DATA     BYTE      P3M1
      000000A0H   SFRSYM    DATA     BYTE      P2
      000000CAH   SFRSYM    DATA     BYTE      P5M0
      000000B3H   SFRSYM    DATA     BYTE      P4M1
      000000B0H   SFRSYM    DATA     BYTE      P3
      000000ABH   SFRSYM    DATA     BYTE      WKTCH
      000000B0H.4 SFRSYM    DATA     BIT       T0
      000000D0H.6 SFRSYM    DATA     BIT       AC
      000000CCH   SFRSYM    DATA     BYTE      P6M0
      000000C9H   SFRSYM    DATA     BYTE      P5M1
      000000C0H   SFRSYM    DATA     BYTE      P4
      000000B0H.5 SFRSYM    DATA     BIT       CLKOUT0
      000000B0H.5 SFRSYM    DATA     BIT       T1
      000000E2H   SFRSYM    DATA     BYTE      P7M0
      000000CBH   SFRSYM    DATA     BYTE      P6M1
      000000C8H   SFRSYM    DATA     BYTE      P5
      000000C6H   SFRSYM    DATA     BYTE      ISP_TRIG
      000000A8H.7 SFRSYM    DATA     BIT       EA
      000000B0H.4 SFRSYM    DATA     BIT       CLKOUT1
      000000A0H.4 SFRSYM    DATA     BIT       SPI_SS_2
LX51 LINKER/LOCATER V4.66.41.0                                                        09/02/2018  12:30:49  PAGE 29


      000000E8H   SFRSYM    DATA     BYTE      P6
      000000E1H   SFRSYM    DATA     BYTE      P7M1
      000000C8H.4 SFRSYM    DATA     BIT       SPI_SS_3
      00000090H.4 SFRSYM    DATA     BIT       SPI_MISO
      00000090H.3 SFRSYM    DATA     BIT       SPI_MOSI
      00000090H.1 SFRSYM    DATA     BIT       CCP0
      000000F8H   SFRSYM    DATA     BYTE      P7
      000000AAH   SFRSYM    DATA     BYTE      WKTCL
      00000090H   SFRSYM    DATA     BIT       CCP1
      000000CEH   SFRSYM    DATA     BYTE      SPCTL
      000000D8H.7 SFRSYM    DATA     BIT       CF
      000000B0H.7 SFRSYM    DATA     BIT       CCP2
      000000F9H   SFRSYM    DATA     BYTE      CH
      000000A2H   SFRSYM    DATA     BYTE      P_SW1
      000000BAH   SFRSYM    DATA     BYTE      P_SW2
      000000A8H.5 SFRSYM    DATA     BIT       EADC
      000000A0H.1 SFRSYM    DATA     BIT       SPI_SCLK_2
      000000A8H   SFRSYM    DATA     BYTE      IE
      000000C0H.3 SFRSYM    DATA     BIT       SPI_SCLK_3
      000000E9H   SFRSYM    DATA     BYTE      CL
      000000C5H   SFRSYM    DATA     BYTE      IAP_CMD
      000000FAH   SFRSYM    DATA     BYTE      CCAP0H
      000000FBH   SFRSYM    DATA     BYTE      CCAP1H
      000000FCH   SFRSYM    DATA     BYTE      CCAP2H
      000000BDH   SFRSYM    DATA     BYTE      ADC_RES
      000000B6H   SFRSYM    DATA     BYTE      IPH2
      000000D8H.6 SFRSYM    DATA     BIT       CR
      000000EAH   SFRSYM    DATA     BYTE      CCAP0L
      000000B0H.7 SFRSYM    DATA     BIT       RD
      000000EBH   SFRSYM    DATA     BYTE      CCAP1L
      000000DAH   SFRSYM    DATA     BYTE      CCAPM0
      000000ECH   SFRSYM    DATA     BYTE      CCAP2L
      000000DBH   SFRSYM    DATA     BYTE      CCAPM1
      000000A8H.4 SFRSYM    DATA     BIT       ES
      000000DCH   SFRSYM    DATA     BYTE      CCAPM2
      000000B8H.5 SFRSYM    DATA     BIT       PADC
      000000A0H.2 SFRSYM    DATA     BIT       SPI_MISO_2
      000000A0H.3 SFRSYM    DATA     BIT       SPI_MOSI_2
      000000B8H   SFRSYM    DATA     BYTE      IP
      000000C0H.1 SFRSYM    DATA     BIT       SPI_MISO_3
      000000C0H   SFRSYM    DATA     BIT       SPI_MOSI_3
      00000098H   SFRSYM    DATA     BIT       RI
      000000B0H.2 SFRSYM    DATA     BIT       INT0
      000000D0H.7 SFRSYM    DATA     BIT       CY
      00000098H.1 SFRSYM    DATA     BIT       TI
      000000B0H.3 SFRSYM    DATA     BIT       INT1
      00000097H   SFRSYM    DATA     BYTE      CLK_DIV
      000000C3H   SFRSYM    DATA     BYTE      IAP_ADDRH
      00000090H   SFRSYM    DATA     BIT       RXD2
      000000C5H   SFRSYM    DATA     BYTE      ISP_CMD
      000000B8H.4 SFRSYM    DATA     BIT       PS
      00000090H.1 SFRSYM    DATA     BIT       TXD2
      00000081H   SFRSYM    DATA     BYTE      SP
      000000D9H   SFRSYM    DATA     BYTE      CMOD
      000000D8H   SFRSYM    DATA     BYTE      CCON
      000000C4H   SFRSYM    DATA     BYTE      IAP_ADDRL
      000000B8H.7 SFRSYM    DATA     BIT       PPCA
      000000D0H.2 SFRSYM    DATA     BIT       OV
      000000B0H.6 SFRSYM    DATA     BIT       WR
      000000A8H.6 SFRSYM    DATA     BIT       ELVD
      00000080H   SFRSYM    DATA     BIT       P00
      00000090H   SFRSYM    DATA     BIT       P10
      00000080H.1 SFRSYM    DATA     BIT       P01
      000000BCH   SFRSYM    DATA     BYTE      ADC_CONTR
      00000099H   SFRSYM    DATA     BYTE      SBUF
LX51 LINKER/LOCATER V4.66.41.0                                                        09/02/2018  12:30:49  PAGE 30


      00000087H   SFRSYM    DATA     BYTE      PCON
      000000A0H   SFRSYM    DATA     BIT       P20
      00000090H.1 SFRSYM    DATA     BIT       P11
      00000080H.2 SFRSYM    DATA     BIT       P02
      000000C3H   SFRSYM    DATA     BYTE      ISP_ADDRH
      000000B0H   SFRSYM    DATA     BIT       P30
      000000A0H.1 SFRSYM    DATA     BIT       P21
      00000090H.2 SFRSYM    DATA     BIT       P12
      00000080H.3 SFRSYM    DATA     BIT       P03
      000000C0H   SFRSYM    DATA     BIT       P40
      000000B0H.1 SFRSYM    DATA     BIT       P31
      000000A0H.2 SFRSYM    DATA     BIT       P22
      00000090H.3 SFRSYM    DATA     BIT       P13
      00000080H.4 SFRSYM    DATA     BIT       P04
      00000098H   SFRSYM    DATA     BYTE      SCON
      0000008FH   SFRSYM    DATA     BYTE      WAKE_CLKO
      000000C8H   SFRSYM    DATA     BIT       P50
      000000C0H.1 SFRSYM    DATA     BIT       P41
      000000B0H.2 SFRSYM    DATA     BIT       P32
      000000A0H.3 SFRSYM    DATA     BIT       P23
      00000090H.4 SFRSYM    DATA     BIT       P14
      00000080H.5 SFRSYM    DATA     BIT       P05
      00000089H   SFRSYM    DATA     BYTE      TMOD
      00000088H   SFRSYM    DATA     BYTE      TCON
      000000C8H.1 SFRSYM    DATA     BIT       P51
      000000C0H.2 SFRSYM    DATA     BIT       P42
      000000B0H.3 SFRSYM    DATA     BIT       P33
      000000A0H.4 SFRSYM    DATA     BIT       P24
      00000090H.5 SFRSYM    DATA     BIT       P15
      00000080H.6 SFRSYM    DATA     BIT       P06
      000000C4H   SFRSYM    DATA     BYTE      ISP_ADDRL
      000000B8H.6 SFRSYM    DATA     BIT       PLVD
      000000C8H.2 SFRSYM    DATA     BIT       P52
      000000C0H.3 SFRSYM    DATA     BIT       P43
      000000B0H.4 SFRSYM    DATA     BIT       P34
      000000A0H.5 SFRSYM    DATA     BIT       P25
      00000090H.6 SFRSYM    DATA     BIT       P16
      00000080H.7 SFRSYM    DATA     BIT       P07
      000000C8H.3 SFRSYM    DATA     BIT       P53
      000000C0H.4 SFRSYM    DATA     BIT       P44
      000000B0H.5 SFRSYM    DATA     BIT       P35
      000000A0H.6 SFRSYM    DATA     BIT       P26
      00000090H.7 SFRSYM    DATA     BIT       P17
      000000C8H.4 SFRSYM    DATA     BIT       P54
      000000C0H.5 SFRSYM    DATA     BIT       P45
      000000B0H.6 SFRSYM    DATA     BIT       P36
      000000A0H.7 SFRSYM    DATA     BIT       P27
      000000C8H.5 SFRSYM    DATA     BIT       P55
      000000C0H.6 SFRSYM    DATA     BIT       P46
      000000B0H.7 SFRSYM    DATA     BIT       P37
      000000C8H.6 SFRSYM    DATA     BIT       P56
      000000C0H.7 SFRSYM    DATA     BIT       P47
      000000C8H.7 SFRSYM    DATA     BIT       P57
      00000088H.1 SFRSYM    DATA     BIT       IE0
      000000A1H   SFRSYM    DATA     BYTE      BUS_SPEED
      00000088H.3 SFRSYM    DATA     BIT       IE1
      000000AFH   SFRSYM    DATA     BYTE      IE2
      000000F0H   SFRSYM    DATA     BYTE      B
      0000008EH   SFRSYM    DATA     BYTE      AUXR
      000000C7H   SFRSYM    DATA     BYTE      IAP_CONTR
      000000E0H   SFRSYM    DATA     BYTE      ACC
      000000A8H.1 SFRSYM    DATA     BIT       ET0
      000000A8H.3 SFRSYM    DATA     BIT       ET1
      00000088H.5 SFRSYM    DATA     BIT       TF0
      00000088H.7 SFRSYM    DATA     BIT       TF1
LX51 LINKER/LOCATER V4.66.41.0                                                        09/02/2018  12:30:49  PAGE 31


      000000B5H   SFRSYM    DATA     BYTE      IP2
      0000008CH   SFRSYM    DATA     BYTE      RL_TH0
      00000098H.2 SFRSYM    DATA     BIT       RB8
      0000008DH   SFRSYM    DATA     BYTE      RL_TH1
      0000008CH   SFRSYM    DATA     BYTE      TH0
      000000A8H   SFRSYM    DATA     BIT       EX0
      00000088H   SFRSYM    DATA     BIT       IT0
      000000D6H   SFRSYM    DATA     BYTE      RL_T2H
      0000008DH   SFRSYM    DATA     BYTE      TH1
      000000A8H.2 SFRSYM    DATA     BIT       EX1
      00000098H.3 SFRSYM    DATA     BIT       TB8
      00000088H.2 SFRSYM    DATA     BIT       IT1
      000000D4H   SFRSYM    DATA     BYTE      RL_T3H
      000000D6H   SFRSYM    DATA     BYTE      TH2
      000000D6H   SFRSYM    DATA     BYTE      T2H
      000000D0H   SFRSYM    DATA     BIT       P
      000000D2H   SFRSYM    DATA     BYTE      RL_T4H
      000000D4H   SFRSYM    DATA     BYTE      TH3
      000000D4H   SFRSYM    DATA     BYTE      T3H
      0000008AH   SFRSYM    DATA     BYTE      RL_TL0
      00000098H.7 SFRSYM    DATA     BIT       SM0
      000000D2H   SFRSYM    DATA     BYTE      TH4
      000000D2H   SFRSYM    DATA     BYTE      T4H
      0000008BH   SFRSYM    DATA     BYTE      RL_TL1
      0000008AH   SFRSYM    DATA     BYTE      TL0
      00000098H.6 SFRSYM    DATA     BIT       SM1
      000000D7H   SFRSYM    DATA     BYTE      RL_T2L
      0000008BH   SFRSYM    DATA     BYTE      TL1
      00000098H.5 SFRSYM    DATA     BIT       SM2
      000000D5H   SFRSYM    DATA     BYTE      RL_T3L
      000000D7H   SFRSYM    DATA     BYTE      TL2
      000000D7H   SFRSYM    DATA     BYTE      T2L
      000000D3H   SFRSYM    DATA     BYTE      RL_T4L
      000000D5H   SFRSYM    DATA     BYTE      TL3
      000000D5H   SFRSYM    DATA     BYTE      T3L
      000000B8H.1 SFRSYM    DATA     BIT       PT0
      000000D3H   SFRSYM    DATA     BYTE      TL4
      000000D3H   SFRSYM    DATA     BYTE      T4L
      000000B8H.3 SFRSYM    DATA     BIT       PT1
      000000D0H.3 SFRSYM    DATA     BIT       RS0
      000000C7H   SFRSYM    DATA     BYTE      ISP_CONTR
      00000088H.4 SFRSYM    DATA     BIT       TR0
      000000D0H.4 SFRSYM    DATA     BIT       RS1
      000000C2H   SFRSYM    DATA     BYTE      IAP_DATA
      00000088H.6 SFRSYM    DATA     BIT       TR1
      000000B8H   SFRSYM    DATA     BIT       PX0
      000000C1H   SFRSYM    DATA     BYTE      WDT_CONTR
      000000B8H.2 SFRSYM    DATA     BIT       PX1
      000000F2H   SFRSYM    DATA     BYTE      PCA_PWM0
      000000F3H   SFRSYM    DATA     BYTE      PCA_PWM1
      000000F4H   SFRSYM    DATA     BYTE      PCA_PWM2
      0000009DH   SFRSYM    DATA     BYTE      P1ASF
      00000083H   SFRSYM    DATA     BYTE      DPH
      000000D1H   SFRSYM    DATA     BYTE      T4T3M
      000000BEH   SFRSYM    DATA     BYTE      ADC_RESL
      00000082H   SFRSYM    DATA     BYTE      DPL
      000000CDH   SFRSYM    DATA     BYTE      SPSTAT
      000000B7H   SFRSYM    DATA     BYTE      IPH
      0000009BH   SFRSYM    DATA     BYTE      S2BUF
      00000097H   SFRSYM    DATA     BYTE      PCON2
      000000ADH   SFRSYM    DATA     BYTE      S3BUF
      00000098H.4 SFRSYM    DATA     BIT       REN
      00000085H   SFRSYM    DATA     BYTE      S4BUF
      0000009AH   SFRSYM    DATA     BYTE      S2CON
      000000ACH   SFRSYM    DATA     BYTE      S3CON
LX51 LINKER/LOCATER V4.66.41.0                                                        09/02/2018  12:30:49  PAGE 32


      000000C2H   SFRSYM    DATA     BYTE      ISP_DATA
      00000084H   SFRSYM    DATA     BYTE      S4CON
      000000B9H   SFRSYM    DATA     BYTE      SADEN
      000000B0H   SFRSYM    DATA     BIT       RXD
      000000A9H   SFRSYM    DATA     BYTE      SADDR
      000000B0H.1 SFRSYM    DATA     BIT       TXD
      000000F0H   SFRSYM    DATA     BIT       B0
      000000F0H.1 SFRSYM    DATA     BIT       B1
      000000C6H   SFRSYM    DATA     BYTE      IAP_TRIG
      000000A2H   SFRSYM    DATA     BYTE      AUXR1
      000000F0H.2 SFRSYM    DATA     BIT       B2
      00000090H.2 SFRSYM    DATA     BIT       SPI_SS
      0000008FH   SFRSYM    DATA     BYTE      AUXR2
      000000F0H.3 SFRSYM    DATA     BIT       B3
      000000F0H.4 SFRSYM    DATA     BIT       B4
      000000D0H.5 SFRSYM    DATA     BIT       F0
      000000F0H.5 SFRSYM    DATA     BIT       B5
      000000D0H.1 SFRSYM    DATA     BIT       F1
      0000008FH   SFRSYM    DATA     BYTE      INT_CLKO
      000000F0H.6 SFRSYM    DATA     BIT       B6
      000000E0H   SFRSYM    DATA     BIT       ACC0
      000000F0H.7 SFRSYM    DATA     BIT       B7
      000000E0H.1 SFRSYM    DATA     BIT       ACC1
      000000E0H.2 SFRSYM    DATA     BIT       ACC2
      000000E0H.3 SFRSYM    DATA     BIT       ACC3
      000000D0H   SFRSYM    DATA     BYTE      PSW
      000000E0H.4 SFRSYM    DATA     BIT       ACC4
      00000090H.5 SFRSYM    DATA     BIT       SPI_SCLK
      000000D8H   SFRSYM    DATA     BIT       CCF0
      000000E0H.5 SFRSYM    DATA     BIT       ACC5
      000000D8H.1 SFRSYM    DATA     BIT       CCF1
      000000E0H.6 SFRSYM    DATA     BIT       ACC6
      000000CFH   SFRSYM    DATA     BYTE      SPDAT
      00000094H   SFRSYM    DATA     BYTE      P0M0
      01004848H   SYMBOL    CONST    ---       _?ix1000
      01004867H   SYMBOL    CONST    ---       _?ix1001

      010031FEH   BLOCK     CODE     ---       LVL=0
      010031FEH   BLOCK     CODE     NEAR LAB  LVL=1
      00000006H   SYMBOL    DATA     ---       id_ptr
      ---         BLOCKEND  ---      ---       LVL=1
      010031FEH   LINE      CODE     ---       #25
      010031FEH   LINE      CODE     ---       #27
      01003202H   LINE      CODE     ---       #29
      ---         BLOCKEND  ---      ---       LVL=0

      01003260H   BLOCK     CODE     ---       LVL=0
      01003260H   LINE      CODE     ---       #35
      01003260H   LINE      CODE     ---       #37
      ---         BLOCKEND  ---      ---       LVL=0

      0100321BH   BLOCK     CODE     ---       LVL=0
      0100321BH   BLOCK     CODE     NEAR LAB  LVL=1
      00000007H   SYMBOL    DATA     BYTE      act_Reserve
      ---         BLOCKEND  ---      ---       LVL=1
      0100321BH   LINE      CODE     ---       #50
      0100321BH   LINE      CODE     ---       #52
      0100321DH   LINE      CODE     ---       #54
      01003222H   LINE      CODE     ---       #56
      01003222H   LINE      CODE     ---       #58
      01003224H   LINE      CODE     ---       #59
      01003229H   LINE      CODE     ---       #61
      0100322BH   LINE      CODE     ---       #63
      0100322DH   LINE      CODE     ---       #64
      01003232H   LINE      CODE     ---       #66
LX51 LINKER/LOCATER V4.66.41.0                                                        09/02/2018  12:30:49  PAGE 33


      01003234H   LINE      CODE     ---       #67
      01003234H   LINE      CODE     ---       #69
      01003234H   LINE      CODE     ---       #70
      ---         BLOCKEND  ---      ---       LVL=0

      010027A4H   BLOCK     CODE     ---       LVL=0
      00000020H.5 SYMBOL    BIT      BIT       vacancyFind_IF
      00000032H   SYMBOL    DATA     BYTE      scenarioNum
      010027A4H   BLOCK     CODE     NEAR LAB  LVL=1
      00000007H   SYMBOL    DATA     BYTE      loop
      02000164H   SYMBOL    XDATA    ---       datsTemp
      ---         BLOCKEND  ---      ---       LVL=1
      010027A4H   LINE      CODE     ---       #73
      010027A4H   LINE      CODE     ---       #75
      010027A5H   LINE      CODE     ---       #76
      010027B7H   LINE      CODE     ---       #78
      010027CAH   LINE      CODE     ---       #79
      010027CCH   LINE      CODE     ---       #81
      010027CFH   LINE      CODE     ---       #83
      010027E1H   LINE      CODE     ---       #85
      010027E1H   LINE      CODE     ---       #87
      010027F0H   LINE      CODE     ---       #88
      010027F0H   LINE      CODE     ---       #89
      010027F4H   LINE      CODE     ---       #91
      010027FAH   LINE      CODE     ---       #93
      010027FBH   LINE      CODE     ---       #95
      010027FBH   LINE      CODE     ---       #97
      010027FDH   LINE      CODE     ---       #98
      010027FDH   LINE      CODE     ---       #99
      ---         BLOCKEND  ---      ---       LVL=0

      01002C72H   BLOCK     CODE     ---       LVL=0
      0000002EH   SYMBOL    DATA     BYTE      scenarioNum
      0000002FH   SYMBOL    DATA     BYTE      swAct
      01002C76H   BLOCK     CODE     NEAR LAB  LVL=1
      00000030H   SYMBOL    DATA     BYTE      datsTemp
      00000031H   SYMBOL    DATA     BYTE      insert
      ---         BLOCKEND  ---      ---       LVL=1
      01002C72H   LINE      CODE     ---       #102
      01002C76H   LINE      CODE     ---       #104
      01002C79H   LINE      CODE     ---       #105
      01002C7BH   LINE      CODE     ---       #107
      01002C85H   LINE      CODE     ---       #108
      01002C8AH   LINE      CODE     ---       #110
      01002C8DH   LINE      CODE     ---       #111
      01002C8EH   LINE      CODE     ---       #113
      01002C90H   LINE      CODE     ---       #115
      01002C9AH   LINE      CODE     ---       #116
      01002C9FH   LINE      CODE     ---       #118
      01002CA2H   LINE      CODE     ---       #119
      01002CB8H   LINE      CODE     ---       #120
      01002CBBH   LINE      CODE     ---       #121
      01002CD2H   LINE      CODE     ---       #123
      01002CD4H   LINE      CODE     ---       #125
      01002CD6H   LINE      CODE     ---       #126
      01002CD6H   LINE      CODE     ---       #127
      01002CD6H   LINE      CODE     ---       #129
      01002CD7H   LINE      CODE     ---       #130
      ---         BLOCKEND  ---      ---       LVL=0

      01002EC3H   BLOCK     CODE     ---       LVL=0
      00000007H   SYMBOL    DATA     BYTE      scenarioNum
      01002EC3H   BLOCK     CODE     NEAR LAB  LVL=1
      0000002EH   SYMBOL    DATA     BYTE      datsTemp
      0000002FH   SYMBOL    DATA     BYTE      insert
LX51 LINKER/LOCATER V4.66.41.0                                                        09/02/2018  12:30:49  PAGE 34


      ---         BLOCKEND  ---      ---       LVL=1
      01002EC3H   LINE      CODE     ---       #133
      01002EC3H   LINE      CODE     ---       #135
      01002EC6H   LINE      CODE     ---       #136
      01002EC8H   LINE      CODE     ---       #138
      01002ED1H   LINE      CODE     ---       #140
      01002ED6H   LINE      CODE     ---       #142
      01002EECH   LINE      CODE     ---       #143
      01002F03H   LINE      CODE     ---       #145
      01002F05H   LINE      CODE     ---       #147
      01002F05H   LINE      CODE     ---       #149
      01002F06H   LINE      CODE     ---       #150
      01002F06H   LINE      CODE     ---       #151
      ---         BLOCKEND  ---      ---       LVL=0

      01003106H   BLOCK     CODE     ---       LVL=0
      00000007H   SYMBOL    DATA     BYTE      scenarioNum
      01003106H   BLOCK     CODE     NEAR LAB  LVL=1
      0000002EH   SYMBOL    DATA     BYTE      datsTemp
      00000006H   SYMBOL    DATA     BYTE      insert
      ---         BLOCKEND  ---      ---       LVL=1
      01003106H   LINE      CODE     ---       #154
      01003106H   LINE      CODE     ---       #156
      01003109H   LINE      CODE     ---       #157
      0100310AH   LINE      CODE     ---       #159
      01003111H   LINE      CODE     ---       #161
      01003115H   LINE      CODE     ---       #163
      01003128H   LINE      CODE     ---       #164
      0100312BH   LINE      CODE     ---       #166
      0100312BH   LINE      CODE     ---       #168
      0100312DH   LINE      CODE     ---       #169
      0100312DH   LINE      CODE     ---       #170
      ---         BLOCKEND  ---      ---       LVL=0

      01002E39H   BLOCK     CODE     ---       LVL=0
      01002E39H   BLOCK     CODE     NEAR LAB  LVL=1
      02000164H   SYMBOL    XDATA    ---       datsTemp
      ---         BLOCKEND  ---      ---       LVL=1
      01002E39H   LINE      CODE     ---       #172
      01002E39H   LINE      CODE     ---       #174
      01002E4CH   LINE      CODE     ---       #176
      01002E5EH   LINE      CODE     ---       #177
      01002E64H   LINE      CODE     ---       #178
      01002E77H   LINE      CODE     ---       #180
      ---         BLOCKEND  ---      ---       LVL=0

      0100319DH   BLOCK     CODE     ---       LVL=0
      0100319DH   BLOCK     CODE     NEAR LAB  LVL=1
      02000000H   SYMBOL    XDATA    BYTE      datsTemp
      ---         BLOCKEND  ---      ---       LVL=1
      0100319DH   LINE      CODE     ---       #185
      0100319DH   LINE      CODE     ---       #187
      010031A2H   LINE      CODE     ---       #189
      010031B3H   LINE      CODE     ---       #190
      010031BBH   LINE      CODE     ---       #192
      010031BEH   LINE      CODE     ---       #193
      010031BEH   LINE      CODE     ---       #194
      ---         BLOCKEND  ---      ---       LVL=0

      ---         MODULE    ---      ---       TIPS
      0000006FH   PUBLIC    DATA     BYTE      tipsInsert_swLedBKG_ON
      0000006EH   PUBLIC    DATA     BYTE      devTips_status
      0200049FH   PUBLIC    XDATA    ---       zigbNwk_Tips
      0200049CH   PUBLIC    XDATA    ---       devTips_beep
      0000006DH   PUBLIC    DATA     BYTE      counter_ifTipsFree
LX51 LINKER/LOCATER V4.66.41.0                                                        09/02/2018  12:30:49  PAGE 35


      02000499H   PUBLIC    XDATA    ---       relay3_Tips
      02000496H   PUBLIC    XDATA    ---       relay2_Tips
      02000493H   PUBLIC    XDATA    ---       relay1_Tips
      02000492H   PUBLIC    XDATA    BYTE      counter_tipsAct
      0000006CH   PUBLIC    DATA     BYTE      dev_statusBeeps
      0000006BH   PUBLIC    DATA     BYTE      tipsInsert_swLedBKG_OFF
      0000006AH   PUBLIC    DATA     BYTE      devTips_nwkZigb
      0100496AH   PUBLIC    CONST    ---       color_Tab
      01004967H   PUBLIC    CONST    ---       tips_relayUnused
      01001000H   PUBLIC    CODE     ---       tips_sysStandBy
      010015F5H   PUBLIC    CODE     ---       _tips_specified
      00000025H   PUBLIC    DATA     BYTE      ?_tipsLED_colorSet?BYTE
      01002B8CH   PUBLIC    CODE     ---       _tipsLED_colorSet
      01001AB1H   PUBLIC    CODE     ---       thread_Tips
      01002AA2H   PUBLIC    CODE     ---       _thread_tipsGetDark
      01000003H   PUBLIC    CODE     ---       tips_statusChangeToNormal
      010031BFH   PUBLIC    CODE     ---       _beeps_usrActive
      01002FC5H   PUBLIC    CODE     ---       ledBKGColorSw_Reales
      0100303DH   PUBLIC    CODE     ---       tipLED_pinInit
      000000D8H.2 SFRSYM    DATA     BIT       CCF2
      000000E0H.7 SFRSYM    DATA     BIT       ACC7
      00000093H   SFRSYM    DATA     BYTE      P0M1
      00000092H   SFRSYM    DATA     BYTE      P1M0
      00000096H   SFRSYM    DATA     BYTE      P2M0
      00000091H   SFRSYM    DATA     BYTE      P1M1
      00000080H   SFRSYM    DATA     BYTE      P0
      000000B2H   SFRSYM    DATA     BYTE      P3M0
      00000095H   SFRSYM    DATA     BYTE      P2M1
      00000090H   SFRSYM    DATA     BYTE      P1
      000000B4H   SFRSYM    DATA     BYTE      P4M0
      000000B1H   SFRSYM    DATA     BYTE      P3M1
      000000A0H   SFRSYM    DATA     BYTE      P2
      000000CAH   SFRSYM    DATA     BYTE      P5M0
      000000B3H   SFRSYM    DATA     BYTE      P4M1
      000000B0H   SFRSYM    DATA     BYTE      P3
      000000ABH   SFRSYM    DATA     BYTE      WKTCH
      000000B0H.4 SFRSYM    DATA     BIT       T0
      000000D0H.6 SFRSYM    DATA     BIT       AC
      000000CCH   SFRSYM    DATA     BYTE      P6M0
      000000C9H   SFRSYM    DATA     BYTE      P5M1
      000000C0H   SFRSYM    DATA     BYTE      P4
      000000B0H.5 SFRSYM    DATA     BIT       CLKOUT0
      000000B0H.5 SFRSYM    DATA     BIT       T1
      000000E2H   SFRSYM    DATA     BYTE      P7M0
      000000CBH   SFRSYM    DATA     BYTE      P6M1
      000000C8H   SFRSYM    DATA     BYTE      P5
      000000C6H   SFRSYM    DATA     BYTE      ISP_TRIG
      000000A8H.7 SFRSYM    DATA     BIT       EA
      000000B0H.4 SFRSYM    DATA     BIT       CLKOUT1
      000000A0H.4 SFRSYM    DATA     BIT       SPI_SS_2
      000000E8H   SFRSYM    DATA     BYTE      P6
      000000E1H   SFRSYM    DATA     BYTE      P7M1
      000000C8H.4 SFRSYM    DATA     BIT       SPI_SS_3
      00000090H.4 SFRSYM    DATA     BIT       SPI_MISO
      00000090H.3 SFRSYM    DATA     BIT       SPI_MOSI
      00000090H.1 SFRSYM    DATA     BIT       CCP0
      000000F8H   SFRSYM    DATA     BYTE      P7
      000000AAH   SFRSYM    DATA     BYTE      WKTCL
      00000090H   SFRSYM    DATA     BIT       CCP1
      000000CEH   SFRSYM    DATA     BYTE      SPCTL
      000000D8H.7 SFRSYM    DATA     BIT       CF
      000000B0H.7 SFRSYM    DATA     BIT       CCP2
      000000F9H   SFRSYM    DATA     BYTE      CH
      000000A2H   SFRSYM    DATA     BYTE      P_SW1
      000000BAH   SFRSYM    DATA     BYTE      P_SW2
LX51 LINKER/LOCATER V4.66.41.0                                                        09/02/2018  12:30:49  PAGE 36


      000000A8H.5 SFRSYM    DATA     BIT       EADC
      000000A0H.1 SFRSYM    DATA     BIT       SPI_SCLK_2
      000000A8H   SFRSYM    DATA     BYTE      IE
      000000C0H.3 SFRSYM    DATA     BIT       SPI_SCLK_3
      000000E9H   SFRSYM    DATA     BYTE      CL
      000000C5H   SFRSYM    DATA     BYTE      IAP_CMD
      000000FAH   SFRSYM    DATA     BYTE      CCAP0H
      000000FBH   SFRSYM    DATA     BYTE      CCAP1H
      000000FCH   SFRSYM    DATA     BYTE      CCAP2H
      000000BDH   SFRSYM    DATA     BYTE      ADC_RES
      000000B6H   SFRSYM    DATA     BYTE      IPH2
      000000D8H.6 SFRSYM    DATA     BIT       CR
      000000EAH   SFRSYM    DATA     BYTE      CCAP0L
      000000B0H.7 SFRSYM    DATA     BIT       RD
      000000EBH   SFRSYM    DATA     BYTE      CCAP1L
      000000DAH   SFRSYM    DATA     BYTE      CCAPM0
      000000ECH   SFRSYM    DATA     BYTE      CCAP2L
      000000DBH   SFRSYM    DATA     BYTE      CCAPM1
      000000A8H.4 SFRSYM    DATA     BIT       ES
      000000DCH   SFRSYM    DATA     BYTE      CCAPM2
      000000B8H.5 SFRSYM    DATA     BIT       PADC
      000000A0H.2 SFRSYM    DATA     BIT       SPI_MISO_2
      000000A0H.3 SFRSYM    DATA     BIT       SPI_MOSI_2
      000000B8H   SFRSYM    DATA     BYTE      IP
      000000C0H.1 SFRSYM    DATA     BIT       SPI_MISO_3
      000000C0H   SFRSYM    DATA     BIT       SPI_MOSI_3
      00000098H   SFRSYM    DATA     BIT       RI
      000000B0H.2 SFRSYM    DATA     BIT       INT0
      000000D0H.7 SFRSYM    DATA     BIT       CY
      00000098H.1 SFRSYM    DATA     BIT       TI
      000000B0H.3 SFRSYM    DATA     BIT       INT1
      00000097H   SFRSYM    DATA     BYTE      CLK_DIV
      000000C3H   SFRSYM    DATA     BYTE      IAP_ADDRH
      00000090H   SFRSYM    DATA     BIT       RXD2
      000000C5H   SFRSYM    DATA     BYTE      ISP_CMD
      000000B8H.4 SFRSYM    DATA     BIT       PS
      00000090H.1 SFRSYM    DATA     BIT       TXD2
      00000081H   SFRSYM    DATA     BYTE      SP
      000000D9H   SFRSYM    DATA     BYTE      CMOD
      000000D8H   SFRSYM    DATA     BYTE      CCON
      000000C4H   SFRSYM    DATA     BYTE      IAP_ADDRL
      000000B8H.7 SFRSYM    DATA     BIT       PPCA
      000000D0H.2 SFRSYM    DATA     BIT       OV
      000000B0H.6 SFRSYM    DATA     BIT       WR
      000000A8H.6 SFRSYM    DATA     BIT       ELVD
      00000080H   SFRSYM    DATA     BIT       P00
      00000090H   SFRSYM    DATA     BIT       P10
      00000080H.1 SFRSYM    DATA     BIT       P01
      000000BCH   SFRSYM    DATA     BYTE      ADC_CONTR
      00000099H   SFRSYM    DATA     BYTE      SBUF
      00000087H   SFRSYM    DATA     BYTE      PCON
      000000A0H   SFRSYM    DATA     BIT       P20
      00000090H.1 SFRSYM    DATA     BIT       P11
      00000080H.2 SFRSYM    DATA     BIT       P02
      000000C3H   SFRSYM    DATA     BYTE      ISP_ADDRH
      000000B0H   SFRSYM    DATA     BIT       P30
      000000A0H.1 SFRSYM    DATA     BIT       P21
      00000090H.2 SFRSYM    DATA     BIT       P12
      00000080H.3 SFRSYM    DATA     BIT       P03
      000000C0H   SFRSYM    DATA     BIT       P40
      000000B0H.1 SFRSYM    DATA     BIT       P31
      000000A0H.2 SFRSYM    DATA     BIT       P22
      00000090H.3 SFRSYM    DATA     BIT       P13
      00000080H.4 SFRSYM    DATA     BIT       P04
      00000098H   SFRSYM    DATA     BYTE      SCON
LX51 LINKER/LOCATER V4.66.41.0                                                        09/02/2018  12:30:49  PAGE 37


      0000008FH   SFRSYM    DATA     BYTE      WAKE_CLKO
      000000C8H   SFRSYM    DATA     BIT       P50
      000000C0H.1 SFRSYM    DATA     BIT       P41
      000000B0H.2 SFRSYM    DATA     BIT       P32
      000000A0H.3 SFRSYM    DATA     BIT       P23
      00000090H.4 SFRSYM    DATA     BIT       P14
      00000080H.5 SFRSYM    DATA     BIT       P05
      00000089H   SFRSYM    DATA     BYTE      TMOD
      00000088H   SFRSYM    DATA     BYTE      TCON
      000000C8H.1 SFRSYM    DATA     BIT       P51
      000000C0H.2 SFRSYM    DATA     BIT       P42
      000000B0H.3 SFRSYM    DATA     BIT       P33
      000000A0H.4 SFRSYM    DATA     BIT       P24
      00000090H.5 SFRSYM    DATA     BIT       P15
      00000080H.6 SFRSYM    DATA     BIT       P06
      000000C4H   SFRSYM    DATA     BYTE      ISP_ADDRL
      000000B8H.6 SFRSYM    DATA     BIT       PLVD
      000000C8H.2 SFRSYM    DATA     BIT       P52
      000000C0H.3 SFRSYM    DATA     BIT       P43
      000000B0H.4 SFRSYM    DATA     BIT       P34
      000000A0H.5 SFRSYM    DATA     BIT       P25
      00000090H.6 SFRSYM    DATA     BIT       P16
      00000080H.7 SFRSYM    DATA     BIT       P07
      000000C8H.3 SFRSYM    DATA     BIT       P53
      000000C0H.4 SFRSYM    DATA     BIT       P44
      000000B0H.5 SFRSYM    DATA     BIT       P35
      000000A0H.6 SFRSYM    DATA     BIT       P26
      00000090H.7 SFRSYM    DATA     BIT       P17
      000000C8H.4 SFRSYM    DATA     BIT       P54
      000000C0H.5 SFRSYM    DATA     BIT       P45
      000000B0H.6 SFRSYM    DATA     BIT       P36
      000000A0H.7 SFRSYM    DATA     BIT       P27
      000000C8H.5 SFRSYM    DATA     BIT       P55
      000000C0H.6 SFRSYM    DATA     BIT       P46
      000000B0H.7 SFRSYM    DATA     BIT       P37
      000000C8H.6 SFRSYM    DATA     BIT       P56
      000000C0H.7 SFRSYM    DATA     BIT       P47
      000000C8H.7 SFRSYM    DATA     BIT       P57
      00000088H.1 SFRSYM    DATA     BIT       IE0
      000000A1H   SFRSYM    DATA     BYTE      BUS_SPEED
      00000088H.3 SFRSYM    DATA     BIT       IE1
      000000AFH   SFRSYM    DATA     BYTE      IE2
      000000F0H   SFRSYM    DATA     BYTE      B
      0000008EH   SFRSYM    DATA     BYTE      AUXR
      000000C7H   SFRSYM    DATA     BYTE      IAP_CONTR
      000000E0H   SFRSYM    DATA     BYTE      ACC
      000000A8H.1 SFRSYM    DATA     BIT       ET0
      000000A8H.3 SFRSYM    DATA     BIT       ET1
      00000088H.5 SFRSYM    DATA     BIT       TF0
      00000088H.7 SFRSYM    DATA     BIT       TF1
      000000B5H   SFRSYM    DATA     BYTE      IP2
      0000008CH   SFRSYM    DATA     BYTE      RL_TH0
      00000098H.2 SFRSYM    DATA     BIT       RB8
      0000008DH   SFRSYM    DATA     BYTE      RL_TH1
      0000008CH   SFRSYM    DATA     BYTE      TH0
      000000A8H   SFRSYM    DATA     BIT       EX0
      00000088H   SFRSYM    DATA     BIT       IT0
      000000D6H   SFRSYM    DATA     BYTE      RL_T2H
      0000008DH   SFRSYM    DATA     BYTE      TH1
      000000A8H.2 SFRSYM    DATA     BIT       EX1
      00000098H.3 SFRSYM    DATA     BIT       TB8
      00000088H.2 SFRSYM    DATA     BIT       IT1
      000000D4H   SFRSYM    DATA     BYTE      RL_T3H
      000000D6H   SFRSYM    DATA     BYTE      TH2
      000000D6H   SFRSYM    DATA     BYTE      T2H
LX51 LINKER/LOCATER V4.66.41.0                                                        09/02/2018  12:30:49  PAGE 38


      000000D0H   SFRSYM    DATA     BIT       P
      000000D2H   SFRSYM    DATA     BYTE      RL_T4H
      000000D4H   SFRSYM    DATA     BYTE      TH3
      000000D4H   SFRSYM    DATA     BYTE      T3H
      0000008AH   SFRSYM    DATA     BYTE      RL_TL0
      00000098H.7 SFRSYM    DATA     BIT       SM0
      000000D2H   SFRSYM    DATA     BYTE      TH4
      000000D2H   SFRSYM    DATA     BYTE      T4H
      0000008BH   SFRSYM    DATA     BYTE      RL_TL1
      0000008AH   SFRSYM    DATA     BYTE      TL0
      00000098H.6 SFRSYM    DATA     BIT       SM1
      000000D7H   SFRSYM    DATA     BYTE      RL_T2L
      0000008BH   SFRSYM    DATA     BYTE      TL1
      00000098H.5 SFRSYM    DATA     BIT       SM2
      000000D5H   SFRSYM    DATA     BYTE      RL_T3L
      000000D7H   SFRSYM    DATA     BYTE      TL2
      000000D7H   SFRSYM    DATA     BYTE      T2L
      000000D3H   SFRSYM    DATA     BYTE      RL_T4L
      000000D5H   SFRSYM    DATA     BYTE      TL3
      000000D5H   SFRSYM    DATA     BYTE      T3L
      000000B8H.1 SFRSYM    DATA     BIT       PT0
      000000D3H   SFRSYM    DATA     BYTE      TL4
      000000D3H   SFRSYM    DATA     BYTE      T4L
      000000B8H.3 SFRSYM    DATA     BIT       PT1
      000000D0H.3 SFRSYM    DATA     BIT       RS0
      000000C7H   SFRSYM    DATA     BYTE      ISP_CONTR
      00000088H.4 SFRSYM    DATA     BIT       TR0
      000000D0H.4 SFRSYM    DATA     BIT       RS1
      000000C2H   SFRSYM    DATA     BYTE      IAP_DATA
      00000088H.6 SFRSYM    DATA     BIT       TR1
      000000B8H   SFRSYM    DATA     BIT       PX0
      000000C1H   SFRSYM    DATA     BYTE      WDT_CONTR
      000000B8H.2 SFRSYM    DATA     BIT       PX1
      000000F2H   SFRSYM    DATA     BYTE      PCA_PWM0
      000000F3H   SFRSYM    DATA     BYTE      PCA_PWM1
      000000F4H   SFRSYM    DATA     BYTE      PCA_PWM2
      0000009DH   SFRSYM    DATA     BYTE      P1ASF
      00000083H   SFRSYM    DATA     BYTE      DPH
      000000D1H   SFRSYM    DATA     BYTE      T4T3M
      000000BEH   SFRSYM    DATA     BYTE      ADC_RESL
      00000082H   SFRSYM    DATA     BYTE      DPL
      000000CDH   SFRSYM    DATA     BYTE      SPSTAT
      000000B7H   SFRSYM    DATA     BYTE      IPH
      0000009BH   SFRSYM    DATA     BYTE      S2BUF
      00000097H   SFRSYM    DATA     BYTE      PCON2
      000000ADH   SFRSYM    DATA     BYTE      S3BUF
      00000098H.4 SFRSYM    DATA     BIT       REN
      00000085H   SFRSYM    DATA     BYTE      S4BUF
      0000009AH   SFRSYM    DATA     BYTE      S2CON
      000000ACH   SFRSYM    DATA     BYTE      S3CON
      000000C2H   SFRSYM    DATA     BYTE      ISP_DATA
      00000084H   SFRSYM    DATA     BYTE      S4CON
      000000B9H   SFRSYM    DATA     BYTE      SADEN
      000000B0H   SFRSYM    DATA     BIT       RXD
      000000A9H   SFRSYM    DATA     BYTE      SADDR
      000000B0H.1 SFRSYM    DATA     BIT       TXD
      000000F0H   SFRSYM    DATA     BIT       B0
      000000F0H.1 SFRSYM    DATA     BIT       B1
      000000C6H   SFRSYM    DATA     BYTE      IAP_TRIG
      000000A2H   SFRSYM    DATA     BYTE      AUXR1
      000000F0H.2 SFRSYM    DATA     BIT       B2
      00000090H.2 SFRSYM    DATA     BIT       SPI_SS
      0000008FH   SFRSYM    DATA     BYTE      AUXR2
      000000F0H.3 SFRSYM    DATA     BIT       B3
      000000F0H.4 SFRSYM    DATA     BIT       B4
LX51 LINKER/LOCATER V4.66.41.0                                                        09/02/2018  12:30:49  PAGE 39


      000000D0H.5 SFRSYM    DATA     BIT       F0
      000000F0H.5 SFRSYM    DATA     BIT       B5
      000000D0H.1 SFRSYM    DATA     BIT       F1
      0000008FH   SFRSYM    DATA     BYTE      INT_CLKO
      000000F0H.6 SFRSYM    DATA     BIT       B6
      000000E0H   SFRSYM    DATA     BIT       ACC0
      000000F0H.7 SFRSYM    DATA     BIT       B7
      000000E0H.1 SFRSYM    DATA     BIT       ACC1
      000000E0H.2 SFRSYM    DATA     BIT       ACC2
      000000E0H.3 SFRSYM    DATA     BIT       ACC3
      000000D0H   SFRSYM    DATA     BYTE      PSW
      000000E0H.4 SFRSYM    DATA     BIT       ACC4
      00000090H.5 SFRSYM    DATA     BIT       SPI_SCLK
      000000D8H   SFRSYM    DATA     BIT       CCF0
      000000E0H.5 SFRSYM    DATA     BIT       ACC5
      000000D8H.1 SFRSYM    DATA     BIT       CCF1
      000000E0H.6 SFRSYM    DATA     BIT       ACC6
      000000CFH   SFRSYM    DATA     BYTE      SPDAT
      00000094H   SFRSYM    DATA     BYTE      P0M0

      0100303DH   BLOCK     CODE     ---       LVL=0
      0100303DH   LINE      CODE     ---       #38
      0100303DH   LINE      CODE     ---       #40
      01003040H   LINE      CODE     ---       #41
      01003043H   LINE      CODE     ---       #43
      01003046H   LINE      CODE     ---       #44
      01003049H   LINE      CODE     ---       #46
      0100304CH   LINE      CODE     ---       #47
      0100304FH   LINE      CODE     ---       #49
      01003052H   LINE      CODE     ---       #51
      0100305BH   LINE      CODE     ---       #52
      01003065H   LINE      CODE     ---       #53
      0100306FH   LINE      CODE     ---       #54
      ---         BLOCKEND  ---      ---       LVL=0

      01002FC5H   BLOCK     CODE     ---       LVL=0
      01002FC5H   LINE      CODE     ---       #69
      01002FC5H   LINE      CODE     ---       #71
      01002FD8H   LINE      CODE     ---       #72
      01002FEBH   LINE      CODE     ---       #74
      01002FF5H   LINE      CODE     ---       #75
      01002FFFH   LINE      CODE     ---       #76
      ---         BLOCKEND  ---      ---       LVL=0

      010031BFH   BLOCK     CODE     ---       LVL=0
      00000007H   SYMBOL    DATA     BYTE      tons
      00000005H   SYMBOL    DATA     BYTE      time
      00000003H   SYMBOL    DATA     BYTE      loop
      010031BFH   LINE      CODE     ---       #79
      010031BFH   LINE      CODE     ---       #81
      010031C2H   LINE      CODE     ---       #83
      010031CEH   LINE      CODE     ---       #84
      010031D1H   LINE      CODE     ---       #85
      010031DBH   LINE      CODE     ---       #86
      010031DEH   LINE      CODE     ---       #87
      010031DEH   LINE      CODE     ---       #88
      ---         BLOCKEND  ---      ---       LVL=0

      01000003H   BLOCK     CODE     ---       LVL=0
      01000003H   LINE      CODE     ---       #91
      01000003H   LINE      CODE     ---       #93
      01000006H   LINE      CODE     ---       #94
      01000009H   LINE      CODE     ---       #95
      ---         BLOCKEND  ---      ---       LVL=0

LX51 LINKER/LOCATER V4.66.41.0                                                        09/02/2018  12:30:49  PAGE 40


      01002AA2H   BLOCK     CODE     ---       LVL=0
      00000005H   SYMBOL    DATA     BYTE      funSet
      01002AA2H   LINE      CODE     ---       #97
      01002AA4H   LINE      CODE     ---       #99
      01002ABDH   LINE      CODE     ---       #100
      01002AD9H   LINE      CODE     ---       #101
      01002AF7H   LINE      CODE     ---       #102
      01002B16H   LINE      CODE     ---       #103
      ---         BLOCKEND  ---      ---       LVL=0

      01001AB1H   BLOCK     CODE     ---       LVL=0
      01001AEEH   BLOCK     CODE     NEAR LAB  LVL=1
      00000054H   SYMBOL    DATA     WORD      tips_Counter
      01004988H   SYMBOL    CONST    WORD      tips_Period
      01001C8FH   BLOCK     CODE     NEAR LAB  LVL=2
      00000023H.5 SYMBOL    BIT      BIT       tips_Type
      ---         BLOCKEND  ---      ---       LVL=2
      ---         BLOCKEND  ---      ---       LVL=1
      01001AB1H   LINE      CODE     ---       #106
      01001AB1H   LINE      CODE     ---       #108
      01001AB4H   LINE      CODE     ---       #110
      01001AB7H   LINE      CODE     ---       #112
      01001AB9H   LINE      CODE     ---       #114
      01001AC1H   LINE      CODE     ---       #116
      01001ACAH   LINE      CODE     ---       #117
      01001ACAH   LINE      CODE     ---       #119
      01001ACFH   LINE      CODE     ---       #120
      01001AD2H   LINE      CODE     ---       #121
      01001AD2H   LINE      CODE     ---       #122
      01001AD2H   LINE      CODE     ---       #124
      01001AEBH   LINE      CODE     ---       #126
      01001AEBH   LINE      CODE     ---       #130
      01001AEBH   LINE      CODE     ---       #132
      01001AEBH   LINE      CODE     ---       #134
      01001AEEH   LINE      CODE     ---       #136
      01001AEEH   LINE      CODE     ---       #138
      01001AEEH   LINE      CODE     ---       #139
      01001AEEH   LINE      CODE     ---       #145
      01001B79H   LINE      CODE     ---       #146
      01001C04H   LINE      CODE     ---       #147
      01001C8FH   LINE      CODE     ---       #150
      01001C8FH   LINE      CODE     ---       #153
      01001CA7H   LINE      CODE     ---       #154
      01001CA7H   LINE      CODE     ---       #156
      01001CA9H   LINE      CODE     ---       #157
      01001CAEH   LINE      CODE     ---       #159
      01001CBDH   LINE      CODE     ---       #161
      01001CBDH   LINE      CODE     ---       #163
      01001CC3H   LINE      CODE     ---       #165
      01001CC5H   LINE      CODE     ---       #167
      01001CC5H   LINE      CODE     ---       #169
      01001CCBH   LINE      CODE     ---       #171
      01001CCDH   LINE      CODE     ---       #173
      01001CCDH   LINE      CODE     ---       #175
      01001CD4H   LINE      CODE     ---       #177
      01001CD6H   LINE      CODE     ---       #179
      01001CD6H   LINE      CODE     ---       #181
      01001CEAH   LINE      CODE     ---       #183
      01001CEAH   LINE      CODE     ---       #185
      01001CEAH   LINE      CODE     ---       #186
      01001CEAH   LINE      CODE     ---       #187
      01001CEAH   LINE      CODE     ---       #188
      01001CEAH   LINE      CODE     ---       #190
      01001CEAH   LINE      CODE     ---       #192
      01001CEAH   LINE      CODE     ---       #194
LX51 LINKER/LOCATER V4.66.41.0                                                        09/02/2018  12:30:49  PAGE 41


      01001CEFH   LINE      CODE     ---       #196
      01001CF1H   LINE      CODE     ---       #198
      01001CF3H   LINE      CODE     ---       #200
      01001CF3H   LINE      CODE     ---       #202
      01001CF8H   LINE      CODE     ---       #204
      01001CFDH   LINE      CODE     ---       #206
      01001CFDH   LINE      CODE     ---       #208
      01001CFDH   LINE      CODE     ---       #209
      01001CFDH   LINE      CODE     ---       #210
      ---         BLOCKEND  ---      ---       LVL=0

      01002B8CH   BLOCK     CODE     ---       LVL=0
      00000007H   SYMBOL    DATA     BYTE      obj
      00000005H   SYMBOL    DATA     BYTE      gray_R
      00000003H   SYMBOL    DATA     BYTE      gray_G
      00000028H   SYMBOL    DATA     BYTE      gray_B
      01002B9DH   BLOCK     CODE     NEAR LAB  LVL=1
      0100498AH   SYMBOL    CONST    BYTE      bright_coef
      ---         BLOCKEND  ---      ---       LVL=1
      01002B8CH   LINE      CODE     ---       #212
      01002B8CH   LINE      CODE     ---       #214
      01002B98H   LINE      CODE     ---       #215
      01002B98H   LINE      CODE     ---       #217
      01002B9DH   LINE      CODE     ---       #221
      01002BA8H   LINE      CODE     ---       #222
      01002BADH   LINE      CODE     ---       #223
      01002BB4H   LINE      CODE     ---       #224
      01002BB4H   LINE      CODE     ---       #226
      01002BC2H   LINE      CODE     ---       #228
      01002BC2H   LINE      CODE     ---       #230
      01002BC9H   LINE      CODE     ---       #231
      01002BC9H   LINE      CODE     ---       #232
      01002BC9H   LINE      CODE     ---       #234
      01002BCBH   LINE      CODE     ---       #236
      01002BCBH   LINE      CODE     ---       #238
      01002BD2H   LINE      CODE     ---       #239
      01002BD2H   LINE      CODE     ---       #240
      01002BD2H   LINE      CODE     ---       #242
      01002BD4H   LINE      CODE     ---       #244
      01002BD4H   LINE      CODE     ---       #246
      01002BDBH   LINE      CODE     ---       #247
      01002BDBH   LINE      CODE     ---       #248
      01002BDBH   LINE      CODE     ---       #250
      01002BDDH   LINE      CODE     ---       #252
      01002BDDH   LINE      CODE     ---       #254
      01002BE9H   LINE      CODE     ---       #255
      01002BF3H   LINE      CODE     ---       #256
      01002BFEH   LINE      CODE     ---       #258
      01002BFEH   LINE      CODE     ---       #260
      01002BFEH   LINE      CODE     ---       #261
      01002BFEH   LINE      CODE     ---       #262
      01002BFEH   LINE      CODE     ---       #263
      ---         BLOCKEND  ---      ---       LVL=0
      00000056H   SYMBOL    DATA     BYTE      localTips_Count
      00000023H.6 SYMBOL    BIT      BIT       count_FLG
      00000057H   SYMBOL    DATA     BYTE      tipsStep
      0100498BH   SYMBOL    CONST    BYTE      speed
      0100498CH   SYMBOL    CONST    BYTE      step_period
      00000058H   SYMBOL    DATA     BYTE      localTips_Count
      00000023H.7 SYMBOL    BIT      BIT       count_FLG
      00000059H   SYMBOL    DATA     BYTE      tipsStep
      0000005AH   SYMBOL    DATA     BYTE      pwmType_A
      0000005BH   SYMBOL    DATA     BYTE      pwmType_B
      0000005CH   SYMBOL    DATA     BYTE      pwmType_C
      0000005DH   SYMBOL    DATA     BYTE      pwmType_D
LX51 LINKER/LOCATER V4.66.41.0                                                        09/02/2018  12:30:49  PAGE 42


      0100498DH   SYMBOL    CONST    BYTE      speed
      0100498EH   SYMBOL    CONST    BYTE      step_period

      010015F5H   BLOCK     CODE     ---       LVL=0
      00000007H   SYMBOL    DATA     BYTE      tips_Type
      010015F5H   BLOCK     CODE     NEAR LAB  LVL=1
      0000005EH   SYMBOL    DATA     BYTE      localTips_Count
      00000024H.0 SYMBOL    BIT      BIT       count_FLG
      0000005FH   SYMBOL    DATA     BYTE      tipsStep
      00000060H   SYMBOL    DATA     BYTE      pwmType_A
      00000061H   SYMBOL    DATA     BYTE      pwmType_B
      00000062H   SYMBOL    DATA     BYTE      pwmType_C
      00000063H   SYMBOL    DATA     BYTE      pwmType_D
      0100498FH   SYMBOL    CONST    BYTE      speed_Mol
      01004990H   SYMBOL    CONST    BYTE      speed_Den
      01004991H   SYMBOL    CONST    BYTE      step_period
      ---         BLOCKEND  ---      ---       LVL=1
      010015F5H   LINE      CODE     ---       #406
      010015F5H   LINE      CODE     ---       #420
      010015FCH   LINE      CODE     ---       #422
      0100160BH   LINE      CODE     ---       #423
      0100160BH   LINE      CODE     ---       #425
      0100160EH   LINE      CODE     ---       #427
      01001616H   LINE      CODE     ---       #428
      01001616H   LINE      CODE     ---       #429
      01001616H   LINE      CODE     ---       #430
      0100161EH   LINE      CODE     ---       #432
      01001625H   LINE      CODE     ---       #434
      01001627H   LINE      CODE     ---       #438
      01001627H   LINE      CODE     ---       #440
      0100162DH   LINE      CODE     ---       #442
      01001653H   LINE      CODE     ---       #444
      01001663H   LINE      CODE     ---       #445
      01001676H   LINE      CODE     ---       #446
      01001689H   LINE      CODE     ---       #447
      0100169CH   LINE      CODE     ---       #448
      0100169CH   LINE      CODE     ---       #450
      010016A7H   LINE      CODE     ---       #452
      010016A7H   LINE      CODE     ---       #454
      010016ADH   LINE      CODE     ---       #456
      010016ADH   LINE      CODE     ---       #458
      010016B0H   LINE      CODE     ---       #460
      010016B7H   LINE      CODE     ---       #462
      010016CCH   LINE      CODE     ---       #466
      010016DAH   LINE      CODE     ---       #467
      010016E8H   LINE      CODE     ---       #468
      010016F6H   LINE      CODE     ---       #469
      01001702H   LINE      CODE     ---       #470
      01001702H   LINE      CODE     ---       #472
      01001704H   LINE      CODE     ---       #474
      01001711H   LINE      CODE     ---       #475
      0100171EH   LINE      CODE     ---       #476
      0100172BH   LINE      CODE     ---       #477
      01001733H   LINE      CODE     ---       #478
      01001733H   LINE      CODE     ---       #480
      01001735H   LINE      CODE     ---       #482
      01001735H   LINE      CODE     ---       #483
      01001735H   LINE      CODE     ---       #485
      01001735H   LINE      CODE     ---       #487
      01001735H   LINE      CODE     ---       #489
      0100173BH   LINE      CODE     ---       #491
      0100173BH   LINE      CODE     ---       #493
      0100173EH   LINE      CODE     ---       #495
      01001745H   LINE      CODE     ---       #497
      0100175BH   LINE      CODE     ---       #499
LX51 LINKER/LOCATER V4.66.41.0                                                        09/02/2018  12:30:49  PAGE 43


      0100175CH   LINE      CODE     ---       #501
      0100176AH   LINE      CODE     ---       #502
      01001778H   LINE      CODE     ---       #503
      01001786H   LINE      CODE     ---       #504
      01001794H   LINE      CODE     ---       #505
      01001794H   LINE      CODE     ---       #507
      01001795H   LINE      CODE     ---       #509
      010017A2H   LINE      CODE     ---       #510
      010017AFH   LINE      CODE     ---       #511
      010017BCH   LINE      CODE     ---       #512
      010017C9H   LINE      CODE     ---       #513
      010017C9H   LINE      CODE     ---       #515
      010017C9H   LINE      CODE     ---       #517
      010017C9H   LINE      CODE     ---       #518
      010017C9H   LINE      CODE     ---       #520
      010017C9H   LINE      CODE     ---       #522
      010017C9H   LINE      CODE     ---       #523
      010017C9H   LINE      CODE     ---       #524
      ---         BLOCKEND  ---      ---       LVL=0

      01001000H   BLOCK     CODE     ---       LVL=0
      01001000H   BLOCK     CODE     NEAR LAB  LVL=1
      00000064H   SYMBOL    DATA     BYTE      localTips_Count
      01004992H   SYMBOL    CONST    BYTE      localTips_Period
      00000065H   SYMBOL    DATA     BYTE      tipsStep
      00000066H   SYMBOL    DATA     BYTE      pwmType_A
      00000067H   SYMBOL    DATA     BYTE      pwmType_B
      00000068H   SYMBOL    DATA     BYTE      pwmType_C
      00000069H   SYMBOL    DATA     BYTE      pwmType_D
      ---         BLOCKEND  ---      ---       LVL=1
      01001000H   LINE      CODE     ---       #526
      01001000H   LINE      CODE     ---       #539
      01001006H   LINE      CODE     ---       #541
      01001009H   LINE      CODE     ---       #543
      01001015H   LINE      CODE     ---       #545
      01001018H   LINE      CODE     ---       #546
      01001026H   LINE      CODE     ---       #547
      0100102FH   LINE      CODE     ---       #548
      01001031H   LINE      CODE     ---       #549
      01001031H   LINE      CODE     ---       #551
      01001033H   LINE      CODE     ---       #553
      01001043H   LINE      CODE     ---       #554
      01001056H   LINE      CODE     ---       #555
      01001069H   LINE      CODE     ---       #556
      0100107CH   LINE      CODE     ---       #557
      0100107CH   LINE      CODE     ---       #558
      0100107CH   LINE      CODE     ---       #560
      01001099H   LINE      CODE     ---       #679
      01001099H   LINE      CODE     ---       #681
      010010AAH   LINE      CODE     ---       #682
      010010BBH   LINE      CODE     ---       #683
      010010CCH   LINE      CODE     ---       #684
      010010D2H   LINE      CODE     ---       #686
      010010D4H   LINE      CODE     ---       #688
      010010D4H   LINE      CODE     ---       #690
      010010E1H   LINE      CODE     ---       #691
      010010EEH   LINE      CODE     ---       #692
      010010FBH   LINE      CODE     ---       #693
      010010FDH   LINE      CODE     ---       #695
      010010FFH   LINE      CODE     ---       #697
      010010FFH   LINE      CODE     ---       #699
      01001115H   LINE      CODE     ---       #700
      0100112BH   LINE      CODE     ---       #701
      01001141H   LINE      CODE     ---       #702
      01001152H   LINE      CODE     ---       #704
LX51 LINKER/LOCATER V4.66.41.0                                                        09/02/2018  12:30:49  PAGE 44


      01001154H   LINE      CODE     ---       #706
      01001154H   LINE      CODE     ---       #708
      01001163H   LINE      CODE     ---       #709
      01001172H   LINE      CODE     ---       #710
      01001181H   LINE      CODE     ---       #711
      0100118BH   LINE      CODE     ---       #713
      0100118DH   LINE      CODE     ---       #715
      0100118DH   LINE      CODE     ---       #717
      0100119DH   LINE      CODE     ---       #718
      010011ADH   LINE      CODE     ---       #719
      010011BDH   LINE      CODE     ---       #720
      010011C8H   LINE      CODE     ---       #722
      010011CAH   LINE      CODE     ---       #724
      010011CAH   LINE      CODE     ---       #726
      010011DBH   LINE      CODE     ---       #727
      010011ECH   LINE      CODE     ---       #728
      010011FDH   LINE      CODE     ---       #729
      0100120EH   LINE      CODE     ---       #731
      0100121DH   LINE      CODE     ---       #732
      0100122CH   LINE      CODE     ---       #733
      0100123BH   LINE      CODE     ---       #734
      01001245H   LINE      CODE     ---       #736
      01001247H   LINE      CODE     ---       #738
      01001247H   LINE      CODE     ---       #740
      0100125BH   LINE      CODE     ---       #741
      0100126FH   LINE      CODE     ---       #742
      01001283H   LINE      CODE     ---       #743
      01001297H   LINE      CODE     ---       #745
      010012ADH   LINE      CODE     ---       #746
      010012C3H   LINE      CODE     ---       #747
      010012D9H   LINE      CODE     ---       #748
      010012EFH   LINE      CODE     ---       #750
      010012F7H   LINE      CODE     ---       #751
      010012FFH   LINE      CODE     ---       #752
      01001307H   LINE      CODE     ---       #753
      0100130FH   LINE      CODE     ---       #755
      0100130FH   LINE      CODE     ---       #757
      0100130FH   LINE      CODE     ---       #758
      0100130FH   LINE      CODE     ---       #759
      ---         BLOCKEND  ---      ---       LVL=0

      ---         MODULE    ---      ---       DATATRANS
      00000023H.4 PUBLIC    BIT      BIT       uartRX_toutFLG
      020002FEH   PUBLIC    XDATA    ---       datsRcv_ZIGB
      00000023H.3 PUBLIC    BIT      BIT       reConnectAfterDatsReq_IF
      00000023H.2 PUBLIC    BIT      BIT       heartBeatCycle_FLG
      00000013H   PUBLIC    DATA     BYTE      datsRcv_length
      00000011H   PUBLIC    DATA     ---       devStatus_switch
      020002B2H   PUBLIC    XDATA    ---       datsRcv_respond
      02000266H   PUBLIC    XDATA    ---       datsSend_request
      02000264H   PUBLIC    XDATA    WORD      zigbNwkAction_counter
      00000010H   PUBLIC    DATA     BYTE      rxTout_count
      0000000FH   PUBLIC    DATA     BYTE      heartBeatCount
      00000023H.1 PUBLIC    BIT      BIT       rxTout_count_EN
      0000000EH   PUBLIC    DATA     BYTE      devRunning_Status
      00000023H.0 PUBLIC    BIT      BIT       coordinatorOnline_IF
      01001800H   PUBLIC    CODE     ---       thread_dataTrans
      0100223BH   PUBLIC    CODE     ---       _zigB_sysTimeSet
      00000020H.1 PUBLIC    BIT      BIT       ?ZigB_nwkOpen?BIT
      0000002DH   PUBLIC    DATA     BYTE      ?ZigB_nwkOpen?BYTE
      01002CD8H   PUBLIC    CODE     ---       ZigB_nwkOpen
      00000035H   PUBLIC    DATA     BYTE      ?_zigb_VALIDA_INPUT?BYTE
      010025CDH   PUBLIC    CODE     ---       _zigb_VALIDA_INPUT
      0100270EH   PUBLIC    CODE     ---       UART1_Rountine
      01002A27H   PUBLIC    CODE     ---       uartObjZigb_Init
LX51 LINKER/LOCATER V4.66.41.0                                                        09/02/2018  12:30:49  PAGE 45


      01003273H   PUBLIC    CODE     ---       zigbUart_pinInit
      000000D8H.2 SFRSYM    DATA     BIT       CCF2
      000000E0H.7 SFRSYM    DATA     BIT       ACC7
      00000093H   SFRSYM    DATA     BYTE      P0M1
      00000092H   SFRSYM    DATA     BYTE      P1M0
      00000096H   SFRSYM    DATA     BYTE      P2M0
      00000091H   SFRSYM    DATA     BYTE      P1M1
      00000080H   SFRSYM    DATA     BYTE      P0
      000000B2H   SFRSYM    DATA     BYTE      P3M0
      00000095H   SFRSYM    DATA     BYTE      P2M1
      00000090H   SFRSYM    DATA     BYTE      P1
      000000B4H   SFRSYM    DATA     BYTE      P4M0
      000000B1H   SFRSYM    DATA     BYTE      P3M1
      000000A0H   SFRSYM    DATA     BYTE      P2
      000000CAH   SFRSYM    DATA     BYTE      P5M0
      000000B3H   SFRSYM    DATA     BYTE      P4M1
      000000B0H   SFRSYM    DATA     BYTE      P3
      000000ABH   SFRSYM    DATA     BYTE      WKTCH
      000000B0H.4 SFRSYM    DATA     BIT       T0
      000000D0H.6 SFRSYM    DATA     BIT       AC
      000000CCH   SFRSYM    DATA     BYTE      P6M0
      000000C9H   SFRSYM    DATA     BYTE      P5M1
      000000C0H   SFRSYM    DATA     BYTE      P4
      000000B0H.5 SFRSYM    DATA     BIT       CLKOUT0
      000000B0H.5 SFRSYM    DATA     BIT       T1
      000000E2H   SFRSYM    DATA     BYTE      P7M0
      000000CBH   SFRSYM    DATA     BYTE      P6M1
      000000C8H   SFRSYM    DATA     BYTE      P5
      000000C6H   SFRSYM    DATA     BYTE      ISP_TRIG
      000000A8H.7 SFRSYM    DATA     BIT       EA
      000000B0H.4 SFRSYM    DATA     BIT       CLKOUT1
      000000A0H.4 SFRSYM    DATA     BIT       SPI_SS_2
      000000E8H   SFRSYM    DATA     BYTE      P6
      000000E1H   SFRSYM    DATA     BYTE      P7M1
      000000C8H.4 SFRSYM    DATA     BIT       SPI_SS_3
      00000090H.4 SFRSYM    DATA     BIT       SPI_MISO
      00000090H.3 SFRSYM    DATA     BIT       SPI_MOSI
      00000090H.1 SFRSYM    DATA     BIT       CCP0
      000000F8H   SFRSYM    DATA     BYTE      P7
      000000AAH   SFRSYM    DATA     BYTE      WKTCL
      00000090H   SFRSYM    DATA     BIT       CCP1
      000000CEH   SFRSYM    DATA     BYTE      SPCTL
      000000D8H.7 SFRSYM    DATA     BIT       CF
      000000B0H.7 SFRSYM    DATA     BIT       CCP2
      000000F9H   SFRSYM    DATA     BYTE      CH
      000000A2H   SFRSYM    DATA     BYTE      P_SW1
      000000BAH   SFRSYM    DATA     BYTE      P_SW2
      000000A8H.5 SFRSYM    DATA     BIT       EADC
      000000A0H.1 SFRSYM    DATA     BIT       SPI_SCLK_2
      000000A8H   SFRSYM    DATA     BYTE      IE
      000000C0H.3 SFRSYM    DATA     BIT       SPI_SCLK_3
      000000E9H   SFRSYM    DATA     BYTE      CL
      000000C5H   SFRSYM    DATA     BYTE      IAP_CMD
      000000FAH   SFRSYM    DATA     BYTE      CCAP0H
      000000FBH   SFRSYM    DATA     BYTE      CCAP1H
      000000FCH   SFRSYM    DATA     BYTE      CCAP2H
      000000BDH   SFRSYM    DATA     BYTE      ADC_RES
      000000B6H   SFRSYM    DATA     BYTE      IPH2
      000000D8H.6 SFRSYM    DATA     BIT       CR
      000000EAH   SFRSYM    DATA     BYTE      CCAP0L
      000000B0H.7 SFRSYM    DATA     BIT       RD
      000000EBH   SFRSYM    DATA     BYTE      CCAP1L
      000000DAH   SFRSYM    DATA     BYTE      CCAPM0
      000000ECH   SFRSYM    DATA     BYTE      CCAP2L
      000000DBH   SFRSYM    DATA     BYTE      CCAPM1
LX51 LINKER/LOCATER V4.66.41.0                                                        09/02/2018  12:30:49  PAGE 46


      000000A8H.4 SFRSYM    DATA     BIT       ES
      000000DCH   SFRSYM    DATA     BYTE      CCAPM2
      000000B8H.5 SFRSYM    DATA     BIT       PADC
      000000A0H.2 SFRSYM    DATA     BIT       SPI_MISO_2
      000000A0H.3 SFRSYM    DATA     BIT       SPI_MOSI_2
      000000B8H   SFRSYM    DATA     BYTE      IP
      000000C0H.1 SFRSYM    DATA     BIT       SPI_MISO_3
      000000C0H   SFRSYM    DATA     BIT       SPI_MOSI_3
      00000098H   SFRSYM    DATA     BIT       RI
      000000B0H.2 SFRSYM    DATA     BIT       INT0
      000000D0H.7 SFRSYM    DATA     BIT       CY
      00000098H.1 SFRSYM    DATA     BIT       TI
      000000B0H.3 SFRSYM    DATA     BIT       INT1
      00000097H   SFRSYM    DATA     BYTE      CLK_DIV
      000000C3H   SFRSYM    DATA     BYTE      IAP_ADDRH
      00000090H   SFRSYM    DATA     BIT       RXD2
      000000C5H   SFRSYM    DATA     BYTE      ISP_CMD
      000000B8H.4 SFRSYM    DATA     BIT       PS
      00000090H.1 SFRSYM    DATA     BIT       TXD2
      00000081H   SFRSYM    DATA     BYTE      SP
      000000D9H   SFRSYM    DATA     BYTE      CMOD
      000000D8H   SFRSYM    DATA     BYTE      CCON
      000000C4H   SFRSYM    DATA     BYTE      IAP_ADDRL
      000000B8H.7 SFRSYM    DATA     BIT       PPCA
      000000D0H.2 SFRSYM    DATA     BIT       OV
      000000B0H.6 SFRSYM    DATA     BIT       WR
      000000A8H.6 SFRSYM    DATA     BIT       ELVD
      00000080H   SFRSYM    DATA     BIT       P00
      00000090H   SFRSYM    DATA     BIT       P10
      00000080H.1 SFRSYM    DATA     BIT       P01
      000000BCH   SFRSYM    DATA     BYTE      ADC_CONTR
      00000099H   SFRSYM    DATA     BYTE      SBUF
      00000087H   SFRSYM    DATA     BYTE      PCON
      000000A0H   SFRSYM    DATA     BIT       P20
      00000090H.1 SFRSYM    DATA     BIT       P11
      00000080H.2 SFRSYM    DATA     BIT       P02
      000000C3H   SFRSYM    DATA     BYTE      ISP_ADDRH
      000000B0H   SFRSYM    DATA     BIT       P30
      000000A0H.1 SFRSYM    DATA     BIT       P21
      00000090H.2 SFRSYM    DATA     BIT       P12
      00000080H.3 SFRSYM    DATA     BIT       P03
      000000C0H   SFRSYM    DATA     BIT       P40
      000000B0H.1 SFRSYM    DATA     BIT       P31
      000000A0H.2 SFRSYM    DATA     BIT       P22
      00000090H.3 SFRSYM    DATA     BIT       P13
      00000080H.4 SFRSYM    DATA     BIT       P04
      00000098H   SFRSYM    DATA     BYTE      SCON
      0000008FH   SFRSYM    DATA     BYTE      WAKE_CLKO
      000000C8H   SFRSYM    DATA     BIT       P50
      000000C0H.1 SFRSYM    DATA     BIT       P41
      000000B0H.2 SFRSYM    DATA     BIT       P32
      000000A0H.3 SFRSYM    DATA     BIT       P23
      00000090H.4 SFRSYM    DATA     BIT       P14
      00000080H.5 SFRSYM    DATA     BIT       P05
      00000089H   SFRSYM    DATA     BYTE      TMOD
      00000088H   SFRSYM    DATA     BYTE      TCON
      000000C8H.1 SFRSYM    DATA     BIT       P51
      000000C0H.2 SFRSYM    DATA     BIT       P42
      000000B0H.3 SFRSYM    DATA     BIT       P33
      000000A0H.4 SFRSYM    DATA     BIT       P24
      00000090H.5 SFRSYM    DATA     BIT       P15
      00000080H.6 SFRSYM    DATA     BIT       P06
      000000C4H   SFRSYM    DATA     BYTE      ISP_ADDRL
      000000B8H.6 SFRSYM    DATA     BIT       PLVD
      000000C8H.2 SFRSYM    DATA     BIT       P52
LX51 LINKER/LOCATER V4.66.41.0                                                        09/02/2018  12:30:49  PAGE 47


      000000C0H.3 SFRSYM    DATA     BIT       P43
      000000B0H.4 SFRSYM    DATA     BIT       P34
      000000A0H.5 SFRSYM    DATA     BIT       P25
      00000090H.6 SFRSYM    DATA     BIT       P16
      00000080H.7 SFRSYM    DATA     BIT       P07
      000000C8H.3 SFRSYM    DATA     BIT       P53
      000000C0H.4 SFRSYM    DATA     BIT       P44
      000000B0H.5 SFRSYM    DATA     BIT       P35
      000000A0H.6 SFRSYM    DATA     BIT       P26
      00000090H.7 SFRSYM    DATA     BIT       P17
      000000C8H.4 SFRSYM    DATA     BIT       P54
      000000C0H.5 SFRSYM    DATA     BIT       P45
      000000B0H.6 SFRSYM    DATA     BIT       P36
      000000A0H.7 SFRSYM    DATA     BIT       P27
      000000C8H.5 SFRSYM    DATA     BIT       P55
      000000C0H.6 SFRSYM    DATA     BIT       P46
      000000B0H.7 SFRSYM    DATA     BIT       P37
      000000C8H.6 SFRSYM    DATA     BIT       P56
      000000C0H.7 SFRSYM    DATA     BIT       P47
      000000C8H.7 SFRSYM    DATA     BIT       P57
      00000088H.1 SFRSYM    DATA     BIT       IE0
      000000A1H   SFRSYM    DATA     BYTE      BUS_SPEED
      00000088H.3 SFRSYM    DATA     BIT       IE1
      000000AFH   SFRSYM    DATA     BYTE      IE2
      000000F0H   SFRSYM    DATA     BYTE      B
      0000008EH   SFRSYM    DATA     BYTE      AUXR
      000000C7H   SFRSYM    DATA     BYTE      IAP_CONTR
      000000E0H   SFRSYM    DATA     BYTE      ACC
      000000A8H.1 SFRSYM    DATA     BIT       ET0
      000000A8H.3 SFRSYM    DATA     BIT       ET1
      00000088H.5 SFRSYM    DATA     BIT       TF0
      00000088H.7 SFRSYM    DATA     BIT       TF1
      000000B5H   SFRSYM    DATA     BYTE      IP2
      0000008CH   SFRSYM    DATA     BYTE      RL_TH0
      00000098H.2 SFRSYM    DATA     BIT       RB8
      0000008DH   SFRSYM    DATA     BYTE      RL_TH1
      0000008CH   SFRSYM    DATA     BYTE      TH0
      000000A8H   SFRSYM    DATA     BIT       EX0
      00000088H   SFRSYM    DATA     BIT       IT0
      000000D6H   SFRSYM    DATA     BYTE      RL_T2H
      0000008DH   SFRSYM    DATA     BYTE      TH1
      000000A8H.2 SFRSYM    DATA     BIT       EX1
      00000098H.3 SFRSYM    DATA     BIT       TB8
      00000088H.2 SFRSYM    DATA     BIT       IT1
      000000D4H   SFRSYM    DATA     BYTE      RL_T3H
      000000D6H   SFRSYM    DATA     BYTE      TH2
      000000D6H   SFRSYM    DATA     BYTE      T2H
      000000D0H   SFRSYM    DATA     BIT       P
      000000D2H   SFRSYM    DATA     BYTE      RL_T4H
      000000D4H   SFRSYM    DATA     BYTE      TH3
      000000D4H   SFRSYM    DATA     BYTE      T3H
      0000008AH   SFRSYM    DATA     BYTE      RL_TL0
      00000098H.7 SFRSYM    DATA     BIT       SM0
      000000D2H   SFRSYM    DATA     BYTE      TH4
      000000D2H   SFRSYM    DATA     BYTE      T4H
      0000008BH   SFRSYM    DATA     BYTE      RL_TL1
      0000008AH   SFRSYM    DATA     BYTE      TL0
      00000098H.6 SFRSYM    DATA     BIT       SM1
      000000D7H   SFRSYM    DATA     BYTE      RL_T2L
      0000008BH   SFRSYM    DATA     BYTE      TL1
      00000098H.5 SFRSYM    DATA     BIT       SM2
      000000D5H   SFRSYM    DATA     BYTE      RL_T3L
      000000D7H   SFRSYM    DATA     BYTE      TL2
      000000D7H   SFRSYM    DATA     BYTE      T2L
      000000D3H   SFRSYM    DATA     BYTE      RL_T4L
LX51 LINKER/LOCATER V4.66.41.0                                                        09/02/2018  12:30:49  PAGE 48


      000000D5H   SFRSYM    DATA     BYTE      TL3
      000000D5H   SFRSYM    DATA     BYTE      T3L
      000000B8H.1 SFRSYM    DATA     BIT       PT0
      000000D3H   SFRSYM    DATA     BYTE      TL4
      000000D3H   SFRSYM    DATA     BYTE      T4L
      000000B8H.3 SFRSYM    DATA     BIT       PT1
      000000D0H.3 SFRSYM    DATA     BIT       RS0
      000000C7H   SFRSYM    DATA     BYTE      ISP_CONTR
      00000088H.4 SFRSYM    DATA     BIT       TR0
      000000D0H.4 SFRSYM    DATA     BIT       RS1
      000000C2H   SFRSYM    DATA     BYTE      IAP_DATA
      00000088H.6 SFRSYM    DATA     BIT       TR1
      000000B8H   SFRSYM    DATA     BIT       PX0
      000000C1H   SFRSYM    DATA     BYTE      WDT_CONTR
      000000B8H.2 SFRSYM    DATA     BIT       PX1
      000000F2H   SFRSYM    DATA     BYTE      PCA_PWM0
      000000F3H   SFRSYM    DATA     BYTE      PCA_PWM1
      000000F4H   SFRSYM    DATA     BYTE      PCA_PWM2
      0000009DH   SFRSYM    DATA     BYTE      P1ASF
      00000083H   SFRSYM    DATA     BYTE      DPH
      000000D1H   SFRSYM    DATA     BYTE      T4T3M
      000000BEH   SFRSYM    DATA     BYTE      ADC_RESL
      00000082H   SFRSYM    DATA     BYTE      DPL
      000000CDH   SFRSYM    DATA     BYTE      SPSTAT
      000000B7H   SFRSYM    DATA     BYTE      IPH
      0000009BH   SFRSYM    DATA     BYTE      S2BUF
      00000097H   SFRSYM    DATA     BYTE      PCON2
      000000ADH   SFRSYM    DATA     BYTE      S3BUF
      00000098H.4 SFRSYM    DATA     BIT       REN
      00000085H   SFRSYM    DATA     BYTE      S4BUF
      0000009AH   SFRSYM    DATA     BYTE      S2CON
      000000ACH   SFRSYM    DATA     BYTE      S3CON
      000000C2H   SFRSYM    DATA     BYTE      ISP_DATA
      00000084H   SFRSYM    DATA     BYTE      S4CON
      000000B9H   SFRSYM    DATA     BYTE      SADEN
      000000B0H   SFRSYM    DATA     BIT       RXD
      000000A9H   SFRSYM    DATA     BYTE      SADDR
      000000B0H.1 SFRSYM    DATA     BIT       TXD
      000000F0H   SFRSYM    DATA     BIT       B0
      000000F0H.1 SFRSYM    DATA     BIT       B1
      000000C6H   SFRSYM    DATA     BYTE      IAP_TRIG
      000000A2H   SFRSYM    DATA     BYTE      AUXR1
      000000F0H.2 SFRSYM    DATA     BIT       B2
      00000090H.2 SFRSYM    DATA     BIT       SPI_SS
      0000008FH   SFRSYM    DATA     BYTE      AUXR2
      000000F0H.3 SFRSYM    DATA     BIT       B3
      000000F0H.4 SFRSYM    DATA     BIT       B4
      000000D0H.5 SFRSYM    DATA     BIT       F0
      000000F0H.5 SFRSYM    DATA     BIT       B5
      000000D0H.1 SFRSYM    DATA     BIT       F1
      0000008FH   SFRSYM    DATA     BYTE      INT_CLKO
      000000F0H.6 SFRSYM    DATA     BIT       B6
      000000E0H   SFRSYM    DATA     BIT       ACC0
      000000F0H.7 SFRSYM    DATA     BIT       B7
      000000E0H.1 SFRSYM    DATA     BIT       ACC1
      000000E0H.2 SFRSYM    DATA     BIT       ACC2
      000000E0H.3 SFRSYM    DATA     BIT       ACC3
      000000D0H   SFRSYM    DATA     BYTE      PSW
      000000E0H.4 SFRSYM    DATA     BIT       ACC4
      00000090H.5 SFRSYM    DATA     BIT       SPI_SCLK
      000000D8H   SFRSYM    DATA     BIT       CCF0
      000000E0H.5 SFRSYM    DATA     BIT       ACC5
      000000D8H.1 SFRSYM    DATA     BIT       CCF1
      000000E0H.6 SFRSYM    DATA     BIT       ACC6
      000000CFH   SFRSYM    DATA     BYTE      SPDAT
LX51 LINKER/LOCATER V4.66.41.0                                                        09/02/2018  12:30:49  PAGE 49


      00000094H   SFRSYM    DATA     BYTE      P0M0
      01002D9BH   SYMBOL    CODE     ---       ZigB_getPanIDCurrent
      010029A3H   SYMBOL    CODE     ---       _zigb_datsRequest
      01001CFEH   SYMBOL    CODE     ---       dataTransRequest_datsSend
      01001ED2H   SYMBOL    CODE     ---       getSystemTime_reales
      01001310H   SYMBOL    CODE     ---       zigB_nwkJoinRequest
      0100332CH   SYMBOL    CODE     ---       _?ix1000
      01003B77H   SYMBOL    CODE     ---       _?ix1010
      0100336CH   SYMBOL    CODE     ---       _?ix1001
      01003BB7H   SYMBOL    CODE     ---       _?ix1011
      01003452H   SYMBOL    CODE     ---       _?ix1002
      01003BBCH   SYMBOL    CODE     ---       _?ix1012
      01003455H   SYMBOL    CODE     ---       _?ix1003
      01003BDEH   SYMBOL    CODE     ---       _?ix1013
      0100347DH   SYMBOL    CODE     ---       _?ix1004
      01003C40H   SYMBOL    CODE     ---       _?ix1014
      0100352AH   SYMBOL    CODE     ---       _?ix1005
      01003CA0H   SYMBOL    CODE     ---       _?ix1015
      01003A7DH   SYMBOL    CODE     ---       _?ix1006
      01003ABDH   SYMBOL    CODE     ---       _?ix1007
      01003ACFH   SYMBOL    CODE     ---       _?ix1008
      01003B17H   SYMBOL    CODE     ---       _?ix1009
      010017CAH   SYMBOL    CODE     ---       _frame_Check
      01000026H   SYMBOL    CODE     ---       _dataParing_Nomal
      01002895H   SYMBOL    CODE     ---       _zigb_datsLoad_datsSend
      01002000H   SYMBOL    CODE     ---       dtasTX_loadBasic_CUST
      01002135H   SYMBOL    CODE     ---       _dataParing_zigbSysCtrl
      0100250BH   SYMBOL    CODE     ---       _ZigB_TXFrameLoad

      01003273H   BLOCK     CODE     ---       LVL=0
      01003273H   LINE      CODE     ---       #46
      01003273H   LINE      CODE     ---       #49
      01003276H   LINE      CODE     ---       #50
      01003279H   LINE      CODE     ---       #53
      0100327CH   LINE      CODE     ---       #54
      0100327FH   LINE      CODE     ---       #57
      01003282H   LINE      CODE     ---       #58
      01003285H   LINE      CODE     ---       #59
      ---         BLOCKEND  ---      ---       LVL=0

      01002A27H   BLOCK     CODE     ---       LVL=0
      01002A33H   BLOCK     CODE     NEAR LAB  LVL=1
      00000025H   SYMBOL    DATA     DWORD     j
      ---         BLOCKEND  ---      ---       LVL=1
      01002A27H   LINE      CODE     ---       #62
      01002A27H   LINE      CODE     ---       #64
      01002A29H   LINE      CODE     ---       #66
      01002A2BH   LINE      CODE     ---       #67
      01002A33H   LINE      CODE     ---       #69
      01002A33H   LINE      CODE     ---       #70
      01002A3DH   LINE      CODE     ---       #71
      01002A52H   LINE      CODE     ---       #73
      01002A60H   LINE      CODE     ---       #74
      01002A63H   LINE      CODE     ---       #75
      01002A63H   LINE      CODE     ---       #76
      01002A66H   LINE      CODE     ---       #77
      01002A69H   LINE      CODE     ---       #78
      01002A6CH   LINE      CODE     ---       #79
      01002A6FH   LINE      CODE     ---       #81
      01002A72H   LINE      CODE     ---       #82
      01002A75H   LINE      CODE     ---       #83
      01002A78H   LINE      CODE     ---       #85
      01002A7AH   LINE      CODE     ---       #86
      01002A7CH   LINE      CODE     ---       #87
      01002A7FH   LINE      CODE     ---       #89
LX51 LINKER/LOCATER V4.66.41.0                                                        09/02/2018  12:30:49  PAGE 50


      01002A8EH   LINE      CODE     ---       #91
      01002A90H   LINE      CODE     ---       #93
      01002A99H   LINE      CODE     ---       #94
      ---         BLOCKEND  ---      ---       LVL=0

      0100270EH   BLOCK     CODE     ---       LVL=0
      0100270EH   LINE      CODE     ---       #117
      0100272BH   LINE      CODE     ---       #120
      0100272EH   LINE      CODE     ---       #121
      0100272EH   LINE      CODE     ---       #122
      01002730H   LINE      CODE     ---       #123
      01002734H   LINE      CODE     ---       #124
      01002734H   LINE      CODE     ---       #130
      01002737H   LINE      CODE     ---       #132
      01002739H   LINE      CODE     ---       #133
      0100273BH   LINE      CODE     ---       #134
      0100273DH   LINE      CODE     ---       #136
      0100274BH   LINE      CODE     ---       #137
      0100274BH   LINE      CODE     ---       #140
      0100275CH   LINE      CODE     ---       #141
      0100275FH   LINE      CODE     ---       #142
      0100275FH   LINE      CODE     ---       #143
      0100275FH   LINE      CODE     ---       #145
      01002762H   LINE      CODE     ---       #146
      01002762H   LINE      CODE     ---       #147
      01002764H   LINE      CODE     ---       #148
      0100276AH   LINE      CODE     ---       #149
      0100276AH   LINE      CODE     ---       #150
      01002778H   LINE      CODE     ---       #151
      01002784H   LINE      CODE     ---       #152
      01002786H   LINE      CODE     ---       #153
      01002789H   LINE      CODE     ---       #154
      01002789H   LINE      CODE     ---       #155
      ---         BLOCKEND  ---      ---       LVL=0

      010017CAH   BLOCK     CODE     ---       LVL=0
      00000034H   SYMBOL    DATA     ---       frame_temp
      00000005H   SYMBOL    DATA     BYTE      check_num
      010017D0H   BLOCK     CODE     NEAR LAB  LVL=1
      00000007H   SYMBOL    DATA     BYTE      loop
      00000006H   SYMBOL    DATA     BYTE      val_Check
      ---         BLOCKEND  ---      ---       LVL=1
      010017CAH   LINE      CODE     ---       #159
      010017D0H   LINE      CODE     ---       #161
      010017D2H   LINE      CODE     ---       #162
      010017D3H   LINE      CODE     ---       #164
      010017D8H   LINE      CODE     ---       #166
      010017E8H   LINE      CODE     ---       #167
      010017EBH   LINE      CODE     ---       #169
      010017EEH   LINE      CODE     ---       #170
      010017F1H   LINE      CODE     ---       #172
      010017F3H   LINE      CODE     ---       #173
      ---         BLOCKEND  ---      ---       LVL=0

      01002000H   BLOCK     CODE     ---       LVL=0
      00000020H.5 SYMBOL    BIT      BIT       ifRemoteDats
      0000002EH   SYMBOL    DATA     ---       dats_Tx
      00000031H   SYMBOL    DATA     BYTE      datsLen_TX
      00000032H   SYMBOL    DATA     BYTE      frame_Type
      00000033H   SYMBOL    DATA     BYTE      frame_CMD
      00000020H.6 SYMBOL    BIT      BIT       ifSpecial_CMD
      01002063H   BLOCK     CODE     NEAR LAB  LVL=1
      02000164H   SYMBOL    XDATA    ---       dats_Temp
      ---         BLOCKEND  ---      ---       LVL=1
      01002000H   LINE      CODE     ---       #177
LX51 LINKER/LOCATER V4.66.41.0                                                        09/02/2018  12:30:49  PAGE 51


      01002000H   LINE      CODE     ---       #182
      01002000H   LINE      CODE     ---       #184
      0100200EH   LINE      CODE     ---       #185
      01002016H   LINE      CODE     ---       #187
      01002027H   LINE      CODE     ---       #189
      01002041H   LINE      CODE     ---       #191
      0100205EH   LINE      CODE     ---       #193
      01002063H   LINE      CODE     ---       #195
      01002076H   LINE      CODE     ---       #197
      01002081H   LINE      CODE     ---       #198
      01002091H   LINE      CODE     ---       #200
      010020AAH   LINE      CODE     ---       #201
      010020C3H   LINE      CODE     ---       #202
      010020E2H   LINE      CODE     ---       #203
      010020FCH   LINE      CODE     ---       #204
      01002116H   LINE      CODE     ---       #206
      01002119H   LINE      CODE     ---       #208
      01002119H   LINE      CODE     ---       #210
      01002124H   LINE      CODE     ---       #211
      01002132H   LINE      CODE     ---       #213
      01002134H   LINE      CODE     ---       #214
      01002134H   LINE      CODE     ---       #215
      ---         BLOCKEND  ---      ---       LVL=0
      00000005H   SYMBOL    DATA     BYTE      length
      00000007H   SYMBOL    DATA     BYTE      loop
      00000006H   SYMBOL    DATA     BYTE      valXOR

      0100250BH   BLOCK     CODE     VOID      LVL=0
      ---         BLOCKEND  ---      ---       LVL=0

      01002515H   BLOCK     CODE     ---       LVL=0
      00000045H   SYMBOL    DATA     ---       frame
      00000048H   SYMBOL    DATA     ---       cmd
      0000004BH   SYMBOL    DATA     BYTE      cmdLen
      0000004CH   SYMBOL    DATA     ---       dats
      0000004FH   SYMBOL    DATA     BYTE      datsLen
      00000007H   SYMBOL    DATA     BYTE      frameHead
      00000050H   SYMBOL    DATA     BYTE      xor_check
      00000006H   SYMBOL    DATA     BYTE      loop
      00000051H   SYMBOL    DATA     BYTE      ptr
      0100251BH   BLOCK     CODE     NEAR LAB  LVL=1
      00000007H   SYMBOL    DATA     BYTE      frameHead
      00000050H   SYMBOL    DATA     BYTE      xor_check
      00000006H   SYMBOL    DATA     BYTE      loop
      00000051H   SYMBOL    DATA     BYTE      ptr
      ---         BLOCKEND  ---      ---       LVL=1
      01002515H   LINE      CODE     ---       #231
      0100251BH   LINE      CODE     ---       #233
      0100251BH   LINE      CODE     ---       #234
      0100251EH   LINE      CODE     ---       #235
      0100251FH   LINE      CODE     ---       #236
      01002521H   LINE      CODE     ---       #238
      0100252EH   LINE      CODE     ---       #239
      0100253CH   LINE      CODE     ---       #241
      01002558H   LINE      CODE     ---       #242
      0100255EH   LINE      CODE     ---       #243
      01002579H   LINE      CODE     ---       #245
      01002595H   LINE      CODE     ---       #246
      0100259BH   LINE      CODE     ---       #247
      010025B6H   LINE      CODE     ---       #249
      010025CAH   LINE      CODE     ---       #251
      010025CCH   LINE      CODE     ---       #252
      ---         BLOCKEND  ---      ---       LVL=0

      010029A3H   BLOCK     CODE     ---       LVL=0
LX51 LINKER/LOCATER V4.66.41.0                                                        09/02/2018  12:30:49  PAGE 52


      00000030H   SYMBOL    DATA     ---       frameREQ
      00000033H   SYMBOL    DATA     BYTE      frameREQ_Len
      00000034H   SYMBOL    DATA     ---       resp_cmd
      00000037H   SYMBOL    DATA     ---       resp_dats
      0000003AH   SYMBOL    DATA     BYTE      loopReapt
      0000003BH   SYMBOL    DATA     WORD      timeWait
      010029ABH   BLOCK     CODE     NEAR LAB  LVL=1
      0000003DH   SYMBOL    DATA     WORD      Local_Delay
      0000003FH   SYMBOL    DATA     BYTE      loop
      ---         BLOCKEND  ---      ---       LVL=1
      010029A3H   LINE      CODE     ---       #256
      010029ABH   LINE      CODE     ---       #260
      010029ABH   LINE      CODE     ---       #262
      010029B1H   LINE      CODE     ---       #263
      010029B4H   LINE      CODE     ---       #265
      010029BDH   LINE      CODE     ---       #267
      010029BFH   LINE      CODE     ---       #268
      010029C9H   LINE      CODE     ---       #269
      010029D4H   LINE      CODE     ---       #271
      010029E2H   LINE      CODE     ---       #273
      010029E9H   LINE      CODE     ---       #275
      010029ECH   LINE      CODE     ---       #277
      010029EEH   LINE      CODE     ---       #279
      01002A04H   LINE      CODE     ---       #281
      01002A1AH   LINE      CODE     ---       #282
      01002A20H   LINE      CODE     ---       #284
      01002A20H   LINE      CODE     ---       #285
      01002A20H   LINE      CODE     ---       #286
      01002A20H   LINE      CODE     ---       #287
      01002A24H   LINE      CODE     ---       #289
      01002A26H   LINE      CODE     ---       #290
      ---         BLOCKEND  ---      ---       LVL=0

      010025CDH   BLOCK     CODE     ---       LVL=0
      00000035H   SYMBOL    DATA     ---       REQ_CMD
      00000038H   SYMBOL    DATA     ---       REQ_DATS
      0000003BH   SYMBOL    DATA     BYTE      REQdatsLen
      0000003CH   SYMBOL    DATA     ---       ANSR_frame
      0000003FH   SYMBOL    DATA     BYTE      ANSRdatsLen
      00000040H   SYMBOL    DATA     BYTE      times
      00000041H   SYMBOL    DATA     WORD      timeDelay
      010025D3H   BLOCK     CODE     NEAR LAB  LVL=1
      020000EDH   SYMBOL    XDATA    ---       dataTXBUF
      00000043H   SYMBOL    DATA     BYTE      loop
      00000044H   SYMBOL    DATA     BYTE      datsTX_Len
      ---         BLOCKEND  ---      ---       LVL=1
      010025CDH   LINE      CODE     ---       #293
      010025D3H   LINE      CODE     ---       #298
      010025D3H   LINE      CODE     ---       #301
      010025E6H   LINE      CODE     ---       #302
      010025E9H   LINE      CODE     ---       #305
      0100260CH   LINE      CODE     ---       #307
      01002616H   LINE      CODE     ---       #309
      01002618H   LINE      CODE     ---       #310
      01002622H   LINE      CODE     ---       #311
      0100262DH   LINE      CODE     ---       #313
      0100263BH   LINE      CODE     ---       #315
      01002642H   LINE      CODE     ---       #317
      01002645H   LINE      CODE     ---       #319
      01002647H   LINE      CODE     ---       #321
      01002663H   LINE      CODE     ---       #323
      0100266AH   LINE      CODE     ---       #324
      0100266CH   LINE      CODE     ---       #325
      0100266CH   LINE      CODE     ---       #326
      0100266CH   LINE      CODE     ---       #327
LX51 LINKER/LOCATER V4.66.41.0                                                        09/02/2018  12:30:49  PAGE 53


      0100266CH   LINE      CODE     ---       #328
      01002670H   LINE      CODE     ---       #330
      01002671H   LINE      CODE     ---       #331
      ---         BLOCKEND  ---      ---       LVL=0

      01002CD8H   BLOCK     CODE     ---       LVL=0
      00000020H.1 SYMBOL    BIT      BIT       openIF
      0000002DH   SYMBOL    DATA     BYTE      openTime
      01002CD8H   BLOCK     CODE     NEAR LAB  LVL=1
      010033CCH   SYMBOL    CODE     ---       default_param
      00000020H.2 SYMBOL    BIT      BIT       resultSet
      0000002EH   SYMBOL    DATA     BYTE      openTime_temp
      020000E2H   SYMBOL    XDATA    ---       paramTX_temp
      ---         BLOCKEND  ---      ---       LVL=1
      01002CD8H   LINE      CODE     ---       #446
      01002CD8H   LINE      CODE     ---       #450
      01002CDAH   LINE      CODE     ---       #452
      01002CDDH   LINE      CODE     ---       #455
      01002CEFH   LINE      CODE     ---       #457
      01002CFFH   LINE      CODE     ---       #462
      01002D37H   LINE      CODE     ---       #476
      01002D39H   LINE      CODE     ---       #477
      ---         BLOCKEND  ---      ---       LVL=0

      01002D9BH   BLOCK     CODE     ---       LVL=0
      01002D9BH   BLOCK     CODE     NEAR LAB  LVL=1
      0000002EH   SYMBOL    DATA     WORD      PANID_temp
      02000164H   SYMBOL    XDATA    ---       paramTX_temp
      01003475H   SYMBOL    CODE     ---       frameREQ_zigbPanIDGet
      0100347BH   SYMBOL    CODE     ---       cmdResp_zigbPanIDGet
      00000007H   SYMBOL    DATA     BYTE      datsResp_Len
      ---         BLOCKEND  ---      ---       LVL=1
      01002D9BH   LINE      CODE     ---       #480
      01002D9BH   LINE      CODE     ---       #482
      01002DA0H   LINE      CODE     ---       #485
      01002DB2H   LINE      CODE     ---       #489
      01002DB4H   LINE      CODE     ---       #491
      01002DDAH   LINE      CODE     ---       #493
      01002DDDH   LINE      CODE     ---       #495
      01002DE3H   LINE      CODE     ---       #496
      01002DE9H   LINE      CODE     ---       #499
      01002DE9H   LINE      CODE     ---       #501
      01002DEDH   LINE      CODE     ---       #502
      ---         BLOCKEND  ---      ---       LVL=0

      01001ED2H   BLOCK     CODE     ---       LVL=0
      01001ED2H   BLOCK     CODE     NEAR LAB  LVL=1
      00000020H.0 SYMBOL    BIT      BIT       resultOpreat
      020000C0H   SYMBOL    XDATA    ---       paramTX_temp
      0100349DH   SYMBOL    CODE     ---       frameREQ_zigbSystimeGet
      010034A2H   SYMBOL    CODE     ---       cmdResp_zigbSystimeGet
      00000007H   SYMBOL    DATA     BYTE      datsResp_Len
      01001F16H   BLOCK     CODE     NEAR LAB  LVL=2
      00000026H   SYMBOL    DATA     WORD      Y_temp16
      00000028H   SYMBOL    DATA     BYTE      Y_temp8
      00000029H   SYMBOL    DATA     BYTE      M_temp8
      0000002AH   SYMBOL    DATA     BYTE      Y
      0000002BH   SYMBOL    DATA     BYTE      M
      0000002CH   SYMBOL    DATA     BYTE      D
      0000002DH   SYMBOL    DATA     BYTE      W
      ---         BLOCKEND  ---      ---       LVL=2
      ---         BLOCKEND  ---      ---       LVL=1
      01001ED2H   LINE      CODE     ---       #505
      01001ED2H   LINE      CODE     ---       #507
      01001ED4H   LINE      CODE     ---       #510
LX51 LINKER/LOCATER V4.66.41.0                                                        09/02/2018  12:30:49  PAGE 54


      01001EE7H   LINE      CODE     ---       #514
      01001EE9H   LINE      CODE     ---       #516
      01001F0FH   LINE      CODE     ---       #518
      01001F16H   LINE      CODE     ---       #519
      01001F16H   LINE      CODE     ---       #521
      01001F26H   LINE      CODE     ---       #522
      01001F29H   LINE      CODE     ---       #523
      01001F2BH   LINE      CODE     ---       #525
      01001F38H   LINE      CODE     ---       #526
      01001F3EH   LINE      CODE     ---       #527
      01001F42H   LINE      CODE     ---       #528
      01001F45H   LINE      CODE     ---       #531
      01001F48H   LINE      CODE     ---       #532
      01001F53H   LINE      CODE     ---       #534
      01001F59H   LINE      CODE     ---       #535
      01001F5BH   LINE      CODE     ---       #536
      01001F5DH   LINE      CODE     ---       #537
      01001F60H   LINE      CODE     ---       #540
      01001F83H   LINE      CODE     ---       #541
      01001F8AH   LINE      CODE     ---       #544
      01001F97H   LINE      CODE     ---       #546
      01001F9DH   LINE      CODE     ---       #547
      01001FA3H   LINE      CODE     ---       #548
      01001FA9H   LINE      CODE     ---       #550
      01001FB1H   LINE      CODE     ---       #551
      01001FB9H   LINE      CODE     ---       #552
      01001FC2H   LINE      CODE     ---       #555
      01001FD6H   LINE      CODE     ---       #557
      01001FD8H   LINE      CODE     ---       #558
      01001FD8H   LINE      CODE     ---       #569
      01001FDAH   LINE      CODE     ---       #570
      ---         BLOCKEND  ---      ---       LVL=0

      0100223BH   BLOCK     CODE     ---       LVL=0
      0000002DH   SYMBOL    DATA     DWORD     timeStamp
      01002243H   BLOCK     CODE     NEAR LAB  LVL=1
      010034A4H   SYMBOL    CODE     ---       default_param
      020000E2H   SYMBOL    XDATA    ---       timeStampArray
      00000020H.1 SYMBOL    BIT      BIT       resultSet
      00000031H   SYMBOL    DATA     DWORD     timeStamp_temp
      ---         BLOCKEND  ---      ---       LVL=1
      0100223BH   LINE      CODE     ---       #573
      01002243H   LINE      CODE     ---       #576
      01002256H   LINE      CODE     ---       #577
      01002258H   LINE      CODE     ---       #578
      01002264H   LINE      CODE     ---       #580
      010022BDH   LINE      CODE     ---       #582
      010022C5H   LINE      CODE     ---       #583
      010022D5H   LINE      CODE     ---       #584
      010022E5H   LINE      CODE     ---       #585
      010022F4H   LINE      CODE     ---       #590
      0100232CH   LINE      CODE     ---       #604
      0100232EH   LINE      CODE     ---       #605
      ---         BLOCKEND  ---      ---       LVL=0

      01001310H   BLOCK     CODE     ---       LVL=0
      00000020H.0 SYMBOL    BIT      BIT       reJoin_IF
      01001310H   BLOCK     CODE     NEAR LAB  LVL=1
      01003535H   SYMBOL    CODE     ---       ZigbInit_dats
      010039EBH   SYMBOL    CODE     ---       defaultParam_clusterRegister
      01003A71H   SYMBOL    CODE     ---       frameResponseSubs_clusterRegister
      01003A77H   SYMBOL    CODE     ---       cluster_Default
      020000C0H   SYMBOL    XDATA    ---       paramTX_temp
      00000008H   SYMBOL    DATA     BYTE      step_CortexA
      00000009H   SYMBOL    DATA     BYTE      step_CortexB
LX51 LINKER/LOCATER V4.66.41.0                                                        09/02/2018  12:30:49  PAGE 55


      0000000AH   SYMBOL    DATA     BYTE      reactionLoop
      00000026H   SYMBOL    DATA     BYTE      datsTX_Len
      010014CBH   BLOCK     CODE     NEAR LAB  LVL=2
      00000027H   SYMBOL    DATA     ---       datsREG_cluster
      ---         BLOCKEND  ---      ---       LVL=2
      ---         BLOCKEND  ---      ---       LVL=1
      01001310H   LINE      CODE     ---       #674
      01001310H   LINE      CODE     ---       #705
      01001323H   LINE      CODE     ---       #711
      01001326H   LINE      CODE     ---       #713
      0100132BH   LINE      CODE     ---       #715
      0100132EH   LINE      CODE     ---       #716
      01001331H   LINE      CODE     ---       #718
      01001334H   LINE      CODE     ---       #719
      01001336H   LINE      CODE     ---       #720
      01001338H   LINE      CODE     ---       #721
      0100133BH   LINE      CODE     ---       #724
      0100133BH   LINE      CODE     ---       #726
      01001342H   LINE      CODE     ---       #728
      01001345H   LINE      CODE     ---       #729
      01001347H   LINE      CODE     ---       #730
      01001349H   LINE      CODE     ---       #731
      0100134BH   LINE      CODE     ---       #733
      01001351H   LINE      CODE     ---       #735
      01001354H   LINE      CODE     ---       #736
      01001358H   LINE      CODE     ---       #739
      01001358H   LINE      CODE     ---       #741
      01001362H   LINE      CODE     ---       #742
      01001372H   LINE      CODE     ---       #743
      01001376H   LINE      CODE     ---       #745
      0100137CH   LINE      CODE     ---       #747
      0100137CH   LINE      CODE     ---       #749
      0100138AH   LINE      CODE     ---       #751
      0100138AH   LINE      CODE     ---       #753
      0100138CH   LINE      CODE     ---       #754
      01001394H   LINE      CODE     ---       #755
      01001394H   LINE      CODE     ---       #757
      01001396H   LINE      CODE     ---       #759
      01001396H   LINE      CODE     ---       #761
      010013A2H   LINE      CODE     ---       #763
      010013A4H   LINE      CODE     ---       #764
      010013AEH   LINE      CODE     ---       #765
      010013B1H   LINE      CODE     ---       #766
      010013B1H   LINE      CODE     ---       #768
      010013B2H   LINE      CODE     ---       #770
      010013B2H   LINE      CODE     ---       #772
      010013BEH   LINE      CODE     ---       #774
      010013C3H   LINE      CODE     ---       #776
      010013C5H   LINE      CODE     ---       #778
      010013E7H   LINE      CODE     ---       #780
      010013E7H   LINE      CODE     ---       #781
      010013E7H   LINE      CODE     ---       #782
      010013E7H   LINE      CODE     ---       #783
      010013E7H   LINE      CODE     ---       #784
      010013E7H   LINE      CODE     ---       #786
      010013E9H   LINE      CODE     ---       #787
      010013E9H   LINE      CODE     ---       #789
      010013E9H   LINE      CODE     ---       #790
      010013E9H   LINE      CODE     ---       #791
      010013E9H   LINE      CODE     ---       #792
      010013FAH   LINE      CODE     ---       #796
      01001404H   LINE      CODE     ---       #798
      01001404H   LINE      CODE     ---       #800
      0100140BH   LINE      CODE     ---       #802
      0100140BH   LINE      CODE     ---       #803
LX51 LINKER/LOCATER V4.66.41.0                                                        09/02/2018  12:30:49  PAGE 56


      0100140BH   LINE      CODE     ---       #804
      0100140DH   LINE      CODE     ---       #805
      0100140DH   LINE      CODE     ---       #807
      01001449H   LINE      CODE     ---       #813
      01001454H   LINE      CODE     ---       #815
      01001471H   LINE      CODE     ---       #816
      01001471H   LINE      CODE     ---       #818
      01001473H   LINE      CODE     ---       #820
      01001473H   LINE      CODE     ---       #822
      0100147DH   LINE      CODE     ---       #824
      0100147DH   LINE      CODE     ---       #825
      0100147DH   LINE      CODE     ---       #826
      0100147FH   LINE      CODE     ---       #828
      01001484H   LINE      CODE     ---       #830
      01001486H   LINE      CODE     ---       #832
      010014C0H   LINE      CODE     ---       #834
      010014C0H   LINE      CODE     ---       #835
      010014C0H   LINE      CODE     ---       #836
      010014C0H   LINE      CODE     ---       #837
      010014C0H   LINE      CODE     ---       #838
      010014C0H   LINE      CODE     ---       #840
      010014C2H   LINE      CODE     ---       #841
      010014C2H   LINE      CODE     ---       #843
      010014C2H   LINE      CODE     ---       #844
      010014CBH   LINE      CODE     ---       #846
      010014DEH   LINE      CODE     ---       #847
      010014F5H   LINE      CODE     ---       #848
      010014FCH   LINE      CODE     ---       #850
      0100150FH   LINE      CODE     ---       #851
      01001526H   LINE      CODE     ---       #852
      01001529H   LINE      CODE     ---       #854
      0100152BH   LINE      CODE     ---       #856
      0100153CH   LINE      CODE     ---       #858
      0100153EH   LINE      CODE     ---       #859
      01001541H   LINE      CODE     ---       #860
      01001544H   LINE      CODE     ---       #862
      01001546H   LINE      CODE     ---       #864
      01001549H   LINE      CODE     ---       #866
      01001549H   LINE      CODE     ---       #867
      01001549H   LINE      CODE     ---       #869
      01001553H   LINE      CODE     ---       #871
      01001553H   LINE      CODE     ---       #873
      0100155AH   LINE      CODE     ---       #875
      0100155DH   LINE      CODE     ---       #876
      0100155FH   LINE      CODE     ---       #877
      01001560H   LINE      CODE     ---       #878
      01001560H   LINE      CODE     ---       #880
      0100157DH   LINE      CODE     ---       #886
      01001588H   LINE      CODE     ---       #888
      01001599H   LINE      CODE     ---       #889
      0100159CH   LINE      CODE     ---       #891
      0100159DH   LINE      CODE     ---       #893
      0100159DH   LINE      CODE     ---       #895
      010015A7H   LINE      CODE     ---       #897
      010015A9H   LINE      CODE     ---       #898
      010015ABH   LINE      CODE     ---       #899
      010015ACH   LINE      CODE     ---       #901
      010015AFH   LINE      CODE     ---       #903
      010015B1H   LINE      CODE     ---       #905
      010015EDH   LINE      CODE     ---       #906
      010015EDH   LINE      CODE     ---       #908
      010015F0H   LINE      CODE     ---       #909
      010015F2H   LINE      CODE     ---       #910
      010015F4H   LINE      CODE     ---       #911
      010015F4H   LINE      CODE     ---       #912
LX51 LINKER/LOCATER V4.66.41.0                                                        09/02/2018  12:30:49  PAGE 57


      010015F4H   LINE      CODE     ---       #914
      010015F4H   LINE      CODE     ---       #915
      010015F4H   LINE      CODE     ---       #916
      010015F4H   LINE      CODE     ---       #917
      ---         BLOCKEND  ---      ---       LVL=0

      01002895H   BLOCK     CODE     ---       LVL=0
      0000002BH   SYMBOL    DATA     ---       frame_Temp
      0000002EH   SYMBOL    DATA     WORD      DstAddr
      00000030H   SYMBOL    DATA     BYTE      portPoint
      00000031H   SYMBOL    DATA     ---       dats
      00000034H   SYMBOL    DATA     BYTE      datsLen
      0100289FH   BLOCK     CODE     NEAR LAB  LVL=1
      01003ACDH   SYMBOL    CODE     ---       zigbCMD_DatsSend
      02000160H   SYMBOL    XDATA    ---       buf_datsLOAD
      00000035H   SYMBOL    DATA     BYTE      datsTX_Len
      ---         BLOCKEND  ---      ---       LVL=1
      01002895H   LINE      CODE     ---       #921
      0100289FH   LINE      CODE     ---       #925
      0100289FH   LINE      CODE     ---       #930
      010028B2H   LINE      CODE     ---       #931
      010028B5H   LINE      CODE     ---       #933
      010028C2H   LINE      CODE     ---       #936
      010028C8H   LINE      CODE     ---       #937
      010028CCH   LINE      CODE     ---       #938
      010028D0H   LINE      CODE     ---       #939
      010028D2H   LINE      CODE     ---       #940
      010028D6H   LINE      CODE     ---       #941
      010028DAH   LINE      CODE     ---       #942
      010028DDH   LINE      CODE     ---       #943
      010028E1H   LINE      CODE     ---       #944
      010028E5H   LINE      CODE     ---       #945
      010028F7H   LINE      CODE     ---       #947
      0100291BH   LINE      CODE     ---       #948
      ---         BLOCKEND  ---      ---       LVL=0

      01001CFEH   BLOCK     CODE     ---       LVL=0
      01001CFEH   BLOCK     CODE     NEAR LAB  LVL=1
      020000C0H   SYMBOL    XDATA    ---       buf_datsTX
      00000026H   SYMBOL    DATA     BYTE      datsTX_Len
      02000120H   SYMBOL    XDATA    ---       buf_datsRX
      00000027H   SYMBOL    DATA     BYTE      datsRX_Len
      00000028H   SYMBOL    DATA     ---       ASR_dats
      01003BBAH   SYMBOL    CODE     ---       ASR_cmd
      0000000BH   SYMBOL    DATA     BYTE      datsTrans_respondCode
      0000000CH   SYMBOL    DATA     BYTE      step
      0000000DH   SYMBOL    DATA     BYTE      reactionLoop
      01001E46H   BLOCK     CODE     NEAR LAB  LVL=2
      0000008BH   SYMBOL    IDATA    WORD      datsFrom_addr
      0000008DH   SYMBOL    IDATA    BYTE      dstPoint
      ---         BLOCKEND  ---      ---       LVL=2
      ---         BLOCKEND  ---      ---       LVL=1
      01001CFEH   LINE      CODE     ---       #952
      01001CFEH   LINE      CODE     ---       #954
      01001D11H   LINE      CODE     ---       #955
      01001D14H   LINE      CODE     ---       #958
      01001D26H   LINE      CODE     ---       #959
      01001D29H   LINE      CODE     ---       #962
      01001D3AH   LINE      CODE     ---       #974
      01001D3FH   LINE      CODE     ---       #976
      01001D42H   LINE      CODE     ---       #977
      01001D45H   LINE      CODE     ---       #979
      01001D48H   LINE      CODE     ---       #980
      01001D4BH   LINE      CODE     ---       #983
      01001D4BH   LINE      CODE     ---       #986
LX51 LINKER/LOCATER V4.66.41.0                                                        09/02/2018  12:30:49  PAGE 58


      01001D4EH   LINE      CODE     ---       #987
      01001D54H   LINE      CODE     ---       #988
      01001D57H   LINE      CODE     ---       #989
      01001D7AH   LINE      CODE     ---       #991
      01001DA2H   LINE      CODE     ---       #993
      01001DBCH   LINE      CODE     ---       #995
      01001DBCH   LINE      CODE     ---       #997
      01001DC3H   LINE      CODE     ---       #999
      01001DC6H   LINE      CODE     ---       #1001
      01001DC9H   LINE      CODE     ---       #1002
      01001DC9H   LINE      CODE     ---       #1004
      01001DCBH   LINE      CODE     ---       #1005
      01001DCBH   LINE      CODE     ---       #1007
      01001DCDH   LINE      CODE     ---       #1008
      01001DD8H   LINE      CODE     ---       #1009
      01001DE2H   LINE      CODE     ---       #1010
      01001DE5H   LINE      CODE     ---       #1012
      01001DE6H   LINE      CODE     ---       #1014
      01001DE6H   LINE      CODE     ---       #1016
      01001DF0H   LINE      CODE     ---       #1018
      01001DF0H   LINE      CODE     ---       #1019
      01001DF0H   LINE      CODE     ---       #1020
      01001DF2H   LINE      CODE     ---       #1021
      01001DF2H   LINE      CODE     ---       #1023
      01001DF7H   LINE      CODE     ---       #1025
      01001DF9H   LINE      CODE     ---       #1027
      01001E15H   LINE      CODE     ---       #1029
      01001E1BH   LINE      CODE     ---       #1031
      01001E1BH   LINE      CODE     ---       #1033
      01001E1DH   LINE      CODE     ---       #1035
      01001E20H   LINE      CODE     ---       #1036
      01001E2AH   LINE      CODE     ---       #1037
      01001E2AH   LINE      CODE     ---       #1039
      01001E2BH   LINE      CODE     ---       #1041
      01001E31H   LINE      CODE     ---       #1051
      01001E31H   LINE      CODE     ---       #1052
      01001E31H   LINE      CODE     ---       #1053
      01001E31H   LINE      CODE     ---       #1055
      01001E32H   LINE      CODE     ---       #1057
      01001E32H   LINE      CODE     ---       #1059
      01001E3CH   LINE      CODE     ---       #1061
      01001E3EH   LINE      CODE     ---       #1062
      01001E40H   LINE      CODE     ---       #1063
      01001E41H   LINE      CODE     ---       #1064
      01001E41H   LINE      CODE     ---       #1066
      01001E46H   LINE      CODE     ---       #1068
      01001E53H   LINE      CODE     ---       #1069
      01001E59H   LINE      CODE     ---       #1071
      01001E5BH   LINE      CODE     ---       #1073
      01001E90H   LINE      CODE     ---       #1075
      01001E90H   LINE      CODE     ---       #1077
      01001E93H   LINE      CODE     ---       #1078
      01001E93H   LINE      CODE     ---       #1079
      01001E93H   LINE      CODE     ---       #1080
      01001E93H   LINE      CODE     ---       #1082
      01001E94H   LINE      CODE     ---       #1084
      01001E94H   LINE      CODE     ---       #1086
      01001E97H   LINE      CODE     ---       #1088
      01001E99H   LINE      CODE     ---       #1089
      01001E9CH   LINE      CODE     ---       #1091
      01001E9EH   LINE      CODE     ---       #1093
      01001EA1H   LINE      CODE     ---       #1094
      01001EA1H   LINE      CODE     ---       #1096
      01001EA1H   LINE      CODE     ---       #1097
      01001EA1H   LINE      CODE     ---       #1099
LX51 LINKER/LOCATER V4.66.41.0                                                        09/02/2018  12:30:49  PAGE 59


      01001EA3H   LINE      CODE     ---       #1101
      01001EA3H   LINE      CODE     ---       #1103
      01001EA6H   LINE      CODE     ---       #1105
      01001EA8H   LINE      CODE     ---       #1106
      01001EABH   LINE      CODE     ---       #1108
      01001EADH   LINE      CODE     ---       #1110
      01001EB0H   LINE      CODE     ---       #1111
      01001EB0H   LINE      CODE     ---       #1114
      01001EB4H   LINE      CODE     ---       #1116
      01001EC0H   LINE      CODE     ---       #1118
      01001EC0H   LINE      CODE     ---       #1119
      01001EC0H   LINE      CODE     ---       #1120
      01001EC0H   LINE      CODE     ---       #1122
      01001EC0H   LINE      CODE     ---       #1124
      01001EC2H   LINE      CODE     ---       #1126
      01001EC2H   LINE      CODE     ---       #1128
      01001EC5H   LINE      CODE     ---       #1130
      01001EC5H   LINE      CODE     ---       #1131
      01001EC5H   LINE      CODE     ---       #1133
      01001EC8H   LINE      CODE     ---       #1134
      01001EC8H   LINE      CODE     ---       #1136
      01001ECBH   LINE      CODE     ---       #1137
      01001ECDH   LINE      CODE     ---       #1139
      01001ECEH   LINE      CODE     ---       #1141
      01001ECEH   LINE      CODE     ---       #1143
      01001ED1H   LINE      CODE     ---       #1145
      01001ED1H   LINE      CODE     ---       #1146
      01001ED1H   LINE      CODE     ---       #1147
      ---         BLOCKEND  ---      ---       LVL=0

      01002135H   BLOCK     CODE     ---       LVL=0
      00000026H   SYMBOL    DATA     ---       datsFrame
      0100213BH   BLOCK     CODE     NEAR LAB  LVL=1
      020000C0H   SYMBOL    XDATA    ---       dats
      01002191H   BLOCK     CODE     NEAR LAB  LVL=2
      00000020H.0 SYMBOL    BIT      BIT       resultSet
      00000020H.0 SYMBOL    BIT      BIT       resultSet
      00000029H   SYMBOL    DATA     DWORD     time_Temp
      ---         BLOCKEND  ---      ---       LVL=2
      010021A1H   BLOCK     CODE     NEAR LAB  LVL=2
      00000020H.0 SYMBOL    BIT      BIT       resultSet
      00000029H   SYMBOL    DATA     DWORD     time_Temp
      ---         BLOCKEND  ---      ---       LVL=2
      ---         BLOCKEND  ---      ---       LVL=1
      01002135H   LINE      CODE     ---       #1151
      0100213BH   LINE      CODE     ---       #1153
      0100214EH   LINE      CODE     ---       #1155
      0100215BH   LINE      CODE     ---       #1156
      01002174H   LINE      CODE     ---       #1157
      01002184H   LINE      CODE     ---       #1159
      01002191H   LINE      CODE     ---       #1161
      01002191H   LINE      CODE     ---       #1163
      01002193H   LINE      CODE     ---       #1165
      010021A0H   LINE      CODE     ---       #1167
      010021A1H   LINE      CODE     ---       #1169
      010021A1H   LINE      CODE     ---       #1171
      010021A3H   LINE      CODE     ---       #1172
      010021ACH   LINE      CODE     ---       #1174
      010021C2H   LINE      CODE     ---       #1175
      010021E2H   LINE      CODE     ---       #1176
      01002202H   LINE      CODE     ---       #1177
      01002222H   LINE      CODE     ---       #1179
      0100223AH   LINE      CODE     ---       #1181
      0100223AH   LINE      CODE     ---       #1183
      0100223AH   LINE      CODE     ---       #1184
LX51 LINKER/LOCATER V4.66.41.0                                                        09/02/2018  12:30:49  PAGE 60


      0100223AH   LINE      CODE     ---       #1185
      ---         BLOCKEND  ---      ---       LVL=0

      01000026H   BLOCK     CODE     ---       LVL=0
      00000026H   SYMBOL    DATA     ---       datsParam
      00000029H   SYMBOL    DATA     WORD      nwkAddr_from
      0000002BH   SYMBOL    DATA     BYTE      port_from
      01000030H   BLOCK     CODE     NEAR LAB  LVL=1
      02000104H   SYMBOL    XDATA    ---       paramTX_temp
      00000020H.0 SYMBOL    BIT      BIT       dataFromRemote_IF
      010000A0H   BLOCK     CODE     NEAR LAB  LVL=2
      00000020H.1 SYMBOL    BIT      BIT       frameCheck_Done
      010000A2H   BLOCK     CODE     NEAR LAB  LVL=3
      00000020H.2 SYMBOL    BIT      BIT       frameCodeCheck_PASS
      00000020H.3 SYMBOL    BIT      BIT       frameMacCheck_PASS
      00000020H.2 SYMBOL    BIT      BIT       respond_IF
      00000020H.3 SYMBOL    BIT      BIT       specialCmd_IF
      ---         BLOCKEND  ---      ---       LVL=3
      01000112H   BLOCK     CODE     NEAR LAB  LVL=3
      00000020H.2 SYMBOL    BIT      BIT       respond_IF
      00000020H.3 SYMBOL    BIT      BIT       specialCmd_IF
      01000116H   BLOCK     CODE     NEAR LAB  LVL=4
      020000C0H   SYMBOL    XDATA    ---       log_buf
      0000002CH   SYMBOL    DATA     BYTE      datsTX_Len
      ---         BLOCKEND  ---      ---       LVL=4
      0100019CH   BLOCK     CODE     NEAR LAB  LVL=4
      02000100H   SYMBOL    XDATA    WORD      panid_Temp
      0000002CH   SYMBOL    DATA     BYTE      deviceLock_IF
      0000002CH   SYMBOL    DATA     BYTE      deviceLock_IF
      ---         BLOCKEND  ---      ---       LVL=4
      010001DDH   BLOCK     CODE     NEAR LAB  LVL=4
      0000002CH   SYMBOL    DATA     BYTE      deviceLock_IF
      0000002CH   SYMBOL    DATA     BYTE      deviceLock_IF
      ---         BLOCKEND  ---      ---       LVL=4
      010001F4H   BLOCK     CODE     NEAR LAB  LVL=4
      0000002CH   SYMBOL    DATA     BYTE      deviceLock_IF
      ---         BLOCKEND  ---      ---       LVL=4
      0100022CH   BLOCK     CODE     NEAR LAB  LVL=4
      0000002CH   SYMBOL    DATA     BYTE      loop
      ---         BLOCKEND  ---      ---       LVL=4
      010002EAH   BLOCK     CODE     NEAR LAB  LVL=4
      0000002CH   SYMBOL    DATA     BYTE      datsTemp
      0000002CH   SYMBOL    DATA     BYTE      datsTemp
      0000002CH   SYMBOL    DATA     BYTE      loop
      0000002CH   SYMBOL    DATA     BYTE      loop
      0000002DH   SYMBOL    DATA     BYTE      effective_oprate
      0000002CH   SYMBOL    DATA     BYTE      loop
      02000102H   SYMBOL    XDATA    WORD      panid_Temp
      00000020H.4 SYMBOL    BIT      BIT       opt_result
      0000002CH   SYMBOL    DATA     BYTE      sw_Act
      ---         BLOCKEND  ---      ---       LVL=4
      01000302H   BLOCK     CODE     NEAR LAB  LVL=4
      0000002CH   SYMBOL    DATA     BYTE      datsTemp
      0000002CH   SYMBOL    DATA     BYTE      loop
      0000002CH   SYMBOL    DATA     BYTE      loop
      0000002DH   SYMBOL    DATA     BYTE      effective_oprate
      0000002CH   SYMBOL    DATA     BYTE      loop
      02000102H   SYMBOL    XDATA    WORD      panid_Temp
      00000020H.4 SYMBOL    BIT      BIT       opt_result
      0000002CH   SYMBOL    DATA     BYTE      sw_Act
      ---         BLOCKEND  ---      ---       LVL=4
      01000338H   BLOCK     CODE     NEAR LAB  LVL=4
      0000002CH   SYMBOL    DATA     BYTE      loop
      0000002CH   SYMBOL    DATA     BYTE      loop
      0000002DH   SYMBOL    DATA     BYTE      effective_oprate
LX51 LINKER/LOCATER V4.66.41.0                                                        09/02/2018  12:30:49  PAGE 61


      0000002CH   SYMBOL    DATA     BYTE      loop
      02000102H   SYMBOL    XDATA    WORD      panid_Temp
      00000020H.4 SYMBOL    BIT      BIT       opt_result
      0000002CH   SYMBOL    DATA     BYTE      sw_Act
      ---         BLOCKEND  ---      ---       LVL=4
      0100048BH   BLOCK     CODE     NEAR LAB  LVL=4
      0000002CH   SYMBOL    DATA     BYTE      loop
      0000002DH   SYMBOL    DATA     BYTE      effective_oprate
      0000002CH   SYMBOL    DATA     BYTE      loop
      02000102H   SYMBOL    XDATA    WORD      panid_Temp
      00000020H.4 SYMBOL    BIT      BIT       opt_result
      0000002CH   SYMBOL    DATA     BYTE      sw_Act
      ---         BLOCKEND  ---      ---       LVL=4
      010004FEH   BLOCK     CODE     NEAR LAB  LVL=4
      0000002CH   SYMBOL    DATA     BYTE      loop
      02000102H   SYMBOL    XDATA    WORD      panid_Temp
      00000020H.4 SYMBOL    BIT      BIT       opt_result
      0000002CH   SYMBOL    DATA     BYTE      sw_Act
      ---         BLOCKEND  ---      ---       LVL=4
      010005A0H   BLOCK     CODE     NEAR LAB  LVL=4
      02000102H   SYMBOL    XDATA    WORD      panid_Temp
      00000020H.4 SYMBOL    BIT      BIT       opt_result
      0000002CH   SYMBOL    DATA     BYTE      sw_Act
      ---         BLOCKEND  ---      ---       LVL=4
      010005E5H   BLOCK     CODE     NEAR LAB  LVL=4
      0000002CH   SYMBOL    DATA     BYTE      sw_Act
      ---         BLOCKEND  ---      ---       LVL=4
      01000638H   BLOCK     CODE     NEAR LAB  LVL=4
      0000002CH   SYMBOL    DATA     BYTE      datsTX_Len
      ---         BLOCKEND  ---      ---       LVL=4
      ---         BLOCKEND  ---      ---       LVL=3
      ---         BLOCKEND  ---      ---       LVL=2
      ---         BLOCKEND  ---      ---       LVL=1
      01000026H   LINE      CODE     ---       #1189
      01000030H   LINE      CODE     ---       #1192
      01000043H   LINE      CODE     ---       #1194
      01000045H   LINE      CODE     ---       #1197
      01000058H   LINE      CODE     ---       #1200
      01000058H   LINE      CODE     ---       #1202
      0100005AH   LINE      CODE     ---       #1204
      0100006EH   LINE      CODE     ---       #1205
      010000A0H   LINE      CODE     ---       #1206
      010000A0H   LINE      CODE     ---       #1209
      010000A0H   LINE      CODE     ---       #1211
      010000A2H   LINE      CODE     ---       #1214
      010000A4H   LINE      CODE     ---       #1215
      010000A6H   LINE      CODE     ---       #1217
      010000C7H   LINE      CODE     ---       #1218
      010000E6H   LINE      CODE     ---       #1220
      010000F6H   LINE      CODE     ---       #1222
      010000F8H   LINE      CODE     ---       #1224
      010000FAH   LINE      CODE     ---       #1225
      01000103H   LINE      CODE     ---       #1226
      01000103H   LINE      CODE     ---       #1228
      01000105H   LINE      CODE     ---       #1229
      01000105H   LINE      CODE     ---       #1231
      0100010DH   LINE      CODE     ---       #1232
      0100010DH   LINE      CODE     ---       #1234
      01000112H   LINE      CODE     ---       #1236
      01000114H   LINE      CODE     ---       #1237
      01000116H   LINE      CODE     ---       #1243
      0100012DH   LINE      CODE     ---       #1244
      01000136H   LINE      CODE     ---       #1245
      01000136H   LINE      CODE     ---       #1247
      01000145H   LINE      CODE     ---       #1249
LX51 LINKER/LOCATER V4.66.41.0                                                        09/02/2018  12:30:49  PAGE 62


      01000197H   LINE      CODE     ---       #1251
      01000197H   LINE      CODE     ---       #1253
      0100019CH   LINE      CODE     ---       #1255
      010001A7H   LINE      CODE     ---       #1257
      010001B4H   LINE      CODE     ---       #1258
      010001B7H   LINE      CODE     ---       #1260
      010001B9H   LINE      CODE     ---       #1261
      010001BBH   LINE      CODE     ---       #1263
      010001BDH   LINE      CODE     ---       #1266
      010001BDH   LINE      CODE     ---       #1268
      010001BDH   LINE      CODE     ---       #1270
      010001BDH   LINE      CODE     ---       #1272
      010001CEH   LINE      CODE     ---       #1273
      010001D2H   LINE      CODE     ---       #1275
      010001D4H   LINE      CODE     ---       #1276
      010001D6H   LINE      CODE     ---       #1278
      010001DBH   LINE      CODE     ---       #1280
      010001DDH   LINE      CODE     ---       #1282
      010001DDH   LINE      CODE     ---       #1284
      010001DDH   LINE      CODE     ---       #1286
      010001DDH   LINE      CODE     ---       #1288
      010001DDH   LINE      CODE     ---       #1291
      010001DDH   LINE      CODE     ---       #1292
      010001E0H   LINE      CODE     ---       #1294
      010001E2H   LINE      CODE     ---       #1295
      010001F2H   LINE      CODE     ---       #1296
      010001F2H   LINE      CODE     ---       #1298
      010001F4H   LINE      CODE     ---       #1300
      010001F4H   LINE      CODE     ---       #1303
      010001F4H   LINE      CODE     ---       #1304
      010001F7H   LINE      CODE     ---       #1306
      010001F9H   LINE      CODE     ---       #1307
      01000209H   LINE      CODE     ---       #1308
      01000209H   LINE      CODE     ---       #1310
      0100020BH   LINE      CODE     ---       #1312
      0100020BH   LINE      CODE     ---       #1315
      0100022CH   LINE      CODE     ---       #1317
      0100022CH   LINE      CODE     ---       #1318
      0100022CH   LINE      CODE     ---       #1320
      0100022FH   LINE      CODE     ---       #1323
      01000240H   LINE      CODE     ---       #1326
      01000243H   LINE      CODE     ---       #1328
      0100025CH   LINE      CODE     ---       #1330
      0100026FH   LINE      CODE     ---       #1331
      0100026FH   LINE      CODE     ---       #1332
      01000276H   LINE      CODE     ---       #1334
      01000278H   LINE      CODE     ---       #1336
      0100027AH   LINE      CODE     ---       #1338
      0100027AH   LINE      CODE     ---       #1340
      01000286H   LINE      CODE     ---       #1341
      01000296H   LINE      CODE     ---       #1342
      0100029DH   LINE      CODE     ---       #1344
      0100029FH   LINE      CODE     ---       #1346
      0100029FH   LINE      CODE     ---       #1348
      010002A6H   LINE      CODE     ---       #1350
      010002A8H   LINE      CODE     ---       #1352
      010002A8H   LINE      CODE     ---       #1354
      010002BBH   LINE      CODE     ---       #1356
      010002CAH   LINE      CODE     ---       #1357
      010002D9H   LINE      CODE     ---       #1359
      010002D9H   LINE      CODE     ---       #1361
      010002D9H   LINE      CODE     ---       #1362
      010002D9H   LINE      CODE     ---       #1364
      010002E8H   LINE      CODE     ---       #1366
      010002E8H   LINE      CODE     ---       #1368
LX51 LINKER/LOCATER V4.66.41.0                                                        09/02/2018  12:30:49  PAGE 63


      010002EAH   LINE      CODE     ---       #1370
      010002EAH   LINE      CODE     ---       #1372
      010002EAH   LINE      CODE     ---       #1374
      010002EDH   LINE      CODE     ---       #1376
      010002FDH   LINE      CODE     ---       #1377
      01000300H   LINE      CODE     ---       #1378
      01000300H   LINE      CODE     ---       #1380
      01000300H   LINE      CODE     ---       #1382
      01000302H   LINE      CODE     ---       #1384
      01000302H   LINE      CODE     ---       #1386
      01000305H   LINE      CODE     ---       #1388
      01000315H   LINE      CODE     ---       #1389
      01000318H   LINE      CODE     ---       #1390
      0100032BH   LINE      CODE     ---       #1392
      0100032DH   LINE      CODE     ---       #1394
      0100032FH   LINE      CODE     ---       #1396
      0100032FH   LINE      CODE     ---       #1398
      01000331H   LINE      CODE     ---       #1400
      01000333H   LINE      CODE     ---       #1402
      01000333H   LINE      CODE     ---       #1404
      01000336H   LINE      CODE     ---       #1406
      01000338H   LINE      CODE     ---       #1408
      01000338H   LINE      CODE     ---       #1410
      0100033BH   LINE      CODE     ---       #1412
      0100035DH   LINE      CODE     ---       #1414
      0100035DH   LINE      CODE     ---       #1416
      01000360H   LINE      CODE     ---       #1418
      0100037CH   LINE      CODE     ---       #1420
      0100038CH   LINE      CODE     ---       #1421
      010003D2H   LINE      CODE     ---       #1422
      010003D2H   LINE      CODE     ---       #1423
      010003DAH   LINE      CODE     ---       #1424
      010003EDH   LINE      CODE     ---       #1426
      010003EFH   LINE      CODE     ---       #1428
      010003EFH   LINE      CODE     ---       #1430
      01000400H   LINE      CODE     ---       #1432
      01000404H   LINE      CODE     ---       #1433
      01000408H   LINE      CODE     ---       #1435
      01000411H   LINE      CODE     ---       #1437
      01000412H   LINE      CODE     ---       #1439
      01000414H   LINE      CODE     ---       #1441
      01000418H   LINE      CODE     ---       #1442
      0100041CH   LINE      CODE     ---       #1443
      01000421H   LINE      CODE     ---       #1444
      01000421H   LINE      CODE     ---       #1446
      01000423H   LINE      CODE     ---       #1448
      01000423H   LINE      CODE     ---       #1450
      01000434H   LINE      CODE     ---       #1452
      01000438H   LINE      CODE     ---       #1453
      0100043CH   LINE      CODE     ---       #1454
      0100043DH   LINE      CODE     ---       #1455
      0100043FH   LINE      CODE     ---       #1457
      01000443H   LINE      CODE     ---       #1458
      01000447H   LINE      CODE     ---       #1459
      0100044CH   LINE      CODE     ---       #1460
      0100044CH   LINE      CODE     ---       #1462
      0100045FH   LINE      CODE     ---       #1463
      0100046DH   LINE      CODE     ---       #1465
      0100046FH   LINE      CODE     ---       #1467
      0100046FH   LINE      CODE     ---       #1469
      01000487H   LINE      CODE     ---       #1471
      01000487H   LINE      CODE     ---       #1473
      01000487H   LINE      CODE     ---       #1474
      01000487H   LINE      CODE     ---       #1476
      01000489H   LINE      CODE     ---       #1478
LX51 LINKER/LOCATER V4.66.41.0                                                        09/02/2018  12:30:49  PAGE 64


      0100048BH   LINE      CODE     ---       #1480
      0100048BH   LINE      CODE     ---       #1482
      0100048EH   LINE      CODE     ---       #1483
      0100049CH   LINE      CODE     ---       #1485
      0100049FH   LINE      CODE     ---       #1487
      010004AFH   LINE      CODE     ---       #1489
      010004D4H   LINE      CODE     ---       #1490
      010004EFH   LINE      CODE     ---       #1491
      010004F1H   LINE      CODE     ---       #1492
      010004F1H   LINE      CODE     ---       #1493
      010004FAH   LINE      CODE     ---       #1495
      010004FCH   LINE      CODE     ---       #1497
      010004FEH   LINE      CODE     ---       #1499
      010004FEH   LINE      CODE     ---       #1501
      01000501H   LINE      CODE     ---       #1503
      01000503H   LINE      CODE     ---       #1505
      0100051FH   LINE      CODE     ---       #1506
      01000528H   LINE      CODE     ---       #1508
      0100052AH   LINE      CODE     ---       #1510
      0100052CH   LINE      CODE     ---       #1512
      0100052CH   LINE      CODE     ---       #1514
      01000544H   LINE      CODE     ---       #1515
      0100055CH   LINE      CODE     ---       #1516
      0100056AH   LINE      CODE     ---       #1517
      01000572H   LINE      CODE     ---       #1519
      01000574H   LINE      CODE     ---       #1521
      01000576H   LINE      CODE     ---       #1523
      01000576H   LINE      CODE     ---       #1525
      01000589H   LINE      CODE     ---       #1526
      0100059CH   LINE      CODE     ---       #1528
      0100059EH   LINE      CODE     ---       #1530
      010005A0H   LINE      CODE     ---       #1532
      010005A0H   LINE      CODE     ---       #1534
      010005ABH   LINE      CODE     ---       #1536
      010005C4H   LINE      CODE     ---       #1537
      010005CEH   LINE      CODE     ---       #1538
      010005D4H   LINE      CODE     ---       #1540
      010005E1H   LINE      CODE     ---       #1541
      010005E3H   LINE      CODE     ---       #1543
      010005E3H   LINE      CODE     ---       #1545
      010005E5H   LINE      CODE     ---       #1547
      010005E5H   LINE      CODE     ---       #1549
      010005F7H   LINE      CODE     ---       #1550
      010005FDH   LINE      CODE     ---       #1552
      01000603H   LINE      CODE     ---       #1553
      01000609H   LINE      CODE     ---       #1555
      0100060EH   LINE      CODE     ---       #1557
      01000610H   LINE      CODE     ---       #1559
      01000616H   LINE      CODE     ---       #1560
      01000616H   LINE      CODE     ---       #1562
      01000618H   LINE      CODE     ---       #1564
      0100061AH   LINE      CODE     ---       #1566
      0100061AH   LINE      CODE     ---       #1568
      0100062AH   LINE      CODE     ---       #1569
      0100062FH   LINE      CODE     ---       #1571
      01000631H   LINE      CODE     ---       #1573
      01000633H   LINE      CODE     ---       #1575
      01000633H   LINE      CODE     ---       #1577
      01000635H   LINE      CODE     ---       #1579
      01000635H   LINE      CODE     ---       #1580
      01000635H   LINE      CODE     ---       #1583
      01000638H   LINE      CODE     ---       #1585
      0100063BH   LINE      CODE     ---       #1587
      0100063DH   LINE      CODE     ---       #1589
      01000667H   LINE      CODE     ---       #1596
LX51 LINKER/LOCATER V4.66.41.0                                                        09/02/2018  12:30:49  PAGE 65


      0100066AH   LINE      CODE     ---       #1598
      01000674H   LINE      CODE     ---       #1599
      0100067AH   LINE      CODE     ---       #1600
      01000689H   LINE      CODE     ---       #1601
      0100069CH   LINE      CODE     ---       #1602
      010006A2H   LINE      CODE     ---       #1603
      010006A7H   LINE      CODE     ---       #1604
      010006AAH   LINE      CODE     ---       #1605
      010006AAH   LINE      CODE     ---       #1606
      010006AAH   LINE      CODE     ---       #1607
      010006AAH   LINE      CODE     ---       #1610
      010006AAH   LINE      CODE     ---       #1614
      010006AAH   LINE      CODE     ---       #1617
      010006AAH   LINE      CODE     ---       #1621
      010006AAH   LINE      CODE     ---       #1623
      010006AAH   LINE      CODE     ---       #1624
      010006AAH   LINE      CODE     ---       #1625
      ---         BLOCKEND  ---      ---       LVL=0

      01001800H   BLOCK     CODE     ---       LVL=0
      01001800H   BLOCK     CODE     NEAR LAB  LVL=1
      01003C3EH   SYMBOL    CODE     ---       cmd_datsComing
      02000000H   SYMBOL    XDATA    ---       paramTX_temp
      02000060H   SYMBOL    XDATA    ---       paramRX_temp
      00000022H.7 SYMBOL    BIT      BIT       heartBeat_cmdFLG
      01001851H   BLOCK     CODE     NEAR LAB  LVL=2
      00000022H.6 SYMBOL    BIT      BIT       FLG_timeSetInit
      ---         BLOCKEND  ---      ---       LVL=2
      010018EFH   BLOCK     CODE     NEAR LAB  LVL=2
      00000086H   SYMBOL    IDATA    BYTE      loop
      00000087H   SYMBOL    IDATA    WORD      datsFrom_addr
      00000089H   SYMBOL    IDATA    BYTE      srcPoint
      0000008AH   SYMBOL    IDATA    BYTE      dstPoint
      ---         BLOCKEND  ---      ---       LVL=2
      010019C6H   BLOCK     CODE     NEAR LAB  LVL=2
      00000087H   SYMBOL    IDATA    WORD      datsFrom_addr
      00000089H   SYMBOL    IDATA    BYTE      srcPoint
      0000008AH   SYMBOL    IDATA    BYTE      dstPoint
      01001A0FH   BLOCK     CODE     NEAR LAB  LVL=3
      00000025H   SYMBOL    DATA     BYTE      statusRelay_temp
      ---         BLOCKEND  ---      ---       LVL=3
      ---         BLOCKEND  ---      ---       LVL=2
      ---         BLOCKEND  ---      ---       LVL=1
      01001800H   LINE      CODE     ---       #1628
      01001800H   LINE      CODE     ---       #1633
      01001813H   LINE      CODE     ---       #1634
      01001826H   LINE      CODE     ---       #1639
      0100182CH   LINE      CODE     ---       #1641
      0100182FH   LINE      CODE     ---       #1642
      01001832H   LINE      CODE     ---       #1643
      01001832H   LINE      CODE     ---       #1646
      0100184AH   LINE      CODE     ---       #1648
      0100184AH   LINE      CODE     ---       #1650
      0100184FH   LINE      CODE     ---       #1652
      0100184FH   LINE      CODE     ---       #1653
      0100184FH   LINE      CODE     ---       #1655
      01001851H   LINE      CODE     ---       #1656
      01001851H   LINE      CODE     ---       #1658
      01001851H   LINE      CODE     ---       #1661
      01001854H   LINE      CODE     ---       #1663
      01001856H   LINE      CODE     ---       #1664
      01001861H   LINE      CODE     ---       #1665
      01001861H   LINE      CODE     ---       #1666
      01001861H   LINE      CODE     ---       #1669
      01001864H   LINE      CODE     ---       #1671
LX51 LINKER/LOCATER V4.66.41.0                                                        09/02/2018  12:30:49  PAGE 66


      01001866H   LINE      CODE     ---       #1672
      01001868H   LINE      CODE     ---       #1674
      0100186EH   LINE      CODE     ---       #1675
      01001872H   LINE      CODE     ---       #1676
      01001881H   LINE      CODE     ---       #1677
      01001894H   LINE      CODE     ---       #1679
      01001894H   LINE      CODE     ---       #1683
      01001894H   LINE      CODE     ---       #1686
      01001894H   LINE      CODE     ---       #1688
      0100189BH   LINE      CODE     ---       #1689
      010018A1H   LINE      CODE     ---       #1690
      010018B0H   LINE      CODE     ---       #1691
      010018C3H   LINE      CODE     ---       #1692
      010018C9H   LINE      CODE     ---       #1693
      010018CEH   LINE      CODE     ---       #1694
      010018D2H   LINE      CODE     ---       #1698
      010018E1H   LINE      CODE     ---       #1701
      010018E7H   LINE      CODE     ---       #1703
      010018EFH   LINE      CODE     ---       #1707
      010018FDH   LINE      CODE     ---       #1709
      01001913H   LINE      CODE     ---       #1711
      01001925H   LINE      CODE     ---       #1713
      01001939H   LINE      CODE     ---       #1715
      0100194BH   LINE      CODE     ---       #1717
      01001953H   LINE      CODE     ---       #1718
      01001958H   LINE      CODE     ---       #1719
      01001967H   LINE      CODE     ---       #1720
      0100197AH   LINE      CODE     ---       #1721
      01001980H   LINE      CODE     ---       #1722
      01001985H   LINE      CODE     ---       #1723
      01001988H   LINE      CODE     ---       #1725
      0100198AH   LINE      CODE     ---       #1726
      0100198AH   LINE      CODE     ---       #1727
      0100198AH   LINE      CODE     ---       #1728
      0100198FH   LINE      CODE     ---       #1729
      0100198FH   LINE      CODE     ---       #1730
      0100199EH   LINE      CODE     ---       #1733
      010019A3H   LINE      CODE     ---       #1735
      010019A5H   LINE      CODE     ---       #1738
      010019C6H   LINE      CODE     ---       #1739
      010019C6H   LINE      CODE     ---       #1741
      010019D3H   LINE      CODE     ---       #1742
      010019D7H   LINE      CODE     ---       #1743
      010019DBH   LINE      CODE     ---       #1745
      010019DEH   LINE      CODE     ---       #1747
      010019EBH   LINE      CODE     ---       #1748
      01001A01H   LINE      CODE     ---       #1750
      01001A0FH   LINE      CODE     ---       #1752
      01001A15H   LINE      CODE     ---       #1754
      01001A1DH   LINE      CODE     ---       #1756
      01001A23H   LINE      CODE     ---       #1757
      01001A26H   LINE      CODE     ---       #1758
      01001A2AH   LINE      CODE     ---       #1759
      01001A2CH   LINE      CODE     ---       #1761
      01001A37H   LINE      CODE     ---       #1763
      01001A3DH   LINE      CODE     ---       #1764
      01001A40H   LINE      CODE     ---       #1765
      01001A46H   LINE      CODE     ---       #1766
      01001A48H   LINE      CODE     ---       #1768
      01001A51H   LINE      CODE     ---       #1770
      01001A57H   LINE      CODE     ---       #1771
      01001A5AH   LINE      CODE     ---       #1772
      01001A68H   LINE      CODE     ---       #1773
      01001A68H   LINE      CODE     ---       #1775
      01001A69H   LINE      CODE     ---       #1777
LX51 LINKER/LOCATER V4.66.41.0                                                        09/02/2018  12:30:49  PAGE 67


      01001A73H   LINE      CODE     ---       #1780
      01001A73H   LINE      CODE     ---       #1782
      01001A7DH   LINE      CODE     ---       #1784
      01001A8AH   LINE      CODE     ---       #1785
      01001A8AH   LINE      CODE     ---       #1787
      01001A8AH   LINE      CODE     ---       #1790
      01001A8AH   LINE      CODE     ---       #1792
      01001A93H   LINE      CODE     ---       #1794
      01001A93H   LINE      CODE     ---       #1796
      01001A93H   LINE      CODE     ---       #1800
      01001A93H   LINE      CODE     ---       #1801
      01001A93H   LINE      CODE     ---       #1802
      01001A93H   LINE      CODE     ---       #1803
      01001A93H   LINE      CODE     ---       #1804
      01001A93H   LINE      CODE     ---       #1806
      01001A93H   LINE      CODE     ---       #1808
      01001A93H   LINE      CODE     ---       #1811
      01001A96H   LINE      CODE     ---       #1812
      01001A98H   LINE      CODE     ---       #1814
      01001A9AH   LINE      CODE     ---       #1816
      01001A9AH   LINE      CODE     ---       #1819
      01001A9DH   LINE      CODE     ---       #1820
      01001AA2H   LINE      CODE     ---       #1822
      01001AA2H   LINE      CODE     ---       #1824
      01001AA2H   LINE      CODE     ---       #1827
      01001AA5H   LINE      CODE     ---       #1829
      01001AA5H   LINE      CODE     ---       #1831
      01001AA5H   LINE      CODE     ---       #1833
      01001AAAH   LINE      CODE     ---       #1835
      01001AADH   LINE      CODE     ---       #1836
      01001AB0H   LINE      CODE     ---       #1838
      01001AB0H   LINE      CODE     ---       #1839
      01001AB0H   LINE      CODE     ---       #1841
      01001AB0H   LINE      CODE     ---       #1842
      01001AB0H   LINE      CODE     ---       #1843
      ---         BLOCKEND  ---      ---       LVL=0

      ---         MODULE    ---      ---       USRKIN
      020004BCH   PUBLIC    XDATA    WORD      touchPadActCounter
      020004BAH   PUBLIC    XDATA    WORD      touchPadContinueCnt
      00000022H.5 PUBLIC    BIT      BIT       ledBackground_method
      0000008EH   PUBLIC    IDATA    BYTE      val_DcodeCfm
      00000074H   PUBLIC    DATA     WORD      usrKeyCount
      00000022H.4 PUBLIC    BIT      BIT       usrKeyCount_EN
      010032CCH   PUBLIC    CODE     ---       usrKeyFun_zigbNwkRejoin
      0100000AH   PUBLIC    CODE     ---       fun_Test
      01001FDBH   PUBLIC    CODE     ---       _touchPad_functionTrigContinue
      01002E7EH   PUBLIC    CODE     ---       _touchPad_functionTrigNormal
      010006ABH   PUBLIC    CODE     ---       touchPad_Scan
      00000025H   PUBLIC    DATA     BYTE      ?_UsrKEYScan?BYTE
      01002672H   PUBLIC    CODE     ---       _UsrKEYScan
      01002B17H   PUBLIC    CODE     ---       DcodeScan
      01003286H   PUBLIC    CODE     ---       touchPadScan_oneShoot
      010032D6H   PUBLIC    CODE     ---       UsrKEYScan_oneShoot
      01002F07H   PUBLIC    CODE     ---       DcodeScan_oneShoot
      01003235H   PUBLIC    CODE     ---       usrKin_pinInit
      000000D8H.2 SFRSYM    DATA     BIT       CCF2
      000000E0H.7 SFRSYM    DATA     BIT       ACC7
      00000093H   SFRSYM    DATA     BYTE      P0M1
      00000092H   SFRSYM    DATA     BYTE      P1M0
      00000096H   SFRSYM    DATA     BYTE      P2M0
      00000091H   SFRSYM    DATA     BYTE      P1M1
      00000080H   SFRSYM    DATA     BYTE      P0
      000000B2H   SFRSYM    DATA     BYTE      P3M0
      00000095H   SFRSYM    DATA     BYTE      P2M1
LX51 LINKER/LOCATER V4.66.41.0                                                        09/02/2018  12:30:49  PAGE 68


      00000090H   SFRSYM    DATA     BYTE      P1
      000000B4H   SFRSYM    DATA     BYTE      P4M0
      000000B1H   SFRSYM    DATA     BYTE      P3M1
      000000A0H   SFRSYM    DATA     BYTE      P2
      000000CAH   SFRSYM    DATA     BYTE      P5M0
      000000B3H   SFRSYM    DATA     BYTE      P4M1
      000000B0H   SFRSYM    DATA     BYTE      P3
      000000ABH   SFRSYM    DATA     BYTE      WKTCH
      000000B0H.4 SFRSYM    DATA     BIT       T0
      000000D0H.6 SFRSYM    DATA     BIT       AC
      000000CCH   SFRSYM    DATA     BYTE      P6M0
      000000C9H   SFRSYM    DATA     BYTE      P5M1
      000000C0H   SFRSYM    DATA     BYTE      P4
      000000B0H.5 SFRSYM    DATA     BIT       CLKOUT0
      000000B0H.5 SFRSYM    DATA     BIT       T1
      000000E2H   SFRSYM    DATA     BYTE      P7M0
      000000CBH   SFRSYM    DATA     BYTE      P6M1
      000000C8H   SFRSYM    DATA     BYTE      P5
      000000C6H   SFRSYM    DATA     BYTE      ISP_TRIG
      000000A8H.7 SFRSYM    DATA     BIT       EA
      000000B0H.4 SFRSYM    DATA     BIT       CLKOUT1
      000000A0H.4 SFRSYM    DATA     BIT       SPI_SS_2
      000000E8H   SFRSYM    DATA     BYTE      P6
      000000E1H   SFRSYM    DATA     BYTE      P7M1
      000000C8H.4 SFRSYM    DATA     BIT       SPI_SS_3
      00000090H.4 SFRSYM    DATA     BIT       SPI_MISO
      00000090H.3 SFRSYM    DATA     BIT       SPI_MOSI
      00000090H.1 SFRSYM    DATA     BIT       CCP0
      000000F8H   SFRSYM    DATA     BYTE      P7
      000000AAH   SFRSYM    DATA     BYTE      WKTCL
      00000090H   SFRSYM    DATA     BIT       CCP1
      000000CEH   SFRSYM    DATA     BYTE      SPCTL
      000000D8H.7 SFRSYM    DATA     BIT       CF
      000000B0H.7 SFRSYM    DATA     BIT       CCP2
      000000F9H   SFRSYM    DATA     BYTE      CH
      000000A2H   SFRSYM    DATA     BYTE      P_SW1
      000000BAH   SFRSYM    DATA     BYTE      P_SW2
      000000A8H.5 SFRSYM    DATA     BIT       EADC
      000000A0H.1 SFRSYM    DATA     BIT       SPI_SCLK_2
      000000A8H   SFRSYM    DATA     BYTE      IE
      000000C0H.3 SFRSYM    DATA     BIT       SPI_SCLK_3
      000000E9H   SFRSYM    DATA     BYTE      CL
      000000C5H   SFRSYM    DATA     BYTE      IAP_CMD
      000000FAH   SFRSYM    DATA     BYTE      CCAP0H
      00000090H   SFRSYM    DATA     BIT       Dcode0
      000000FBH   SFRSYM    DATA     BYTE      CCAP1H
      00000090H.1 SFRSYM    DATA     BIT       Dcode1
      000000FCH   SFRSYM    DATA     BYTE      CCAP2H
      00000090H.2 SFRSYM    DATA     BIT       Dcode2
      000000BDH   SFRSYM    DATA     BYTE      ADC_RES
      000000B6H   SFRSYM    DATA     BYTE      IPH2
      00000090H.3 SFRSYM    DATA     BIT       Dcode3
      000000D8H.6 SFRSYM    DATA     BIT       CR
      000000EAH   SFRSYM    DATA     BYTE      CCAP0L
      00000090H.3 SFRSYM    DATA     BIT       Dcode4
      000000B0H.7 SFRSYM    DATA     BIT       RD
      000000EBH   SFRSYM    DATA     BYTE      CCAP1L
      000000DAH   SFRSYM    DATA     BYTE      CCAPM0
      00000090H.4 SFRSYM    DATA     BIT       Dcode5
      000000ECH   SFRSYM    DATA     BYTE      CCAP2L
      000000DBH   SFRSYM    DATA     BYTE      CCAPM1
      000000A8H.4 SFRSYM    DATA     BIT       ES
      000000DCH   SFRSYM    DATA     BYTE      CCAPM2
      000000B8H.5 SFRSYM    DATA     BIT       PADC
      000000A0H.2 SFRSYM    DATA     BIT       SPI_MISO_2
LX51 LINKER/LOCATER V4.66.41.0                                                        09/02/2018  12:30:49  PAGE 69


      000000A0H.3 SFRSYM    DATA     BIT       SPI_MOSI_2
      000000B8H   SFRSYM    DATA     BYTE      IP
      000000C0H.1 SFRSYM    DATA     BIT       SPI_MISO_3
      000000C0H   SFRSYM    DATA     BIT       SPI_MOSI_3
      00000098H   SFRSYM    DATA     BIT       RI
      000000B0H.2 SFRSYM    DATA     BIT       INT0
      000000D0H.7 SFRSYM    DATA     BIT       CY
      00000098H.1 SFRSYM    DATA     BIT       TI
      000000B0H.3 SFRSYM    DATA     BIT       INT1
      00000097H   SFRSYM    DATA     BYTE      CLK_DIV
      000000C3H   SFRSYM    DATA     BYTE      IAP_ADDRH
      00000090H   SFRSYM    DATA     BIT       RXD2
      000000C5H   SFRSYM    DATA     BYTE      ISP_CMD
      000000B8H.4 SFRSYM    DATA     BIT       PS
      00000090H.1 SFRSYM    DATA     BIT       TXD2
      00000081H   SFRSYM    DATA     BYTE      SP
      000000D9H   SFRSYM    DATA     BYTE      CMOD
      000000D8H   SFRSYM    DATA     BYTE      CCON
      000000C4H   SFRSYM    DATA     BYTE      IAP_ADDRL
      000000B8H.7 SFRSYM    DATA     BIT       PPCA
      000000D0H.2 SFRSYM    DATA     BIT       OV
      000000B0H.6 SFRSYM    DATA     BIT       WR
      000000A8H.6 SFRSYM    DATA     BIT       ELVD
      00000080H   SFRSYM    DATA     BIT       P00
      00000090H   SFRSYM    DATA     BIT       P10
      00000080H.1 SFRSYM    DATA     BIT       P01
      000000BCH   SFRSYM    DATA     BYTE      ADC_CONTR
      00000099H   SFRSYM    DATA     BYTE      SBUF
      00000087H   SFRSYM    DATA     BYTE      PCON
      000000A0H   SFRSYM    DATA     BIT       P20
      00000090H.1 SFRSYM    DATA     BIT       P11
      00000080H.2 SFRSYM    DATA     BIT       P02
      000000C3H   SFRSYM    DATA     BYTE      ISP_ADDRH
      000000B0H   SFRSYM    DATA     BIT       P30
      000000A0H.1 SFRSYM    DATA     BIT       P21
      00000090H.2 SFRSYM    DATA     BIT       P12
      00000080H.3 SFRSYM    DATA     BIT       P03
      000000C0H   SFRSYM    DATA     BIT       P40
      000000B0H.1 SFRSYM    DATA     BIT       P31
      000000A0H.2 SFRSYM    DATA     BIT       P22
      00000090H.3 SFRSYM    DATA     BIT       P13
      00000080H.4 SFRSYM    DATA     BIT       P04
      00000098H   SFRSYM    DATA     BYTE      SCON
      0000008FH   SFRSYM    DATA     BYTE      WAKE_CLKO
      000000C8H   SFRSYM    DATA     BIT       P50
      000000C0H.1 SFRSYM    DATA     BIT       P41
      000000B0H.2 SFRSYM    DATA     BIT       P32
      000000A0H.3 SFRSYM    DATA     BIT       P23
      00000090H.4 SFRSYM    DATA     BIT       P14
      00000080H.5 SFRSYM    DATA     BIT       P05
      00000089H   SFRSYM    DATA     BYTE      TMOD
      00000088H   SFRSYM    DATA     BYTE      TCON
      000000C8H.1 SFRSYM    DATA     BIT       P51
      000000C0H.2 SFRSYM    DATA     BIT       P42
      000000B0H.3 SFRSYM    DATA     BIT       P33
      000000A0H.4 SFRSYM    DATA     BIT       P24
      00000090H.5 SFRSYM    DATA     BIT       P15
      00000080H.6 SFRSYM    DATA     BIT       P06
      000000C4H   SFRSYM    DATA     BYTE      ISP_ADDRL
      000000B8H.6 SFRSYM    DATA     BIT       PLVD
      000000C8H.2 SFRSYM    DATA     BIT       P52
      000000C0H.3 SFRSYM    DATA     BIT       P43
      000000B0H.4 SFRSYM    DATA     BIT       P34
      000000A0H.5 SFRSYM    DATA     BIT       P25
      00000090H.6 SFRSYM    DATA     BIT       P16
LX51 LINKER/LOCATER V4.66.41.0                                                        09/02/2018  12:30:49  PAGE 70


      00000080H.7 SFRSYM    DATA     BIT       P07
      000000C8H.3 SFRSYM    DATA     BIT       P53
      000000C0H.4 SFRSYM    DATA     BIT       P44
      000000B0H.5 SFRSYM    DATA     BIT       P35
      000000A0H.6 SFRSYM    DATA     BIT       P26
      00000090H.7 SFRSYM    DATA     BIT       P17
      000000C8H.4 SFRSYM    DATA     BIT       P54
      000000C0H.5 SFRSYM    DATA     BIT       P45
      000000B0H.6 SFRSYM    DATA     BIT       P36
      000000A0H.7 SFRSYM    DATA     BIT       P27
      000000C8H.5 SFRSYM    DATA     BIT       P55
      000000C0H.6 SFRSYM    DATA     BIT       P46
      000000B0H.7 SFRSYM    DATA     BIT       P37
      000000C8H.6 SFRSYM    DATA     BIT       P56
      000000C0H.7 SFRSYM    DATA     BIT       P47
      000000C8H.7 SFRSYM    DATA     BIT       P57
      00000088H.1 SFRSYM    DATA     BIT       IE0
      000000A1H   SFRSYM    DATA     BYTE      BUS_SPEED
      00000088H.3 SFRSYM    DATA     BIT       IE1
      000000AFH   SFRSYM    DATA     BYTE      IE2
      000000F0H   SFRSYM    DATA     BYTE      B
      0000008EH   SFRSYM    DATA     BYTE      AUXR
      000000C7H   SFRSYM    DATA     BYTE      IAP_CONTR
      000000E0H   SFRSYM    DATA     BYTE      ACC
      000000A8H.1 SFRSYM    DATA     BIT       ET0
      000000A8H.3 SFRSYM    DATA     BIT       ET1
      00000088H.5 SFRSYM    DATA     BIT       TF0
      00000088H.7 SFRSYM    DATA     BIT       TF1
      000000B5H   SFRSYM    DATA     BYTE      IP2
      0000008CH   SFRSYM    DATA     BYTE      RL_TH0
      00000098H.2 SFRSYM    DATA     BIT       RB8
      0000008DH   SFRSYM    DATA     BYTE      RL_TH1
      0000008CH   SFRSYM    DATA     BYTE      TH0
      000000A8H   SFRSYM    DATA     BIT       EX0
      00000088H   SFRSYM    DATA     BIT       IT0
      000000D6H   SFRSYM    DATA     BYTE      RL_T2H
      0000008DH   SFRSYM    DATA     BYTE      TH1
      00000090H.6 SFRSYM    DATA     BIT       touchPad_1
      000000A8H.2 SFRSYM    DATA     BIT       EX1
      00000098H.3 SFRSYM    DATA     BIT       TB8
      00000088H.2 SFRSYM    DATA     BIT       IT1
      000000D4H   SFRSYM    DATA     BYTE      RL_T3H
      000000D6H   SFRSYM    DATA     BYTE      TH2
      000000D6H   SFRSYM    DATA     BYTE      T2H
      00000090H.7 SFRSYM    DATA     BIT       touchPad_2
      000000D0H   SFRSYM    DATA     BIT       P
      000000D2H   SFRSYM    DATA     BYTE      RL_T4H
      000000D4H   SFRSYM    DATA     BYTE      TH3
      000000D4H   SFRSYM    DATA     BYTE      T3H
      0000008AH   SFRSYM    DATA     BYTE      RL_TL0
      00000090H.5 SFRSYM    DATA     BIT       touchPad_3
      00000098H.7 SFRSYM    DATA     BIT       SM0
      000000D2H   SFRSYM    DATA     BYTE      TH4
      000000D2H   SFRSYM    DATA     BYTE      T4H
      0000008BH   SFRSYM    DATA     BYTE      RL_TL1
      0000008AH   SFRSYM    DATA     BYTE      TL0
      00000098H.6 SFRSYM    DATA     BIT       SM1
      000000D7H   SFRSYM    DATA     BYTE      RL_T2L
      0000008BH   SFRSYM    DATA     BYTE      TL1
      00000098H.5 SFRSYM    DATA     BIT       SM2
      000000D5H   SFRSYM    DATA     BYTE      RL_T3L
      000000D7H   SFRSYM    DATA     BYTE      TL2
      000000D7H   SFRSYM    DATA     BYTE      T2L
      000000D3H   SFRSYM    DATA     BYTE      RL_T4L
      000000D5H   SFRSYM    DATA     BYTE      TL3
LX51 LINKER/LOCATER V4.66.41.0                                                        09/02/2018  12:30:49  PAGE 71


      000000D5H   SFRSYM    DATA     BYTE      T3L
      000000B8H.1 SFRSYM    DATA     BIT       PT0
      000000D3H   SFRSYM    DATA     BYTE      TL4
      000000D3H   SFRSYM    DATA     BYTE      T4L
      000000B8H.3 SFRSYM    DATA     BIT       PT1
      000000D0H.3 SFRSYM    DATA     BIT       RS0
      000000C7H   SFRSYM    DATA     BYTE      ISP_CONTR
      00000088H.4 SFRSYM    DATA     BIT       TR0
      000000D0H.4 SFRSYM    DATA     BIT       RS1
      000000C2H   SFRSYM    DATA     BYTE      IAP_DATA
      00000088H.6 SFRSYM    DATA     BIT       TR1
      000000B8H   SFRSYM    DATA     BIT       PX0
      000000C1H   SFRSYM    DATA     BYTE      WDT_CONTR
      000000B8H.2 SFRSYM    DATA     BIT       PX1
      000000F2H   SFRSYM    DATA     BYTE      PCA_PWM0
      000000F3H   SFRSYM    DATA     BYTE      PCA_PWM1
      000000F4H   SFRSYM    DATA     BYTE      PCA_PWM2
      0000009DH   SFRSYM    DATA     BYTE      P1ASF
      00000083H   SFRSYM    DATA     BYTE      DPH
      000000D1H   SFRSYM    DATA     BYTE      T4T3M
      000000BEH   SFRSYM    DATA     BYTE      ADC_RESL
      00000082H   SFRSYM    DATA     BYTE      DPL
      000000CDH   SFRSYM    DATA     BYTE      SPSTAT
      000000B7H   SFRSYM    DATA     BYTE      IPH
      0000009BH   SFRSYM    DATA     BYTE      S2BUF
      00000097H   SFRSYM    DATA     BYTE      PCON2
      000000ADH   SFRSYM    DATA     BYTE      S3BUF
      00000098H.4 SFRSYM    DATA     BIT       REN
      00000085H   SFRSYM    DATA     BYTE      S4BUF
      00000080H.2 SFRSYM    DATA     BIT       Usr_key
      0000009AH   SFRSYM    DATA     BYTE      S2CON
      000000ACH   SFRSYM    DATA     BYTE      S3CON
      000000C2H   SFRSYM    DATA     BYTE      ISP_DATA
      00000084H   SFRSYM    DATA     BYTE      S4CON
      000000B9H   SFRSYM    DATA     BYTE      SADEN
      000000B0H   SFRSYM    DATA     BIT       RXD
      000000A9H   SFRSYM    DATA     BYTE      SADDR
      000000B0H.1 SFRSYM    DATA     BIT       TXD
      000000F0H   SFRSYM    DATA     BIT       B0
      000000F0H.1 SFRSYM    DATA     BIT       B1
      000000C6H   SFRSYM    DATA     BYTE      IAP_TRIG
      000000A2H   SFRSYM    DATA     BYTE      AUXR1
      000000F0H.2 SFRSYM    DATA     BIT       B2
      00000090H.2 SFRSYM    DATA     BIT       SPI_SS
      0000008FH   SFRSYM    DATA     BYTE      AUXR2
      000000F0H.3 SFRSYM    DATA     BIT       B3
      000000F0H.4 SFRSYM    DATA     BIT       B4
      000000D0H.5 SFRSYM    DATA     BIT       F0
      000000F0H.5 SFRSYM    DATA     BIT       B5
      000000D0H.1 SFRSYM    DATA     BIT       F1
      0000008FH   SFRSYM    DATA     BYTE      INT_CLKO
      000000F0H.6 SFRSYM    DATA     BIT       B6
      000000E0H   SFRSYM    DATA     BIT       ACC0
      000000F0H.7 SFRSYM    DATA     BIT       B7
      000000E0H.1 SFRSYM    DATA     BIT       ACC1
      000000E0H.2 SFRSYM    DATA     BIT       ACC2
      000000E0H.3 SFRSYM    DATA     BIT       ACC3
      000000D0H   SFRSYM    DATA     BYTE      PSW
      000000E0H.4 SFRSYM    DATA     BIT       ACC4
      00000090H.5 SFRSYM    DATA     BIT       SPI_SCLK
      000000D8H   SFRSYM    DATA     BIT       CCF0
      000000E0H.5 SFRSYM    DATA     BIT       ACC5
      000000D8H.1 SFRSYM    DATA     BIT       CCF1
      000000E0H.6 SFRSYM    DATA     BIT       ACC6
      000000CFH   SFRSYM    DATA     BYTE      SPDAT
LX51 LINKER/LOCATER V4.66.41.0                                                        09/02/2018  12:30:49  PAGE 72


      00000094H   SFRSYM    DATA     BYTE      P0M0
      01002E7EH   SYMBOL    CODE     ---       _touchPad_functionTrigNormal
      01001FDBH   SYMBOL    CODE     ---       _touchPad_functionTrigContinue

      01003235H   BLOCK     CODE     ---       LVL=0
      01003235H   LINE      CODE     ---       #31
      01003235H   LINE      CODE     ---       #33
      01003238H   LINE      CODE     ---       #34
      0100323BH   LINE      CODE     ---       #36
      0100323EH   LINE      CODE     ---       #37
      01003241H   LINE      CODE     ---       #39
      0100324AH   LINE      CODE     ---       #40
      ---         BLOCKEND  ---      ---       LVL=0

      01002F07H   BLOCK     CODE     ---       LVL=0
      01002F07H   BLOCK     CODE     NEAR LAB  LVL=1
      00000007H   SYMBOL    DATA     BYTE      val_Dcode
      ---         BLOCKEND  ---      ---       LVL=1
      01002F07H   LINE      CODE     ---       #42
      01002F07H   LINE      CODE     ---       #44
      01002F09H   LINE      CODE     ---       #46
      01002F0FH   LINE      CODE     ---       #47
      01002F12H   LINE      CODE     ---       #49
      01002F1AH   LINE      CODE     ---       #50
      01002F1DH   LINE      CODE     ---       #52
      01002F25H   LINE      CODE     ---       #53
      01002F28H   LINE      CODE     ---       #55
      01002F30H   LINE      CODE     ---       #56
      01002F33H   LINE      CODE     ---       #58
      01002F3BH   LINE      CODE     ---       #59
      01002F3EH   LINE      CODE     ---       #61
      01002F46H   LINE      CODE     ---       #62
      01002F49H   LINE      CODE     ---       #64
      01002F49H   LINE      CODE     ---       #65
      ---         BLOCKEND  ---      ---       LVL=0

      010032D6H   BLOCK     CODE     ---       LVL=0
      010032D6H   LINE      CODE     ---       #67
      010032D6H   LINE      CODE     ---       #69
      010032D8H   LINE      CODE     ---       #70
      ---         BLOCKEND  ---      ---       LVL=0

      01003286H   BLOCK     CODE     ---       LVL=0
      01003286H   BLOCK     CODE     NEAR LAB  LVL=1
      00000007H   SYMBOL    DATA     BYTE      valKey_Temp
      ---         BLOCKEND  ---      ---       LVL=1
      01003286H   LINE      CODE     ---       #72
      01003286H   LINE      CODE     ---       #74
      01003288H   LINE      CODE     ---       #76
      0100328CH   LINE      CODE     ---       #77
      01003292H   LINE      CODE     ---       #78
      01003298H   LINE      CODE     ---       #80
      01003298H   LINE      CODE     ---       #81
      ---         BLOCKEND  ---      ---       LVL=0

      01002B17H   BLOCK     CODE     ---       LVL=0
      01002B17H   BLOCK     CODE     NEAR LAB  LVL=1
      00000070H   SYMBOL    DATA     BYTE      val_Dcode_Local
      00000071H   SYMBOL    DATA     BYTE      comfirm_Cnt
      00000025H   SYMBOL    DATA     BYTE      comfirm_Period
      00000026H   SYMBOL    DATA     BYTE      val_Dcode_differ
      00000020H.0 SYMBOL    BIT      BIT       val_CHG
      ---         BLOCKEND  ---      ---       LVL=1
      01002B17H   LINE      CODE     ---       #83
      01002B17H   LINE      CODE     ---       #87
LX51 LINKER/LOCATER V4.66.41.0                                                        09/02/2018  12:30:49  PAGE 73


      01002B1AH   LINE      CODE     ---       #89
      01002B1DH   LINE      CODE     ---       #91
      01002B1FH   LINE      CODE     ---       #93
      01002B26H   LINE      CODE     ---       #95
      01002B2BH   LINE      CODE     ---       #97
      01002B33H   LINE      CODE     ---       #99
      01002B3EH   LINE      CODE     ---       #100
      01002B3EH   LINE      CODE     ---       #102
      01002B41H   LINE      CODE     ---       #103
      01002B43H   LINE      CODE     ---       #104
      01002B43H   LINE      CODE     ---       #105
      01002B43H   LINE      CODE     ---       #107
      01002B46H   LINE      CODE     ---       #109
      01002B48H   LINE      CODE     ---       #111
      01002B4DH   LINE      CODE     ---       #112
      01002B4FH   LINE      CODE     ---       #114
      01002B4FH   LINE      CODE     ---       #116
      01002B4FH   LINE      CODE     ---       #119
      01002B4FH   LINE      CODE     ---       #122
      01002B4FH   LINE      CODE     ---       #123
      01002B4FH   LINE      CODE     ---       #125
      01002B4FH   LINE      CODE     ---       #127
      01002B4FH   LINE      CODE     ---       #130
      01002B4FH   LINE      CODE     ---       #133
      01002B4FH   LINE      CODE     ---       #134
      01002B4FH   LINE      CODE     ---       #136
      01002B54H   LINE      CODE     ---       #138
      01002B5CH   LINE      CODE     ---       #140
      01002B5FH   LINE      CODE     ---       #142
      01002B61H   LINE      CODE     ---       #144
      01002B64H   LINE      CODE     ---       #145
      01002B64H   LINE      CODE     ---       #146
      01002B64H   LINE      CODE     ---       #148
      01002B6AH   LINE      CODE     ---       #150
      01002B7EH   LINE      CODE     ---       #152
      01002B7EH   LINE      CODE     ---       #154
      01002B7EH   LINE      CODE     ---       #156
      01002B80H   LINE      CODE     ---       #158
      01002B80H   LINE      CODE     ---       #160
      01002B83H   LINE      CODE     ---       #162
      01002B84H   LINE      CODE     ---       #164
      01002B84H   LINE      CODE     ---       #166
      01002B87H   LINE      CODE     ---       #168
      01002B88H   LINE      CODE     ---       #170
      01002B8BH   LINE      CODE     ---       #174
      01002B8BH   LINE      CODE     ---       #176
      01002B8BH   LINE      CODE     ---       #177
      01002B8BH   LINE      CODE     ---       #178
      01002B8BH   LINE      CODE     ---       #179
      01002B8BH   LINE      CODE     ---       #180
      ---         BLOCKEND  ---      ---       LVL=0

      01002672H   BLOCK     CODE     ---       LVL=0
      00000025H   SYMBOL    DATA     ---       funCB_Short
      00000028H   SYMBOL    DATA     ---       funCB_LongA
      0000002BH   SYMBOL    DATA     ---       funCB_LongB
      01002678H   BLOCK     CODE     NEAR LAB  LVL=1
      01004993H   SYMBOL    CONST    WORD      keyCfrmLoop_Short
      01004995H   SYMBOL    CONST    WORD      keyCfrmLoop_LongA
      01004997H   SYMBOL    CONST    WORD      keyCfrmLoop_LongB
      01004999H   SYMBOL    CONST    WORD      keyCfrmLoop_MAX
      00000021H.6 SYMBOL    BIT      BIT       LongA_FLG
      00000021H.7 SYMBOL    BIT      BIT       LongB_FLG
      00000022H.0 SYMBOL    BIT      BIT       keyPress_FLG
      ---         BLOCKEND  ---      ---       LVL=1
LX51 LINKER/LOCATER V4.66.41.0                                                        09/02/2018  12:30:49  PAGE 74


      01002672H   LINE      CODE     ---       #182
      01002678H   LINE      CODE     ---       #194
      0100267DH   LINE      CODE     ---       #196
      0100267FH   LINE      CODE     ---       #200
      01002684H   LINE      CODE     ---       #202
      010026A5H   LINE      CODE     ---       #204
      010026ACH   LINE      CODE     ---       #206
      010026AEH   LINE      CODE     ---       #207
      010026AEH   LINE      CODE     ---       #209
      010026CFH   LINE      CODE     ---       #211
      010026D6H   LINE      CODE     ---       #213
      010026D8H   LINE      CODE     ---       #214
      010026D8H   LINE      CODE     ---       #216
      010026D9H   LINE      CODE     ---       #218
      010026DBH   LINE      CODE     ---       #220
      010026DEH   LINE      CODE     ---       #222
      010026E0H   LINE      CODE     ---       #224
      010026FDH   LINE      CODE     ---       #231
      01002704H   LINE      CODE     ---       #232
      01002704H   LINE      CODE     ---       #234
      01002709H   LINE      CODE     ---       #235
      0100270BH   LINE      CODE     ---       #236
      0100270DH   LINE      CODE     ---       #237
      0100270DH   LINE      CODE     ---       #238
      0100270DH   LINE      CODE     ---       #239
      ---         BLOCKEND  ---      ---       LVL=0

      010006ABH   BLOCK     CODE     ---       LVL=0
      010006ABH   BLOCK     CODE     NEAR LAB  LVL=1
      00000072H   SYMBOL    DATA     BYTE      touchPad_temp
      00000022H.1 SYMBOL    BIT      BIT       keyPress_FLG
      00000022H.2 SYMBOL    BIT      BIT       funTrigFLG_LongA
      00000022H.3 SYMBOL    BIT      BIT       funTrigFLG_LongB
      0100499BH   SYMBOL    CONST    WORD      touchCfrmLoop_Short
      0100499DH   SYMBOL    CONST    WORD      touchCfrmLoop_LongA
      0100499FH   SYMBOL    CONST    WORD      touchCfrmLoop_LongB
      010049A1H   SYMBOL    CONST    WORD      touchCfrmLoop_MAX
      00000073H   SYMBOL    DATA     BYTE      pressContinueGet
      00000025H   SYMBOL    DATA     BYTE      pressContinueCfm
      00000026H   SYMBOL    DATA     WORD      conterTemp
      ---         BLOCKEND  ---      ---       LVL=1
      010006ABH   LINE      CODE     ---       #241
      010006ABH   LINE      CODE     ---       #255
      010006AEH   LINE      CODE     ---       #257
      010006B2H   LINE      CODE     ---       #259
      010006BAH   LINE      CODE     ---       #261
      010006BDH   LINE      CODE     ---       #263
      010006BFH   LINE      CODE     ---       #264
      010006D0H   LINE      CODE     ---       #265
      010006DAH   LINE      CODE     ---       #266
      010006DFH   LINE      CODE     ---       #267
      010006E0H   LINE      CODE     ---       #268
      010006E0H   LINE      CODE     ---       #270
      010006EAH   LINE      CODE     ---       #272
      01000701H   LINE      CODE     ---       #280
      0100071FH   LINE      CODE     ---       #282
      01000722H   LINE      CODE     ---       #284
      01000724H   LINE      CODE     ---       #285
      0100072BH   LINE      CODE     ---       #286
      0100072BH   LINE      CODE     ---       #287
      0100072BH   LINE      CODE     ---       #288
      0100074DH   LINE      CODE     ---       #290
      01000752H   LINE      CODE     ---       #292
      01000754H   LINE      CODE     ---       #293
      0100075BH   LINE      CODE     ---       #294
LX51 LINKER/LOCATER V4.66.41.0                                                        09/02/2018  12:30:49  PAGE 75


      0100075BH   LINE      CODE     ---       #295
      0100075BH   LINE      CODE     ---       #296
      0100075BH   LINE      CODE     ---       #297
      0100075BH   LINE      CODE     ---       #298
      0100075BH   LINE      CODE     ---       #300
      0100075EH   LINE      CODE     ---       #302
      01000775H   LINE      CODE     ---       #303
      01000793H   LINE      CODE     ---       #305
      0100079FH   LINE      CODE     ---       #306
      010007AAH   LINE      CODE     ---       #307
      010007B1H   LINE      CODE     ---       #308
      010007BAH   LINE      CODE     ---       #309
      010007BAH   LINE      CODE     ---       #310
      010007BAH   LINE      CODE     ---       #312
      010007C8H   LINE      CODE     ---       #314
      010007CAH   LINE      CODE     ---       #315
      010007CDH   LINE      CODE     ---       #317
      010007D4H   LINE      CODE     ---       #326
      010007DBH   LINE      CODE     ---       #327
      010007DEH   LINE      CODE     ---       #328
      010007DEH   LINE      CODE     ---       #330
      010007E1H   LINE      CODE     ---       #331
      010007E1H   LINE      CODE     ---       #333
      010007E3H   LINE      CODE     ---       #334
      010007E5H   LINE      CODE     ---       #336
      010007ECH   LINE      CODE     ---       #337
      010007EEH   LINE      CODE     ---       #338
      010007EEH   LINE      CODE     ---       #339
      ---         BLOCKEND  ---      ---       LVL=0

      01002E7EH   BLOCK     CODE     ---       LVL=0
      00000007H   SYMBOL    DATA     BYTE      statusPad
      00000005H   SYMBOL    DATA     BYTE      statusCfm
      01002E7EH   LINE      CODE     ---       #341
      01002E7EH   LINE      CODE     ---       #343
      01002E8DH   LINE      CODE     ---       #345
      01002E8DH   LINE      CODE     ---       #347
      01002E9AH   LINE      CODE     ---       #349
      01002E9AH   LINE      CODE     ---       #350
      01002E9AH   LINE      CODE     ---       #351
      01002E9AH   LINE      CODE     ---       #353
      01002EA0H   LINE      CODE     ---       #354
      01002EA5H   LINE      CODE     ---       #355
      01002EA7H   LINE      CODE     ---       #357
      01002EA8H   LINE      CODE     ---       #359
      01002EA8H   LINE      CODE     ---       #360
      01002EA8H   LINE      CODE     ---       #362
      01002EA8H   LINE      CODE     ---       #364
      01002EA8H   LINE      CODE     ---       #366
      01002EB5H   LINE      CODE     ---       #368
      01002EB5H   LINE      CODE     ---       #369
      01002EB5H   LINE      CODE     ---       #370
      01002EB5H   LINE      CODE     ---       #372
      01002EBBH   LINE      CODE     ---       #373
      01002EC0H   LINE      CODE     ---       #375
      01002EC1H   LINE      CODE     ---       #377
      01002EC1H   LINE      CODE     ---       #378
      01002EC1H   LINE      CODE     ---       #380
      01002EC1H   LINE      CODE     ---       #382
      01002EC1H   LINE      CODE     ---       #384
      01002EC2H   LINE      CODE     ---       #386
      01002EC2H   LINE      CODE     ---       #390
      01002EC2H   LINE      CODE     ---       #392
      01002EC2H   LINE      CODE     ---       #394
      01002EC2H   LINE      CODE     ---       #396
LX51 LINKER/LOCATER V4.66.41.0                                                        09/02/2018  12:30:49  PAGE 76


      01002EC2H   LINE      CODE     ---       #397
      01002EC2H   LINE      CODE     ---       #399
      01002EC2H   LINE      CODE     ---       #401
      01002EC2H   LINE      CODE     ---       #403
      01002EC2H   LINE      CODE     ---       #405
      01002EC2H   LINE      CODE     ---       #407
      01002EC2H   LINE      CODE     ---       #409
      01002EC2H   LINE      CODE     ---       #411
      01002EC2H   LINE      CODE     ---       #412
      01002EC2H   LINE      CODE     ---       #414
      01002EC2H   LINE      CODE     ---       #416
      01002EC2H   LINE      CODE     ---       #417
      01002EC2H   LINE      CODE     ---       #418
      ---         BLOCKEND  ---      ---       LVL=0

      01001FDBH   BLOCK     CODE     ---       LVL=0
      00000007H   SYMBOL    DATA     BYTE      statusPad
      00000028H   SYMBOL    DATA     BYTE      loopCount
      01001FDBH   LINE      CODE     ---       #420
      01001FDDH   LINE      CODE     ---       #422
      01001FDFH   LINE      CODE     ---       #424
      01001FECH   LINE      CODE     ---       #426
      01001FECH   LINE      CODE     ---       #428
      01001FF2H   LINE      CODE     ---       #430
      01001FF2H   LINE      CODE     ---       #432
      01001FF2H   LINE      CODE     ---       #435
      01001FF2H   LINE      CODE     ---       #437
      01001FF2H   LINE      CODE     ---       #439
      01001FF2H   LINE      CODE     ---       #441
      01001FFAH   LINE      CODE     ---       #442
      01001FFDH   LINE      CODE     ---       #444
      01001FFEH   LINE      CODE     ---       #446
      01001FFEH   LINE      CODE     ---       #447
      01001FFEH   LINE      CODE     ---       #449
      01001FFEH   LINE      CODE     ---       #451
      01001FFEH   LINE      CODE     ---       #453
      01001FFFH   LINE      CODE     ---       #455
      01001FFFH   LINE      CODE     ---       #457
      01001FFFH   LINE      CODE     ---       #458
      01001FFFH   LINE      CODE     ---       #460
      01001FFFH   LINE      CODE     ---       #462
      01001FFFH   LINE      CODE     ---       #464
      01001FFFH   LINE      CODE     ---       #466
      01001FFFH   LINE      CODE     ---       #468
      01001FFFH   LINE      CODE     ---       #469
      01001FFFH   LINE      CODE     ---       #471
      01001FFFH   LINE      CODE     ---       #473
      01001FFFH   LINE      CODE     ---       #474
      01001FFFH   LINE      CODE     ---       #475
      ---         BLOCKEND  ---      ---       LVL=0

      0100000AH   BLOCK     CODE     ---       LVL=0
      0100000AH   LINE      CODE     ---       #477
      0100000AH   LINE      CODE     ---       #480
      ---         BLOCKEND  ---      ---       LVL=0

      010032CCH   BLOCK     CODE     ---       LVL=0
      010032CCH   LINE      CODE     ---       #482
      010032CCH   LINE      CODE     ---       #484
      010032CFH   LINE      CODE     ---       #486
      010032D2H   LINE      CODE     ---       #487
      010032D5H   LINE      CODE     ---       #488
      ---         BLOCKEND  ---      ---       LVL=0

      ---         MODULE    ---      ---       RELAY
LX51 LINKER/LOCATER V4.66.41.0                                                        09/02/2018  12:30:49  PAGE 77


      020004C1H   PUBLIC    XDATA    BYTE      relayStatus_ifSave
      020004C0H   PUBLIC    XDATA    BYTE      status_Relay
      0000007AH   PUBLIC    DATA     BYTE      EACHCTRL_realesFLG
      020004BEH   PUBLIC    XDATA    ---       swCommand_fromUsr
      010030B2H   PUBLIC    CODE     ---       thread_Relay
      00000025H   PUBLIC    DATA     BYTE      ?relay_Act?BYTE
      01002800H   PUBLIC    CODE     ---       relay_Act
      01002DEEH   PUBLIC    CODE     ---       relay_pinInit
      01003079H   PUBLIC    CODE     ---       relay_statusReales
      000000D8H.2 SFRSYM    DATA     BIT       CCF2
      000000E0H.7 SFRSYM    DATA     BIT       ACC7
      00000093H   SFRSYM    DATA     BYTE      P0M1
      00000092H   SFRSYM    DATA     BYTE      P1M0
      00000096H   SFRSYM    DATA     BYTE      P2M0
      00000091H   SFRSYM    DATA     BYTE      P1M1
      00000080H   SFRSYM    DATA     BYTE      P0
      000000B2H   SFRSYM    DATA     BYTE      P3M0
      00000095H   SFRSYM    DATA     BYTE      P2M1
      00000090H   SFRSYM    DATA     BYTE      P1
      000000B4H   SFRSYM    DATA     BYTE      P4M0
      000000B1H   SFRSYM    DATA     BYTE      P3M1
      000000A0H   SFRSYM    DATA     BYTE      P2
      000000CAH   SFRSYM    DATA     BYTE      P5M0
      000000B3H   SFRSYM    DATA     BYTE      P4M1
      000000B0H   SFRSYM    DATA     BYTE      P3
      000000ABH   SFRSYM    DATA     BYTE      WKTCH
      000000B0H.4 SFRSYM    DATA     BIT       T0
      000000D0H.6 SFRSYM    DATA     BIT       AC
      000000CCH   SFRSYM    DATA     BYTE      P6M0
      000000C9H   SFRSYM    DATA     BYTE      P5M1
      000000C0H   SFRSYM    DATA     BYTE      P4
      000000B0H.5 SFRSYM    DATA     BIT       CLKOUT0
      000000B0H.5 SFRSYM    DATA     BIT       T1
      000000E2H   SFRSYM    DATA     BYTE      P7M0
      000000CBH   SFRSYM    DATA     BYTE      P6M1
      000000C8H   SFRSYM    DATA     BYTE      P5
      000000C6H   SFRSYM    DATA     BYTE      ISP_TRIG
      000000A8H.7 SFRSYM    DATA     BIT       EA
      000000B0H.4 SFRSYM    DATA     BIT       CLKOUT1
      000000A0H.4 SFRSYM    DATA     BIT       SPI_SS_2
      000000E8H   SFRSYM    DATA     BYTE      P6
      000000E1H   SFRSYM    DATA     BYTE      P7M1
      000000C8H.4 SFRSYM    DATA     BIT       SPI_SS_3
      00000090H.4 SFRSYM    DATA     BIT       SPI_MISO
      00000090H.3 SFRSYM    DATA     BIT       SPI_MOSI
      00000090H.1 SFRSYM    DATA     BIT       CCP0
      000000F8H   SFRSYM    DATA     BYTE      P7
      000000AAH   SFRSYM    DATA     BYTE      WKTCL
      00000090H   SFRSYM    DATA     BIT       CCP1
      000000CEH   SFRSYM    DATA     BYTE      SPCTL
      000000D8H.7 SFRSYM    DATA     BIT       CF
      000000B0H.7 SFRSYM    DATA     BIT       CCP2
      000000F9H   SFRSYM    DATA     BYTE      CH
      000000A2H   SFRSYM    DATA     BYTE      P_SW1
      000000BAH   SFRSYM    DATA     BYTE      P_SW2
      000000A8H.5 SFRSYM    DATA     BIT       EADC
      000000A0H.1 SFRSYM    DATA     BIT       SPI_SCLK_2
      000000A8H   SFRSYM    DATA     BYTE      IE
      000000C0H.3 SFRSYM    DATA     BIT       SPI_SCLK_3
      000000E9H   SFRSYM    DATA     BYTE      CL
      000000C5H   SFRSYM    DATA     BYTE      IAP_CMD
      000000FAH   SFRSYM    DATA     BYTE      CCAP0H
      000000FBH   SFRSYM    DATA     BYTE      CCAP1H
      000000FCH   SFRSYM    DATA     BYTE      CCAP2H
      000000BDH   SFRSYM    DATA     BYTE      ADC_RES
LX51 LINKER/LOCATER V4.66.41.0                                                        09/02/2018  12:30:49  PAGE 78


      000000B6H   SFRSYM    DATA     BYTE      IPH2
      000000D8H.6 SFRSYM    DATA     BIT       CR
      000000EAH   SFRSYM    DATA     BYTE      CCAP0L
      000000B0H.7 SFRSYM    DATA     BIT       RD
      000000EBH   SFRSYM    DATA     BYTE      CCAP1L
      000000DAH   SFRSYM    DATA     BYTE      CCAPM0
      000000ECH   SFRSYM    DATA     BYTE      CCAP2L
      000000DBH   SFRSYM    DATA     BYTE      CCAPM1
      000000A8H.4 SFRSYM    DATA     BIT       ES
      000000DCH   SFRSYM    DATA     BYTE      CCAPM2
      000000B8H.5 SFRSYM    DATA     BIT       PADC
      000000A0H.2 SFRSYM    DATA     BIT       SPI_MISO_2
      000000A0H.3 SFRSYM    DATA     BIT       SPI_MOSI_2
      000000B8H   SFRSYM    DATA     BYTE      IP
      000000C0H.1 SFRSYM    DATA     BIT       SPI_MISO_3
      000000C0H   SFRSYM    DATA     BIT       SPI_MOSI_3
      00000098H   SFRSYM    DATA     BIT       RI
      000000B0H.2 SFRSYM    DATA     BIT       INT0
      000000D0H.7 SFRSYM    DATA     BIT       CY
      00000098H.1 SFRSYM    DATA     BIT       TI
      000000B0H.3 SFRSYM    DATA     BIT       INT1
      00000097H   SFRSYM    DATA     BYTE      CLK_DIV
      000000C3H   SFRSYM    DATA     BYTE      IAP_ADDRH
      00000090H   SFRSYM    DATA     BIT       RXD2
      000000C5H   SFRSYM    DATA     BYTE      ISP_CMD
      000000B8H.4 SFRSYM    DATA     BIT       PS
      00000090H.1 SFRSYM    DATA     BIT       TXD2
      00000081H   SFRSYM    DATA     BYTE      SP
      000000D9H   SFRSYM    DATA     BYTE      CMOD
      000000D8H   SFRSYM    DATA     BYTE      CCON
      000000C4H   SFRSYM    DATA     BYTE      IAP_ADDRL
      000000B8H.7 SFRSYM    DATA     BIT       PPCA
      000000D0H.2 SFRSYM    DATA     BIT       OV
      000000B0H.6 SFRSYM    DATA     BIT       WR
      000000A8H.6 SFRSYM    DATA     BIT       ELVD
      00000080H   SFRSYM    DATA     BIT       P00
      00000090H   SFRSYM    DATA     BIT       P10
      00000080H.1 SFRSYM    DATA     BIT       P01
      000000BCH   SFRSYM    DATA     BYTE      ADC_CONTR
      00000099H   SFRSYM    DATA     BYTE      SBUF
      00000087H   SFRSYM    DATA     BYTE      PCON
      000000A0H   SFRSYM    DATA     BIT       P20
      00000090H.1 SFRSYM    DATA     BIT       P11
      00000080H.2 SFRSYM    DATA     BIT       P02
      000000C3H   SFRSYM    DATA     BYTE      ISP_ADDRH
      000000B0H   SFRSYM    DATA     BIT       P30
      000000A0H.1 SFRSYM    DATA     BIT       P21
      00000090H.2 SFRSYM    DATA     BIT       P12
      00000080H.3 SFRSYM    DATA     BIT       P03
      000000C0H   SFRSYM    DATA     BIT       P40
      000000B0H.1 SFRSYM    DATA     BIT       P31
      000000A0H.2 SFRSYM    DATA     BIT       P22
      00000090H.3 SFRSYM    DATA     BIT       P13
      00000080H.4 SFRSYM    DATA     BIT       P04
      00000098H   SFRSYM    DATA     BYTE      SCON
      0000008FH   SFRSYM    DATA     BYTE      WAKE_CLKO
      000000C8H   SFRSYM    DATA     BIT       P50
      000000C0H.1 SFRSYM    DATA     BIT       P41
      000000B0H.2 SFRSYM    DATA     BIT       P32
      000000A0H.3 SFRSYM    DATA     BIT       P23
      00000090H.4 SFRSYM    DATA     BIT       P14
      00000080H.5 SFRSYM    DATA     BIT       P05
      00000089H   SFRSYM    DATA     BYTE      TMOD
      00000088H   SFRSYM    DATA     BYTE      TCON
      000000C8H.1 SFRSYM    DATA     BIT       P51
LX51 LINKER/LOCATER V4.66.41.0                                                        09/02/2018  12:30:49  PAGE 79


      000000C0H.2 SFRSYM    DATA     BIT       P42
      000000B0H.3 SFRSYM    DATA     BIT       P33
      000000A0H.4 SFRSYM    DATA     BIT       P24
      00000090H.5 SFRSYM    DATA     BIT       P15
      00000080H.6 SFRSYM    DATA     BIT       P06
      000000C4H   SFRSYM    DATA     BYTE      ISP_ADDRL
      000000B8H.6 SFRSYM    DATA     BIT       PLVD
      000000C8H.2 SFRSYM    DATA     BIT       P52
      000000C0H.3 SFRSYM    DATA     BIT       P43
      000000B0H.4 SFRSYM    DATA     BIT       P34
      000000A0H.5 SFRSYM    DATA     BIT       P25
      00000090H.6 SFRSYM    DATA     BIT       P16
      00000080H.7 SFRSYM    DATA     BIT       P07
      000000C8H.3 SFRSYM    DATA     BIT       P53
      000000C0H.4 SFRSYM    DATA     BIT       P44
      000000B0H.5 SFRSYM    DATA     BIT       P35
      000000A0H.6 SFRSYM    DATA     BIT       P26
      00000090H.7 SFRSYM    DATA     BIT       P17
      000000C8H.4 SFRSYM    DATA     BIT       P54
      000000C0H.5 SFRSYM    DATA     BIT       P45
      000000B0H.6 SFRSYM    DATA     BIT       P36
      000000A0H.7 SFRSYM    DATA     BIT       P27
      000000C8H.5 SFRSYM    DATA     BIT       P55
      000000C0H.6 SFRSYM    DATA     BIT       P46
      000000B0H.7 SFRSYM    DATA     BIT       P37
      000000C8H.6 SFRSYM    DATA     BIT       P56
      000000C0H.7 SFRSYM    DATA     BIT       P47
      000000C8H.7 SFRSYM    DATA     BIT       P57
      00000088H.1 SFRSYM    DATA     BIT       IE0
      000000A1H   SFRSYM    DATA     BYTE      BUS_SPEED
      00000088H.3 SFRSYM    DATA     BIT       IE1
      000000AFH   SFRSYM    DATA     BYTE      IE2
      000000F0H   SFRSYM    DATA     BYTE      B
      0000008EH   SFRSYM    DATA     BYTE      AUXR
      000000C7H   SFRSYM    DATA     BYTE      IAP_CONTR
      000000E0H   SFRSYM    DATA     BYTE      ACC
      000000A8H.1 SFRSYM    DATA     BIT       ET0
      000000A8H.3 SFRSYM    DATA     BIT       ET1
      00000088H.5 SFRSYM    DATA     BIT       TF0
      00000088H.7 SFRSYM    DATA     BIT       TF1
      000000B5H   SFRSYM    DATA     BYTE      IP2
      0000008CH   SFRSYM    DATA     BYTE      RL_TH0
      00000098H.2 SFRSYM    DATA     BIT       RB8
      0000008DH   SFRSYM    DATA     BYTE      RL_TH1
      0000008CH   SFRSYM    DATA     BYTE      TH0
      000000A8H   SFRSYM    DATA     BIT       EX0
      00000088H   SFRSYM    DATA     BIT       IT0
      000000D6H   SFRSYM    DATA     BYTE      RL_T2H
      0000008DH   SFRSYM    DATA     BYTE      TH1
      000000A8H.2 SFRSYM    DATA     BIT       EX1
      00000098H.3 SFRSYM    DATA     BIT       TB8
      00000088H.2 SFRSYM    DATA     BIT       IT1
      000000D4H   SFRSYM    DATA     BYTE      RL_T3H
      000000D6H   SFRSYM    DATA     BYTE      TH2
      000000D6H   SFRSYM    DATA     BYTE      T2H
      000000D0H   SFRSYM    DATA     BIT       P
      000000D2H   SFRSYM    DATA     BYTE      RL_T4H
      000000D4H   SFRSYM    DATA     BYTE      TH3
      000000D4H   SFRSYM    DATA     BYTE      T3H
      0000008AH   SFRSYM    DATA     BYTE      RL_TL0
      00000098H.7 SFRSYM    DATA     BIT       SM0
      000000D2H   SFRSYM    DATA     BYTE      TH4
      000000D2H   SFRSYM    DATA     BYTE      T4H
      0000008BH   SFRSYM    DATA     BYTE      RL_TL1
      0000008AH   SFRSYM    DATA     BYTE      TL0
LX51 LINKER/LOCATER V4.66.41.0                                                        09/02/2018  12:30:49  PAGE 80


      00000098H.6 SFRSYM    DATA     BIT       SM1
      000000D7H   SFRSYM    DATA     BYTE      RL_T2L
      0000008BH   SFRSYM    DATA     BYTE      TL1
      00000098H.5 SFRSYM    DATA     BIT       SM2
      000000D5H   SFRSYM    DATA     BYTE      RL_T3L
      000000D7H   SFRSYM    DATA     BYTE      TL2
      000000D7H   SFRSYM    DATA     BYTE      T2L
      000000D3H   SFRSYM    DATA     BYTE      RL_T4L
      000000D5H   SFRSYM    DATA     BYTE      TL3
      000000D5H   SFRSYM    DATA     BYTE      T3L
      000000B8H.1 SFRSYM    DATA     BIT       PT0
      000000D3H   SFRSYM    DATA     BYTE      TL4
      000000D3H   SFRSYM    DATA     BYTE      T4L
      000000B8H.3 SFRSYM    DATA     BIT       PT1
      000000D0H.3 SFRSYM    DATA     BIT       RS0
      000000C7H   SFRSYM    DATA     BYTE      ISP_CONTR
      00000088H.4 SFRSYM    DATA     BIT       TR0
      000000D0H.4 SFRSYM    DATA     BIT       RS1
      000000C2H   SFRSYM    DATA     BYTE      IAP_DATA
      00000088H.6 SFRSYM    DATA     BIT       TR1
      000000B8H   SFRSYM    DATA     BIT       PX0
      000000C1H   SFRSYM    DATA     BYTE      WDT_CONTR
      000000B8H.2 SFRSYM    DATA     BIT       PX1
      000000F2H   SFRSYM    DATA     BYTE      PCA_PWM0
      000000F3H   SFRSYM    DATA     BYTE      PCA_PWM1
      000000F4H   SFRSYM    DATA     BYTE      PCA_PWM2
      0000009DH   SFRSYM    DATA     BYTE      P1ASF
      00000083H   SFRSYM    DATA     BYTE      DPH
      000000D1H   SFRSYM    DATA     BYTE      T4T3M
      000000BEH   SFRSYM    DATA     BYTE      ADC_RESL
      00000082H   SFRSYM    DATA     BYTE      DPL
      000000CDH   SFRSYM    DATA     BYTE      SPSTAT
      000000B7H   SFRSYM    DATA     BYTE      IPH
      0000009BH   SFRSYM    DATA     BYTE      S2BUF
      00000097H   SFRSYM    DATA     BYTE      PCON2
      000000ADH   SFRSYM    DATA     BYTE      S3BUF
      00000098H.4 SFRSYM    DATA     BIT       REN
      00000085H   SFRSYM    DATA     BYTE      S4BUF
      0000009AH   SFRSYM    DATA     BYTE      S2CON
      000000ACH   SFRSYM    DATA     BYTE      S3CON
      000000C2H   SFRSYM    DATA     BYTE      ISP_DATA
      00000084H   SFRSYM    DATA     BYTE      S4CON
      000000B9H   SFRSYM    DATA     BYTE      SADEN
      000000B0H   SFRSYM    DATA     BIT       RXD
      000000A9H   SFRSYM    DATA     BYTE      SADDR
      000000B0H.1 SFRSYM    DATA     BIT       TXD
      000000F0H   SFRSYM    DATA     BIT       B0
      000000F0H.1 SFRSYM    DATA     BIT       B1
      000000C6H   SFRSYM    DATA     BYTE      IAP_TRIG
      000000A2H   SFRSYM    DATA     BYTE      AUXR1
      000000F0H.2 SFRSYM    DATA     BIT       B2
      00000090H.2 SFRSYM    DATA     BIT       SPI_SS
      0000008FH   SFRSYM    DATA     BYTE      AUXR2
      000000F0H.3 SFRSYM    DATA     BIT       B3
      000000F0H.4 SFRSYM    DATA     BIT       B4
      000000D0H.5 SFRSYM    DATA     BIT       F0
      000000F0H.5 SFRSYM    DATA     BIT       B5
      000000D0H.1 SFRSYM    DATA     BIT       F1
      0000008FH   SFRSYM    DATA     BYTE      INT_CLKO
      000000F0H.6 SFRSYM    DATA     BIT       B6
      000000E0H   SFRSYM    DATA     BIT       ACC0
      000000F0H.7 SFRSYM    DATA     BIT       B7
      000000E0H.1 SFRSYM    DATA     BIT       ACC1
      000000E0H.2 SFRSYM    DATA     BIT       ACC2
      000000E0H.3 SFRSYM    DATA     BIT       ACC3
LX51 LINKER/LOCATER V4.66.41.0                                                        09/02/2018  12:30:49  PAGE 81


      000000D0H   SFRSYM    DATA     BYTE      PSW
      000000E0H.4 SFRSYM    DATA     BIT       ACC4
      00000090H.5 SFRSYM    DATA     BIT       SPI_SCLK
      000000D8H   SFRSYM    DATA     BIT       CCF0
      000000E0H.5 SFRSYM    DATA     BIT       ACC5
      000000D8H.1 SFRSYM    DATA     BIT       CCF1
      000000E0H.6 SFRSYM    DATA     BIT       ACC6
      000000CFH   SFRSYM    DATA     BYTE      SPDAT
      00000094H   SFRSYM    DATA     BYTE      P0M0

      01003079H   BLOCK     CODE     ---       LVL=0
      01003079H   LINE      CODE     ---       #19
      01003079H   LINE      CODE     ---       #21
      0100308BH   LINE      CODE     ---       #22
      0100309DH   LINE      CODE     ---       #23
      010030AFH   LINE      CODE     ---       #25
      ---         BLOCKEND  ---      ---       LVL=0

      01002DEEH   BLOCK     CODE     ---       LVL=0
      01002DEEH   BLOCK     CODE     NEAR LAB  LVL=1
      00000086H   SYMBOL    IDATA    BYTE      statusTemp
      ---         BLOCKEND  ---      ---       LVL=1
      01002DEEH   LINE      CODE     ---       #29
      01002DEEH   LINE      CODE     ---       #31
      01002DF2H   LINE      CODE     ---       #34
      01002DF5H   LINE      CODE     ---       #35
      01002DF8H   LINE      CODE     ---       #37
      01002DFEH   LINE      CODE     ---       #39
      01002E05H   LINE      CODE     ---       #41
      01002E18H   LINE      CODE     ---       #42
      01002E1FH   LINE      CODE     ---       #43
      01002E1FH   LINE      CODE     ---       #45
      01002E21H   LINE      CODE     ---       #47
      01002E25H   LINE      CODE     ---       #48
      01002E35H   LINE      CODE     ---       #49
      01002E38H   LINE      CODE     ---       #50
      01002E38H   LINE      CODE     ---       #51
      ---         BLOCKEND  ---      ---       LVL=0

      01002800H   BLOCK     CODE     ---       LVL=0
      00000025H   SYMBOL    DATA     ---       dats
      01002800H   BLOCK     CODE     NEAR LAB  LVL=1
      00000027H   SYMBOL    DATA     BYTE      statusTemp
      ---         BLOCKEND  ---      ---       LVL=1
      01002800H   LINE      CODE     ---       #54
      01002800H   LINE      CODE     ---       #56
      01002803H   LINE      CODE     ---       #58
      0100280CH   LINE      CODE     ---       #60
      0100280CH   LINE      CODE     ---       #62
      01002818H   LINE      CODE     ---       #63
      01002824H   LINE      CODE     ---       #64
      01002830H   LINE      CODE     ---       #66
      01002832H   LINE      CODE     ---       #68
      01002832H   LINE      CODE     ---       #70
      01002844H   LINE      CODE     ---       #71
      01002856H   LINE      CODE     ---       #72
      01002868H   LINE      CODE     ---       #74
      01002868H   LINE      CODE     ---       #76
      01002868H   LINE      CODE     ---       #78
      0100286BH   LINE      CODE     ---       #80
      01002878H   LINE      CODE     ---       #82
      0100287FH   LINE      CODE     ---       #84
      01002881H   LINE      CODE     ---       #85
      01002894H   LINE      CODE     ---       #86
      01002894H   LINE      CODE     ---       #87
LX51 LINKER/LOCATER V4.66.41.0                                                        09/02/2018  12:30:49  PAGE 82


      ---         BLOCKEND  ---      ---       LVL=0

      010030B2H   BLOCK     CODE     ---       LVL=0
      010030B2H   LINE      CODE     ---       #90
      010030B2H   LINE      CODE     ---       #92
      010030BAH   LINE      CODE     ---       #94
      010030D0H   LINE      CODE     ---       #96
      010030D6H   LINE      CODE     ---       #97
      010030DBH   LINE      CODE     ---       #98
      010030DBH   LINE      CODE     ---       #99
      ---         BLOCKEND  ---      ---       LVL=0

      ---         MODULE    ---      ---       TIMERACT
      00000085H   PUBLIC    IDATA    BYTE      delayPeriod_onoff
      00000084H   PUBLIC    IDATA    BYTE      delayUp_act
      00000083H   PUBLIC    IDATA    BYTE      ifDelay_sw_running_FLAG
      00000082H   PUBLIC    IDATA    BYTE      swTim_onShoot_FLAG
      00000080H   PUBLIC    IDATA    WORD      sysTimeKeep_counter
      0000007EH   PUBLIC    IDATA    WORD      delayCnt_closeLoop
      020004B9H   PUBLIC    XDATA    CHAR      sysTimeZone_M
      020004B8H   PUBLIC    XDATA    CHAR      sysTimeZone_H
      020004B7H   PUBLIC    XDATA    BYTE      sysTimeReales_counter
      0000007CH   PUBLIC    IDATA    WORD      delayCnt_onoff
      00000024H.3 PUBLIC    BIT      BIT       ifTim_sw_running_FLAG
      020004B0H   PUBLIC    XDATA    ---       systemTime_current
      0000007BH   PUBLIC    IDATA    BYTE      delayPeriod_closeLoop
      00000024H.2 PUBLIC    BIT      BIT       ifNightMode_sw_running_FLAG
      01000C8FH   PUBLIC    CODE     ---       thread_Timing
      00000026H   PUBLIC    DATA     BYTE      ?time_Logout?BYTE
      01002BFFH   PUBLIC    CODE     ---       time_Logout
      010030DCH   PUBLIC    CODE     ---       _weekend_judge
      0100241DH   PUBLIC    CODE     ---       _datsTimNight_read_eeprom
      0100232FH   PUBLIC    CODE     ---       _datsTiming_read_eeprom
      0100312EH   PUBLIC    CODE     ---       timeZone_Reales
      000000D8H.2 SFRSYM    DATA     BIT       CCF2
      000000E0H.7 SFRSYM    DATA     BIT       ACC7
      00000093H   SFRSYM    DATA     BYTE      P0M1
      00000092H   SFRSYM    DATA     BYTE      P1M0
      00000096H   SFRSYM    DATA     BYTE      P2M0
      00000091H   SFRSYM    DATA     BYTE      P1M1
      00000080H   SFRSYM    DATA     BYTE      P0
      000000B2H   SFRSYM    DATA     BYTE      P3M0
      00000095H   SFRSYM    DATA     BYTE      P2M1
      00000090H   SFRSYM    DATA     BYTE      P1
      000000B4H   SFRSYM    DATA     BYTE      P4M0
      000000B1H   SFRSYM    DATA     BYTE      P3M1
      000000A0H   SFRSYM    DATA     BYTE      P2
      000000CAH   SFRSYM    DATA     BYTE      P5M0
      000000B3H   SFRSYM    DATA     BYTE      P4M1
      000000B0H   SFRSYM    DATA     BYTE      P3
      000000ABH   SFRSYM    DATA     BYTE      WKTCH
      000000B0H.4 SFRSYM    DATA     BIT       T0
      000000D0H.6 SFRSYM    DATA     BIT       AC
      000000CCH   SFRSYM    DATA     BYTE      P6M0
      000000C9H   SFRSYM    DATA     BYTE      P5M1
      000000C0H   SFRSYM    DATA     BYTE      P4
      000000B0H.5 SFRSYM    DATA     BIT       CLKOUT0
      000000B0H.5 SFRSYM    DATA     BIT       T1
      000000E2H   SFRSYM    DATA     BYTE      P7M0
      000000CBH   SFRSYM    DATA     BYTE      P6M1
      000000C8H   SFRSYM    DATA     BYTE      P5
      000000C6H   SFRSYM    DATA     BYTE      ISP_TRIG
      000000A8H.7 SFRSYM    DATA     BIT       EA
      000000B0H.4 SFRSYM    DATA     BIT       CLKOUT1
      000000A0H.4 SFRSYM    DATA     BIT       SPI_SS_2
LX51 LINKER/LOCATER V4.66.41.0                                                        09/02/2018  12:30:49  PAGE 83


      000000E8H   SFRSYM    DATA     BYTE      P6
      000000E1H   SFRSYM    DATA     BYTE      P7M1
      000000C8H.4 SFRSYM    DATA     BIT       SPI_SS_3
      00000090H.4 SFRSYM    DATA     BIT       SPI_MISO
      00000090H.3 SFRSYM    DATA     BIT       SPI_MOSI
      00000090H.1 SFRSYM    DATA     BIT       CCP0
      000000F8H   SFRSYM    DATA     BYTE      P7
      000000AAH   SFRSYM    DATA     BYTE      WKTCL
      00000090H   SFRSYM    DATA     BIT       CCP1
      000000CEH   SFRSYM    DATA     BYTE      SPCTL
      000000D8H.7 SFRSYM    DATA     BIT       CF
      000000B0H.7 SFRSYM    DATA     BIT       CCP2
      000000F9H   SFRSYM    DATA     BYTE      CH
      000000A2H   SFRSYM    DATA     BYTE      P_SW1
      000000BAH   SFRSYM    DATA     BYTE      P_SW2
      000000A8H.5 SFRSYM    DATA     BIT       EADC
      000000A0H.1 SFRSYM    DATA     BIT       SPI_SCLK_2
      000000A8H   SFRSYM    DATA     BYTE      IE
      000000C0H.3 SFRSYM    DATA     BIT       SPI_SCLK_3
      000000E9H   SFRSYM    DATA     BYTE      CL
      000000C5H   SFRSYM    DATA     BYTE      IAP_CMD
      000000FAH   SFRSYM    DATA     BYTE      CCAP0H
      000000FBH   SFRSYM    DATA     BYTE      CCAP1H
      000000FCH   SFRSYM    DATA     BYTE      CCAP2H
      000000BDH   SFRSYM    DATA     BYTE      ADC_RES
      000000B6H   SFRSYM    DATA     BYTE      IPH2
      000000D8H.6 SFRSYM    DATA     BIT       CR
      000000EAH   SFRSYM    DATA     BYTE      CCAP0L
      000000B0H.7 SFRSYM    DATA     BIT       RD
      000000EBH   SFRSYM    DATA     BYTE      CCAP1L
      000000DAH   SFRSYM    DATA     BYTE      CCAPM0
      000000ECH   SFRSYM    DATA     BYTE      CCAP2L
      000000DBH   SFRSYM    DATA     BYTE      CCAPM1
      000000A8H.4 SFRSYM    DATA     BIT       ES
      000000DCH   SFRSYM    DATA     BYTE      CCAPM2
      000000B8H.5 SFRSYM    DATA     BIT       PADC
      000000A0H.2 SFRSYM    DATA     BIT       SPI_MISO_2
      000000A0H.3 SFRSYM    DATA     BIT       SPI_MOSI_2
      000000B8H   SFRSYM    DATA     BYTE      IP
      000000C0H.1 SFRSYM    DATA     BIT       SPI_MISO_3
      000000C0H   SFRSYM    DATA     BIT       SPI_MOSI_3
      00000098H   SFRSYM    DATA     BIT       RI
      000000B0H.2 SFRSYM    DATA     BIT       INT0
      000000D0H.7 SFRSYM    DATA     BIT       CY
      00000098H.1 SFRSYM    DATA     BIT       TI
      000000B0H.3 SFRSYM    DATA     BIT       INT1
      00000097H   SFRSYM    DATA     BYTE      CLK_DIV
      000000C3H   SFRSYM    DATA     BYTE      IAP_ADDRH
      00000090H   SFRSYM    DATA     BIT       RXD2
      000000C5H   SFRSYM    DATA     BYTE      ISP_CMD
      000000B8H.4 SFRSYM    DATA     BIT       PS
      00000090H.1 SFRSYM    DATA     BIT       TXD2
      00000081H   SFRSYM    DATA     BYTE      SP
      000000D9H   SFRSYM    DATA     BYTE      CMOD
      000000D8H   SFRSYM    DATA     BYTE      CCON
      000000C4H   SFRSYM    DATA     BYTE      IAP_ADDRL
      000000B8H.7 SFRSYM    DATA     BIT       PPCA
      000000D0H.2 SFRSYM    DATA     BIT       OV
      000000B0H.6 SFRSYM    DATA     BIT       WR
      000000A8H.6 SFRSYM    DATA     BIT       ELVD
      00000080H   SFRSYM    DATA     BIT       P00
      00000090H   SFRSYM    DATA     BIT       P10
      00000080H.1 SFRSYM    DATA     BIT       P01
      000000BCH   SFRSYM    DATA     BYTE      ADC_CONTR
      00000099H   SFRSYM    DATA     BYTE      SBUF
LX51 LINKER/LOCATER V4.66.41.0                                                        09/02/2018  12:30:49  PAGE 84


      00000087H   SFRSYM    DATA     BYTE      PCON
      000000A0H   SFRSYM    DATA     BIT       P20
      00000090H.1 SFRSYM    DATA     BIT       P11
      00000080H.2 SFRSYM    DATA     BIT       P02
      000000C3H   SFRSYM    DATA     BYTE      ISP_ADDRH
      000000B0H   SFRSYM    DATA     BIT       P30
      000000A0H.1 SFRSYM    DATA     BIT       P21
      00000090H.2 SFRSYM    DATA     BIT       P12
      00000080H.3 SFRSYM    DATA     BIT       P03
      000000C0H   SFRSYM    DATA     BIT       P40
      000000B0H.1 SFRSYM    DATA     BIT       P31
      000000A0H.2 SFRSYM    DATA     BIT       P22
      00000090H.3 SFRSYM    DATA     BIT       P13
      00000080H.4 SFRSYM    DATA     BIT       P04
      00000098H   SFRSYM    DATA     BYTE      SCON
      0000008FH   SFRSYM    DATA     BYTE      WAKE_CLKO
      000000C8H   SFRSYM    DATA     BIT       P50
      000000C0H.1 SFRSYM    DATA     BIT       P41
      000000B0H.2 SFRSYM    DATA     BIT       P32
      000000A0H.3 SFRSYM    DATA     BIT       P23
      00000090H.4 SFRSYM    DATA     BIT       P14
      00000080H.5 SFRSYM    DATA     BIT       P05
      00000089H   SFRSYM    DATA     BYTE      TMOD
      00000088H   SFRSYM    DATA     BYTE      TCON
      000000C8H.1 SFRSYM    DATA     BIT       P51
      000000C0H.2 SFRSYM    DATA     BIT       P42
      000000B0H.3 SFRSYM    DATA     BIT       P33
      000000A0H.4 SFRSYM    DATA     BIT       P24
      00000090H.5 SFRSYM    DATA     BIT       P15
      00000080H.6 SFRSYM    DATA     BIT       P06
      000000C4H   SFRSYM    DATA     BYTE      ISP_ADDRL
      000000B8H.6 SFRSYM    DATA     BIT       PLVD
      000000C8H.2 SFRSYM    DATA     BIT       P52
      000000C0H.3 SFRSYM    DATA     BIT       P43
      000000B0H.4 SFRSYM    DATA     BIT       P34
      000000A0H.5 SFRSYM    DATA     BIT       P25
      00000090H.6 SFRSYM    DATA     BIT       P16
      00000080H.7 SFRSYM    DATA     BIT       P07
      000000C8H.3 SFRSYM    DATA     BIT       P53
      000000C0H.4 SFRSYM    DATA     BIT       P44
      000000B0H.5 SFRSYM    DATA     BIT       P35
      000000A0H.6 SFRSYM    DATA     BIT       P26
      00000090H.7 SFRSYM    DATA     BIT       P17
      000000C8H.4 SFRSYM    DATA     BIT       P54
      000000C0H.5 SFRSYM    DATA     BIT       P45
      000000B0H.6 SFRSYM    DATA     BIT       P36
      000000A0H.7 SFRSYM    DATA     BIT       P27
      000000C8H.5 SFRSYM    DATA     BIT       P55
      000000C0H.6 SFRSYM    DATA     BIT       P46
      000000B0H.7 SFRSYM    DATA     BIT       P37
      000000C8H.6 SFRSYM    DATA     BIT       P56
      000000C0H.7 SFRSYM    DATA     BIT       P47
      000000C8H.7 SFRSYM    DATA     BIT       P57
      00000088H.1 SFRSYM    DATA     BIT       IE0
      000000A1H   SFRSYM    DATA     BYTE      BUS_SPEED
      00000088H.3 SFRSYM    DATA     BIT       IE1
      000000AFH   SFRSYM    DATA     BYTE      IE2
      000000F0H   SFRSYM    DATA     BYTE      B
      0000008EH   SFRSYM    DATA     BYTE      AUXR
      000000C7H   SFRSYM    DATA     BYTE      IAP_CONTR
      000000E0H   SFRSYM    DATA     BYTE      ACC
      000000A8H.1 SFRSYM    DATA     BIT       ET0
      000000A8H.3 SFRSYM    DATA     BIT       ET1
      00000088H.5 SFRSYM    DATA     BIT       TF0
      00000088H.7 SFRSYM    DATA     BIT       TF1
LX51 LINKER/LOCATER V4.66.41.0                                                        09/02/2018  12:30:49  PAGE 85


      000000B5H   SFRSYM    DATA     BYTE      IP2
      0000008CH   SFRSYM    DATA     BYTE      RL_TH0
      00000098H.2 SFRSYM    DATA     BIT       RB8
      0000008DH   SFRSYM    DATA     BYTE      RL_TH1
      0000008CH   SFRSYM    DATA     BYTE      TH0
      000000A8H   SFRSYM    DATA     BIT       EX0
      00000088H   SFRSYM    DATA     BIT       IT0
      000000D6H   SFRSYM    DATA     BYTE      RL_T2H
      0000008DH   SFRSYM    DATA     BYTE      TH1
      000000A8H.2 SFRSYM    DATA     BIT       EX1
      00000098H.3 SFRSYM    DATA     BIT       TB8
      00000088H.2 SFRSYM    DATA     BIT       IT1
      000000D4H   SFRSYM    DATA     BYTE      RL_T3H
      000000D6H   SFRSYM    DATA     BYTE      TH2
      000000D6H   SFRSYM    DATA     BYTE      T2H
      000000D0H   SFRSYM    DATA     BIT       P
      000000D2H   SFRSYM    DATA     BYTE      RL_T4H
      000000D4H   SFRSYM    DATA     BYTE      TH3
      000000D4H   SFRSYM    DATA     BYTE      T3H
      0000008AH   SFRSYM    DATA     BYTE      RL_TL0
      00000098H.7 SFRSYM    DATA     BIT       SM0
      000000D2H   SFRSYM    DATA     BYTE      TH4
      000000D2H   SFRSYM    DATA     BYTE      T4H
      0000008BH   SFRSYM    DATA     BYTE      RL_TL1
      0000008AH   SFRSYM    DATA     BYTE      TL0
      00000098H.6 SFRSYM    DATA     BIT       SM1
      000000D7H   SFRSYM    DATA     BYTE      RL_T2L
      0000008BH   SFRSYM    DATA     BYTE      TL1
      00000098H.5 SFRSYM    DATA     BIT       SM2
      000000D5H   SFRSYM    DATA     BYTE      RL_T3L
      000000D7H   SFRSYM    DATA     BYTE      TL2
      000000D7H   SFRSYM    DATA     BYTE      T2L
      000000D3H   SFRSYM    DATA     BYTE      RL_T4L
      000000D5H   SFRSYM    DATA     BYTE      TL3
      000000D5H   SFRSYM    DATA     BYTE      T3L
      000000B8H.1 SFRSYM    DATA     BIT       PT0
      000000D3H   SFRSYM    DATA     BYTE      TL4
      000000D3H   SFRSYM    DATA     BYTE      T4L
      000000B8H.3 SFRSYM    DATA     BIT       PT1
      000000D0H.3 SFRSYM    DATA     BIT       RS0
      000000C7H   SFRSYM    DATA     BYTE      ISP_CONTR
      00000088H.4 SFRSYM    DATA     BIT       TR0
      000000D0H.4 SFRSYM    DATA     BIT       RS1
      000000C2H   SFRSYM    DATA     BYTE      IAP_DATA
      00000088H.6 SFRSYM    DATA     BIT       TR1
      000000B8H   SFRSYM    DATA     BIT       PX0
      000000C1H   SFRSYM    DATA     BYTE      WDT_CONTR
      000000B8H.2 SFRSYM    DATA     BIT       PX1
      000000F2H   SFRSYM    DATA     BYTE      PCA_PWM0
      000000F3H   SFRSYM    DATA     BYTE      PCA_PWM1
      000000F4H   SFRSYM    DATA     BYTE      PCA_PWM2
      0000009DH   SFRSYM    DATA     BYTE      P1ASF
      00000083H   SFRSYM    DATA     BYTE      DPH
      000000D1H   SFRSYM    DATA     BYTE      T4T3M
      000000BEH   SFRSYM    DATA     BYTE      ADC_RESL
      00000082H   SFRSYM    DATA     BYTE      DPL
      000000CDH   SFRSYM    DATA     BYTE      SPSTAT
      000000B7H   SFRSYM    DATA     BYTE      IPH
      0000009BH   SFRSYM    DATA     BYTE      S2BUF
      00000097H   SFRSYM    DATA     BYTE      PCON2
      000000ADH   SFRSYM    DATA     BYTE      S3BUF
      00000098H.4 SFRSYM    DATA     BIT       REN
      00000085H   SFRSYM    DATA     BYTE      S4BUF
      0000009AH   SFRSYM    DATA     BYTE      S2CON
      000000ACH   SFRSYM    DATA     BYTE      S3CON
LX51 LINKER/LOCATER V4.66.41.0                                                        09/02/2018  12:30:49  PAGE 86


      000000C2H   SFRSYM    DATA     BYTE      ISP_DATA
      00000084H   SFRSYM    DATA     BYTE      S4CON
      000000B9H   SFRSYM    DATA     BYTE      SADEN
      000000B0H   SFRSYM    DATA     BIT       RXD
      000000A9H   SFRSYM    DATA     BYTE      SADDR
      000000B0H.1 SFRSYM    DATA     BIT       TXD
      000000F0H   SFRSYM    DATA     BIT       B0
      000000F0H.1 SFRSYM    DATA     BIT       B1
      000000C6H   SFRSYM    DATA     BYTE      IAP_TRIG
      000000A2H   SFRSYM    DATA     BYTE      AUXR1
      000000F0H.2 SFRSYM    DATA     BIT       B2
      00000090H.2 SFRSYM    DATA     BIT       SPI_SS
      0000008FH   SFRSYM    DATA     BYTE      AUXR2
      000000F0H.3 SFRSYM    DATA     BIT       B3
      000000F0H.4 SFRSYM    DATA     BIT       B4
      000000D0H.5 SFRSYM    DATA     BIT       F0
      000000F0H.5 SFRSYM    DATA     BIT       B5
      000000D0H.1 SFRSYM    DATA     BIT       F1
      0000008FH   SFRSYM    DATA     BYTE      INT_CLKO
      000000F0H.6 SFRSYM    DATA     BIT       B6
      000000E0H   SFRSYM    DATA     BIT       ACC0
      000000F0H.7 SFRSYM    DATA     BIT       B7
      000000E0H.1 SFRSYM    DATA     BIT       ACC1
      000000E0H.2 SFRSYM    DATA     BIT       ACC2
      000000E0H.3 SFRSYM    DATA     BIT       ACC3
      000000D0H   SFRSYM    DATA     BYTE      PSW
      000000E0H.4 SFRSYM    DATA     BIT       ACC4
      00000090H.5 SFRSYM    DATA     BIT       SPI_SCLK
      000000D8H   SFRSYM    DATA     BIT       CCF0
      000000E0H.5 SFRSYM    DATA     BIT       ACC5
      000000D8H.1 SFRSYM    DATA     BIT       CCF1
      000000E0H.6 SFRSYM    DATA     BIT       ACC6
      000000CFH   SFRSYM    DATA     BYTE      SPDAT
      00000094H   SFRSYM    DATA     BYTE      P0M0
      0100471DH   SYMBOL    CODE     ---       _?ix1000
      01004729H   SYMBOL    CODE     ---       _?ix1001
      0100472FH   SYMBOL    CODE     ---       _?ix1002
      0100477FH   SYMBOL    CODE     ---       _?ix1003
      0100478BH   SYMBOL    CODE     ---       _?ix1004

      0100312EH   BLOCK     CODE     ---       LVL=0
      0100312EH   LINE      CODE     ---       #33
      0100312EH   LINE      CODE     ---       #35
      01003141H   LINE      CODE     ---       #36
      ---         BLOCKEND  ---      ---       LVL=0

      0100232FH   BLOCK     CODE     ---       LVL=0
      00000026H   SYMBOL    DATA     ---       timDats_tab
      01002335H   BLOCK     CODE     NEAR LAB  LVL=1
      00000029H   SYMBOL    DATA     ---       dats_Temp
      00000035H   SYMBOL    DATA     BYTE      loop
      ---         BLOCKEND  ---      ---       LVL=1
      0100232FH   LINE      CODE     ---       #39
      01002335H   LINE      CODE     ---       #41
      01002348H   LINE      CODE     ---       #42
      0100234BH   LINE      CODE     ---       #44
      0100235BH   LINE      CODE     ---       #46
      0100235EH   LINE      CODE     ---       #48
      01002385H   LINE      CODE     ---       #49
      010023A5H   LINE      CODE     ---       #50
      010023D7H   LINE      CODE     ---       #51
      010023F0H   LINE      CODE     ---       #52
      01002412H   LINE      CODE     ---       #53
      0100241CH   LINE      CODE     ---       #54
      ---         BLOCKEND  ---      ---       LVL=0
LX51 LINKER/LOCATER V4.66.41.0                                                        09/02/2018  12:30:49  PAGE 87



      0100241DH   BLOCK     CODE     ---       LVL=0
      00000026H   SYMBOL    DATA     ---       timDats_tab
      01002423H   BLOCK     CODE     NEAR LAB  LVL=1
      00000029H   SYMBOL    DATA     ---       dats_Temp
      0000002FH   SYMBOL    DATA     BYTE      loop
      ---         BLOCKEND  ---      ---       LVL=1
      0100241DH   LINE      CODE     ---       #56
      01002423H   LINE      CODE     ---       #58
      01002436H   LINE      CODE     ---       #59
      01002439H   LINE      CODE     ---       #61
      01002449H   LINE      CODE     ---       #63
      0100244CH   LINE      CODE     ---       #65
      01002473H   LINE      CODE     ---       #66
      01002493H   LINE      CODE     ---       #67
      010024C5H   LINE      CODE     ---       #68
      010024DEH   LINE      CODE     ---       #69
      01002500H   LINE      CODE     ---       #70
      0100250AH   LINE      CODE     ---       #71
      ---         BLOCKEND  ---      ---       LVL=0

      010030DCH   BLOCK     CODE     ---       LVL=0
      00000004H   SYMBOL    DATA     BYTE      weekNum
      00000001H   SYMBOL    DATA     BYTE      HoldNum
      010030E0H   BLOCK     CODE     NEAR LAB  LVL=1
      00000005H   SYMBOL    DATA     BYTE      loop
      ---         BLOCKEND  ---      ---       LVL=1
      010030DCH   LINE      CODE     ---       #74
      010030E0H   LINE      CODE     ---       #78
      010030E1H   LINE      CODE     ---       #79
      010030E3H   LINE      CODE     ---       #81
      010030FAH   LINE      CODE     ---       #83
      01003100H   LINE      CODE     ---       #84
      01003100H   LINE      CODE     ---       #85
      01003104H   LINE      CODE     ---       #87
      01003105H   LINE      CODE     ---       #88
      ---         BLOCKEND  ---      ---       LVL=0

      01002BFFH   BLOCK     CODE     ---       LVL=0
      00000026H   SYMBOL    DATA     ---       timeDats
      01002BFFH   BLOCK     CODE     NEAR LAB  LVL=1
      02000012H   SYMBOL    XDATA    ---       Log
      ---         BLOCKEND  ---      ---       LVL=1
      01002BFFH   LINE      CODE     ---       #91
      01002BFFH   LINE      CODE     ---       #93
      01002C12H   LINE      CODE     ---       #115
      01002C3CH   LINE      CODE     ---       #118
      01002C45H   LINE      CODE     ---       #124
      01002C69H   LINE      CODE     ---       #127
      ---         BLOCKEND  ---      ---       LVL=0

      01000C8FH   BLOCK     CODE     ---       LVL=0
      01000C8FH   BLOCK     CODE     NEAR LAB  LVL=1
      00000025H   SYMBOL    DATA     BYTE      loop
      02000000H   SYMBOL    XDATA    ---       timDatsTemp_CalibrateTab
      0200000CH   SYMBOL    XDATA    ---       nightDatsTemp_CalibrateTab
      01000CB7H   BLOCK     CODE     NEAR LAB  LVL=2
      01004791H   SYMBOL    CODE     WORD      log_period
      020004AEH   SYMBOL    XDATA    WORD      log_Count
      00000024H.1 SYMBOL    BIT      BIT       read_FLG
      ---         BLOCKEND  ---      ---       LVL=2
      01000CF7H   BLOCK     CODE     NEAR LAB  LVL=2
      00000024H.1 SYMBOL    BIT      BIT       read_FLG
      ---         BLOCKEND  ---      ---       LVL=2
      01000EDDH   BLOCK     CODE     NEAR LAB  LVL=2
LX51 LINKER/LOCATER V4.66.41.0                                                        09/02/2018  12:30:49  PAGE 88


      01004793H   SYMBOL    CODE     BYTE      dats_Temp
      01004794H   SYMBOL    CODE     BYTE      dats_Temp
      ---         BLOCKEND  ---      ---       LVL=2
      01000F8FH   BLOCK     CODE     NEAR LAB  LVL=2
      01004794H   SYMBOL    CODE     BYTE      dats_Temp
      ---         BLOCKEND  ---      ---       LVL=2
      ---         BLOCKEND  ---      ---       LVL=1
      01000C8FH   LINE      CODE     ---       #131
      01000C8FH   LINE      CODE     ---       #133
      01000C92H   LINE      CODE     ---       #135
      01000CA4H   LINE      CODE     ---       #136
      01000CB7H   LINE      CODE     ---       #144
      01000CDCH   LINE      CODE     ---       #145
      01000CDCH   LINE      CODE     ---       #147
      01000CE3H   LINE      CODE     ---       #149
      01000CF7H   LINE      CODE     ---       #150
      01000CF7H   LINE      CODE     ---       #151
      01000CF7H   LINE      CODE     ---       #155
      01000CF7H   LINE      CODE     ---       #159
      01000CFAH   LINE      CODE     ---       #161
      01000CFCH   LINE      CODE     ---       #163
      01000D0FH   LINE      CODE     ---       #164
      01000D22H   LINE      CODE     ---       #165
      01000D22H   LINE      CODE     ---       #166
      01000D22H   LINE      CODE     ---       #169
      01000D22H   LINE      CODE     ---       #171
      01000D38H   LINE      CODE     ---       #172
      01000D46H   LINE      CODE     ---       #174
      01000D52H   LINE      CODE     ---       #176
      01000D52H   LINE      CODE     ---       #178
      01000D58H   LINE      CODE     ---       #179
      01000D6BH   LINE      CODE     ---       #180
      01000D7FH   LINE      CODE     ---       #181
      01000D7FH   LINE      CODE     ---       #182
      01000D7FH   LINE      CODE     ---       #185
      01000D88H   LINE      CODE     ---       #187
      01000D93H   LINE      CODE     ---       #189
      01000D95H   LINE      CODE     ---       #191
      01000D97H   LINE      CODE     ---       #193
      01000D9BH   LINE      CODE     ---       #196
      01000DFBH   LINE      CODE     ---       #198
      01000DFDH   LINE      CODE     ---       #200
      01000DFFH   LINE      CODE     ---       #202
      01000E01H   LINE      CODE     ---       #203
      01000E01H   LINE      CODE     ---       #205
      01000E03H   LINE      CODE     ---       #207
      01000E05H   LINE      CODE     ---       #208
      01000E05H   LINE      CODE     ---       #209
      01000E05H   LINE      CODE     ---       #212
      01000E0EH   LINE      CODE     ---       #214
      01000E2AH   LINE      CODE     ---       #218
      01000E2AH   LINE      CODE     ---       #220
      01000E2CH   LINE      CODE     ---       #222
      01000E2DH   LINE      CODE     ---       #224
      01000E2FH   LINE      CODE     ---       #226
      01000E32H   LINE      CODE     ---       #228
      01000E51H   LINE      CODE     ---       #230
      01000E6CH   LINE      CODE     ---       #255
      01000EC3H   LINE      CODE     ---       #260
      01000EDDH   LINE      CODE     ---       #264
      01000EEFH   LINE      CODE     ---       #265
      01000F0BH   LINE      CODE     ---       #266
      01000F0BH   LINE      CODE     ---       #269
      01000F11H   LINE      CODE     ---       #270
      01000F27H   LINE      CODE     ---       #272
LX51 LINKER/LOCATER V4.66.41.0                                                        09/02/2018  12:30:49  PAGE 89


      01000F29H   LINE      CODE     ---       #274
      01000F75H   LINE      CODE     ---       #277
      01000F8FH   LINE      CODE     ---       #281
      01000FA1H   LINE      CODE     ---       #282
      01000FBDH   LINE      CODE     ---       #283
      01000FBDH   LINE      CODE     ---       #284
      01000FBDH   LINE      CODE     ---       #285
      01000FBDH   LINE      CODE     ---       #286
      01000FBDH   LINE      CODE     ---       #287
      01000FC8H   LINE      CODE     ---       #288
      01000FC8H   LINE      CODE     ---       #289
      ---         BLOCKEND  ---      ---       LVL=0

      ---         MODULE    ---      ---       USART
      020003FFH   PUBLIC    XDATA    ---       TX1_Buffer
      0200037FH   PUBLIC    XDATA    ---       RX1_Buffer
      00000014H   PUBLIC    DATA     ---       COM1
      01003154H   PUBLIC    CODE     ---       _uart1_datsSend
      01000FC9H   PUBLIC    CODE     ---       _PrintString1_logOut
      01003299H   PUBLIC    CODE     ---       _PrintString1
      0100317AH   PUBLIC    CODE     ---       _TX1_write2buff
      000000D8H.2 SFRSYM    DATA     BIT       CCF2
      000000E0H.7 SFRSYM    DATA     BIT       ACC7
      00000093H   SFRSYM    DATA     BYTE      P0M1
      00000092H   SFRSYM    DATA     BYTE      P1M0
      00000096H   SFRSYM    DATA     BYTE      P2M0
      00000091H   SFRSYM    DATA     BYTE      P1M1
      00000080H   SFRSYM    DATA     BYTE      P0
      000000B2H   SFRSYM    DATA     BYTE      P3M0
      00000095H   SFRSYM    DATA     BYTE      P2M1
      00000090H   SFRSYM    DATA     BYTE      P1
      000000B4H   SFRSYM    DATA     BYTE      P4M0
      000000B1H   SFRSYM    DATA     BYTE      P3M1
      000000A0H   SFRSYM    DATA     BYTE      P2
      000000CAH   SFRSYM    DATA     BYTE      P5M0
      000000B3H   SFRSYM    DATA     BYTE      P4M1
      000000B0H   SFRSYM    DATA     BYTE      P3
      000000ABH   SFRSYM    DATA     BYTE      WKTCH
      000000B0H.4 SFRSYM    DATA     BIT       T0
      000000D0H.6 SFRSYM    DATA     BIT       AC
      000000CCH   SFRSYM    DATA     BYTE      P6M0
      000000C9H   SFRSYM    DATA     BYTE      P5M1
      000000C0H   SFRSYM    DATA     BYTE      P4
      000000B0H.5 SFRSYM    DATA     BIT       CLKOUT0
      000000B0H.5 SFRSYM    DATA     BIT       T1
      000000E2H   SFRSYM    DATA     BYTE      P7M0
      000000CBH   SFRSYM    DATA     BYTE      P6M1
      000000C8H   SFRSYM    DATA     BYTE      P5
      000000C6H   SFRSYM    DATA     BYTE      ISP_TRIG
      000000A8H.7 SFRSYM    DATA     BIT       EA
      000000B0H.4 SFRSYM    DATA     BIT       CLKOUT1
      000000A0H.4 SFRSYM    DATA     BIT       SPI_SS_2
      000000E8H   SFRSYM    DATA     BYTE      P6
      000000E1H   SFRSYM    DATA     BYTE      P7M1
      000000C8H.4 SFRSYM    DATA     BIT       SPI_SS_3
      00000090H.4 SFRSYM    DATA     BIT       SPI_MISO
      00000090H.3 SFRSYM    DATA     BIT       SPI_MOSI
      00000090H.1 SFRSYM    DATA     BIT       CCP0
      000000F8H   SFRSYM    DATA     BYTE      P7
      000000AAH   SFRSYM    DATA     BYTE      WKTCL
      00000090H   SFRSYM    DATA     BIT       CCP1
      000000CEH   SFRSYM    DATA     BYTE      SPCTL
      000000D8H.7 SFRSYM    DATA     BIT       CF
      000000B0H.7 SFRSYM    DATA     BIT       CCP2
      000000F9H   SFRSYM    DATA     BYTE      CH
LX51 LINKER/LOCATER V4.66.41.0                                                        09/02/2018  12:30:49  PAGE 90


      000000A2H   SFRSYM    DATA     BYTE      P_SW1
      000000BAH   SFRSYM    DATA     BYTE      P_SW2
      000000A8H.5 SFRSYM    DATA     BIT       EADC
      000000A0H.1 SFRSYM    DATA     BIT       SPI_SCLK_2
      000000A8H   SFRSYM    DATA     BYTE      IE
      000000C0H.3 SFRSYM    DATA     BIT       SPI_SCLK_3
      000000E9H   SFRSYM    DATA     BYTE      CL
      000000C5H   SFRSYM    DATA     BYTE      IAP_CMD
      000000FAH   SFRSYM    DATA     BYTE      CCAP0H
      000000FBH   SFRSYM    DATA     BYTE      CCAP1H
      000000FCH   SFRSYM    DATA     BYTE      CCAP2H
      000000BDH   SFRSYM    DATA     BYTE      ADC_RES
      000000B6H   SFRSYM    DATA     BYTE      IPH2
      000000D8H.6 SFRSYM    DATA     BIT       CR
      000000EAH   SFRSYM    DATA     BYTE      CCAP0L
      000000B0H.7 SFRSYM    DATA     BIT       RD
      000000EBH   SFRSYM    DATA     BYTE      CCAP1L
      000000DAH   SFRSYM    DATA     BYTE      CCAPM0
      000000ECH   SFRSYM    DATA     BYTE      CCAP2L
      000000DBH   SFRSYM    DATA     BYTE      CCAPM1
      000000A8H.4 SFRSYM    DATA     BIT       ES
      000000DCH   SFRSYM    DATA     BYTE      CCAPM2
      000000B8H.5 SFRSYM    DATA     BIT       PADC
      000000A0H.2 SFRSYM    DATA     BIT       SPI_MISO_2
      000000A0H.3 SFRSYM    DATA     BIT       SPI_MOSI_2
      000000B8H   SFRSYM    DATA     BYTE      IP
      000000C0H.1 SFRSYM    DATA     BIT       SPI_MISO_3
      000000C0H   SFRSYM    DATA     BIT       SPI_MOSI_3
      00000098H   SFRSYM    DATA     BIT       RI
      000000B0H.2 SFRSYM    DATA     BIT       INT0
      000000D0H.7 SFRSYM    DATA     BIT       CY
      00000098H.1 SFRSYM    DATA     BIT       TI
      000000B0H.3 SFRSYM    DATA     BIT       INT1
      00000097H   SFRSYM    DATA     BYTE      CLK_DIV
      000000C3H   SFRSYM    DATA     BYTE      IAP_ADDRH
      00000090H   SFRSYM    DATA     BIT       RXD2
      000000C5H   SFRSYM    DATA     BYTE      ISP_CMD
      000000B8H.4 SFRSYM    DATA     BIT       PS
      00000090H.1 SFRSYM    DATA     BIT       TXD2
      00000081H   SFRSYM    DATA     BYTE      SP
      000000D9H   SFRSYM    DATA     BYTE      CMOD
      000000D8H   SFRSYM    DATA     BYTE      CCON
      000000C4H   SFRSYM    DATA     BYTE      IAP_ADDRL
      000000B8H.7 SFRSYM    DATA     BIT       PPCA
      000000D0H.2 SFRSYM    DATA     BIT       OV
      000000B0H.6 SFRSYM    DATA     BIT       WR
      000000A8H.6 SFRSYM    DATA     BIT       ELVD
      00000080H   SFRSYM    DATA     BIT       P00
      00000090H   SFRSYM    DATA     BIT       P10
      00000080H.1 SFRSYM    DATA     BIT       P01
      000000BCH   SFRSYM    DATA     BYTE      ADC_CONTR
      00000099H   SFRSYM    DATA     BYTE      SBUF
      00000087H   SFRSYM    DATA     BYTE      PCON
      000000A0H   SFRSYM    DATA     BIT       P20
      00000090H.1 SFRSYM    DATA     BIT       P11
      00000080H.2 SFRSYM    DATA     BIT       P02
      000000C3H   SFRSYM    DATA     BYTE      ISP_ADDRH
      000000B0H   SFRSYM    DATA     BIT       P30
      000000A0H.1 SFRSYM    DATA     BIT       P21
      00000090H.2 SFRSYM    DATA     BIT       P12
      00000080H.3 SFRSYM    DATA     BIT       P03
      000000C0H   SFRSYM    DATA     BIT       P40
      000000B0H.1 SFRSYM    DATA     BIT       P31
      000000A0H.2 SFRSYM    DATA     BIT       P22
      00000090H.3 SFRSYM    DATA     BIT       P13
LX51 LINKER/LOCATER V4.66.41.0                                                        09/02/2018  12:30:49  PAGE 91


      00000080H.4 SFRSYM    DATA     BIT       P04
      00000098H   SFRSYM    DATA     BYTE      SCON
      0000008FH   SFRSYM    DATA     BYTE      WAKE_CLKO
      000000C8H   SFRSYM    DATA     BIT       P50
      000000C0H.1 SFRSYM    DATA     BIT       P41
      000000B0H.2 SFRSYM    DATA     BIT       P32
      000000A0H.3 SFRSYM    DATA     BIT       P23
      00000090H.4 SFRSYM    DATA     BIT       P14
      00000080H.5 SFRSYM    DATA     BIT       P05
      00000089H   SFRSYM    DATA     BYTE      TMOD
      00000088H   SFRSYM    DATA     BYTE      TCON
      000000C8H.1 SFRSYM    DATA     BIT       P51
      000000C0H.2 SFRSYM    DATA     BIT       P42
      000000B0H.3 SFRSYM    DATA     BIT       P33
      000000A0H.4 SFRSYM    DATA     BIT       P24
      00000090H.5 SFRSYM    DATA     BIT       P15
      00000080H.6 SFRSYM    DATA     BIT       P06
      000000C4H   SFRSYM    DATA     BYTE      ISP_ADDRL
      000000B8H.6 SFRSYM    DATA     BIT       PLVD
      000000C8H.2 SFRSYM    DATA     BIT       P52
      000000C0H.3 SFRSYM    DATA     BIT       P43
      000000B0H.4 SFRSYM    DATA     BIT       P34
      000000A0H.5 SFRSYM    DATA     BIT       P25
      00000090H.6 SFRSYM    DATA     BIT       P16
      00000080H.7 SFRSYM    DATA     BIT       P07
      000000C8H.3 SFRSYM    DATA     BIT       P53
      000000C0H.4 SFRSYM    DATA     BIT       P44
      000000B0H.5 SFRSYM    DATA     BIT       P35
      000000A0H.6 SFRSYM    DATA     BIT       P26
      00000090H.7 SFRSYM    DATA     BIT       P17
      000000C8H.4 SFRSYM    DATA     BIT       P54
      000000C0H.5 SFRSYM    DATA     BIT       P45
      000000B0H.6 SFRSYM    DATA     BIT       P36
      000000A0H.7 SFRSYM    DATA     BIT       P27
      000000C8H.5 SFRSYM    DATA     BIT       P55
      000000C0H.6 SFRSYM    DATA     BIT       P46
      000000B0H.7 SFRSYM    DATA     BIT       P37
      000000C8H.6 SFRSYM    DATA     BIT       P56
      000000C0H.7 SFRSYM    DATA     BIT       P47
      000000C8H.7 SFRSYM    DATA     BIT       P57
      00000088H.1 SFRSYM    DATA     BIT       IE0
      000000A1H   SFRSYM    DATA     BYTE      BUS_SPEED
      00000088H.3 SFRSYM    DATA     BIT       IE1
      000000AFH   SFRSYM    DATA     BYTE      IE2
      000000F0H   SFRSYM    DATA     BYTE      B
      0000008EH   SFRSYM    DATA     BYTE      AUXR
      000000C7H   SFRSYM    DATA     BYTE      IAP_CONTR
      000000E0H   SFRSYM    DATA     BYTE      ACC
      000000A8H.1 SFRSYM    DATA     BIT       ET0
      000000A8H.3 SFRSYM    DATA     BIT       ET1
      00000088H.5 SFRSYM    DATA     BIT       TF0
      00000088H.7 SFRSYM    DATA     BIT       TF1
      000000B5H   SFRSYM    DATA     BYTE      IP2
      0000008CH   SFRSYM    DATA     BYTE      RL_TH0
      00000098H.2 SFRSYM    DATA     BIT       RB8
      0000008DH   SFRSYM    DATA     BYTE      RL_TH1
      0000008CH   SFRSYM    DATA     BYTE      TH0
      000000A8H   SFRSYM    DATA     BIT       EX0
      00000088H   SFRSYM    DATA     BIT       IT0
      000000D6H   SFRSYM    DATA     BYTE      RL_T2H
      0000008DH   SFRSYM    DATA     BYTE      TH1
      000000A8H.2 SFRSYM    DATA     BIT       EX1
      00000098H.3 SFRSYM    DATA     BIT       TB8
      00000088H.2 SFRSYM    DATA     BIT       IT1
      000000D4H   SFRSYM    DATA     BYTE      RL_T3H
LX51 LINKER/LOCATER V4.66.41.0                                                        09/02/2018  12:30:49  PAGE 92


      000000D6H   SFRSYM    DATA     BYTE      TH2
      000000D6H   SFRSYM    DATA     BYTE      T2H
      000000D0H   SFRSYM    DATA     BIT       P
      000000D2H   SFRSYM    DATA     BYTE      RL_T4H
      000000D4H   SFRSYM    DATA     BYTE      TH3
      000000D4H   SFRSYM    DATA     BYTE      T3H
      0000008AH   SFRSYM    DATA     BYTE      RL_TL0
      00000098H.7 SFRSYM    DATA     BIT       SM0
      000000D2H   SFRSYM    DATA     BYTE      TH4
      000000D2H   SFRSYM    DATA     BYTE      T4H
      0000008BH   SFRSYM    DATA     BYTE      RL_TL1
      0000008AH   SFRSYM    DATA     BYTE      TL0
      00000098H.6 SFRSYM    DATA     BIT       SM1
      000000D7H   SFRSYM    DATA     BYTE      RL_T2L
      0000008BH   SFRSYM    DATA     BYTE      TL1
      00000098H.5 SFRSYM    DATA     BIT       SM2
      000000D5H   SFRSYM    DATA     BYTE      RL_T3L
      000000D7H   SFRSYM    DATA     BYTE      TL2
      000000D7H   SFRSYM    DATA     BYTE      T2L
      000000D3H   SFRSYM    DATA     BYTE      RL_T4L
      000000D5H   SFRSYM    DATA     BYTE      TL3
      000000D5H   SFRSYM    DATA     BYTE      T3L
      000000B8H.1 SFRSYM    DATA     BIT       PT0
      000000D3H   SFRSYM    DATA     BYTE      TL4
      000000D3H   SFRSYM    DATA     BYTE      T4L
      000000B8H.3 SFRSYM    DATA     BIT       PT1
      000000D0H.3 SFRSYM    DATA     BIT       RS0
      000000C7H   SFRSYM    DATA     BYTE      ISP_CONTR
      00000088H.4 SFRSYM    DATA     BIT       TR0
      000000D0H.4 SFRSYM    DATA     BIT       RS1
      000000C2H   SFRSYM    DATA     BYTE      IAP_DATA
      00000088H.6 SFRSYM    DATA     BIT       TR1
      000000B8H   SFRSYM    DATA     BIT       PX0
      000000C1H   SFRSYM    DATA     BYTE      WDT_CONTR
      000000B8H.2 SFRSYM    DATA     BIT       PX1
      000000F2H   SFRSYM    DATA     BYTE      PCA_PWM0
      000000F3H   SFRSYM    DATA     BYTE      PCA_PWM1
      000000F4H   SFRSYM    DATA     BYTE      PCA_PWM2
      0000009DH   SFRSYM    DATA     BYTE      P1ASF
      00000083H   SFRSYM    DATA     BYTE      DPH
      000000D1H   SFRSYM    DATA     BYTE      T4T3M
      000000BEH   SFRSYM    DATA     BYTE      ADC_RESL
      00000082H   SFRSYM    DATA     BYTE      DPL
      000000CDH   SFRSYM    DATA     BYTE      SPSTAT
      000000B7H   SFRSYM    DATA     BYTE      IPH
      0000009BH   SFRSYM    DATA     BYTE      S2BUF
      00000097H   SFRSYM    DATA     BYTE      PCON2
      000000ADH   SFRSYM    DATA     BYTE      S3BUF
      00000098H.4 SFRSYM    DATA     BIT       REN
      00000085H   SFRSYM    DATA     BYTE      S4BUF
      0000009AH   SFRSYM    DATA     BYTE      S2CON
      000000ACH   SFRSYM    DATA     BYTE      S3CON
      000000C2H   SFRSYM    DATA     BYTE      ISP_DATA
      00000084H   SFRSYM    DATA     BYTE      S4CON
      000000B9H   SFRSYM    DATA     BYTE      SADEN
      000000B0H   SFRSYM    DATA     BIT       RXD
      000000A9H   SFRSYM    DATA     BYTE      SADDR
      000000B0H.1 SFRSYM    DATA     BIT       TXD
      000000F0H   SFRSYM    DATA     BIT       B0
      000000F0H.1 SFRSYM    DATA     BIT       B1
      000000C6H   SFRSYM    DATA     BYTE      IAP_TRIG
      000000A2H   SFRSYM    DATA     BYTE      AUXR1
      000000F0H.2 SFRSYM    DATA     BIT       B2
      00000090H.2 SFRSYM    DATA     BIT       SPI_SS
      0000008FH   SFRSYM    DATA     BYTE      AUXR2
LX51 LINKER/LOCATER V4.66.41.0                                                        09/02/2018  12:30:49  PAGE 93


      000000F0H.3 SFRSYM    DATA     BIT       B3
      000000F0H.4 SFRSYM    DATA     BIT       B4
      000000D0H.5 SFRSYM    DATA     BIT       F0
      000000F0H.5 SFRSYM    DATA     BIT       B5
      000000D0H.1 SFRSYM    DATA     BIT       F1
      0000008FH   SFRSYM    DATA     BYTE      INT_CLKO
      000000F0H.6 SFRSYM    DATA     BIT       B6
      000000E0H   SFRSYM    DATA     BIT       ACC0
      000000F0H.7 SFRSYM    DATA     BIT       B7
      000000E0H.1 SFRSYM    DATA     BIT       ACC1
      000000E0H.2 SFRSYM    DATA     BIT       ACC2
      000000E0H.3 SFRSYM    DATA     BIT       ACC3
      000000D0H   SFRSYM    DATA     BYTE      PSW
      000000E0H.4 SFRSYM    DATA     BIT       ACC4
      00000090H.5 SFRSYM    DATA     BIT       SPI_SCLK
      000000D8H   SFRSYM    DATA     BIT       CCF0
      000000E0H.5 SFRSYM    DATA     BIT       ACC5
      000000D8H.1 SFRSYM    DATA     BIT       CCF1
      000000E0H.6 SFRSYM    DATA     BIT       ACC6
      000000CFH   SFRSYM    DATA     BYTE      SPDAT
      00000094H   SFRSYM    DATA     BYTE      P0M0

      0100317AH   BLOCK     CODE     ---       LVL=0
      00000007H   SYMBOL    DATA     BYTE      dat
      0100317AH   LINE      CODE     ---       #128
      0100317AH   LINE      CODE     ---       #129
      0100317AH   LINE      CODE     ---       #130
      01003187H   LINE      CODE     ---       #131
      01003193H   LINE      CODE     ---       #133
      01003197H   LINE      CODE     ---       #134
      01003197H   LINE      CODE     ---       #135
      0100319AH   LINE      CODE     ---       #136
      0100319CH   LINE      CODE     ---       #137
      0100319CH   LINE      CODE     ---       #138
      ---         BLOCKEND  ---      ---       LVL=0

      01003299H   BLOCK     CODE     ---       LVL=0
      00000001H   SYMBOL    DATA     ---       puts
      01003299H   LINE      CODE     ---       #152
      01003299H   LINE      CODE     ---       #153
      01003299H   LINE      CODE     ---       #154
      010032ABH   LINE      CODE     ---       #155
      ---         BLOCKEND  ---      ---       LVL=0

      01000FC9H   BLOCK     CODE     ---       LVL=0
      0000002EH   SYMBOL    DATA     ---       puts
      01000FC9H   LINE      CODE     ---       #157
      01000FCFH   LINE      CODE     ---       #159
      01000FD6H   LINE      CODE     ---       #160
      01000FDEH   LINE      CODE     ---       #161
      01000FE5H   LINE      CODE     ---       #162
      01000FEEH   LINE      CODE     ---       #163
      01000FF5H   LINE      CODE     ---       #164
      01000FF8H   LINE      CODE     ---       #165
      ---         BLOCKEND  ---      ---       LVL=0

      01003154H   BLOCK     CODE     ---       LVL=0
      00000045H   SYMBOL    DATA     ---       dats
      00000005H   SYMBOL    DATA     BYTE      datsLen
      0100315AH   BLOCK     CODE     NEAR LAB  LVL=1
      00000006H   SYMBOL    DATA     BYTE      loop
      ---         BLOCKEND  ---      ---       LVL=1
      01003154H   LINE      CODE     ---       #173
      0100315AH   LINE      CODE     ---       #175
      0100315CH   LINE      CODE     ---       #177
LX51 LINKER/LOCATER V4.66.41.0                                                        09/02/2018  12:30:49  PAGE 94


      01003161H   LINE      CODE     ---       #179
      01003176H   LINE      CODE     ---       #180
      01003179H   LINE      CODE     ---       #181
      ---         BLOCKEND  ---      ---       LVL=0

      ---         MODULE    ---      ---       DELAY
      0100324BH   PUBLIC    CODE     ---       _delayMs
      010007EFH   PUBLIC    CODE     ---       _delay_ms
      000000D8H.2 SFRSYM    DATA     BIT       CCF2
      000000E0H.7 SFRSYM    DATA     BIT       ACC7
      00000093H   SFRSYM    DATA     BYTE      P0M1
      00000092H   SFRSYM    DATA     BYTE      P1M0
      00000096H   SFRSYM    DATA     BYTE      P2M0
      00000091H   SFRSYM    DATA     BYTE      P1M1
      00000080H   SFRSYM    DATA     BYTE      P0
      000000B2H   SFRSYM    DATA     BYTE      P3M0
      00000095H   SFRSYM    DATA     BYTE      P2M1
      00000090H   SFRSYM    DATA     BYTE      P1
      000000B4H   SFRSYM    DATA     BYTE      P4M0
      000000B1H   SFRSYM    DATA     BYTE      P3M1
      000000A0H   SFRSYM    DATA     BYTE      P2
      000000CAH   SFRSYM    DATA     BYTE      P5M0
      000000B3H   SFRSYM    DATA     BYTE      P4M1
      000000B0H   SFRSYM    DATA     BYTE      P3
      000000ABH   SFRSYM    DATA     BYTE      WKTCH
      000000B0H.4 SFRSYM    DATA     BIT       T0
      000000D0H.6 SFRSYM    DATA     BIT       AC
      000000CCH   SFRSYM    DATA     BYTE      P6M0
      000000C9H   SFRSYM    DATA     BYTE      P5M1
      000000C0H   SFRSYM    DATA     BYTE      P4
      000000B0H.5 SFRSYM    DATA     BIT       CLKOUT0
      000000B0H.5 SFRSYM    DATA     BIT       T1
      000000E2H   SFRSYM    DATA     BYTE      P7M0
      000000CBH   SFRSYM    DATA     BYTE      P6M1
      000000C8H   SFRSYM    DATA     BYTE      P5
      000000C6H   SFRSYM    DATA     BYTE      ISP_TRIG
      000000A8H.7 SFRSYM    DATA     BIT       EA
      000000B0H.4 SFRSYM    DATA     BIT       CLKOUT1
      000000A0H.4 SFRSYM    DATA     BIT       SPI_SS_2
      000000E8H   SFRSYM    DATA     BYTE      P6
      000000E1H   SFRSYM    DATA     BYTE      P7M1
      000000C8H.4 SFRSYM    DATA     BIT       SPI_SS_3
      00000090H.4 SFRSYM    DATA     BIT       SPI_MISO
      00000090H.3 SFRSYM    DATA     BIT       SPI_MOSI
      00000090H.1 SFRSYM    DATA     BIT       CCP0
      000000F8H   SFRSYM    DATA     BYTE      P7
      000000AAH   SFRSYM    DATA     BYTE      WKTCL
      00000090H   SFRSYM    DATA     BIT       CCP1
      000000CEH   SFRSYM    DATA     BYTE      SPCTL
      000000D8H.7 SFRSYM    DATA     BIT       CF
      000000B0H.7 SFRSYM    DATA     BIT       CCP2
      000000F9H   SFRSYM    DATA     BYTE      CH
      000000A2H   SFRSYM    DATA     BYTE      P_SW1
      000000BAH   SFRSYM    DATA     BYTE      P_SW2
      000000A8H.5 SFRSYM    DATA     BIT       EADC
      000000A0H.1 SFRSYM    DATA     BIT       SPI_SCLK_2
      000000A8H   SFRSYM    DATA     BYTE      IE
      000000C0H.3 SFRSYM    DATA     BIT       SPI_SCLK_3
      000000E9H   SFRSYM    DATA     BYTE      CL
      000000C5H   SFRSYM    DATA     BYTE      IAP_CMD
      000000FAH   SFRSYM    DATA     BYTE      CCAP0H
      000000FBH   SFRSYM    DATA     BYTE      CCAP1H
      000000FCH   SFRSYM    DATA     BYTE      CCAP2H
      000000BDH   SFRSYM    DATA     BYTE      ADC_RES
      000000B6H   SFRSYM    DATA     BYTE      IPH2
LX51 LINKER/LOCATER V4.66.41.0                                                        09/02/2018  12:30:49  PAGE 95


      000000D8H.6 SFRSYM    DATA     BIT       CR
      000000EAH   SFRSYM    DATA     BYTE      CCAP0L
      000000B0H.7 SFRSYM    DATA     BIT       RD
      000000EBH   SFRSYM    DATA     BYTE      CCAP1L
      000000DAH   SFRSYM    DATA     BYTE      CCAPM0
      000000ECH   SFRSYM    DATA     BYTE      CCAP2L
      000000DBH   SFRSYM    DATA     BYTE      CCAPM1
      000000A8H.4 SFRSYM    DATA     BIT       ES
      000000DCH   SFRSYM    DATA     BYTE      CCAPM2
      000000B8H.5 SFRSYM    DATA     BIT       PADC
      000000A0H.2 SFRSYM    DATA     BIT       SPI_MISO_2
      000000A0H.3 SFRSYM    DATA     BIT       SPI_MOSI_2
      000000B8H   SFRSYM    DATA     BYTE      IP
      000000C0H.1 SFRSYM    DATA     BIT       SPI_MISO_3
      000000C0H   SFRSYM    DATA     BIT       SPI_MOSI_3
      00000098H   SFRSYM    DATA     BIT       RI
      000000B0H.2 SFRSYM    DATA     BIT       INT0
      000000D0H.7 SFRSYM    DATA     BIT       CY
      00000098H.1 SFRSYM    DATA     BIT       TI
      000000B0H.3 SFRSYM    DATA     BIT       INT1
      00000097H   SFRSYM    DATA     BYTE      CLK_DIV
      000000C3H   SFRSYM    DATA     BYTE      IAP_ADDRH
      00000090H   SFRSYM    DATA     BIT       RXD2
      000000C5H   SFRSYM    DATA     BYTE      ISP_CMD
      000000B8H.4 SFRSYM    DATA     BIT       PS
      00000090H.1 SFRSYM    DATA     BIT       TXD2
      00000081H   SFRSYM    DATA     BYTE      SP
      000000D9H   SFRSYM    DATA     BYTE      CMOD
      000000D8H   SFRSYM    DATA     BYTE      CCON
      000000C4H   SFRSYM    DATA     BYTE      IAP_ADDRL
      000000B8H.7 SFRSYM    DATA     BIT       PPCA
      000000D0H.2 SFRSYM    DATA     BIT       OV
      000000B0H.6 SFRSYM    DATA     BIT       WR
      000000A8H.6 SFRSYM    DATA     BIT       ELVD
      00000080H   SFRSYM    DATA     BIT       P00
      00000090H   SFRSYM    DATA     BIT       P10
      00000080H.1 SFRSYM    DATA     BIT       P01
      000000BCH   SFRSYM    DATA     BYTE      ADC_CONTR
      00000099H   SFRSYM    DATA     BYTE      SBUF
      00000087H   SFRSYM    DATA     BYTE      PCON
      000000A0H   SFRSYM    DATA     BIT       P20
      00000090H.1 SFRSYM    DATA     BIT       P11
      00000080H.2 SFRSYM    DATA     BIT       P02
      000000C3H   SFRSYM    DATA     BYTE      ISP_ADDRH
      000000B0H   SFRSYM    DATA     BIT       P30
      000000A0H.1 SFRSYM    DATA     BIT       P21
      00000090H.2 SFRSYM    DATA     BIT       P12
      00000080H.3 SFRSYM    DATA     BIT       P03
      000000C0H   SFRSYM    DATA     BIT       P40
      000000B0H.1 SFRSYM    DATA     BIT       P31
      000000A0H.2 SFRSYM    DATA     BIT       P22
      00000090H.3 SFRSYM    DATA     BIT       P13
      00000080H.4 SFRSYM    DATA     BIT       P04
      00000098H   SFRSYM    DATA     BYTE      SCON
      0000008FH   SFRSYM    DATA     BYTE      WAKE_CLKO
      000000C8H   SFRSYM    DATA     BIT       P50
      000000C0H.1 SFRSYM    DATA     BIT       P41
      000000B0H.2 SFRSYM    DATA     BIT       P32
      000000A0H.3 SFRSYM    DATA     BIT       P23
      00000090H.4 SFRSYM    DATA     BIT       P14
      00000080H.5 SFRSYM    DATA     BIT       P05
      00000089H   SFRSYM    DATA     BYTE      TMOD
      00000088H   SFRSYM    DATA     BYTE      TCON
      000000C8H.1 SFRSYM    DATA     BIT       P51
      000000C0H.2 SFRSYM    DATA     BIT       P42
LX51 LINKER/LOCATER V4.66.41.0                                                        09/02/2018  12:30:49  PAGE 96


      000000B0H.3 SFRSYM    DATA     BIT       P33
      000000A0H.4 SFRSYM    DATA     BIT       P24
      00000090H.5 SFRSYM    DATA     BIT       P15
      00000080H.6 SFRSYM    DATA     BIT       P06
      000000C4H   SFRSYM    DATA     BYTE      ISP_ADDRL
      000000B8H.6 SFRSYM    DATA     BIT       PLVD
      000000C8H.2 SFRSYM    DATA     BIT       P52
      000000C0H.3 SFRSYM    DATA     BIT       P43
      000000B0H.4 SFRSYM    DATA     BIT       P34
      000000A0H.5 SFRSYM    DATA     BIT       P25
      00000090H.6 SFRSYM    DATA     BIT       P16
      00000080H.7 SFRSYM    DATA     BIT       P07
      000000C8H.3 SFRSYM    DATA     BIT       P53
      000000C0H.4 SFRSYM    DATA     BIT       P44
      000000B0H.5 SFRSYM    DATA     BIT       P35
      000000A0H.6 SFRSYM    DATA     BIT       P26
      00000090H.7 SFRSYM    DATA     BIT       P17
      000000C8H.4 SFRSYM    DATA     BIT       P54
      000000C0H.5 SFRSYM    DATA     BIT       P45
      000000B0H.6 SFRSYM    DATA     BIT       P36
      000000A0H.7 SFRSYM    DATA     BIT       P27
      000000C8H.5 SFRSYM    DATA     BIT       P55
      000000C0H.6 SFRSYM    DATA     BIT       P46
      000000B0H.7 SFRSYM    DATA     BIT       P37
      000000C8H.6 SFRSYM    DATA     BIT       P56
      000000C0H.7 SFRSYM    DATA     BIT       P47
      000000C8H.7 SFRSYM    DATA     BIT       P57
      00000088H.1 SFRSYM    DATA     BIT       IE0
      000000A1H   SFRSYM    DATA     BYTE      BUS_SPEED
      00000088H.3 SFRSYM    DATA     BIT       IE1
      000000AFH   SFRSYM    DATA     BYTE      IE2
      000000F0H   SFRSYM    DATA     BYTE      B
      0000008EH   SFRSYM    DATA     BYTE      AUXR
      000000C7H   SFRSYM    DATA     BYTE      IAP_CONTR
      000000E0H   SFRSYM    DATA     BYTE      ACC
      000000A8H.1 SFRSYM    DATA     BIT       ET0
      000000A8H.3 SFRSYM    DATA     BIT       ET1
      00000088H.5 SFRSYM    DATA     BIT       TF0
      00000088H.7 SFRSYM    DATA     BIT       TF1
      000000B5H   SFRSYM    DATA     BYTE      IP2
      0000008CH   SFRSYM    DATA     BYTE      RL_TH0
      00000098H.2 SFRSYM    DATA     BIT       RB8
      0000008DH   SFRSYM    DATA     BYTE      RL_TH1
      0000008CH   SFRSYM    DATA     BYTE      TH0
      000000A8H   SFRSYM    DATA     BIT       EX0
      00000088H   SFRSYM    DATA     BIT       IT0
      000000D6H   SFRSYM    DATA     BYTE      RL_T2H
      0000008DH   SFRSYM    DATA     BYTE      TH1
      000000A8H.2 SFRSYM    DATA     BIT       EX1
      00000098H.3 SFRSYM    DATA     BIT       TB8
      00000088H.2 SFRSYM    DATA     BIT       IT1
      000000D4H   SFRSYM    DATA     BYTE      RL_T3H
      000000D6H   SFRSYM    DATA     BYTE      TH2
      000000D6H   SFRSYM    DATA     BYTE      T2H
      000000D0H   SFRSYM    DATA     BIT       P
      000000D2H   SFRSYM    DATA     BYTE      RL_T4H
      000000D4H   SFRSYM    DATA     BYTE      TH3
      000000D4H   SFRSYM    DATA     BYTE      T3H
      0000008AH   SFRSYM    DATA     BYTE      RL_TL0
      00000098H.7 SFRSYM    DATA     BIT       SM0
      000000D2H   SFRSYM    DATA     BYTE      TH4
      000000D2H   SFRSYM    DATA     BYTE      T4H
      0000008BH   SFRSYM    DATA     BYTE      RL_TL1
      0000008AH   SFRSYM    DATA     BYTE      TL0
      00000098H.6 SFRSYM    DATA     BIT       SM1
LX51 LINKER/LOCATER V4.66.41.0                                                        09/02/2018  12:30:49  PAGE 97


      000000D7H   SFRSYM    DATA     BYTE      RL_T2L
      0000008BH   SFRSYM    DATA     BYTE      TL1
      00000098H.5 SFRSYM    DATA     BIT       SM2
      000000D5H   SFRSYM    DATA     BYTE      RL_T3L
      000000D7H   SFRSYM    DATA     BYTE      TL2
      000000D7H   SFRSYM    DATA     BYTE      T2L
      000000D3H   SFRSYM    DATA     BYTE      RL_T4L
      000000D5H   SFRSYM    DATA     BYTE      TL3
      000000D5H   SFRSYM    DATA     BYTE      T3L
      000000B8H.1 SFRSYM    DATA     BIT       PT0
      000000D3H   SFRSYM    DATA     BYTE      TL4
      000000D3H   SFRSYM    DATA     BYTE      T4L
      000000B8H.3 SFRSYM    DATA     BIT       PT1
      000000D0H.3 SFRSYM    DATA     BIT       RS0
      000000C7H   SFRSYM    DATA     BYTE      ISP_CONTR
      00000088H.4 SFRSYM    DATA     BIT       TR0
      000000D0H.4 SFRSYM    DATA     BIT       RS1
      000000C2H   SFRSYM    DATA     BYTE      IAP_DATA
      00000088H.6 SFRSYM    DATA     BIT       TR1
      000000B8H   SFRSYM    DATA     BIT       PX0
      000000C1H   SFRSYM    DATA     BYTE      WDT_CONTR
      000000B8H.2 SFRSYM    DATA     BIT       PX1
      000000F2H   SFRSYM    DATA     BYTE      PCA_PWM0
      000000F3H   SFRSYM    DATA     BYTE      PCA_PWM1
      000000F4H   SFRSYM    DATA     BYTE      PCA_PWM2
      0000009DH   SFRSYM    DATA     BYTE      P1ASF
      00000083H   SFRSYM    DATA     BYTE      DPH
      000000D1H   SFRSYM    DATA     BYTE      T4T3M
      000000BEH   SFRSYM    DATA     BYTE      ADC_RESL
      00000082H   SFRSYM    DATA     BYTE      DPL
      000000CDH   SFRSYM    DATA     BYTE      SPSTAT
      000000B7H   SFRSYM    DATA     BYTE      IPH
      0000009BH   SFRSYM    DATA     BYTE      S2BUF
      00000097H   SFRSYM    DATA     BYTE      PCON2
      000000ADH   SFRSYM    DATA     BYTE      S3BUF
      00000098H.4 SFRSYM    DATA     BIT       REN
      00000085H   SFRSYM    DATA     BYTE      S4BUF
      0000009AH   SFRSYM    DATA     BYTE      S2CON
      000000ACH   SFRSYM    DATA     BYTE      S3CON
      000000C2H   SFRSYM    DATA     BYTE      ISP_DATA
      00000084H   SFRSYM    DATA     BYTE      S4CON
      000000B9H   SFRSYM    DATA     BYTE      SADEN
      000000B0H   SFRSYM    DATA     BIT       RXD
      000000A9H   SFRSYM    DATA     BYTE      SADDR
      000000B0H.1 SFRSYM    DATA     BIT       TXD
      000000F0H   SFRSYM    DATA     BIT       B0
      000000F0H.1 SFRSYM    DATA     BIT       B1
      000000C6H   SFRSYM    DATA     BYTE      IAP_TRIG
      000000A2H   SFRSYM    DATA     BYTE      AUXR1
      000000F0H.2 SFRSYM    DATA     BIT       B2
      00000090H.2 SFRSYM    DATA     BIT       SPI_SS
      0000008FH   SFRSYM    DATA     BYTE      AUXR2
      000000F0H.3 SFRSYM    DATA     BIT       B3
      000000F0H.4 SFRSYM    DATA     BIT       B4
      000000D0H.5 SFRSYM    DATA     BIT       F0
      000000F0H.5 SFRSYM    DATA     BIT       B5
      000000D0H.1 SFRSYM    DATA     BIT       F1
      0000008FH   SFRSYM    DATA     BYTE      INT_CLKO
      000000F0H.6 SFRSYM    DATA     BIT       B6
      000000E0H   SFRSYM    DATA     BIT       ACC0
      000000F0H.7 SFRSYM    DATA     BIT       B7
      000000E0H.1 SFRSYM    DATA     BIT       ACC1
      000000E0H.2 SFRSYM    DATA     BIT       ACC2
      000000E0H.3 SFRSYM    DATA     BIT       ACC3
      000000D0H   SFRSYM    DATA     BYTE      PSW
LX51 LINKER/LOCATER V4.66.41.0                                                        09/02/2018  12:30:49  PAGE 98


      000000E0H.4 SFRSYM    DATA     BIT       ACC4
      00000090H.5 SFRSYM    DATA     BIT       SPI_SCLK
      000000D8H   SFRSYM    DATA     BIT       CCF0
      000000E0H.5 SFRSYM    DATA     BIT       ACC5
      000000D8H.1 SFRSYM    DATA     BIT       CCF1
      000000E0H.6 SFRSYM    DATA     BIT       ACC6
      000000CFH   SFRSYM    DATA     BYTE      SPDAT
      00000094H   SFRSYM    DATA     BYTE      P0M0

      010007EFH   BLOCK     CODE     ---       LVL=0
      00000007H   SYMBOL    DATA     BYTE      ms
      010007EFH   BLOCK     CODE     NEAR LAB  LVL=1
      00000004H   SYMBOL    DATA     WORD      i
      ---         BLOCKEND  ---      ---       LVL=1
      010007EFH   LINE      CODE     ---       #31
      010007EFH   LINE      CODE     ---       #32
      010007EFH   LINE      CODE     ---       #34
      010007EFH   LINE      CODE     ---       #35
      010007F3H   LINE      CODE     ---       #36
      010007FCH   LINE      CODE     ---       #37
      010007FEH   LINE      CODE     ---       #38
      ---         BLOCKEND  ---      ---       LVL=0

      0100324BH   BLOCK     CODE     ---       LVL=0
      00000002H   SYMBOL    DATA     WORD      ms
      0100324BH   LINE      CODE     ---       #40
      0100324FH   LINE      CODE     ---       #42
      0100325FH   LINE      CODE     ---       #43
      ---         BLOCKEND  ---      ---       LVL=0

      ---         MODULE    ---      ---       EEPROM
      00000032H   PUBLIC    DATA     BYTE      ?_coverEEPROM_write_n?BYTE
      01002D3AH   PUBLIC    CODE     ---       _coverEEPROM_write_n
      00000039H   PUBLIC    DATA     BYTE      ?_EEPROM_write_n?BYTE
      01003000H   PUBLIC    CODE     ---       _EEPROM_write_n
      010031DFH   PUBLIC    CODE     ---       _EEPROM_SectorErase
      00000039H   PUBLIC    DATA     BYTE      ?_EEPROM_read_n?BYTE
      01002F88H   PUBLIC    CODE     ---       _EEPROM_read_n
      010032BEH   PUBLIC    CODE     ---       DisableEEPROM
      000000D8H.2 SFRSYM    DATA     BIT       CCF2
      000000E0H.7 SFRSYM    DATA     BIT       ACC7
      00000093H   SFRSYM    DATA     BYTE      P0M1
      00000092H   SFRSYM    DATA     BYTE      P1M0
      00000096H   SFRSYM    DATA     BYTE      P2M0
      00000091H   SFRSYM    DATA     BYTE      P1M1
      00000080H   SFRSYM    DATA     BYTE      P0
      000000B2H   SFRSYM    DATA     BYTE      P3M0
      00000095H   SFRSYM    DATA     BYTE      P2M1
      00000090H   SFRSYM    DATA     BYTE      P1
      000000B4H   SFRSYM    DATA     BYTE      P4M0
      000000B1H   SFRSYM    DATA     BYTE      P3M1
      000000A0H   SFRSYM    DATA     BYTE      P2
      000000CAH   SFRSYM    DATA     BYTE      P5M0
      000000B3H   SFRSYM    DATA     BYTE      P4M1
      000000B0H   SFRSYM    DATA     BYTE      P3
      000000ABH   SFRSYM    DATA     BYTE      WKTCH
      000000B0H.4 SFRSYM    DATA     BIT       T0
      000000D0H.6 SFRSYM    DATA     BIT       AC
      000000CCH   SFRSYM    DATA     BYTE      P6M0
      000000C9H   SFRSYM    DATA     BYTE      P5M1
      000000C0H   SFRSYM    DATA     BYTE      P4
      000000B0H.5 SFRSYM    DATA     BIT       CLKOUT0
      000000B0H.5 SFRSYM    DATA     BIT       T1
      000000E2H   SFRSYM    DATA     BYTE      P7M0
      000000CBH   SFRSYM    DATA     BYTE      P6M1
LX51 LINKER/LOCATER V4.66.41.0                                                        09/02/2018  12:30:49  PAGE 99


      000000C8H   SFRSYM    DATA     BYTE      P5
      000000C6H   SFRSYM    DATA     BYTE      ISP_TRIG
      000000A8H.7 SFRSYM    DATA     BIT       EA
      000000B0H.4 SFRSYM    DATA     BIT       CLKOUT1
      000000A0H.4 SFRSYM    DATA     BIT       SPI_SS_2
      000000E8H   SFRSYM    DATA     BYTE      P6
      000000E1H   SFRSYM    DATA     BYTE      P7M1
      000000C8H.4 SFRSYM    DATA     BIT       SPI_SS_3
      00000090H.4 SFRSYM    DATA     BIT       SPI_MISO
      00000090H.3 SFRSYM    DATA     BIT       SPI_MOSI
      00000090H.1 SFRSYM    DATA     BIT       CCP0
      000000F8H   SFRSYM    DATA     BYTE      P7
      000000AAH   SFRSYM    DATA     BYTE      WKTCL
      00000090H   SFRSYM    DATA     BIT       CCP1
      000000CEH   SFRSYM    DATA     BYTE      SPCTL
      000000D8H.7 SFRSYM    DATA     BIT       CF
      000000B0H.7 SFRSYM    DATA     BIT       CCP2
      000000F9H   SFRSYM    DATA     BYTE      CH
      000000A2H   SFRSYM    DATA     BYTE      P_SW1
      000000BAH   SFRSYM    DATA     BYTE      P_SW2
      000000A8H.5 SFRSYM    DATA     BIT       EADC
      000000A0H.1 SFRSYM    DATA     BIT       SPI_SCLK_2
      000000A8H   SFRSYM    DATA     BYTE      IE
      000000C0H.3 SFRSYM    DATA     BIT       SPI_SCLK_3
      000000E9H   SFRSYM    DATA     BYTE      CL
      000000C5H   SFRSYM    DATA     BYTE      IAP_CMD
      000000FAH   SFRSYM    DATA     BYTE      CCAP0H
      000000FBH   SFRSYM    DATA     BYTE      CCAP1H
      000000FCH   SFRSYM    DATA     BYTE      CCAP2H
      000000BDH   SFRSYM    DATA     BYTE      ADC_RES
      000000B6H   SFRSYM    DATA     BYTE      IPH2
      000000D8H.6 SFRSYM    DATA     BIT       CR
      000000EAH   SFRSYM    DATA     BYTE      CCAP0L
      000000B0H.7 SFRSYM    DATA     BIT       RD
      000000EBH   SFRSYM    DATA     BYTE      CCAP1L
      000000DAH   SFRSYM    DATA     BYTE      CCAPM0
      000000ECH   SFRSYM    DATA     BYTE      CCAP2L
      000000DBH   SFRSYM    DATA     BYTE      CCAPM1
      000000A8H.4 SFRSYM    DATA     BIT       ES
      000000DCH   SFRSYM    DATA     BYTE      CCAPM2
      000000B8H.5 SFRSYM    DATA     BIT       PADC
      000000A0H.2 SFRSYM    DATA     BIT       SPI_MISO_2
      000000A0H.3 SFRSYM    DATA     BIT       SPI_MOSI_2
      000000B8H   SFRSYM    DATA     BYTE      IP
      000000C0H.1 SFRSYM    DATA     BIT       SPI_MISO_3
      000000C0H   SFRSYM    DATA     BIT       SPI_MOSI_3
      00000098H   SFRSYM    DATA     BIT       RI
      000000B0H.2 SFRSYM    DATA     BIT       INT0
      000000D0H.7 SFRSYM    DATA     BIT       CY
      00000098H.1 SFRSYM    DATA     BIT       TI
      000000B0H.3 SFRSYM    DATA     BIT       INT1
      00000097H   SFRSYM    DATA     BYTE      CLK_DIV
      000000C3H   SFRSYM    DATA     BYTE      IAP_ADDRH
      00000090H   SFRSYM    DATA     BIT       RXD2
      000000C5H   SFRSYM    DATA     BYTE      ISP_CMD
      000000B8H.4 SFRSYM    DATA     BIT       PS
      00000090H.1 SFRSYM    DATA     BIT       TXD2
      00000081H   SFRSYM    DATA     BYTE      SP
      000000D9H   SFRSYM    DATA     BYTE      CMOD
      000000D8H   SFRSYM    DATA     BYTE      CCON
      000000C4H   SFRSYM    DATA     BYTE      IAP_ADDRL
      000000B8H.7 SFRSYM    DATA     BIT       PPCA
      000000D0H.2 SFRSYM    DATA     BIT       OV
      000000B0H.6 SFRSYM    DATA     BIT       WR
      000000A8H.6 SFRSYM    DATA     BIT       ELVD
LX51 LINKER/LOCATER V4.66.41.0                                                        09/02/2018  12:30:49  PAGE 100


      00000080H   SFRSYM    DATA     BIT       P00
      00000090H   SFRSYM    DATA     BIT       P10
      00000080H.1 SFRSYM    DATA     BIT       P01
      000000BCH   SFRSYM    DATA     BYTE      ADC_CONTR
      00000099H   SFRSYM    DATA     BYTE      SBUF
      00000087H   SFRSYM    DATA     BYTE      PCON
      000000A0H   SFRSYM    DATA     BIT       P20
      00000090H.1 SFRSYM    DATA     BIT       P11
      00000080H.2 SFRSYM    DATA     BIT       P02
      000000C3H   SFRSYM    DATA     BYTE      ISP_ADDRH
      000000B0H   SFRSYM    DATA     BIT       P30
      000000A0H.1 SFRSYM    DATA     BIT       P21
      00000090H.2 SFRSYM    DATA     BIT       P12
      00000080H.3 SFRSYM    DATA     BIT       P03
      000000C0H   SFRSYM    DATA     BIT       P40
      000000B0H.1 SFRSYM    DATA     BIT       P31
      000000A0H.2 SFRSYM    DATA     BIT       P22
      00000090H.3 SFRSYM    DATA     BIT       P13
      00000080H.4 SFRSYM    DATA     BIT       P04
      00000098H   SFRSYM    DATA     BYTE      SCON
      0000008FH   SFRSYM    DATA     BYTE      WAKE_CLKO
      000000C8H   SFRSYM    DATA     BIT       P50
      000000C0H.1 SFRSYM    DATA     BIT       P41
      000000B0H.2 SFRSYM    DATA     BIT       P32
      000000A0H.3 SFRSYM    DATA     BIT       P23
      00000090H.4 SFRSYM    DATA     BIT       P14
      00000080H.5 SFRSYM    DATA     BIT       P05
      00000089H   SFRSYM    DATA     BYTE      TMOD
      00000088H   SFRSYM    DATA     BYTE      TCON
      000000C8H.1 SFRSYM    DATA     BIT       P51
      000000C0H.2 SFRSYM    DATA     BIT       P42
      000000B0H.3 SFRSYM    DATA     BIT       P33
      000000A0H.4 SFRSYM    DATA     BIT       P24
      00000090H.5 SFRSYM    DATA     BIT       P15
      00000080H.6 SFRSYM    DATA     BIT       P06
      000000C4H   SFRSYM    DATA     BYTE      ISP_ADDRL
      000000B8H.6 SFRSYM    DATA     BIT       PLVD
      000000C8H.2 SFRSYM    DATA     BIT       P52
      000000C0H.3 SFRSYM    DATA     BIT       P43
      000000B0H.4 SFRSYM    DATA     BIT       P34
      000000A0H.5 SFRSYM    DATA     BIT       P25
      00000090H.6 SFRSYM    DATA     BIT       P16
      00000080H.7 SFRSYM    DATA     BIT       P07
      000000C8H.3 SFRSYM    DATA     BIT       P53
      000000C0H.4 SFRSYM    DATA     BIT       P44
      000000B0H.5 SFRSYM    DATA     BIT       P35
      000000A0H.6 SFRSYM    DATA     BIT       P26
      00000090H.7 SFRSYM    DATA     BIT       P17
      000000C8H.4 SFRSYM    DATA     BIT       P54
      000000C0H.5 SFRSYM    DATA     BIT       P45
      000000B0H.6 SFRSYM    DATA     BIT       P36
      000000A0H.7 SFRSYM    DATA     BIT       P27
      000000C8H.5 SFRSYM    DATA     BIT       P55
      000000C0H.6 SFRSYM    DATA     BIT       P46
      000000B0H.7 SFRSYM    DATA     BIT       P37
      000000C8H.6 SFRSYM    DATA     BIT       P56
      000000C0H.7 SFRSYM    DATA     BIT       P47
      000000C8H.7 SFRSYM    DATA     BIT       P57
      00000088H.1 SFRSYM    DATA     BIT       IE0
      000000A1H   SFRSYM    DATA     BYTE      BUS_SPEED
      00000088H.3 SFRSYM    DATA     BIT       IE1
      000000AFH   SFRSYM    DATA     BYTE      IE2
      000000F0H   SFRSYM    DATA     BYTE      B
      0000008EH   SFRSYM    DATA     BYTE      AUXR
      000000C7H   SFRSYM    DATA     BYTE      IAP_CONTR
LX51 LINKER/LOCATER V4.66.41.0                                                        09/02/2018  12:30:49  PAGE 101


      000000E0H   SFRSYM    DATA     BYTE      ACC
      000000A8H.1 SFRSYM    DATA     BIT       ET0
      000000A8H.3 SFRSYM    DATA     BIT       ET1
      00000088H.5 SFRSYM    DATA     BIT       TF0
      00000088H.7 SFRSYM    DATA     BIT       TF1
      000000B5H   SFRSYM    DATA     BYTE      IP2
      0000008CH   SFRSYM    DATA     BYTE      RL_TH0
      00000098H.2 SFRSYM    DATA     BIT       RB8
      0000008DH   SFRSYM    DATA     BYTE      RL_TH1
      0000008CH   SFRSYM    DATA     BYTE      TH0
      000000A8H   SFRSYM    DATA     BIT       EX0
      00000088H   SFRSYM    DATA     BIT       IT0
      000000D6H   SFRSYM    DATA     BYTE      RL_T2H
      0000008DH   SFRSYM    DATA     BYTE      TH1
      000000A8H.2 SFRSYM    DATA     BIT       EX1
      00000098H.3 SFRSYM    DATA     BIT       TB8
      00000088H.2 SFRSYM    DATA     BIT       IT1
      000000D4H   SFRSYM    DATA     BYTE      RL_T3H
      000000D6H   SFRSYM    DATA     BYTE      TH2
      000000D6H   SFRSYM    DATA     BYTE      T2H
      000000D0H   SFRSYM    DATA     BIT       P
      000000D2H   SFRSYM    DATA     BYTE      RL_T4H
      000000D4H   SFRSYM    DATA     BYTE      TH3
      000000D4H   SFRSYM    DATA     BYTE      T3H
      0000008AH   SFRSYM    DATA     BYTE      RL_TL0
      00000098H.7 SFRSYM    DATA     BIT       SM0
      000000D2H   SFRSYM    DATA     BYTE      TH4
      000000D2H   SFRSYM    DATA     BYTE      T4H
      0000008BH   SFRSYM    DATA     BYTE      RL_TL1
      0000008AH   SFRSYM    DATA     BYTE      TL0
      00000098H.6 SFRSYM    DATA     BIT       SM1
      000000D7H   SFRSYM    DATA     BYTE      RL_T2L
      0000008BH   SFRSYM    DATA     BYTE      TL1
      00000098H.5 SFRSYM    DATA     BIT       SM2
      000000D5H   SFRSYM    DATA     BYTE      RL_T3L
      000000D7H   SFRSYM    DATA     BYTE      TL2
      000000D7H   SFRSYM    DATA     BYTE      T2L
      000000D3H   SFRSYM    DATA     BYTE      RL_T4L
      000000D5H   SFRSYM    DATA     BYTE      TL3
      000000D5H   SFRSYM    DATA     BYTE      T3L
      000000B8H.1 SFRSYM    DATA     BIT       PT0
      000000D3H   SFRSYM    DATA     BYTE      TL4
      000000D3H   SFRSYM    DATA     BYTE      T4L
      000000B8H.3 SFRSYM    DATA     BIT       PT1
      000000D0H.3 SFRSYM    DATA     BIT       RS0
      000000C7H   SFRSYM    DATA     BYTE      ISP_CONTR
      00000088H.4 SFRSYM    DATA     BIT       TR0
      000000D0H.4 SFRSYM    DATA     BIT       RS1
      000000C2H   SFRSYM    DATA     BYTE      IAP_DATA
      00000088H.6 SFRSYM    DATA     BIT       TR1
      000000B8H   SFRSYM    DATA     BIT       PX0
      000000C1H   SFRSYM    DATA     BYTE      WDT_CONTR
      000000B8H.2 SFRSYM    DATA     BIT       PX1
      000000F2H   SFRSYM    DATA     BYTE      PCA_PWM0
      000000F3H   SFRSYM    DATA     BYTE      PCA_PWM1
      000000F4H   SFRSYM    DATA     BYTE      PCA_PWM2
      0000009DH   SFRSYM    DATA     BYTE      P1ASF
      00000083H   SFRSYM    DATA     BYTE      DPH
      000000D1H   SFRSYM    DATA     BYTE      T4T3M
      000000BEH   SFRSYM    DATA     BYTE      ADC_RESL
      00000082H   SFRSYM    DATA     BYTE      DPL
      000000CDH   SFRSYM    DATA     BYTE      SPSTAT
      000000B7H   SFRSYM    DATA     BYTE      IPH
      0000009BH   SFRSYM    DATA     BYTE      S2BUF
      00000097H   SFRSYM    DATA     BYTE      PCON2
LX51 LINKER/LOCATER V4.66.41.0                                                        09/02/2018  12:30:49  PAGE 102


      000000ADH   SFRSYM    DATA     BYTE      S3BUF
      00000098H.4 SFRSYM    DATA     BIT       REN
      00000085H   SFRSYM    DATA     BYTE      S4BUF
      0000009AH   SFRSYM    DATA     BYTE      S2CON
      000000ACH   SFRSYM    DATA     BYTE      S3CON
      000000C2H   SFRSYM    DATA     BYTE      ISP_DATA
      00000084H   SFRSYM    DATA     BYTE      S4CON
      000000B9H   SFRSYM    DATA     BYTE      SADEN
      000000B0H   SFRSYM    DATA     BIT       RXD
      000000A9H   SFRSYM    DATA     BYTE      SADDR
      000000B0H.1 SFRSYM    DATA     BIT       TXD
      000000F0H   SFRSYM    DATA     BIT       B0
      000000F0H.1 SFRSYM    DATA     BIT       B1
      000000C6H   SFRSYM    DATA     BYTE      IAP_TRIG
      000000A2H   SFRSYM    DATA     BYTE      AUXR1
      000000F0H.2 SFRSYM    DATA     BIT       B2
      00000090H.2 SFRSYM    DATA     BIT       SPI_SS
      0000008FH   SFRSYM    DATA     BYTE      AUXR2
      000000F0H.3 SFRSYM    DATA     BIT       B3
      000000F0H.4 SFRSYM    DATA     BIT       B4
      000000D0H.5 SFRSYM    DATA     BIT       F0
      000000F0H.5 SFRSYM    DATA     BIT       B5
      000000D0H.1 SFRSYM    DATA     BIT       F1
      0000008FH   SFRSYM    DATA     BYTE      INT_CLKO
      000000F0H.6 SFRSYM    DATA     BIT       B6
      000000E0H   SFRSYM    DATA     BIT       ACC0
      000000F0H.7 SFRSYM    DATA     BIT       B7
      000000E0H.1 SFRSYM    DATA     BIT       ACC1
      000000E0H.2 SFRSYM    DATA     BIT       ACC2
      000000E0H.3 SFRSYM    DATA     BIT       ACC3
      000000D0H   SFRSYM    DATA     BYTE      PSW
      000000E0H.4 SFRSYM    DATA     BIT       ACC4
      00000090H.5 SFRSYM    DATA     BIT       SPI_SCLK
      000000D8H   SFRSYM    DATA     BIT       CCF0
      000000E0H.5 SFRSYM    DATA     BIT       ACC5
      000000D8H.1 SFRSYM    DATA     BIT       CCF1
      000000E0H.6 SFRSYM    DATA     BIT       ACC6
      000000CFH   SFRSYM    DATA     BYTE      SPDAT
      00000094H   SFRSYM    DATA     BYTE      P0M0
      010048E7H   SYMBOL    CONST    ---       _?ix1000

      010032BEH   BLOCK     CODE     ---       LVL=0
      010032BEH   LINE      CODE     ---       #17
      010032BEH   LINE      CODE     ---       #18
      010032BEH   LINE      CODE     ---       #19
      010032C1H   LINE      CODE     ---       #20
      010032C3H   LINE      CODE     ---       #21
      010032C5H   LINE      CODE     ---       #22
      010032C8H   LINE      CODE     ---       #23
      010032CBH   LINE      CODE     ---       #24
      ---         BLOCKEND  ---      ---       LVL=0

      01002F88H   BLOCK     CODE     ---       LVL=0
      00000004H   SYMBOL    DATA     WORD      EE_address
      00000001H   SYMBOL    DATA     ---       DataAddress
      0000003EH   SYMBOL    DATA     WORD      number
      01002F88H   LINE      CODE     ---       #36
      01002F8CH   LINE      CODE     ---       #37
      01002F8CH   LINE      CODE     ---       #38
      01002F8EH   LINE      CODE     ---       #39
      01002F91H   LINE      CODE     ---       #40
      01002F94H   LINE      CODE     ---       #42
      01002F94H   LINE      CODE     ---       #43
      01002F96H   LINE      CODE     ---       #44
      01002F9AH   LINE      CODE     ---       #45
LX51 LINKER/LOCATER V4.66.41.0                                                        09/02/2018  12:30:49  PAGE 103


      01002FA0H   LINE      CODE     ---       #48
      01002FA1H   LINE      CODE     ---       #49
      01002FA6H   LINE      CODE     ---       #50
      01002FABH   LINE      CODE     ---       #51
      01002FB2H   LINE      CODE     ---       #52
      01002FBFH   LINE      CODE     ---       #54
      01002FC2H   LINE      CODE     ---       #55
      01002FC4H   LINE      CODE     ---       #56
      ---         BLOCKEND  ---      ---       LVL=0

      010031DFH   BLOCK     CODE     ---       LVL=0
      00000004H   SYMBOL    DATA     WORD      EE_address
      010031DFH   LINE      CODE     ---       #67
      010031E3H   LINE      CODE     ---       #68
      010031E3H   LINE      CODE     ---       #69
      010031E5H   LINE      CODE     ---       #72
      010031E7H   LINE      CODE     ---       #73
      010031EBH   LINE      CODE     ---       #74
      010031EEH   LINE      CODE     ---       #75
      010031F1H   LINE      CODE     ---       #76
      010031F7H   LINE      CODE     ---       #77
      010031F8H   LINE      CODE     ---       #78
      010031FBH   LINE      CODE     ---       #79
      010031FDH   LINE      CODE     ---       #80
      ---         BLOCKEND  ---      ---       LVL=0

      01003000H   BLOCK     CODE     ---       LVL=0
      00000004H   SYMBOL    DATA     WORD      EE_address
      00000001H   SYMBOL    DATA     ---       DataAddress
      0000003EH   SYMBOL    DATA     WORD      number
      01003000H   LINE      CODE     ---       #91
      01003004H   LINE      CODE     ---       #92
      01003004H   LINE      CODE     ---       #93
      01003006H   LINE      CODE     ---       #95
      01003009H   LINE      CODE     ---       #96
      0100300CH   LINE      CODE     ---       #98
      0100300CH   LINE      CODE     ---       #99
      0100300EH   LINE      CODE     ---       #100
      01003012H   LINE      CODE     ---       #101
      01003017H   LINE      CODE     ---       #102
      0100301DH   LINE      CODE     ---       #103
      0100301EH   LINE      CODE     ---       #104
      01003023H   LINE      CODE     ---       #105
      0100302AH   LINE      CODE     ---       #106
      01003037H   LINE      CODE     ---       #108
      0100303AH   LINE      CODE     ---       #109
      0100303CH   LINE      CODE     ---       #110
      ---         BLOCKEND  ---      ---       LVL=0

      01002D3AH   BLOCK     CODE     ---       LVL=0
      00000032H   SYMBOL    DATA     WORD      EE_address
      00000034H   SYMBOL    DATA     ---       DataAddress
      00000037H   SYMBOL    DATA     WORD      number
      01002D44H   BLOCK     CODE     NEAR LAB  LVL=1
      020001E4H   SYMBOL    XDATA    ---       datsTemp
      ---         BLOCKEND  ---      ---       LVL=1
      01002D3AH   LINE      CODE     ---       #122
      01002D44H   LINE      CODE     ---       #124
      01002D57H   LINE      CODE     ---       #126
      01002D69H   LINE      CODE     ---       #127
      01002D6EH   LINE      CODE     ---       #129
      01002D89H   LINE      CODE     ---       #131
      ---         BLOCKEND  ---      ---       LVL=0

      ---         MODULE    ---      ---       PARS_METHOD
LX51 LINKER/LOCATER V4.66.41.0                                                        09/02/2018  12:30:49  PAGE 104


      00000045H   PUBLIC    DATA     BYTE      ?_memmem?BYTE
      0100291CH   PUBLIC    CODE     ---       _memmem

      0100291CH   BLOCK     CODE     ---       LVL=0
      00000045H   SYMBOL    DATA     ---       start
      00000048H   SYMBOL    DATA     BYTE      s_len
      00000049H   SYMBOL    DATA     ---       find
      0000004CH   SYMBOL    DATA     BYTE      f_len
      01002924H   BLOCK     CODE     NEAR LAB  LVL=1
      0000004DH   SYMBOL    DATA     BYTE      len
      0000004EH   SYMBOL    DATA     ---       p
      00000051H   SYMBOL    DATA     ---       q
      ---         BLOCKEND  ---      ---       LVL=1
      0100291CH   LINE      CODE     ---       #4
      01002924H   LINE      CODE     ---       #6
      01002927H   LINE      CODE     ---       #7
      0100292DH   LINE      CODE     ---       #8
      01002936H   LINE      CODE     ---       #10
      01002955H   LINE      CODE     ---       #12
      0100297BH   LINE      CODE     ---       #14
      0100297DH   LINE      CODE     ---       #15
      0100298EH   LINE      CODE     ---       #16
      0100298EH   LINE      CODE     ---       #18
      01002997H   LINE      CODE     ---       #19
      0100299AH   LINE      CODE     ---       #20
      0100299CH   LINE      CODE     ---       #22
      010029A2H   LINE      CODE     ---       #23
      ---         BLOCKEND  ---      ---       LVL=0

      ---         MODULE    ---      ---       ?C_STARTUP
      01000000H   PUBLIC    CODE     ---       ?C_STARTUP

      ---         MODULE    ---      ---       ?C?COPY
      01003DD0H   PUBLIC    CODE     ---       ?C?COPY

      ---         MODULE    ---      ---       ?C?CLDPTR
      01003DF6H   PUBLIC    CODE     ---       ?C?CLDPTR

      ---         MODULE    ---      ---       ?C?CLDOPTR
      01003E0FH   PUBLIC    CODE     ---       ?C?CLDOPTR

      ---         MODULE    ---      ---       ?C?CSTPTR
      01003E3CH   PUBLIC    CODE     ---       ?C?CSTPTR

      ---         MODULE    ---      ---       ?C?CSTOPTR
      01003E4EH   PUBLIC    CODE     ---       ?C?CSTOPTR

      ---         MODULE    ---      ---       ?C?IMUL
      01003E70H   PUBLIC    CODE     ---       ?C?IMUL

      ---         MODULE    ---      ---       ?C?UIDIV
      01003E82H   PUBLIC    CODE     ---       ?C?UIDIV

      ---         MODULE    ---      ---       ?C?ILDIX
      01003ED7H   PUBLIC    CODE     ---       ?C?ILDIX

      ---         MODULE    ---      ---       ?C?LMUL
      01003EEDH   PUBLIC    CODE     ---       ?C?LMUL

      ---         MODULE    ---      ---       ?C?ULSHR
      01003F3CH   PUBLIC    CODE     ---       ?C?ULSHR

      ---         MODULE    ---      ---       ?C?LSHL
      01003F4FH   PUBLIC    CODE     ---       ?C?LSHL

LX51 LINKER/LOCATER V4.66.41.0                                                        09/02/2018  12:30:49  PAGE 105


      ---         MODULE    ---      ---       ?C?CCASE
      01003F62H   PUBLIC    CODE     ---       ?C?CCASE

      ---         MODULE    ---      ---       ?C?ICALL
      01003F88H   PUBLIC    CODE     ---       ?C?ICALL
      01003F8CH   PUBLIC    CODE     ---       ?C?ICALL2

      ---         MODULE    ---      ---       PRINTF
      0000002EH   PUBLIC    DATA     ---       ?_PRINTF517?BYTE
      0000002EH   PUBLIC    DATA     ---       ?_PRINTF?BYTE
      0000002EH   PUBLIC    DATA     ---       ?_SPRINTF517?BYTE
      0000002EH   PUBLIC    DATA     ---       ?_SPRINTF?BYTE
      010041D6H   PUBLIC    CODE     ---       _PRINTF
      010041D6H   PUBLIC    CODE     ---       _PRINTF517
      010041D0H   PUBLIC    CODE     ---       _SPRINTF
      010041D0H   PUBLIC    CODE     ---       _SPRINTF517

      ---         MODULE    ---      ---       ?C?MEMCMP
      01004114H   PUBLIC    CODE     ---       ?C?MEMCMP

      ---         MODULE    ---      ---       ?C?MEMSET
      01004138H   PUBLIC    CODE     ---       ?C?MEMSET

      ---         MODULE    ---      ---       ?C_INIT
      010047DCH   PUBLIC    CODE     ---       ?C_START

      ---         MODULE    ---      ---       ?C?PLDIIDATA
      01004164H   PUBLIC    CODE     ---       ?C?PLDIIDATA

      ---         MODULE    ---      ---       PUTCHAR
      01004821H   PUBLIC    CODE     ---       _PUTCHAR

Program Size: data=143.6 xdata=1218 const=351 code=18500
LX51 RUN COMPLETE.  0 WARNING(S),  0 ERROR(S)
