LX51 LINKER/LOCATER V4.66.41.0                                                          12/07/2018  17:31:29  PAGE 1


LX51 LINKER/LOCATER V4.66.41.0, INVOKED BY:
C:\KEIL_V5\C51\BIN\LX51.EXE .\Output\Usr_Main.obj, .\Output\appTimer.obj, .\Output\dataManage.obj, .\Output\Tips.obj, .\
>> Output\devlopeDebug.obj, .\Output\dataTrans.obj, .\Output\usrKin.obj, .\Output\Relay.obj, .\Output\timerAct.obj, .\Ou
>> tput\touchPad.obj, .\Output\USART.obj, .\Output\delay.obj, .\Output\EEPROM.obj, .\Output\pars_Method.obj TO .\Output\
>> swZigbNode_sw3bit PRINT (.\Listings\swZigbNode_sw3bit.map) REMOVEUNUSED


CPU MODE:     8051 MODE
MEMORY MODEL: SMALL


INPUT MODULES INCLUDED:
  .\Output\Usr_Main.obj (USR_MAIN)
         COMMENT TYPE 0: C51 V9.54
  .\Output\appTimer.obj (APPTIMER)
         COMMENT TYPE 0: C51 V9.54
  .\Output\dataManage.obj (DATAMANAGE)
         COMMENT TYPE 0: C51 V9.54
  .\Output\Tips.obj (TIPS)
         COMMENT TYPE 0: C51 V9.54
  .\Output\devlopeDebug.obj (DEVLOPEDEBUG)
         COMMENT TYPE 0: C51 V9.54
  .\Output\dataTrans.obj (DATATRANS)
         COMMENT TYPE 0: C51 V9.54
  .\Output\usrKin.obj (USRKIN)
         COMMENT TYPE 0: C51 V9.54
  .\Output\Relay.obj (RELAY)
         COMMENT TYPE 0: C51 V9.54
  .\Output\timerAct.obj (TIMERACT)
         COMMENT TYPE 0: C51 V9.54
  .\Output\touchPad.obj (TOUCHPAD)
         COMMENT TYPE 0: C51 V9.54
  .\Output\USART.obj (USART)
         COMMENT TYPE 0: C51 V9.54
  .\Output\delay.obj (DELAY)
         COMMENT TYPE 0: C51 V9.54
  .\Output\EEPROM.obj (EEPROM)
         COMMENT TYPE 0: C51 V9.54
  .\Output\pars_Method.obj (PARS_METHOD)
         COMMENT TYPE 0: C51 V9.54
  C:\KEIL_V5\C51\LIB\C51S.LIB (?C_STARTUP)
         COMMENT TYPE 1: A51 / ASM51 Assembler
  C:\KEIL_V5\C51\LIB\C51S.LIB (?C?COPY)
         COMMENT TYPE 1: A51 / ASM51 Assembler
  C:\KEIL_V5\C51\LIB\C51S.LIB (?C?CLDPTR)
         COMMENT TYPE 1: A51 / ASM51 Assembler
  C:\KEIL_V5\C51\LIB\C51S.LIB (?C?CLDOPTR)
         COMMENT TYPE 1: A51 / ASM51 Assembler
  C:\KEIL_V5\C51\LIB\C51S.LIB (?C?CSTPTR)
         COMMENT TYPE 1: A51 / ASM51 Assembler
  C:\KEIL_V5\C51\LIB\C51S.LIB (?C?CSTOPTR)
         COMMENT TYPE 1: A51 / ASM51 Assembler
  C:\KEIL_V5\C51\LIB\C51S.LIB (?C?IMUL)
         COMMENT TYPE 1: A51 / ASM51 Assembler
  C:\KEIL_V5\C51\LIB\C51S.LIB (?C?UIDIV)
         COMMENT TYPE 1: A51 / ASM51 Assembler
  C:\KEIL_V5\C51\LIB\C51S.LIB (?C?LMUL)
         COMMENT TYPE 1: A51 / ASM51 Assembler
  C:\KEIL_V5\C51\LIB\C51S.LIB (?C?ULCMP)
         COMMENT TYPE 1: A51 / ASM51 Assembler
  C:\KEIL_V5\C51\LIB\C51S.LIB (?C?ULSHR)
         COMMENT TYPE 1: A51 / ASM51 Assembler
  C:\KEIL_V5\C51\LIB\C51S.LIB (?C?LSHL)
         COMMENT TYPE 1: A51 / ASM51 Assembler
  C:\KEIL_V5\C51\LIB\C51S.LIB (?C?OFFXADD)
         COMMENT TYPE 1: A51 / ASM51 Assembler
LX51 LINKER/LOCATER V4.66.41.0                                                        12/07/2018  17:31:29  PAGE 2


  C:\KEIL_V5\C51\LIB\C51S.LIB (?C?CCASE)
         COMMENT TYPE 1: A51 / ASM51 Assembler
  C:\KEIL_V5\C51\LIB\C51S.LIB (?C?ICALL)
         COMMENT TYPE 1: A51 / ASM51 Assembler
  C:\KEIL_V5\C51\LIB\C51S.LIB (PRINTF)
         COMMENT TYPE 1: A51 / ASM51 Assembler
  C:\KEIL_V5\C51\LIB\C51S.LIB (?C?MEMCMP)
         COMMENT TYPE 1: A51 / ASM51 Assembler
  C:\KEIL_V5\C51\LIB\C51S.LIB (?C?MEMSET)
         COMMENT TYPE 1: A51 / ASM51 Assembler
  C:\KEIL_V5\C51\LIB\C51S.LIB (?C_INIT)
         COMMENT TYPE 1: A51 / ASM51 Assembler
  C:\KEIL_V5\C51\LIB\C51S.LIB (?C?PLDIIDATA)
         COMMENT TYPE 1: A51 / ASM51 Assembler
  C:\KEIL_V5\C51\LIB\C51S.LIB (PUTCHAR)
         COMMENT TYPE 1: A51 / ASM51 Assembler


ACTIVE MEMORY CLASSES OF MODULE:  .\Output\swZigbNode_sw3bit (USR_MAIN)

BASE        START       END         USED      MEMORY CLASS
==========================================================
C:000000H   C:000000H   C:00FFFFH   0075FAH   CODE
X:000000H   X:000000H   X:00FFFFH   00066CH   XDATA
I:000020H.0 I:000020H.0 I:00002FH.7 000006H.2 BIT
I:000000H   I:000000H   I:00007FH   000075H   DATA
C:000000H   C:000000H   C:00FFFFH   000087H   CONST
I:000000H   I:000000H   I:0000FFH   00001DH   IDATA


MEMORY MAP OF MODULE:  .\Output\swZigbNode_sw3bit (USR_MAIN)


START     STOP      LENGTH    ALIGN  RELOC    MEMORY CLASS   SEGMENT NAME
=========================================================================

* * * * * * * * * * *   D A T A   M E M O R Y   * * * * * * * * * * * * *
000000H   000007H   000008H   ---    AT..     DATA           "REG BANK 0"
000008H   000010H   000009H   BYTE   UNIT     DATA           ?DT?DATATRANS
000011H   000017H   000007H   BYTE   UNIT     DATA           ?DT?APPTIMER
000018H   00001EH   000007H   BYTE   UNIT     DATA           ?DT?DATAMANAGE
00001FH   00001FH   000001H   BYTE   UNIT     IDATA          ?ID?USRKIN
000020H.0 000021H.6 000001H.7 BIT    UNIT     BIT            _BIT_GROUP_
000021H.7 000023H.1 000001H.3 BIT    UNIT     BIT            ?BI?USRKIN
000023H.2 000024H.2 000001H.1 BIT    UNIT     BIT            ?BI?DATATRANS
000024H.3 000025H.1 000000H.7 BIT    UNIT     BIT            ?BI?TIPS
000025H.2 000025H.5 000000H.4 BIT    UNIT     BIT            ?BI?TIMERACT
000025H.6 000025H.7 000000H.2 BIT    UNIT     BIT            ?BI?RELAY
000026H.0 000026H.0 000000H.1 BIT    UNIT     BIT            ?BI?APPTIMER
000026H.1 000026H.1 000000H.1 BIT    UNIT     BIT            ?BI?DATAMANAGE
000026H.2 000026H   000000H.6 ---    ---      **GAP**
000027H   000055H   00002FH   BYTE   UNIT     DATA           _DATA_GROUP_
000056H   00006FH   00001AH   BYTE   UNIT     DATA           ?DT?TIPS
000070H   000076H   000007H   BYTE   UNIT     DATA           ?DT?USART
000077H   00007CH   000006H   BYTE   UNIT     DATA           ?DT?USRKIN
00007DH   00008AH   00000EH   BYTE   UNIT     IDATA          _IDATA_GROUP_
00008BH   000097H   00000DH   BYTE   UNIT     IDATA          ?ID?TIMERACT
000098H   000098H   000001H   BYTE   UNIT     IDATA          ?STACK

* * * * * * * * * * *   C O D E   M E M O R Y   * * * * * * * * * * * * *
000000H   000002H   000003H   ---    OFFS..   CODE           ?CO??C_STARTUP?0
000003H   000008H   000006H   BYTE   UNIT     CODE           ?PR?_TOUCHPAD_RESETOPREAT?TOUCHPAD
000009H   000009H   000001H   BYTE   UNIT     CODE           ?PR?TIMER0_ROUNTINE?APPTIMER
00000AH   00000AH   000001H   ---    ---      **GAP**
00000BH   00000DH   000003H   BYTE   OFFS..   CODE           ?APPTIMER?0000B
LX51 LINKER/LOCATER V4.66.41.0                                                        12/07/2018  17:31:29  PAGE 3


00000EH   000022H   000015H   BYTE   UNIT     CODE           ?PR?BSP_INIT?USR_MAIN
000023H   000025H   000003H   BYTE   OFFS..   CODE           ?DATATRANS?00023
000026H   0000A0H   00007BH   BYTE   UNIT     CODE           ?PR?UARTOBJZIGB_INIT?DATATRANS
0000A1H   0000A2H   000002H   ---    ---      **GAP**
0000A3H   0000A5H   000003H   BYTE   OFFS..   CODE           ?APPTIMER?000A3
0000A6H   0010B9H   001014H   BYTE   UNIT     CODE           ?CO?DATATRANS
0010BAH   001F14H   000E5BH   BYTE   UNIT     CODE           ?PR?_DATAPARING_NOMAL?DATATRANS
001F15H   0028CEH   0009BAH   BYTE   UNIT     CODE           ?PR?THREAD_DATATRANS?DATATRANS
0028CFH   002F23H   000655H   BYTE   UNIT     CODE           ?PR?TIMER4_ROUNTINE?APPTIMER
002F24H   0033D5H   0004B2H   BYTE   UNIT     CODE           ?C_INITSEG
0033D6H   003850H   00047BH   BYTE   UNIT     CODE           ?C?LIB_CODE
003851H   003CAFH   00045FH   BYTE   UNIT     CODE           ?PR?THREAD_TIMING?TIMERACT
003CB0H   004077H   0003C8H   BYTE   UNIT     CODE           ?PR?ZIGB_NWKJOINREQUEST?DATATRANS
004078H   004428H   0003B1H   BYTE   UNIT     CODE           ?PR?THREAD_TIPS?TIPS
004429H   004784H   00035CH   BYTE   UNIT     CODE           ?PR?PRINTF?PRINTF
004785H   004AABH   000327H   BYTE   UNIT     CODE           ?PR?TIPS_SYSBUTTONREALES?TIPS
004AACH   004DB9H   00030EH   BYTE   UNIT     CODE           ?PR?DATATRANSREQUEST_DATSSEND?DATATRANS
004DBAH   00506EH   0002B5H   BYTE   UNIT     CODE           ?PR?_DATAPARING_ZIGBSYSCTRL?DATATRANS
00506FH   0052BEH   000250H   BYTE   UNIT     CODE           ?PR?_TIPS_SPECIFIED?TIPS
0052BFH   005470H   0001B2H   BYTE   UNIT     CODE           ?PR?_ZIGB_SYSTIMESET?DATATRANS
005471H   005601H   000191H   BYTE   UNIT     CODE           ?CO?DATAMANAGE
005602H   00574CH   00014BH   BYTE   UNIT     CODE           ?PR?TOUCHPAD_SCAN?USRKIN
00574DH   005882H   000136H   BYTE   UNIT     CODE           ?PR?DTASTX_LOADBASIC_CUST?DATATRANS
005883H   0059B3H   000131H   BYTE   UNIT     CODE           ?PR?_TOUCHPAD_FUNCTIONTRIGNORMAL?USRKIN
0059B4H   005AC9H   000116H   BYTE   UNIT     CODE           ?PR?_NORMALBUSSINESS_SHORTTOUCHTRIG?USRKIN
005ACAH   005BD5H   00010CH   BYTE   UNIT     CODE           ?PR?FUNCTION_DEVNWKHOLD?DATATRANS
005BD6H   005CDFH   00010AH   BYTE   UNIT     CODE           ?PR?GETSYSTEMTIME_REALES?DATATRANS
005CE0H   005DCEH   0000EFH   BYTE   UNIT     CODE           ?PR?_DATSTIMING_READ_EEPROM?TIMERACT
005DCFH   005EBDH   0000EFH   BYTE   UNIT     CODE           ?PR?_DATSTIMNIGHT_READ_EEPROM?TIMERACT
005EBEH   005FA2H   0000E5H   BYTE   UNIT     CODE           ?CO?TIMERACT
005FA3H   006084H   0000E2H   BYTE   UNIT     CODE           ?CO?USRKIN
006085H   00615EH   0000DAH   BYTE   UNIT     CODE           ?PR?RELAY_ACT?RELAY
00615FH   006220H   0000C2H   BYTE   UNIT     CODE           ?PR?THREAD_DEVLOPEDEBUG?DEVLOPEDEBUG
006221H   0062E2H   0000C2H   BYTE   UNIT     CODE           ?PR?_ZIGB_TXFRAMELOAD?DATATRANS
0062E3H   00639EH   0000BCH   BYTE   UNIT     CODE           ?PR?RELAY_STATUSREALES?RELAY
00639FH   006450H   0000B2H   BYTE   UNIT     CODE           ?PR?DEVDATARECOVERY_RELAYSTATUS?DATAMANAGE
006451H   0064F0H   0000A0H   BYTE   UNIT     CODE           ?PR?TIPS_WARNING?TIPS
0064F1H   00658FH   00009FH   BYTE   UNIT     CODE           ?PR?FACTORY_RECOVER?DATAMANAGE
006590H   00662BH   00009CH   BYTE   UNIT     CODE           ?PR?_USRKEYSCAN?USRKIN
00662CH   0066C5H   00009AH   BYTE   UNIT     CODE           ?PR?_ZIGB_VALIDA_INPUT?DATATRANS
0066C6H   00675CH   000097H   BYTE   UNIT     CODE           ?PR?TIME_LOGOUT?TIMERACT
00675DH   0067F2H   000096H   BYTE   UNIT     CODE           ?PR?UART1_ROUNTINE?DATATRANS
0067F3H   006882H   000090H   BYTE   UNIT     CODE           ?PR?MAC_ID_RELAES?DATAMANAGE
006883H   00690EH   00008CH   BYTE   UNIT     CODE           ?C_C51STARTUP
00690FH   006998H   00008AH   BYTE   UNIT     CODE           ?PR?_TIPSLED_COLORSET?TIPS
006999H   006A1FH   000087H   BYTE   UNIT     CODE           ?PR?_ZIGB_DATSLOAD_DATSSEND?DATATRANS
006A20H   006AA6H   000087H   BYTE   UNIT     CODE           ?PR?_MEMMEM?PARS_METHOD
006AA7H   006B1FH   000079H   BYTE   UNIT     CODE           ?CO?DEVLOPEDEBUG
006B20H   006B98H   000079H   BYTE   UNIT     CODE           ?PR?_ZIGB_DATSREQUEST?DATATRANS
006B99H   006C0DH   000075H   BYTE   UNIT     CODE           ?PR?_THREAD_TIPSGETDARK?TIPS
006C0EH   006C81H   000074H   BYTE   UNIT     CODE           ?PR?_TOUCHPAD_FUNCTIONTRIGCONTINUE?USRKIN
006C82H   006CECH   00006BH   BYTE   UNIT     CODE           ?PR?DCODESCAN?USRKIN
006CEDH   006D4FH   000063H   BYTE   UNIT     CODE           ?PR?_DATAPARING_SCENARIOCTRL?DATATRANS
006D50H   006DB1H   000062H   BYTE   UNIT     CODE           ?PR?ZIGB_NWKOPEN?DATATRANS
006DB2H   006E12H   000061H   BYTE   UNIT     CODE           ?PR?_COVEREEPROM_WRITE_N?EEPROM
006E13H   006E72H   000060H   BYTE   UNIT     CODE           ?PR?LEDBKGCOLORSW_REALES?TIPS
006E73H   006EC5H   000053H   BYTE   UNIT     CODE           ?CO?TIPS
006EC6H   006F18H   000053H   BYTE   UNIT     CODE           ?PR?ZIGB_GETPANIDCURRENT?DATATRANS
006F19H   006F68H   000050H   BYTE   UNIT     CODE           ?PR?_DEVPARAMDTAASAVE_RELAYSTATUSREALTIME?DATAMANAGE
006F69H   006FB8H   000050H   BYTE   UNIT     CODE           ?PR?TIPS_SYSTOUCHRESET?TIPS
006FB9H   007007H   00004FH   BYTE   UNIT     CODE           ?PR?DEVSTATUSCHANGETO_DEVHOLD?DATATRANS
007008H   007052H   00004BH   BYTE   UNIT     CODE           ?PR?MAIN?USR_MAIN
007053H   00709CH   00004AH   BYTE   UNIT     CODE           ?PR?USRZIGBNWKOPEN?USRKIN
00709DH   0070E2H   000046H   BYTE   UNIT     CODE           ?PR?_DATASENDREMOTE_STRAIGHTFORWARD?DATATRANS
0070E3H   007125H   000043H   BYTE   UNIT     CODE           ?PR?DCODESCAN_ONESHOOT?USRKIN
LX51 LINKER/LOCATER V4.66.41.0                                                        12/07/2018  17:31:29  PAGE 4


007126H   007162H   00003DH   BYTE   UNIT     CODE           ?PR?_EEPROM_WRITE_N?EEPROM
007163H   00719EH   00003CH   BYTE   UNIT     CODE           ?PR?TIPLED_PININIT?TIPS
00719FH   0071DAH   00003CH   BYTE   UNIT     CODE           ?PR?RELAY_PININIT?RELAY
0071DBH   007215H   00003BH   BYTE   UNIT     CODE           ?PR?THREAD_RELAY?RELAY
007216H   00724DH   000038H   BYTE   UNIT     CODE           ?PR?_EEPROM_READ_N?EEPROM
00724EH   007283H   000036H   BYTE   UNIT     CODE           ?PR?_PRINTSTRING1_LOGOUT?USART
007284H   0072ADH   00002AH   BYTE   UNIT     CODE           ?PR?_FRAME_CHECK?DATATRANS
0072AEH   0072D7H   00002AH   BYTE   UNIT     CODE           ?PR?_WEEKEND_JUDGE?TIMERACT
0072D8H   007300H   000029H   BYTE   UNIT     CODE           ?PR?_BEEPS_USRACTIVE?TIPS
007301H   007327H   000027H   BYTE   UNIT     CODE           ?PR?USRKIN_PININIT?USRKIN
007328H   00734EH   000027H   BYTE   UNIT     CODE           ?PR?PUTCHAR?PUTCHAR
00734FH   007374H   000026H   BYTE   UNIT     CODE           ?PR?TIMEZONE_REALES?TIMERACT
007375H   00739AH   000026H   BYTE   UNIT     CODE           ?PR?_UART1_DATSSEND?USART
00739BH   0073BFH   000025H   BYTE   UNIT     CODE           ?PR?SWITCHTYPERESERVE_GET?DATAMANAGE
0073C0H   0073E2H   000023H   BYTE   UNIT     CODE           ?PR?_TX1_WRITE2BUFF?USART
0073E3H   007404H   000022H   BYTE   UNIT     CODE           ?PR?BIRTHDAY_JUDGE?DATAMANAGE
007405H   007423H   00001FH   BYTE   UNIT     CODE           ?PR?_EEPROM_SECTORERASE?EEPROM
007424H   007441H   00001EH   BYTE   UNIT     CODE           ?PR?_DEVTYPECOMFIRM_BYDCODE?USRKIN
007442H   00745EH   00001DH   BYTE   UNIT     CODE           ?PR?TIPS_SYSSTANDBY?TIPS
00745FH   007477H   000019H   BYTE   UNIT     CODE           ?PR?FUN_FACTORYRECOVEROPREAT?DATATRANS
007478H   00748FH   000018H   BYTE   UNIT     CODE           ?PR?_NORMALBUSSINESS_LONGA_TOUCHKEEPTRIG?USRKIN
007490H   0074A5H   000016H   BYTE   UNIT     CODE           ?PR?_TIPS_STATUSCHANGETOTOUCHRESET?TIPS
0074A6H   0074BBH   000016H   BYTE   UNIT     CODE           ?PR?_TIPS_STATUSCHANGETOFACTORYRECOVER?TIPS
0074BCH   0074D0H   000015H   BYTE   UNIT     CODE           ?PR?APPTIMER0_INIT?APPTIMER
0074D1H   0074E5H   000015H   BYTE   UNIT     CODE           ?PR?_TIPS_STATUSCHANGETOZIGBNWKOPEN?TIPS
0074E6H   0074FAH   000015H   BYTE   UNIT     CODE           ?PR?_PERIODDATATRANS_MOMENTHANG?DATATRANS
0074FBH   00750FH   000015H   BYTE   UNIT     CODE           ?PR?USRKEYFUN_ZIGBNWKREJOIN?USRKIN
007510H   007524H   000015H   BYTE   UNIT     CODE           ?PR?_DELAYMS?DELAY
007525H   007537H   000013H   BYTE   UNIT     CODE           ?PR?PORTCTRLEACHOTHER_REALES?DATAMANAGE
007538H   00754AH   000013H   BYTE   UNIT     CODE           ?PR?TIPS_STATUSCHANGETONORMAL?TIPS
00754BH   00755DH   000013H   BYTE   UNIT     CODE           ?PR?ZIGBUART_PININIT?DATATRANS
00755EH   007570H   000013H   BYTE   UNIT     CODE           ?PR?TOUCHPADSCAN_ONESHOOT?USRKIN
007571H   007583H   000013H   BYTE   UNIT     CODE           ?PR?_PRINTSTRING1?USART
007584H   007593H   000010H   BYTE   UNIT     CODE           ?PR?APPTIMER4_INIT?APPTIMER
007594H   0075A3H   000010H   BYTE   UNIT     CODE           ?PR?_DELAY_MS?DELAY
0075A4H   0075B1H   00000EH   BYTE   UNIT     CODE           ?PR?DISABLEEEPROM?EEPROM
0075B2H   0075BDH   00000CH   BYTE   UNIT     CODE           ?PR?BSP_DATSREALES?USR_MAIN
0075BEH   0075C9H   00000CH   BYTE   UNIT     CODE           ?PR?TOUCHPAD_PROCESSTHREAD?TOUCHPAD
0075CAH   0075D4H   00000BH   BYTE   UNIT     CODE           ?PR?TIPS_STATUSCHANGETOZIGBNWKFIND?TIPS
0075D5H   0075DEH   00000AH   BYTE   UNIT     CODE           ?PR?FUN_TOUCHRESET?USRKIN
0075DFH   0075E7H   000009H   BYTE   UNIT     CODE           ?PR?DEVHOLDSTOP_MAKEINADVANCE?DATATRANS
0075E8H   0075F0H   000009H   BYTE   UNIT     CODE           ?PR?ITRF_DATSTIMING_READ_EEPROM?TIMERACT
0075F1H   0075F9H   000009H   BYTE   UNIT     CODE           ?PR?ITRF_DATSTIMNIGHT_READ_EEPROM?TIMERACT
0075FAH   0075FCH   000003H   BYTE   UNIT     CODE           ?PR?USRKEYSCAN_ONESHOOT?USRKIN
0075FDH   00767CH   000080H   BYTE   UNIT     CONST          ?CO?EEPROM
00767DH   007683H   000007H   BYTE   UNIT     CONST          ?CO?APPTIMER

* * * * * * * * * * *  X D A T A   M E M O R Y  * * * * * * * * * * * * *
000000H   00025AH   00025BH   BYTE   UNIT     XDATA          _XDATA_GROUP_
00025BH   000483H   000229H   BYTE   UNIT     XDATA          ?XD?DATATRANS
000484H   0005B5H   000132H   BYTE   UNIT     XDATA          ?XD?USART
0005B6H   000602H   00004DH   BYTE   UNIT     XDATA          ?XD?DATAMANAGE
000603H   00062CH   00002AH   BYTE   UNIT     XDATA          ?XD?TIMERACT
00062DH   000643H   000017H   BYTE   UNIT     XDATA          ?XD?TIPS
000644H   000656H   000013H   BYTE   UNIT     XDATA          ?XD?APPTIMER
000657H   000660H   00000AH   BYTE   UNIT     XDATA          ?XD?RELAY
000661H   000666H   000006H   BYTE   UNIT     XDATA          ?XD?USRKIN
000667H   00066AH   000004H   BYTE   UNIT     XDATA          ?XD?DEVLOPEDEBUG
00066BH   00066BH   000001H   BYTE   UNIT     XDATA          ?XD?TOUCHPAD

* * * * * * * * *   R E M O V E D     S E G M E N T S   * * * * * * * *
   *DEL*:           000022H   BYTE   UNIT     CODE           ?PR?DEVLOCKINFO_REALES?DATAMANAGE
   *DEL*:           000001H   BYTE   UNIT     XDATA          ?XD?DEVLOCKINFO_REALES?DATAMANAGE
   *DEL*:           000007H   BYTE   UNIT     CODE           ?PR?PINBEEP_INIT?TIPS
   *DEL*:           00007BH   BYTE   UNIT     CODE           ?PR?TIPS_BREATH?TIPS
LX51 LINKER/LOCATER V4.66.41.0                                                        12/07/2018  17:31:29  PAGE 5


   *DEL*:           00028EH   BYTE   UNIT     CODE           ?PR?TIPS_FADEOUT?TIPS
   *DEL*:           000028H   BYTE   UNIT     CODE           ?PR?_XORNUM_CHECK?DATATRANS
   *DEL*:           000003H   BYTE   UNIT     DATA           ?DT?_XORNUM_CHECK?DATATRANS
   *DEL*:           000001H   BYTE   UNIT     CODE           ?PR?FUN_TEST?USRKIN
   *DEL*:           000001H   BYTE   UNIT     CODE           ?PR?TOUCHPAD_PININIT?TOUCHPAD
   *DEL*:           00002DH   BYTE   UNIT     CODE           ?PR?_UART1_LOGOUT?USART
   *DEL*:           000004H   BYTE   UNIT     DATA           ?DT?_UART1_LOGOUT?USART



OVERLAY MAP OF MODULE:   .\Output\swZigbNode_sw3bit (USR_MAIN)


FUNCTION/MODULE                                BIT_GROUP   DATA_GROUP   IDATA_GROUP  XDATA_GROUP
--> CALLED FUNCTION/MODULE                    START  STOP  START  STOP  START  STOP  START  STOP
================================================================================================
TIMER0_ROUNTINE/APPTIMER                      ----- -----  ----- -----  ----- -----  ----- -----

*** NEW ROOT ********************************

TIMER4_ROUNTINE/APPTIMER                      ----- -----  ----- -----  ----- -----  ----- -----
  +--> ?CO?APPTIMER

?CO?APPTIMER                                  ----- -----  ----- -----  ----- -----  ----- -----

*** NEW ROOT ********************************

UART1_ROUNTINE/DATATRANS                      ----- -----  ----- -----  ----- -----  ----- -----

*** NEW ROOT ********************************

?C_C51STARTUP                                 ----- -----  ----- -----  ----- -----  ----- -----
  +--> MAIN/USR_MAIN
  +--> ?C_INITSEG

MAIN/USR_MAIN                                 ----- -----  ----- -----  ----- -----  ----- -----
  +--> BSP_INIT/USR_MAIN
  +--> BSP_DATSREALES/USR_MAIN
  +--> BIRTHDAY_JUDGE/DATAMANAGE
  +--> TOUCHPAD_SCAN/USRKIN
  +--> USRKEYFUN_ZIGBNWKREJOIN/USRKIN
  +--> FUN_FACTORYRECOVEROPREAT/DATATRANS
  +--> FUN_TOUCHRESET/USRKIN
  +--> _USRKEYSCAN/USRKIN
  +--> DCODESCAN/USRKIN
  +--> THREAD_TIMING/TIMERACT
  +--> THREAD_RELAY/RELAY
  +--> THREAD_DATATRANS/DATATRANS
  +--> THREAD_TIPS/TIPS
  +--> TOUCHPAD_PROCESSTHREAD/TOUCHPAD
  +--> THREAD_DEVLOPEDEBUG/DEVLOPEDEBUG

BSP_INIT/USR_MAIN                             ----- -----  ----- -----  ----- -----  ----- -----
  +--> APPTIMER0_INIT/APPTIMER
  +--> APPTIMER4_INIT/APPTIMER
  +--> ZIGBUART_PININIT/DATATRANS
  +--> UARTOBJZIGB_INIT/DATATRANS
  +--> TIPLED_PININIT/TIPS
  +--> USRKIN_PININIT/USRKIN
  +--> RELAY_PININIT/RELAY

APPTIMER0_INIT/APPTIMER                       ----- -----  ----- -----  ----- -----  ----- -----

APPTIMER4_INIT/APPTIMER                       ----- -----  ----- -----  ----- -----  ----- -----

LX51 LINKER/LOCATER V4.66.41.0                                                        12/07/2018  17:31:29  PAGE 6


ZIGBUART_PININIT/DATATRANS                    ----- -----  ----- -----  ----- -----  ----- -----

UARTOBJZIGB_INIT/DATATRANS                    ----- -----  0027H 002AH  ----- -----  ----- -----
  +--> ?CO?DATATRANS
  +--> _PRINTSTRING1/USART
  +--> _PRINTSTRING1_LOGOUT/USART

?CO?DATATRANS                                 ----- -----  ----- -----  ----- -----  ----- -----

_PRINTSTRING1/USART                           ----- -----  ----- -----  ----- -----  ----- -----
  +--> _TX1_WRITE2BUFF/USART

_TX1_WRITE2BUFF/USART                         ----- -----  ----- -----  ----- -----  ----- -----

_PRINTSTRING1_LOGOUT/USART                    ----- -----  0038H 003AH  ----- -----  ----- -----
  +--> _DELAYMS/DELAY
  +--> _PRINTSTRING1/USART

_DELAYMS/DELAY                                ----- -----  ----- -----  ----- -----  ----- -----
  +--> _DELAY_MS/DELAY

_DELAY_MS/DELAY                               ----- -----  ----- -----  ----- -----  ----- -----

TIPLED_PININIT/TIPS                           ----- -----  ----- -----  ----- -----  ----- -----
  +--> _TIPSLED_COLORSET/TIPS

_TIPSLED_COLORSET/TIPS                        ----- -----  0028H 002BH  ----- -----  ----- -----
  +--> ?CO?TIPS

?CO?TIPS                                      ----- -----  ----- -----  ----- -----  ----- -----

USRKIN_PININIT/USRKIN                         ----- -----  0027H 0027H  ----- -----  ----- -----
  +--> DCODESCAN_ONESHOOT/USRKIN
  +--> _DEVTYPECOMFIRM_BYDCODE/USRKIN

DCODESCAN_ONESHOOT/USRKIN                     ----- -----  ----- -----  ----- -----  ----- -----

_DEVTYPECOMFIRM_BYDCODE/USRKIN                ----- -----  ----- -----  ----- -----  ----- -----

RELAY_PININIT/RELAY                           ----- -----  ----- -----  007DH 007DH  ----- -----
  +--> DEVDATARECOVERY_RELAYSTATUS/DATAMANAGE
  +--> _COVEREEPROM_WRITE_N/EEPROM
  +--> RELAY_STATUSREALES/RELAY

DEVDATARECOVERY_RELAYSTATUS/DATAMANAGE        ----- -----  ----- -----  ----- -----  0000H 0065H
  +--> ?CO?DATAMANAGE
  +--> _EEPROM_READ_N/EEPROM
  +--> PRINTF/PRINTF
  +--> _PRINTSTRING1_LOGOUT/USART
  +--> _EEPROM_SECTORERASE/EEPROM

?CO?DATAMANAGE                                ----- -----  ----- -----  ----- -----  ----- -----

_EEPROM_READ_N/EEPROM                         ----- -----  004FH 0055H  ----- -----  ----- -----
  +--> DISABLEEEPROM/EEPROM

DISABLEEEPROM/EEPROM                          ----- -----  ----- -----  ----- -----  ----- -----

PRINTF/PRINTF                                 20H.6 21H.6  0038H 004BH  ----- -----  ----- -----
  +--> PUTCHAR/PUTCHAR

PUTCHAR/PUTCHAR                               ----- -----  ----- -----  ----- -----  ----- -----

_EEPROM_SECTORERASE/EEPROM                    ----- -----  ----- -----  ----- -----  ----- -----
  +--> DISABLEEEPROM/EEPROM
LX51 LINKER/LOCATER V4.66.41.0                                                        12/07/2018  17:31:29  PAGE 7



_COVEREEPROM_WRITE_N/EEPROM                   ----- -----  0033H 0039H  ----- -----  01DBH 025AH
  +--> ?CO?EEPROM
  +--> _EEPROM_READ_N/EEPROM
  +--> _EEPROM_SECTORERASE/EEPROM
  +--> _EEPROM_WRITE_N/EEPROM

?CO?EEPROM                                    ----- -----  ----- -----  ----- -----  ----- -----

_EEPROM_WRITE_N/EEPROM                        ----- -----  003AH 0040H  ----- -----  ----- -----
  +--> DISABLEEEPROM/EEPROM

RELAY_STATUSREALES/RELAY                      ----- -----  ----- -----  ----- -----  ----- -----
  +--> TIPS_STATUSCHANGETONORMAL/TIPS

TIPS_STATUSCHANGETONORMAL/TIPS                ----- -----  ----- -----  ----- -----  ----- -----

BSP_DATSREALES/USR_MAIN                       ----- -----  ----- -----  ----- -----  ----- -----
  +--> MAC_ID_RELAES/DATAMANAGE
  +--> PORTCTRLEACHOTHER_REALES/DATAMANAGE
  +--> LEDBKGCOLORSW_REALES/TIPS
  +--> TIMEZONE_REALES/TIMERACT

MAC_ID_RELAES/DATAMANAGE                      ----- -----  ----- -----  ----- -----  ----- -----
  +--> ?CO?DATAMANAGE
  +--> PRINTF/PRINTF
  +--> _PRINTSTRING1_LOGOUT/USART

PORTCTRLEACHOTHER_REALES/DATAMANAGE           ----- -----  ----- -----  ----- -----  ----- -----
  +--> _EEPROM_READ_N/EEPROM

LEDBKGCOLORSW_REALES/TIPS                     ----- -----  ----- -----  ----- -----  ----- -----
  +--> _EEPROM_READ_N/EEPROM
  +--> _COVEREEPROM_WRITE_N/EEPROM

TIMEZONE_REALES/TIMERACT                      ----- -----  ----- -----  ----- -----  ----- -----
  +--> _EEPROM_READ_N/EEPROM

BIRTHDAY_JUDGE/DATAMANAGE                     ----- -----  ----- -----  ----- -----  0000H 0000H
  +--> _EEPROM_READ_N/EEPROM
  +--> FACTORY_RECOVER/DATAMANAGE

FACTORY_RECOVER/DATAMANAGE                    ----- -----  ----- -----  ----- -----  015BH 01DAH
  +--> ?CO?DATAMANAGE
  +--> _COVEREEPROM_WRITE_N/EEPROM
  +--> _DELAYMS/DELAY

TOUCHPAD_SCAN/USRKIN                          ----- -----  0027H 0029H  ----- -----  ----- -----
  +--> TOUCHPADSCAN_ONESHOOT/USRKIN
  +--> ?CO?USRKIN
  +--> _NORMALBUSSINESS_LONGA_TOUCHKEEPTRIG/USRKIN
  +--> _TOUCHPAD_FUNCTIONTRIGNORMAL/USRKIN
  +--> _TOUCHPAD_FUNCTIONTRIGCONTINUE/USRKIN

TOUCHPADSCAN_ONESHOOT/USRKIN                  ----- -----  ----- -----  ----- -----  ----- -----

?CO?USRKIN                                    ----- -----  ----- -----  ----- -----  ----- -----

_NORMALBUSSINESS_LONGA_TOUCHKEEPTRIG/USR+     ----- -----  ----- -----  ----- -----  ----- -----
... KIN
  +--> ?CO?USRKIN

_TOUCHPAD_FUNCTIONTRIGNORMAL/USRKIN           ----- -----  002AH 002BH  ----- -----  ----- -----
  +--> ?CO?USRKIN
  +--> PRINTF/PRINTF
LX51 LINKER/LOCATER V4.66.41.0                                                        12/07/2018  17:31:29  PAGE 8


  +--> _PRINTSTRING1_LOGOUT/USART
  +--> _NORMALBUSSINESS_SHORTTOUCHTRIG/USRKIN
  +--> USRKEYFUN_ZIGBNWKREJOIN/USRKIN
  +--> DEVSTATUSCHANGETO_DEVHOLD/DATATRANS

_NORMALBUSSINESS_SHORTTOUCHTRIG/USRKIN        ----- -----  ----- -----  ----- -----  ----- -----
  +--> _BEEPS_USRACTIVE/TIPS

_BEEPS_USRACTIVE/TIPS                         ----- -----  ----- -----  ----- -----  ----- -----

USRKEYFUN_ZIGBNWKREJOIN/USRKIN                ----- -----  ----- -----  ----- -----  ----- -----
  +--> TIPS_STATUSCHANGETOZIGBNWKFIND/TIPS

TIPS_STATUSCHANGETOZIGBNWKFIND/TIPS           ----- -----  ----- -----  ----- -----  ----- -----
  +--> _BEEPS_USRACTIVE/TIPS
  +--> _THREAD_TIPSGETDARK/TIPS

_THREAD_TIPSGETDARK/TIPS                      ----- -----  ----- -----  ----- -----  ----- -----

DEVSTATUSCHANGETO_DEVHOLD/DATATRANS           20H.4 20H.4  ----- -----  ----- -----  ----- -----
  +--> _THREAD_TIPSGETDARK/TIPS
  +--> ?CO?DATATRANS
  +--> PRINTF/PRINTF
  +--> _PRINTSTRING1_LOGOUT/USART

_TOUCHPAD_FUNCTIONTRIGCONTINUE/USRKIN         ----- -----  002AH 002BH  ----- -----  ----- -----
  +--> ?CO?USRKIN
  +--> PRINTF/PRINTF
  +--> _PRINTSTRING1_LOGOUT/USART
  +--> USRZIGBNWKOPEN/USRKIN
  +--> DEVHOLDSTOP_MAKEINADVANCE/DATATRANS

USRZIGBNWKOPEN/USRKIN                         ----- -----  ----- -----  ----- -----  ----- -----
  +--> ZIGB_NWKOPEN/DATATRANS
  +--> _TIPS_STATUSCHANGETOZIGBNWKOPEN/TIPS
  +--> ?CO?USRKIN
  +--> PRINTF/PRINTF
  +--> _PRINTSTRING1_LOGOUT/USART

ZIGB_NWKOPEN/DATATRANS                        20H.4 20H.5  002EH 002FH  ----- -----  016BH 016DH
  +--> ?CO?DATATRANS
  +--> _ZIGB_VALIDA_INPUT/DATATRANS

_ZIGB_VALIDA_INPUT/DATATRANS                  ----- -----  0036H 0045H  ----- -----  0176H 01D5H
  +--> ?CO?DATATRANS
  +--> _ZIGB_TXFRAMELOAD/DATATRANS
  +--> _UART1_DATSSEND/USART
  +--> _MEMMEM/PARS_METHOD
  +--> _DELAYMS/DELAY

_ZIGB_TXFRAMELOAD/DATATRANS                   ----- -----  0046H 0052H  ----- -----  ----- -----

_UART1_DATSSEND/USART                         ----- -----  004AH 004CH  ----- -----  ----- -----
  +--> _TX1_WRITE2BUFF/USART

_MEMMEM/PARS_METHOD                           ----- -----  0046H 0054H  ----- -----  ----- -----

_TIPS_STATUSCHANGETOZIGBNWKOPEN/TIPS          ----- -----  ----- -----  ----- -----  ----- -----
  +--> _BEEPS_USRACTIVE/TIPS
  +--> _THREAD_TIPSGETDARK/TIPS

DEVHOLDSTOP_MAKEINADVANCE/DATATRANS           ----- -----  ----- -----  ----- -----  ----- -----

FUN_FACTORYRECOVEROPREAT/DATATRANS            ----- -----  ----- -----  ----- -----  ----- -----
  +--> _TIPS_STATUSCHANGETOFACTORYRECOVER/TIPS
LX51 LINKER/LOCATER V4.66.41.0                                                        12/07/2018  17:31:29  PAGE 9



_TIPS_STATUSCHANGETOFACTORYRECOVER/TIPS       ----- -----  ----- -----  ----- -----  ----- -----
  +--> _THREAD_TIPSGETDARK/TIPS
  +--> _BEEPS_USRACTIVE/TIPS

FUN_TOUCHRESET/USRKIN                         ----- -----  ----- -----  ----- -----  ----- -----
  +--> _TOUCHPAD_RESETOPREAT/TOUCHPAD
  +--> _TIPS_STATUSCHANGETOTOUCHRESET/TIPS

_TOUCHPAD_RESETOPREAT/TOUCHPAD                ----- -----  ----- -----  ----- -----  ----- -----

_TIPS_STATUSCHANGETOTOUCHRESET/TIPS           ----- -----  ----- -----  ----- -----  ----- -----
  +--> _THREAD_TIPSGETDARK/TIPS
  +--> _BEEPS_USRACTIVE/TIPS

_USRKEYSCAN/USRKIN                            ----- -----  0027H 002FH  ----- -----  ----- -----
  +--> USRKEYSCAN_ONESHOOT/USRKIN
  +--> ?CO?USRKIN

USRKEYSCAN_ONESHOOT/USRKIN                    ----- -----  ----- -----  ----- -----  ----- -----

DCODESCAN/USRKIN                              20H.0 20H.0  0027H 0028H  ----- -----  ----- -----
  +--> DCODESCAN_ONESHOOT/USRKIN
  +--> SWITCHTYPERESERVE_GET/DATAMANAGE
  +--> _BEEPS_USRACTIVE/TIPS
  +--> TIPS_STATUSCHANGETONORMAL/TIPS
  +--> _DEVTYPECOMFIRM_BYDCODE/USRKIN

SWITCHTYPERESERVE_GET/DATAMANAGE              ----- -----  0029H 0029H  ----- -----  ----- -----

THREAD_TIMING/TIMERACT                        ----- -----  0027H 0027H  ----- -----  0000H 0005H
  +--> ?CO?TIMERACT
  +--> TIME_LOGOUT/TIMERACT
  +--> _EEPROM_READ_N/EEPROM
  +--> _DATSTIMING_READ_EEPROM/TIMERACT
  +--> _DATSTIMNIGHT_READ_EEPROM/TIMERACT
  +--> _WEEKEND_JUDGE/TIMERACT
  +--> PRINTF/PRINTF
  +--> _PRINTSTRING1_LOGOUT/USART
  +--> _COVEREEPROM_WRITE_N/EEPROM
  +--> ITRF_DATSTIMING_READ_EEPROM/TIMERACT

?CO?TIMERACT                                  ----- -----  ----- -----  ----- -----  ----- -----

TIME_LOGOUT/TIMERACT                          ----- -----  0028H 002EH  ----- -----  0006H 0055H
  +--> ?CO?TIMERACT
  +--> PRINTF/PRINTF
  +--> _PRINTSTRING1_LOGOUT/USART

_DATSTIMING_READ_EEPROM/TIMERACT              ----- -----  0033H 004EH  ----- -----  ----- -----
  +--> ?CO?TIMERACT
  +--> _EEPROM_READ_N/EEPROM

_DATSTIMNIGHT_READ_EEPROM/TIMERACT            ----- -----  0033H 003CH  ----- -----  ----- -----
  +--> ?CO?TIMERACT
  +--> _EEPROM_READ_N/EEPROM

_WEEKEND_JUDGE/TIMERACT                       ----- -----  ----- -----  ----- -----  ----- -----

ITRF_DATSTIMING_READ_EEPROM/TIMERACT          ----- -----  ----- -----  ----- -----  ----- -----
  +--> _DATSTIMING_READ_EEPROM/TIMERACT

THREAD_RELAY/RELAY                            ----- -----  ----- -----  007DH 007DH  ----- -----
  +--> RELAY_ACT/RELAY
  +--> _DEVPARAMDTAASAVE_RELAYSTATUSREALTIME/DATAMANAGE
LX51 LINKER/LOCATER V4.66.41.0                                                        12/07/2018  17:31:29  PAGE 10



RELAY_ACT/RELAY                               ----- -----  0027H 0029H  ----- -----  ----- -----
  +--> RELAY_STATUSREALES/RELAY
  +--> _DEVPARAMDTAASAVE_RELAYSTATUSREALTIME/DATAMANAGE

_DEVPARAMDTAASAVE_RELAYSTATUSREALTIME/DA+     ----- -----  002AH 002AH  ----- -----  0000H 0063H
... TAMANAGE
  +--> ?CO?DATAMANAGE
  +--> _EEPROM_SECTORERASE/EEPROM
  +--> _EEPROM_WRITE_N/EEPROM

THREAD_DATATRANS/DATATRANS                    20H.0 20H.1  ----- -----  007DH 0087H  0000H 00C8H
  +--> ?CO?DATATRANS
  +--> GETSYSTEMTIME_REALES/DATATRANS
  +--> _ZIGB_SYSTIMESET/DATATRANS
  +--> ZIGB_GETPANIDCURRENT/DATATRANS
  +--> PRINTF/PRINTF
  +--> _PRINTSTRING1_LOGOUT/USART
  +--> TIPS_STATUSCHANGETONORMAL/TIPS
  +--> _DATASENDREMOTE_STRAIGHTFORWARD/DATATRANS
  +--> _EEPROM_READ_N/EEPROM
  +--> _DATSTIMNIGHT_READ_EEPROM/TIMERACT
  +--> _FRAME_CHECK/DATATRANS
  +--> _DATAPARING_SCENARIOCTRL/DATATRANS
  +--> _DATAPARING_NOMAL/DATATRANS
  +--> _DATAPARING_ZIGBSYSCTRL/DATATRANS
  +--> _TIPS_STATUSCHANGETOZIGBNWKOPEN/TIPS
  +--> ZIGB_NWKJOINREQUEST/DATATRANS
  +--> DATATRANSREQUEST_DATSSEND/DATATRANS
  +--> FUNCTION_DEVNWKHOLD/DATATRANS
  +--> FACTORY_RECOVER/DATAMANAGE

GETSYSTEMTIME_REALES/DATATRANS                20H.2 20H.2  0027H 002EH  ----- -----  00C9H 00E8H
  +--> ?CO?DATATRANS
  +--> _ZIGB_DATSREQUEST/DATATRANS

_ZIGB_DATSREQUEST/DATATRANS                   ----- -----  003AH 0049H  ----- -----  ----- -----
  +--> _UART1_DATSSEND/USART

_ZIGB_SYSTIMESET/DATATRANS                    20H.4 20H.5  002EH 0035H  ----- -----  016BH 0175H
  +--> ?CO?DATATRANS
  +--> _ZIGB_VALIDA_INPUT/DATATRANS

ZIGB_GETPANIDCURRENT/DATATRANS                ----- -----  0038H 0039H  ----- -----  010AH 0129H
  +--> ?CO?DATATRANS
  +--> _ZIGB_DATSREQUEST/DATATRANS

_DATASENDREMOTE_STRAIGHTFORWARD/DATATRAN+     ----- -----  002BH 0031H  ----- -----  00CCH 012BH
... S
  +--> ?CO?DATATRANS
  +--> _ZIGB_DATSLOAD_DATSSEND/DATATRANS
  +--> _UART1_DATSSEND/USART

_ZIGB_DATSLOAD_DATSSEND/DATATRANS             ----- -----  0032H 003CH  ----- -----  016AH 01B1H
  +--> ?CO?DATATRANS
  +--> _ZIGB_TXFRAMELOAD/DATATRANS

_FRAME_CHECK/DATATRANS                        ----- -----  0039H 003BH  ----- -----  ----- -----

_DATAPARING_SCENARIOCTRL/DATATRANS            ----- -----  0027H 002AH  ----- -----  ----- -----
  +--> _DATASENDREMOTE_STRAIGHTFORWARD/DATATRANS
  +--> ?CO?DATATRANS
  +--> PRINTF/PRINTF
  +--> _PRINTSTRING1_LOGOUT/USART

LX51 LINKER/LOCATER V4.66.41.0                                                        12/07/2018  17:31:29  PAGE 11


_DATAPARING_NOMAL/DATATRANS                   20H.2 20H.5  0027H 0032H  ----- -----  00C9H 015AH
  +--> ?CO?DATATRANS
  +--> _FRAME_CHECK/DATATRANS
  +--> PRINTF/PRINTF
  +--> _PRINTSTRING1_LOGOUT/USART
  +--> TIPS_STATUSCHANGETONORMAL/TIPS
  +--> _COVEREEPROM_WRITE_N/EEPROM
  +--> _PERIODDATATRANS_MOMENTHANG/DATATRANS
  +--> _EEPROM_READ_N/EEPROM
  +--> FACTORY_RECOVER/DATAMANAGE
  +--> ITRF_DATSTIMING_READ_EEPROM/TIMERACT
  +--> ITRF_DATSTIMNIGHT_READ_EEPROM/TIMERACT
  +--> DTASTX_LOADBASIC_CUST/DATATRANS

_PERIODDATATRANS_MOMENTHANG/DATATRANS         ----- -----  ----- -----  ----- -----  ----- -----

ITRF_DATSTIMNIGHT_READ_EEPROM/TIMERACT        ----- -----  ----- -----  ----- -----  ----- -----
  +--> _DATSTIMNIGHT_READ_EEPROM/TIMERACT

DTASTX_LOADBASIC_CUST/DATATRANS               20H.6 20H.7  0033H 0038H  ----- -----  015BH 019AH
  +--> _FRAME_CHECK/DATATRANS
  +--> ?CO?DATATRANS

_DATAPARING_ZIGBSYSCTRL/DATATRANS             20H.2 20H.3  0027H 002DH  0088H 0088H  00C9H 016AH
  +--> ?CO?DATATRANS
  +--> ZIGB_NWKOPEN/DATATRANS
  +--> _TIPS_STATUSCHANGETOZIGBNWKOPEN/TIPS
  +--> PRINTF/PRINTF
  +--> _COVEREEPROM_WRITE_N/EEPROM
  +--> _ZIGB_SYSTIMESET/DATATRANS
  +--> _PRINTSTRING1_LOGOUT/USART
  +--> DEVSTATUSCHANGETO_DEVHOLD/DATATRANS
  +--> _PERIODDATATRANS_MOMENTHANG/DATATRANS

ZIGB_NWKJOINREQUEST/DATATRANS                 20H.2 20H.2  0027H 0037H  ----- -----  00C9H 0109H
  +--> ?CO?DATATRANS
  +--> ZIGB_GETPANIDCURRENT/DATATRANS
  +--> PRINTF/PRINTF
  +--> _PRINTSTRING1_LOGOUT/USART
  +--> _MEMMEM/PARS_METHOD
  +--> _ZIGB_TXFRAMELOAD/DATATRANS
  +--> _UART1_DATSSEND/USART

DATATRANSREQUEST_DATSSEND/DATATRANS           ----- -----  0027H 002BH  0088H 008AH  00C9H 0169H
  +--> ?CO?DATATRANS
  +--> _ZIGB_TXFRAMELOAD/DATATRANS
  +--> _ZIGB_DATSLOAD_DATSSEND/DATATRANS
  +--> _UART1_DATSSEND/USART
  +--> _MEMMEM/PARS_METHOD
  +--> PRINTF/PRINTF
  +--> _PRINTSTRING1_LOGOUT/USART

FUNCTION_DEVNWKHOLD/DATATRANS                 ----- -----  ----- -----  ----- -----  00C9H 00CBH
  +--> ?CO?DATATRANS
  +--> _DATASENDREMOTE_STRAIGHTFORWARD/DATATRANS
  +--> _DELAYMS/DELAY
  +--> PRINTF/PRINTF
  +--> _PRINTSTRING1_LOGOUT/USART

THREAD_TIPS/TIPS                              ----- -----  0027H 0027H  ----- -----  ----- -----
  +--> TIPS_STATUSCHANGETONORMAL/TIPS
  +--> _THREAD_TIPSGETDARK/TIPS
  +--> TIPS_SYSSTANDBY/TIPS
  +--> TIPS_SYSBUTTONREALES/TIPS
  +--> TOUCHPADSCAN_ONESHOOT/USRKIN
LX51 LINKER/LOCATER V4.66.41.0                                                        12/07/2018  17:31:29  PAGE 12


  +--> ?CO?TIPS
  +--> _TIPSLED_COLORSET/TIPS
  +--> _TIPS_SPECIFIED/TIPS
  +--> TIPS_WARNING/TIPS
  +--> TIPS_SYSTOUCHRESET/TIPS
  +--> PRINTF/PRINTF
  +--> _PRINTSTRING1_LOGOUT/USART

TIPS_SYSSTANDBY/TIPS                          ----- -----  ----- -----  ----- -----  ----- -----

TIPS_SYSBUTTONREALES/TIPS                     ----- -----  ----- -----  ----- -----  ----- -----
  +--> ?CO?TIPS

_TIPS_SPECIFIED/TIPS                          ----- -----  ----- -----  ----- -----  ----- -----
  +--> ?CO?TIPS

TIPS_WARNING/TIPS                             ----- -----  ----- -----  ----- -----  ----- -----
  +--> _THREAD_TIPSGETDARK/TIPS

TIPS_SYSTOUCHRESET/TIPS                       ----- -----  ----- -----  ----- -----  ----- -----

TOUCHPAD_PROCESSTHREAD/TOUCHPAD               ----- -----  ----- -----  ----- -----  ----- -----

THREAD_DEVLOPEDEBUG/DEVLOPEDEBUG              ----- -----  ----- -----  ----- -----  ----- -----
  +--> ?CO?DEVLOPEDEBUG
  +--> PRINTF/PRINTF
  +--> _PRINTSTRING1_LOGOUT/USART

?CO?DEVLOPEDEBUG                              ----- -----  ----- -----  ----- -----  ----- -----

?C_INITSEG                                    ----- -----  ----- -----  ----- -----  ----- -----



PUBLIC SYMBOLS OF MODULE:  .\Output\swZigbNode_sw3bit (USR_MAIN)


      VALUE       CLASS    TYPE      PUBLIC SYMBOL NAME
      =================================================
      00000033H   DATA     BYTE      ?_coverEEPROM_write_n?BYTE
      0000004FH   DATA     BYTE      ?_EEPROM_read_n?BYTE
      0000003AH   DATA     BYTE      ?_EEPROM_write_n?BYTE
      00000046H   DATA     BYTE      ?_memmem?BYTE
      00000038H   DATA     ---       ?_PRINTF517?BYTE
      00000038H   DATA     ---       ?_PRINTF?BYTE
      00000038H   DATA     ---       ?_SPRINTF517?BYTE
      00000038H   DATA     ---       ?_SPRINTF?BYTE
      00000028H   DATA     BYTE      ?_tipsLED_colorSet?BYTE
      00000027H   DATA     BYTE      ?_UsrKEYScan?BYTE
      00000036H   DATA     BYTE      ?_zigb_VALIDA_INPUT?BYTE
      0100363FH   CODE     ---       ?C?CCASE
      010034E5H   CODE     ---       ?C?CLDOPTR
      010034CCH   CODE     ---       ?C?CLDPTR
      00000000H   NUMBER   ---       ?C?CODESEG
      010034A6H   CODE     ---       ?C?COPY
      01003524H   CODE     ---       ?C?CSTOPTR
      01003512H   CODE     ---       ?C?CSTPTR
      01003665H   CODE     ---       ?C?ICALL
      01003669H   CODE     ---       ?C?ICALL2
      01003546H   CODE     ---       ?C?IMUL
      010035ADH   CODE     ---       ?C?LMUL
      01003620H   CODE     ---       ?C?LSHL
      010037F1H   CODE     ---       ?C?MEMCMP
      01003815H   CODE     ---       ?C?MEMSET
      01003633H   CODE     ---       ?C?OFFXADD
LX51 LINKER/LOCATER V4.66.41.0                                                        12/07/2018  17:31:29  PAGE 13


      01003841H   CODE     ---       ?C?PLDIIDATA
      01003558H   CODE     ---       ?C?UIDIV
      010035FCH   CODE     ---       ?C?ULCMP
      0100360DH   CODE     ---       ?C?ULSHR
      00000000H   NUMBER   ---       ?C?XDATASEG
      010068CAH   CODE     ---       ?C_START
      01000000H   CODE     ---       ?C_STARTUP
      00000020H.4 BIT      BIT       ?devStatusChangeTo_devHold?BIT
      00000027H   DATA     BYTE      ?relay_Act?BYTE
      00000028H   DATA     BYTE      ?time_Logout?BYTE
      00000020H.4 BIT      BIT       ?ZigB_nwkOpen?BIT
      0000002EH   DATA     BYTE      ?ZigB_nwkOpen?BYTE
      010072DEH   CODE     ---       _beeps_usrActive
      01006DB2H   CODE     ---       _coverEEPROM_write_n
      01005CE0H   CODE     ---       _datsTiming_read_eeprom
      01005DCFH   CODE     ---       _datsTimNight_read_eeprom
      01007594H   CODE     ---       _delay_ms
      01007510H   CODE     ---       _delayMs
      01006F19H   CODE     ---       _devParamDtaaSave_relayStatusRealTime
      01007424H   CODE     ---       _devTypeComfirm_byDcode
      01007216H   CODE     ---       _EEPROM_read_n
      01007405H   CODE     ---       _EEPROM_SectorErase
      01007126H   CODE     ---       _EEPROM_write_n
      01006A20H   CODE     ---       _memmem
      010074E6H   CODE     ---       _periodDataTrans_momentHang
      0100448BH   CODE     ---       _PRINTF
      0100448BH   CODE     ---       _PRINTF517
      01007571H   CODE     ---       _PrintString1
      0100724EH   CODE     ---       _PrintString1_logOut
      01007328H   CODE     ---       _PUTCHAR
      01004485H   CODE     ---       _SPRINTF
      01004485H   CODE     ---       _SPRINTF517
      01006B99H   CODE     ---       _thread_tipsGetDark
      0100506FH   CODE     ---       _tips_specified
      010074A6H   CODE     ---       _tips_statusChangeToFactoryRecover
      01007490H   CODE     ---       _tips_statusChangeToTouchReset
      010074D1H   CODE     ---       _tips_statusChangeToZigbNwkOpen
      01006926H   CODE     ---       _tipsLED_colorSet
      01006C0EH   CODE     ---       _touchPad_functionTrigContinue
      01005883H   CODE     ---       _touchPad_functionTrigNormal
      01000003H   CODE     ---       _touchPad_resetOpreat
      010073C0H   CODE     ---       _TX1_write2buff
      01007375H   CODE     ---       _uart1_datsSend
*DEL*:00000000H   CODE     ---       _uart1_logOut
      01006590H   CODE     ---       _UsrKEYScan
      010072AEH   CODE     ---       _weekend_judge
      0100662CH   CODE     ---       _zigb_VALIDA_INPUT
*SFR* 000000D0H.6 DATA     BIT       AC
*SFR* 000000E0H   DATA     BYTE      ACC
*SFR* 000000E0H   DATA     BIT       ACC0
*SFR* 000000E0H.1 DATA     BIT       ACC1
*SFR* 000000E0H.2 DATA     BIT       ACC2
*SFR* 000000E0H.3 DATA     BIT       ACC3
*SFR* 000000E0H.4 DATA     BIT       ACC4
*SFR* 000000E0H.5 DATA     BIT       ACC5
*SFR* 000000E0H.6 DATA     BIT       ACC6
*SFR* 000000E0H.7 DATA     BIT       ACC7
*SFR* 000000BCH   DATA     BYTE      ADC_CONTR
*SFR* 000000BDH   DATA     BYTE      ADC_RES
*SFR* 000000BEH   DATA     BYTE      ADC_RESL
      010074BCH   CODE     ---       appTimer0_Init
      01007584H   CODE     ---       appTimer4_Init
*SFR* 0000008EH   DATA     BYTE      AUXR
*SFR* 000000A2H   DATA     BYTE      AUXR1
*SFR* 0000008FH   DATA     BYTE      AUXR2
LX51 LINKER/LOCATER V4.66.41.0                                                        12/07/2018  17:31:29  PAGE 14


*SFR* 000000F0H   DATA     BYTE      B
*SFR* 000000F0H   DATA     BIT       B0
*SFR* 000000F0H.1 DATA     BIT       B1
*SFR* 000000F0H.2 DATA     BIT       B2
*SFR* 000000F0H.3 DATA     BIT       B3
*SFR* 000000F0H.4 DATA     BIT       B4
*SFR* 000000F0H.5 DATA     BIT       B5
*SFR* 000000F0H.6 DATA     BIT       B6
*SFR* 000000F0H.7 DATA     BIT       B7
      010073E3H   CODE     ---       birthDay_Judge
      010075B2H   CODE     ---       bsp_datsReales
      0100000EH   CODE     ---       bsp_Init
*SFR* 000000A1H   DATA     BYTE      BUS_SPEED
*SFR* 000000FAH   DATA     BYTE      CCAP0H
*SFR* 000000EAH   DATA     BYTE      CCAP0L
*SFR* 000000FBH   DATA     BYTE      CCAP1H
*SFR* 000000EBH   DATA     BYTE      CCAP1L
*SFR* 000000FCH   DATA     BYTE      CCAP2H
*SFR* 000000ECH   DATA     BYTE      CCAP2L
*SFR* 000000DAH   DATA     BYTE      CCAPM0
*SFR* 000000DBH   DATA     BYTE      CCAPM1
*SFR* 000000DCH   DATA     BYTE      CCAPM2
*SFR* 000000D8H   DATA     BIT       CCF0
*SFR* 000000D8H.1 DATA     BIT       CCF1
*SFR* 000000D8H.2 DATA     BIT       CCF2
*SFR* 000000D8H   DATA     BYTE      CCON
*SFR* 00000090H.1 DATA     BIT       CCP0
*SFR* 00000090H   DATA     BIT       CCP1
*SFR* 000000B0H.7 DATA     BIT       CCP2
*SFR* 000000D8H.7 DATA     BIT       CF
*SFR* 000000F9H   DATA     BYTE      CH
*SFR* 000000E9H   DATA     BYTE      CL
*SFR* 00000097H   DATA     BYTE      CLK_DIV
*SFR* 000000B0H.5 DATA     BIT       CLKOUT0
*SFR* 000000B0H.4 DATA     BIT       CLKOUT1
*SFR* 000000D9H   DATA     BYTE      CMOD
      020003B7H   XDATA    BYTE      colonyCtrlGet_queryCounter
      02000260H   XDATA    ---       colonyCtrlGet_statusLocalEaCtrl
      02000327H   XDATA    BYTE      colonyCtrlGet_statusLocalScene
      02000263H   XDATA    BYTE      colonyCtrlGetHang_timeCnt
      01006E9DH   CODE     ---       color_Tab
      00000070H   DATA     ---       COM1
      00000023H.1 BIT      BIT       combinationFunTrigger_3S1L_standBy_FLG
      00000023H.5 BIT      BIT       coordinatorOnline_IF
      00000025H.1 BIT      BIT       countEN_ifTipsFree
      0200063CH   XDATA    BYTE      counter_ifTipsFree
      02000630H   XDATA    WORD      counter_tipsAct
*SFR* 000000D8H.6 DATA     BIT       CR
      0000001AH   DATA     ---       CTRLEATHER_PORT
      0200065DH   XDATA    ---       curtainAct_Param
*SFR* 000000D0H.7 DATA     BIT       CY
      0000000FH   DATA     BYTE      datsRcv_length
      02000328H   XDATA    ---       datsRcv_respond
      020003E9H   XDATA    ---       datsRcv_ZIGB
      0200026FH   XDATA    ---       datsSend_request
      020003BCH   XDATA    ---       datsSend_requestEx
*SFR* 00000090H   DATA     BIT       Dcode0
*SFR* 00000090H.1 DATA     BIT       Dcode1
*SFR* 00000090H.2 DATA     BIT       Dcode2
*SFR* 00000090H.3 DATA     BIT       Dcode3
*SFR* 00000090H.4 DATA     BIT       Dcode4
*SFR* 00000090H.3 DATA     BIT       Dcode5
      01006C82H   CODE     ---       DcodeScan
      010070E3H   CODE     ---       DcodeScan_oneShoot
      00000091H   IDATA    WORD      delayCnt_closeLoop
LX51 LINKER/LOCATER V4.66.41.0                                                        12/07/2018  17:31:29  PAGE 15


      0000008EH   IDATA    WORD      delayCnt_onoff
      0000008DH   IDATA    BYTE      delayPeriod_closeLoop
      00000097H   IDATA    BYTE      delayPeriod_onoff
      00000096H   IDATA    BYTE      delayUp_act
      0000001DH   DATA     BYTE      DEV_actReserve
      020003B0H   XDATA    ---       dev_agingCmd_rcvPassive
      02000264H   XDATA    ---       dev_agingCmd_sndInitative
      020002F6H   XDATA    ---       dev_currentDataPoint
      00000018H   DATA     WORD      dev_currentPanid
      02000667H   XDATA    ---       dev_debugInfoLog
      0200062FH   XDATA    BYTE      dev_statusBeeps
      0200065BH   XDATA    ---       devActionPush_IF
      0100639FH   CODE     ---       devDataRecovery_relayStatus
      010075DFH   CODE     ---       devHoldStop_makeInAdvance
      00000026H.1 BIT      BIT       deviceLock_flag
*DEL*:00000000H   CODE     ---       devLockInfo_Reales
      020003B9H   XDATA    ---       devNwkHoldTime_Param
      020003ACH   XDATA    ---       devRemoteDataReqMethod
      0000000DH   DATA     BYTE      devRunning_Status
      020003AEH   XDATA    ---       devStatus_switch
      01006FB9H   CODE     ---       devStatusChangeTo_devHold
      0200063DH   XDATA    ---       devTips_beep
      0000006CH   DATA     BYTE      devTips_nwkZigb
      0000006EH   DATA     BYTE      devTips_status
      010075A4H   CODE     ---       DisableEEPROM
*SFR* 00000083H   DATA     BYTE      DPH
*SFR* 00000082H   DATA     BYTE      DPL
      00000010H   DATA     BYTE      dtModeKeepAcess_currentCmd
      0200026BH   XDATA    WORD      dtReqEx_counter
*SFR* 000000A8H.7 DATA     BIT       EA
      02000659H   XDATA    BYTE      EACHCTRL_realesFLG
      00000025H.6 BIT      BIT       EACHCTRL_reportFLG
*SFR* 000000A8H.5 DATA     BIT       EADC
*SFR* 000000A8H.6 DATA     BIT       ELVD
*SFR* 000000A8H.4 DATA     BIT       ES
*SFR* 000000A8H.1 DATA     BIT       ET0
*SFR* 000000A8H.3 DATA     BIT       ET1
*SFR* 000000A8H   DATA     BIT       EX0
*SFR* 000000A8H.2 DATA     BIT       EX1
*SFR* 000000D0H.5 DATA     BIT       F0
*SFR* 000000D0H.1 DATA     BIT       F1
      010064F1H   CODE     ---       Factory_recover
      020003B8H   XDATA    BYTE      factoryRecover_HoldTimeCount
      00000024H.1 BIT      BIT       factoryRecover_standBy_FLG
      0100745FH   CODE     ---       fun_factoryRecoverOpreat
*DEL*:00000000H   CODE     ---       fun_Test
      010075D5H   CODE     ---       fun_touchReset
      0200026AH   XDATA    BYTE      heartBeatCount
      00000023H.7 BIT      BIT       heartBeatCycle_FLG
      020003B6H   XDATA    BYTE      heartBeatHang_timeCnt
      02000483H   XDATA    BYTE      heartBeatPeriod
*SFR* 000000C3H   DATA     BYTE      IAP_ADDRH
*SFR* 000000C4H   DATA     BYTE      IAP_ADDRL
*SFR* 000000C5H   DATA     BYTE      IAP_CMD
*SFR* 000000C7H   DATA     BYTE      IAP_CONTR
*SFR* 000000C2H   DATA     BYTE      IAP_DATA
*SFR* 000000C6H   DATA     BYTE      IAP_TRIG
*SFR* 000000A8H   DATA     BYTE      IE
*SFR* 00000088H.1 DATA     BIT       IE0
*SFR* 00000088H.3 DATA     BIT       IE1
*SFR* 000000AFH   DATA     BYTE      IE2
      00000095H   IDATA    BYTE      ifDelay_sw_running_FLAG
      00000025H.0 BIT      BIT       ifHorsingLight_running_FLAG
      00000025H.4 BIT      BIT       ifNightMode_sw_running_FLAG
      00000025H.5 BIT      BIT       ifTim_sw_running_FLAG
LX51 LINKER/LOCATER V4.66.41.0                                                        12/07/2018  17:31:29  PAGE 16


*SFR* 000000B0H.2 DATA     BIT       INT0
*SFR* 000000B0H.3 DATA     BIT       INT1
*SFR* 0000008FH   DATA     BYTE      INT_CLKO
*SFR* 000000B8H   DATA     BYTE      IP
*SFR* 000000B5H   DATA     BYTE      IP2
*SFR* 000000B7H   DATA     BYTE      IPH
*SFR* 000000B6H   DATA     BYTE      IPH2
*SFR* 000000C3H   DATA     BYTE      ISP_ADDRH
*SFR* 000000C4H   DATA     BYTE      ISP_ADDRL
*SFR* 000000C5H   DATA     BYTE      ISP_CMD
*SFR* 000000C7H   DATA     BYTE      ISP_CONTR
*SFR* 000000C2H   DATA     BYTE      ISP_DATA
*SFR* 000000C6H   DATA     BYTE      ISP_TRIG
*SFR* 00000088H   DATA     BIT       IT0
*SFR* 00000088H.2 DATA     BIT       IT1
      010075E8H   CODE     ---       itrf_datsTiming_read_eeprom
      010075F1H   CODE     ---       itrf_datsTimNight_read_eeprom
      00000023H.0 BIT      BIT       ledBackground_method
      01006E13H   CODE     ---       ledBKGColorSw_Reales
      020002F3H   XDATA    ---       localDataRecord_eaCtrl
      020005C3H   XDATA    ---       log_buf
      020005BCH   XDATA    BYTE      loopInsert_relayStatusRealTime_record
      020005BDH   XDATA    ---       MAC_ID
      020005B6H   XDATA    ---       MAC_ID_DST
      010067F3H   CODE     ---       MAC_ID_Relaes
      01007008H   CODE     ---       main
*SFR* 000000D0H.2 DATA     BIT       OV
*SFR* 000000D0H   DATA     BIT       P
*SFR* 00000080H   DATA     BYTE      P0
*SFR* 00000080H   DATA     BIT       P00
*SFR* 00000080H.1 DATA     BIT       P01
*SFR* 00000080H.2 DATA     BIT       P02
*SFR* 00000080H.3 DATA     BIT       P03
*SFR* 00000080H.4 DATA     BIT       P04
*SFR* 00000080H.5 DATA     BIT       P05
*SFR* 00000080H.6 DATA     BIT       P06
*SFR* 00000080H.7 DATA     BIT       P07
*SFR* 00000094H   DATA     BYTE      P0M0
*SFR* 00000093H   DATA     BYTE      P0M1
*SFR* 00000090H   DATA     BYTE      P1
*SFR* 00000090H   DATA     BIT       P10
*SFR* 00000090H.1 DATA     BIT       P11
*SFR* 00000090H.2 DATA     BIT       P12
*SFR* 00000090H.3 DATA     BIT       P13
*SFR* 00000090H.4 DATA     BIT       P14
*SFR* 00000090H.5 DATA     BIT       P15
*SFR* 00000090H.6 DATA     BIT       P16
*SFR* 00000090H.7 DATA     BIT       P17
*SFR* 0000009DH   DATA     BYTE      P1ASF
*SFR* 00000092H   DATA     BYTE      P1M0
*SFR* 00000091H   DATA     BYTE      P1M1
*SFR* 000000A0H   DATA     BYTE      P2
*SFR* 000000A0H   DATA     BIT       P20
*SFR* 000000A0H.1 DATA     BIT       P21
*SFR* 000000A0H.2 DATA     BIT       P22
*SFR* 000000A0H.3 DATA     BIT       P23
*SFR* 000000A0H.4 DATA     BIT       P24
*SFR* 000000A0H.5 DATA     BIT       P25
*SFR* 000000A0H.6 DATA     BIT       P26
*SFR* 000000A0H.7 DATA     BIT       P27
*SFR* 00000096H   DATA     BYTE      P2M0
*SFR* 00000095H   DATA     BYTE      P2M1
*SFR* 000000B0H   DATA     BYTE      P3
*SFR* 000000B0H   DATA     BIT       P30
*SFR* 000000B0H.1 DATA     BIT       P31
LX51 LINKER/LOCATER V4.66.41.0                                                        12/07/2018  17:31:29  PAGE 17


*SFR* 000000B0H.2 DATA     BIT       P32
*SFR* 000000B0H.3 DATA     BIT       P33
*SFR* 000000B0H.4 DATA     BIT       P34
*SFR* 000000B0H.5 DATA     BIT       P35
*SFR* 000000B0H.6 DATA     BIT       P36
*SFR* 000000B0H.7 DATA     BIT       P37
*SFR* 000000B2H   DATA     BYTE      P3M0
*SFR* 000000B1H   DATA     BYTE      P3M1
*SFR* 000000C0H   DATA     BYTE      P4
*SFR* 000000C0H   DATA     BIT       P40
*SFR* 000000C0H.1 DATA     BIT       P41
*SFR* 000000C0H.2 DATA     BIT       P42
*SFR* 000000C0H.3 DATA     BIT       P43
*SFR* 000000C0H.4 DATA     BIT       P44
*SFR* 000000C0H.5 DATA     BIT       P45
*SFR* 000000C0H.6 DATA     BIT       P46
*SFR* 000000C0H.7 DATA     BIT       P47
*SFR* 000000B4H   DATA     BYTE      P4M0
*SFR* 000000B3H   DATA     BYTE      P4M1
*SFR* 000000C8H   DATA     BYTE      P5
*SFR* 000000C8H   DATA     BIT       P50
*SFR* 000000C8H.1 DATA     BIT       P51
*SFR* 000000C8H.2 DATA     BIT       P52
*SFR* 000000C8H.3 DATA     BIT       P53
*SFR* 000000C8H.4 DATA     BIT       P54
*SFR* 000000C8H.5 DATA     BIT       P55
*SFR* 000000C8H.6 DATA     BIT       P56
*SFR* 000000C8H.7 DATA     BIT       P57
*SFR* 000000CAH   DATA     BYTE      P5M0
*SFR* 000000C9H   DATA     BYTE      P5M1
*SFR* 000000E8H   DATA     BYTE      P6
*SFR* 000000CCH   DATA     BYTE      P6M0
*SFR* 000000CBH   DATA     BYTE      P6M1
*SFR* 000000F8H   DATA     BYTE      P7
*SFR* 000000E2H   DATA     BYTE      P7M0
*SFR* 000000E1H   DATA     BYTE      P7M1
*SFR* 000000A2H   DATA     BYTE      P_SW1
*SFR* 000000BAH   DATA     BYTE      P_SW2
*SFR* 000000B8H.5 DATA     BIT       PADC
*SFR* 000000F2H   DATA     BYTE      PCA_PWM0
*SFR* 000000F3H   DATA     BYTE      PCA_PWM1
*SFR* 000000F4H   DATA     BYTE      PCA_PWM2
*SFR* 00000087H   DATA     BYTE      PCON
*SFR* 00000097H   DATA     BYTE      PCON2
*DEL*:00000000H   CODE     ---       pinBeep_Init
*SFR* 000000B8H.6 DATA     BIT       PLVD
      01007525H   CODE     ---       portCtrlEachOther_Reales
*SFR* 000000B8H.7 DATA     BIT       PPCA
*SFR* 000000B8H.4 DATA     BIT       PS
*SFR* 000000D0H   DATA     BYTE      PSW
*SFR* 000000B8H.1 DATA     BIT       PT0
*SFR* 000000B8H.3 DATA     BIT       PT1
*SFR* 000000B8H   DATA     BIT       PX0
*SFR* 000000B8H.2 DATA     BIT       PX1
*SFR* 00000098H.2 DATA     BIT       RB8
*SFR* 000000B0H.7 DATA     BIT       RD
      00000024H.0 BIT      BIT       reConnectAfterDatsReq_IF
      02000632H   XDATA    ---       relay1_Tips
      02000636H   XDATA    ---       relay2_Tips
      02000639H   XDATA    ---       relay3_Tips
      01006085H   CODE     ---       relay_Act
      0100719FH   CODE     ---       relay_pinInit
      010062E3H   CODE     ---       relay_statusReales
      02000660H   XDATA    BYTE      relayStatus_ifSave
*SFR* 00000098H.4 DATA     BIT       REN
LX51 LINKER/LOCATER V4.66.41.0                                                        12/07/2018  17:31:29  PAGE 18


*SFR* 00000098H   DATA     BIT       RI
*SFR* 000000D6H   DATA     BYTE      RL_T2H
*SFR* 000000D7H   DATA     BYTE      RL_T2L
*SFR* 000000D4H   DATA     BYTE      RL_T3H
*SFR* 000000D5H   DATA     BYTE      RL_T3L
*SFR* 000000D2H   DATA     BYTE      RL_T4H
*SFR* 000000D3H   DATA     BYTE      RL_T4L
*SFR* 0000008CH   DATA     BYTE      RL_TH0
*SFR* 0000008DH   DATA     BYTE      RL_TH1
*SFR* 0000008AH   DATA     BYTE      RL_TL0
*SFR* 0000008BH   DATA     BYTE      RL_TL1
*SFR* 000000D0H.3 DATA     BIT       RS0
*SFR* 000000D0H.4 DATA     BIT       RS1
      02000484H   XDATA    ---       RX1_Buffer
*SFR* 000000B0H   DATA     BIT       RXD
*SFR* 00000090H   DATA     BIT       RXD2
      0000000EH   DATA     BYTE      rxTout_count
      00000023H.6 BIT      BIT       rxTout_count_EN
*SFR* 0000009BH   DATA     BYTE      S2BUF
*SFR* 0000009AH   DATA     BYTE      S2CON
*SFR* 000000ADH   DATA     BYTE      S3BUF
*SFR* 000000ACH   DATA     BYTE      S3CON
*SFR* 00000085H   DATA     BYTE      S4BUF
*SFR* 00000084H   DATA     BYTE      S4CON
*SFR* 000000A9H   DATA     BYTE      SADDR
*SFR* 000000B9H   DATA     BYTE      SADEN
*SFR* 00000099H   DATA     BYTE      SBUF
*SFR* 00000098H   DATA     BYTE      SCON
*SFR* 00000098H.7 DATA     BIT       SM0
*SFR* 00000098H.6 DATA     BIT       SM1
*SFR* 00000098H.5 DATA     BIT       SM2
*SFR* 00000081H   DATA     BYTE      SP
*SFR* 000000CEH   DATA     BYTE      SPCTL
*SFR* 000000CFH   DATA     BYTE      SPDAT
*SFR* 00000090H.4 DATA     BIT       SPI_MISO
*SFR* 000000A0H.2 DATA     BIT       SPI_MISO_2
*SFR* 000000C0H.1 DATA     BIT       SPI_MISO_3
*SFR* 00000090H.3 DATA     BIT       SPI_MOSI
*SFR* 000000A0H.3 DATA     BIT       SPI_MOSI_2
*SFR* 000000C0H   DATA     BIT       SPI_MOSI_3
*SFR* 00000090H.5 DATA     BIT       SPI_SCLK
*SFR* 000000A0H.1 DATA     BIT       SPI_SCLK_2
*SFR* 000000C0H.3 DATA     BIT       SPI_SCLK_3
*SFR* 00000090H.2 DATA     BIT       SPI_SS
*SFR* 000000A0H.4 DATA     BIT       SPI_SS_2
*SFR* 000000C8H.4 DATA     BIT       SPI_SS_3
*SFR* 000000CDH   DATA     BYTE      SPSTAT
      0200065AH   XDATA    BYTE      status_Relay
      00000025H.7 BIT      BIT       statusRelay_saveEn
      02000657H   XDATA    ---       swCommand_fromUsr
      0000001EH   DATA     BYTE      SWITCH_TYPE
      0100739BH   CODE     ---       switchTypeReserve_GET
      00000090H   IDATA    BYTE      swTim_oneShoot_FLAG
      02000605H   XDATA    ---       systemTime_current
      00000093H   IDATA    WORD      sysTimeKeep_counter
      0200060CH   XDATA    BYTE      sysTimeReales_counter
      0200060DH   XDATA    BYTE      sysTimeZone_H
      0200060EH   XDATA    BYTE      sysTimeZone_M
*SFR* 000000B0H.4 DATA     BIT       T0
*SFR* 000000B0H.5 DATA     BIT       T1
*SFR* 000000D6H   DATA     BYTE      T2H
*SFR* 000000D7H   DATA     BYTE      T2L
*SFR* 000000D4H   DATA     BYTE      T3H
*SFR* 000000D5H   DATA     BYTE      T3L
*SFR* 000000D2H   DATA     BYTE      T4H
LX51 LINKER/LOCATER V4.66.41.0                                                        12/07/2018  17:31:29  PAGE 19


*SFR* 000000D3H   DATA     BYTE      T4L
*SFR* 000000D1H   DATA     BYTE      T4T3M
*SFR* 00000098H.3 DATA     BIT       TB8
*SFR* 00000088H   DATA     BYTE      TCON
*SFR* 00000088H.5 DATA     BIT       TF0
*SFR* 00000088H.7 DATA     BIT       TF1
*SFR* 0000008CH   DATA     BYTE      TH0
*SFR* 0000008DH   DATA     BYTE      TH1
*SFR* 000000D6H   DATA     BYTE      TH2
*SFR* 000000D4H   DATA     BYTE      TH3
*SFR* 000000D2H   DATA     BYTE      TH4
      01001F15H   CODE     ---       thread_dataTrans
      0100615FH   CODE     ---       thread_devlopeDebug
      010071DBH   CODE     ---       thread_Relay
      01003851H   CODE     ---       thread_Timing
      01004078H   CODE     ---       thread_Tips
*SFR* 00000098H.1 DATA     BIT       TI
      010066C6H   CODE     ---       time_Logout
      020003BBH   XDATA    BYTE      timeCounter_coordinatorLost_detecting
      01000009H   CODE     ---       timer0_Rountine
      010028CFH   CODE     ---       timer4_Rountine
      0100734FH   CODE     ---       timeZone_Reales
      01007163H   CODE     ---       tipLED_pinInit
*DEL*:00000000H   CODE     ---       tips_breath
*DEL*:00000000H   CODE     ---       tips_fadeOut
      01006E9AH   CODE     ---       tips_relayUnused
      01007538H   CODE     ---       tips_statusChangeToNormal
      010075CAH   CODE     ---       tips_statusChangeToZigbNwkFind
      01004785H   CODE     ---       tips_sysButtonReales
      01007442H   CODE     ---       tips_sysStandBy
      01006F69H   CODE     ---       tips_sysTouchReset
      01006451H   CODE     ---       tips_warning
      0000006DH   DATA     BYTE      tipsInsert_swLedBKG_OFF
      0000006FH   DATA     BYTE      tipsInsert_swLedBKG_ON
      0200062EH   XDATA    BYTE      tipsTimeCount_factoryRecover
      02000643H   XDATA    BYTE      tipsTimeCount_touchReset
      02000635H   XDATA    BYTE      tipsTimeCount_zigNwkOpen
*SFR* 0000008AH   DATA     BYTE      TL0
*SFR* 0000008BH   DATA     BYTE      TL1
*SFR* 000000D7H   DATA     BYTE      TL2
*SFR* 000000D5H   DATA     BYTE      TL3
*SFR* 000000D3H   DATA     BYTE      TL4
*SFR* 00000089H   DATA     BYTE      TMOD
      02000664H   XDATA    BYTE      touchKeepCnt_record
*SFR* 00000090H.6 DATA     BIT       touchPad_1
*SFR* 00000090H.7 DATA     BIT       touchPad_2
*SFR* 00000090H.5 DATA     BIT       touchPad_3
*DEL*:00000000H   CODE     ---       touchPad_pinInit
      010075BEH   CODE     ---       touchPad_processThread
      0200066BH   XDATA    BYTE      touchPad_resetTimeCount
      01005602H   CODE     ---       touchPad_Scan
      02000665H   XDATA    WORD      touchPadActCounter
      02000662H   XDATA    WORD      touchPadContinueCnt
      0100755EH   CODE     ---       touchPadScan_oneShoot
*SFR* 00000088H.4 DATA     BIT       TR0
*SFR* 00000088H.6 DATA     BIT       TR1
      0200051DH   XDATA    ---       TX1_Buffer
*SFR* 000000B0H.1 DATA     BIT       TXD
*SFR* 00000090H.1 DATA     BIT       TXD2
      0100675DH   CODE     ---       UART1_Rountine
      01000026H   CODE     ---       uartObjZigb_Init
      00000024H.2 BIT      BIT       uartRX_toutFLG
*SFR* 00000080H.2 DATA     BIT       Usr_key
      0000007BH   DATA     WORD      usrKeyCount
      00000022H.7 BIT      BIT       usrKeyCount_EN
LX51 LINKER/LOCATER V4.66.41.0                                                        12/07/2018  17:31:29  PAGE 20


      010074FBH   CODE     ---       usrKeyFun_zigbNwkRejoin
      010075FAH   CODE     ---       UsrKEYScan_oneShoot
      01007301H   CODE     ---       usrKin_pinInit
      01007053H   CODE     ---       usrZigbNwkOpen
      0000001FH   IDATA    BYTE      val_DcodeCfm
*SFR* 0000008FH   DATA     BYTE      WAKE_CLKO
*SFR* 000000C1H   DATA     BYTE      WDT_CONTR
*SFR* 000000ABH   DATA     BYTE      WKTCH
*SFR* 000000AAH   DATA     BYTE      WKTCL
*SFR* 000000B0H.6 DATA     BIT       WR
      01006D50H   CODE     ---       ZigB_nwkOpen
      02000640H   XDATA    ---       zigbNwk_Tips
      0200026DH   XDATA    WORD      zigbNwkAction_counter
      0100754BH   CODE     ---       zigbUart_pinInit



SYMBOL TABLE OF MODULE:  .\Output\swZigbNode_sw3bit (USR_MAIN)

      VALUE       REP       CLASS    TYPE      SYMBOL NAME
      ====================================================
      ---         MODULE    ---      ---       USR_MAIN
      01007008H   PUBLIC    CODE     ---       main
      010075B2H   PUBLIC    CODE     ---       bsp_datsReales
      0100000EH   PUBLIC    CODE     ---       bsp_Init
      000000D8H.2 SFRSYM    DATA     BIT       CCF2
      000000E0H.7 SFRSYM    DATA     BIT       ACC7
      00000093H   SFRSYM    DATA     BYTE      P0M1
      00000092H   SFRSYM    DATA     BYTE      P1M0
      00000096H   SFRSYM    DATA     BYTE      P2M0
      00000091H   SFRSYM    DATA     BYTE      P1M1
      00000080H   SFRSYM    DATA     BYTE      P0
      000000B2H   SFRSYM    DATA     BYTE      P3M0
      00000095H   SFRSYM    DATA     BYTE      P2M1
      00000090H   SFRSYM    DATA     BYTE      P1
      000000B4H   SFRSYM    DATA     BYTE      P4M0
      000000B1H   SFRSYM    DATA     BYTE      P3M1
      000000A0H   SFRSYM    DATA     BYTE      P2
      000000CAH   SFRSYM    DATA     BYTE      P5M0
      000000B3H   SFRSYM    DATA     BYTE      P4M1
      000000B0H   SFRSYM    DATA     BYTE      P3
      000000ABH   SFRSYM    DATA     BYTE      WKTCH
      000000B0H.4 SFRSYM    DATA     BIT       T0
      000000D0H.6 SFRSYM    DATA     BIT       AC
      000000CCH   SFRSYM    DATA     BYTE      P6M0
      000000C9H   SFRSYM    DATA     BYTE      P5M1
      000000C0H   SFRSYM    DATA     BYTE      P4
      000000B0H.5 SFRSYM    DATA     BIT       CLKOUT0
      000000B0H.5 SFRSYM    DATA     BIT       T1
      000000E2H   SFRSYM    DATA     BYTE      P7M0
      000000CBH   SFRSYM    DATA     BYTE      P6M1
      000000C8H   SFRSYM    DATA     BYTE      P5
      000000C6H   SFRSYM    DATA     BYTE      ISP_TRIG
      000000A8H.7 SFRSYM    DATA     BIT       EA
      000000B0H.4 SFRSYM    DATA     BIT       CLKOUT1
      000000A0H.4 SFRSYM    DATA     BIT       SPI_SS_2
      000000E8H   SFRSYM    DATA     BYTE      P6
      000000E1H   SFRSYM    DATA     BYTE      P7M1
      000000C8H.4 SFRSYM    DATA     BIT       SPI_SS_3
      00000090H.4 SFRSYM    DATA     BIT       SPI_MISO
      00000090H.3 SFRSYM    DATA     BIT       SPI_MOSI
      00000090H.1 SFRSYM    DATA     BIT       CCP0
      000000F8H   SFRSYM    DATA     BYTE      P7
      000000AAH   SFRSYM    DATA     BYTE      WKTCL
      00000090H   SFRSYM    DATA     BIT       CCP1
LX51 LINKER/LOCATER V4.66.41.0                                                        12/07/2018  17:31:29  PAGE 21


      000000CEH   SFRSYM    DATA     BYTE      SPCTL
      000000D8H.7 SFRSYM    DATA     BIT       CF
      000000B0H.7 SFRSYM    DATA     BIT       CCP2
      000000F9H   SFRSYM    DATA     BYTE      CH
      000000A2H   SFRSYM    DATA     BYTE      P_SW1
      000000BAH   SFRSYM    DATA     BYTE      P_SW2
      000000A8H.5 SFRSYM    DATA     BIT       EADC
      000000A0H.1 SFRSYM    DATA     BIT       SPI_SCLK_2
      000000A8H   SFRSYM    DATA     BYTE      IE
      000000C0H.3 SFRSYM    DATA     BIT       SPI_SCLK_3
      000000E9H   SFRSYM    DATA     BYTE      CL
      000000C5H   SFRSYM    DATA     BYTE      IAP_CMD
      000000FAH   SFRSYM    DATA     BYTE      CCAP0H
      00000090H   SFRSYM    DATA     BIT       Dcode0
      000000FBH   SFRSYM    DATA     BYTE      CCAP1H
      00000090H.1 SFRSYM    DATA     BIT       Dcode1
      000000FCH   SFRSYM    DATA     BYTE      CCAP2H
      00000090H.2 SFRSYM    DATA     BIT       Dcode2
      000000BDH   SFRSYM    DATA     BYTE      ADC_RES
      000000B6H   SFRSYM    DATA     BYTE      IPH2
      00000090H.3 SFRSYM    DATA     BIT       Dcode3
      000000D8H.6 SFRSYM    DATA     BIT       CR
      000000EAH   SFRSYM    DATA     BYTE      CCAP0L
      00000090H.4 SFRSYM    DATA     BIT       Dcode4
      000000B0H.7 SFRSYM    DATA     BIT       RD
      000000EBH   SFRSYM    DATA     BYTE      CCAP1L
      000000DAH   SFRSYM    DATA     BYTE      CCAPM0
      00000090H.3 SFRSYM    DATA     BIT       Dcode5
      000000ECH   SFRSYM    DATA     BYTE      CCAP2L
      000000DBH   SFRSYM    DATA     BYTE      CCAPM1
      000000A8H.4 SFRSYM    DATA     BIT       ES
      000000DCH   SFRSYM    DATA     BYTE      CCAPM2
      000000B8H.5 SFRSYM    DATA     BIT       PADC
      000000A0H.2 SFRSYM    DATA     BIT       SPI_MISO_2
      000000A0H.3 SFRSYM    DATA     BIT       SPI_MOSI_2
      000000B8H   SFRSYM    DATA     BYTE      IP
      000000C0H.1 SFRSYM    DATA     BIT       SPI_MISO_3
      000000C0H   SFRSYM    DATA     BIT       SPI_MOSI_3
      00000098H   SFRSYM    DATA     BIT       RI
      000000B0H.2 SFRSYM    DATA     BIT       INT0
      000000D0H.7 SFRSYM    DATA     BIT       CY
      00000098H.1 SFRSYM    DATA     BIT       TI
      000000B0H.3 SFRSYM    DATA     BIT       INT1
      00000097H   SFRSYM    DATA     BYTE      CLK_DIV
      000000C3H   SFRSYM    DATA     BYTE      IAP_ADDRH
      00000090H   SFRSYM    DATA     BIT       RXD2
      000000C5H   SFRSYM    DATA     BYTE      ISP_CMD
      000000B8H.4 SFRSYM    DATA     BIT       PS
      00000090H.1 SFRSYM    DATA     BIT       TXD2
      00000081H   SFRSYM    DATA     BYTE      SP
      000000D9H   SFRSYM    DATA     BYTE      CMOD
      000000D8H   SFRSYM    DATA     BYTE      CCON
      000000C4H   SFRSYM    DATA     BYTE      IAP_ADDRL
      000000B8H.7 SFRSYM    DATA     BIT       PPCA
      000000D0H.2 SFRSYM    DATA     BIT       OV
      000000B0H.6 SFRSYM    DATA     BIT       WR
      000000A8H.6 SFRSYM    DATA     BIT       ELVD
      00000080H   SFRSYM    DATA     BIT       P00
      00000090H   SFRSYM    DATA     BIT       P10
      00000080H.1 SFRSYM    DATA     BIT       P01
      000000BCH   SFRSYM    DATA     BYTE      ADC_CONTR
      00000099H   SFRSYM    DATA     BYTE      SBUF
      00000087H   SFRSYM    DATA     BYTE      PCON
      000000A0H   SFRSYM    DATA     BIT       P20
      00000090H.1 SFRSYM    DATA     BIT       P11
LX51 LINKER/LOCATER V4.66.41.0                                                        12/07/2018  17:31:29  PAGE 22


      00000080H.2 SFRSYM    DATA     BIT       P02
      000000C3H   SFRSYM    DATA     BYTE      ISP_ADDRH
      000000B0H   SFRSYM    DATA     BIT       P30
      000000A0H.1 SFRSYM    DATA     BIT       P21
      00000090H.2 SFRSYM    DATA     BIT       P12
      00000080H.3 SFRSYM    DATA     BIT       P03
      000000C0H   SFRSYM    DATA     BIT       P40
      000000B0H.1 SFRSYM    DATA     BIT       P31
      000000A0H.2 SFRSYM    DATA     BIT       P22
      00000090H.3 SFRSYM    DATA     BIT       P13
      00000080H.4 SFRSYM    DATA     BIT       P04
      00000098H   SFRSYM    DATA     BYTE      SCON
      0000008FH   SFRSYM    DATA     BYTE      WAKE_CLKO
      000000C8H   SFRSYM    DATA     BIT       P50
      000000C0H.1 SFRSYM    DATA     BIT       P41
      000000B0H.2 SFRSYM    DATA     BIT       P32
      000000A0H.3 SFRSYM    DATA     BIT       P23
      00000090H.4 SFRSYM    DATA     BIT       P14
      00000080H.5 SFRSYM    DATA     BIT       P05
      00000089H   SFRSYM    DATA     BYTE      TMOD
      00000088H   SFRSYM    DATA     BYTE      TCON
      000000C8H.1 SFRSYM    DATA     BIT       P51
      000000C0H.2 SFRSYM    DATA     BIT       P42
      000000B0H.3 SFRSYM    DATA     BIT       P33
      000000A0H.4 SFRSYM    DATA     BIT       P24
      00000090H.5 SFRSYM    DATA     BIT       P15
      00000080H.6 SFRSYM    DATA     BIT       P06
      000000C4H   SFRSYM    DATA     BYTE      ISP_ADDRL
      000000B8H.6 SFRSYM    DATA     BIT       PLVD
      000000C8H.2 SFRSYM    DATA     BIT       P52
      000000C0H.3 SFRSYM    DATA     BIT       P43
      000000B0H.4 SFRSYM    DATA     BIT       P34
      000000A0H.5 SFRSYM    DATA     BIT       P25
      00000090H.6 SFRSYM    DATA     BIT       P16
      00000080H.7 SFRSYM    DATA     BIT       P07
      000000C8H.3 SFRSYM    DATA     BIT       P53
      000000C0H.4 SFRSYM    DATA     BIT       P44
      000000B0H.5 SFRSYM    DATA     BIT       P35
      000000A0H.6 SFRSYM    DATA     BIT       P26
      00000090H.7 SFRSYM    DATA     BIT       P17
      000000C8H.4 SFRSYM    DATA     BIT       P54
      000000C0H.5 SFRSYM    DATA     BIT       P45
      000000B0H.6 SFRSYM    DATA     BIT       P36
      000000A0H.7 SFRSYM    DATA     BIT       P27
      000000C8H.5 SFRSYM    DATA     BIT       P55
      000000C0H.6 SFRSYM    DATA     BIT       P46
      000000B0H.7 SFRSYM    DATA     BIT       P37
      000000C8H.6 SFRSYM    DATA     BIT       P56
      000000C0H.7 SFRSYM    DATA     BIT       P47
      000000C8H.7 SFRSYM    DATA     BIT       P57
      00000088H.1 SFRSYM    DATA     BIT       IE0
      000000A1H   SFRSYM    DATA     BYTE      BUS_SPEED
      00000088H.3 SFRSYM    DATA     BIT       IE1
      000000AFH   SFRSYM    DATA     BYTE      IE2
      000000F0H   SFRSYM    DATA     BYTE      B
      0000008EH   SFRSYM    DATA     BYTE      AUXR
      000000C7H   SFRSYM    DATA     BYTE      IAP_CONTR
      000000E0H   SFRSYM    DATA     BYTE      ACC
      000000A8H.1 SFRSYM    DATA     BIT       ET0
      000000A8H.3 SFRSYM    DATA     BIT       ET1
      00000088H.5 SFRSYM    DATA     BIT       TF0
      00000088H.7 SFRSYM    DATA     BIT       TF1
      000000B5H   SFRSYM    DATA     BYTE      IP2
      0000008CH   SFRSYM    DATA     BYTE      RL_TH0
      00000098H.2 SFRSYM    DATA     BIT       RB8
LX51 LINKER/LOCATER V4.66.41.0                                                        12/07/2018  17:31:29  PAGE 23


      0000008DH   SFRSYM    DATA     BYTE      RL_TH1
      0000008CH   SFRSYM    DATA     BYTE      TH0
      000000A8H   SFRSYM    DATA     BIT       EX0
      00000088H   SFRSYM    DATA     BIT       IT0
      000000D6H   SFRSYM    DATA     BYTE      RL_T2H
      0000008DH   SFRSYM    DATA     BYTE      TH1
      00000090H.6 SFRSYM    DATA     BIT       touchPad_1
      000000A8H.2 SFRSYM    DATA     BIT       EX1
      00000098H.3 SFRSYM    DATA     BIT       TB8
      00000088H.2 SFRSYM    DATA     BIT       IT1
      000000D4H   SFRSYM    DATA     BYTE      RL_T3H
      000000D6H   SFRSYM    DATA     BYTE      TH2
      000000D6H   SFRSYM    DATA     BYTE      T2H
      00000090H.7 SFRSYM    DATA     BIT       touchPad_2
      000000D0H   SFRSYM    DATA     BIT       P
      000000D2H   SFRSYM    DATA     BYTE      RL_T4H
      000000D4H   SFRSYM    DATA     BYTE      TH3
      000000D4H   SFRSYM    DATA     BYTE      T3H
      0000008AH   SFRSYM    DATA     BYTE      RL_TL0
      00000090H.5 SFRSYM    DATA     BIT       touchPad_3
      00000098H.7 SFRSYM    DATA     BIT       SM0
      000000D2H   SFRSYM    DATA     BYTE      TH4
      000000D2H   SFRSYM    DATA     BYTE      T4H
      0000008BH   SFRSYM    DATA     BYTE      RL_TL1
      0000008AH   SFRSYM    DATA     BYTE      TL0
      00000098H.6 SFRSYM    DATA     BIT       SM1
      000000D7H   SFRSYM    DATA     BYTE      RL_T2L
      0000008BH   SFRSYM    DATA     BYTE      TL1
      00000098H.5 SFRSYM    DATA     BIT       SM2
      000000D5H   SFRSYM    DATA     BYTE      RL_T3L
      000000D7H   SFRSYM    DATA     BYTE      TL2
      000000D7H   SFRSYM    DATA     BYTE      T2L
      000000D3H   SFRSYM    DATA     BYTE      RL_T4L
      000000D5H   SFRSYM    DATA     BYTE      TL3
      000000D5H   SFRSYM    DATA     BYTE      T3L
      000000B8H.1 SFRSYM    DATA     BIT       PT0
      000000D3H   SFRSYM    DATA     BYTE      TL4
      000000D3H   SFRSYM    DATA     BYTE      T4L
      000000B8H.3 SFRSYM    DATA     BIT       PT1
      000000D0H.3 SFRSYM    DATA     BIT       RS0
      000000C7H   SFRSYM    DATA     BYTE      ISP_CONTR
      00000088H.4 SFRSYM    DATA     BIT       TR0
      000000D0H.4 SFRSYM    DATA     BIT       RS1
      000000C2H   SFRSYM    DATA     BYTE      IAP_DATA
      00000088H.6 SFRSYM    DATA     BIT       TR1
      000000B8H   SFRSYM    DATA     BIT       PX0
      000000C1H   SFRSYM    DATA     BYTE      WDT_CONTR
      000000B8H.2 SFRSYM    DATA     BIT       PX1
      000000F2H   SFRSYM    DATA     BYTE      PCA_PWM0
      000000F3H   SFRSYM    DATA     BYTE      PCA_PWM1
      000000F4H   SFRSYM    DATA     BYTE      PCA_PWM2
      0000009DH   SFRSYM    DATA     BYTE      P1ASF
      00000083H   SFRSYM    DATA     BYTE      DPH
      000000D1H   SFRSYM    DATA     BYTE      T4T3M
      000000BEH   SFRSYM    DATA     BYTE      ADC_RESL
      00000082H   SFRSYM    DATA     BYTE      DPL
      000000CDH   SFRSYM    DATA     BYTE      SPSTAT
      000000B7H   SFRSYM    DATA     BYTE      IPH
      0000009BH   SFRSYM    DATA     BYTE      S2BUF
      00000097H   SFRSYM    DATA     BYTE      PCON2
      000000ADH   SFRSYM    DATA     BYTE      S3BUF
      00000098H.4 SFRSYM    DATA     BIT       REN
      00000085H   SFRSYM    DATA     BYTE      S4BUF
      00000080H.2 SFRSYM    DATA     BIT       Usr_key
      0000009AH   SFRSYM    DATA     BYTE      S2CON
LX51 LINKER/LOCATER V4.66.41.0                                                        12/07/2018  17:31:29  PAGE 24


      000000ACH   SFRSYM    DATA     BYTE      S3CON
      000000C2H   SFRSYM    DATA     BYTE      ISP_DATA
      00000084H   SFRSYM    DATA     BYTE      S4CON
      000000B9H   SFRSYM    DATA     BYTE      SADEN
      000000B0H   SFRSYM    DATA     BIT       RXD
      000000A9H   SFRSYM    DATA     BYTE      SADDR
      000000B0H.1 SFRSYM    DATA     BIT       TXD
      000000F0H   SFRSYM    DATA     BIT       B0
      000000F0H.1 SFRSYM    DATA     BIT       B1
      000000C6H   SFRSYM    DATA     BYTE      IAP_TRIG
      000000A2H   SFRSYM    DATA     BYTE      AUXR1
      000000F0H.2 SFRSYM    DATA     BIT       B2
      00000090H.2 SFRSYM    DATA     BIT       SPI_SS
      0000008FH   SFRSYM    DATA     BYTE      AUXR2
      000000F0H.3 SFRSYM    DATA     BIT       B3
      000000F0H.4 SFRSYM    DATA     BIT       B4
      000000D0H.5 SFRSYM    DATA     BIT       F0
      000000F0H.5 SFRSYM    DATA     BIT       B5
      000000D0H.1 SFRSYM    DATA     BIT       F1
      0000008FH   SFRSYM    DATA     BYTE      INT_CLKO
      000000F0H.6 SFRSYM    DATA     BIT       B6
      000000E0H   SFRSYM    DATA     BIT       ACC0
      000000F0H.7 SFRSYM    DATA     BIT       B7
      000000E0H.1 SFRSYM    DATA     BIT       ACC1
      000000E0H.2 SFRSYM    DATA     BIT       ACC2
      000000E0H.3 SFRSYM    DATA     BIT       ACC3
      000000D0H   SFRSYM    DATA     BYTE      PSW
      000000E0H.4 SFRSYM    DATA     BIT       ACC4
      00000090H.5 SFRSYM    DATA     BIT       SPI_SCLK
      000000D8H   SFRSYM    DATA     BIT       CCF0
      000000E0H.5 SFRSYM    DATA     BIT       ACC5
      000000D8H.1 SFRSYM    DATA     BIT       CCF1
      000000E0H.6 SFRSYM    DATA     BIT       ACC6
      000000CFH   SFRSYM    DATA     BYTE      SPDAT
      00000094H   SFRSYM    DATA     BYTE      P0M0

      0100000EH   BLOCK     CODE     ---       LVL=0
      0100000EH   LINE      CODE     ---       #17
      0100000EH   LINE      CODE     ---       #19
      01000011H   LINE      CODE     ---       #20
      01000014H   LINE      CODE     ---       #21
      01000017H   LINE      CODE     ---       #22
      0100001AH   LINE      CODE     ---       #23
      0100001DH   LINE      CODE     ---       #24
      01000020H   LINE      CODE     ---       #25
      ---         BLOCKEND  ---      ---       LVL=0

      010075B2H   BLOCK     CODE     ---       LVL=0
      010075B2H   LINE      CODE     ---       #28
      010075B2H   LINE      CODE     ---       #30
      010075B5H   LINE      CODE     ---       #31
      010075B8H   LINE      CODE     ---       #32
      010075BBH   LINE      CODE     ---       #33
      ---         BLOCKEND  ---      ---       LVL=0

      01007008H   BLOCK     CODE     ---       LVL=0
      01007008H   LINE      CODE     ---       #36
      01007008H   LINE      CODE     ---       #38
      0100700BH   LINE      CODE     ---       #39
      0100700EH   LINE      CODE     ---       #40
      01007011H   LINE      CODE     ---       #44
      01007017H   LINE      CODE     ---       #45
      0100701EH   LINE      CODE     ---       #49
      0100701EH   LINE      CODE     ---       #51
      01007021H   LINE      CODE     ---       #52
LX51 LINKER/LOCATER V4.66.41.0                                                        12/07/2018  17:31:29  PAGE 25


      0100703CH   LINE      CODE     ---       #53
      0100703FH   LINE      CODE     ---       #55
      01007042H   LINE      CODE     ---       #57
      01007045H   LINE      CODE     ---       #59
      01007048H   LINE      CODE     ---       #61
      0100704BH   LINE      CODE     ---       #63
      0100704EH   LINE      CODE     ---       #65
      01007051H   LINE      CODE     ---       #66
      ---         BLOCKEND  ---      ---       LVL=0

      ---         MODULE    ---      ---       APPTIMER
      010028CFH   PUBLIC    CODE     ---       timer4_Rountine
      01000009H   PUBLIC    CODE     ---       timer0_Rountine
      01007584H   PUBLIC    CODE     ---       appTimer4_Init
      010074BCH   PUBLIC    CODE     ---       appTimer0_Init
      000000D8H.2 SFRSYM    DATA     BIT       CCF2
      000000E0H.7 SFRSYM    DATA     BIT       ACC7
      00000093H   SFRSYM    DATA     BYTE      P0M1
      00000092H   SFRSYM    DATA     BYTE      P1M0
      00000096H   SFRSYM    DATA     BYTE      P2M0
      00000091H   SFRSYM    DATA     BYTE      P1M1
      00000080H   SFRSYM    DATA     BYTE      P0
      000000B2H   SFRSYM    DATA     BYTE      P3M0
      00000095H   SFRSYM    DATA     BYTE      P2M1
      00000090H   SFRSYM    DATA     BYTE      P1
      000000B4H   SFRSYM    DATA     BYTE      P4M0
      000000B1H   SFRSYM    DATA     BYTE      P3M1
      000000A0H   SFRSYM    DATA     BYTE      P2
      000000CAH   SFRSYM    DATA     BYTE      P5M0
      000000B3H   SFRSYM    DATA     BYTE      P4M1
      000000B0H   SFRSYM    DATA     BYTE      P3
      000000ABH   SFRSYM    DATA     BYTE      WKTCH
      000000B0H.4 SFRSYM    DATA     BIT       T0
      000000D0H.6 SFRSYM    DATA     BIT       AC
      000000CCH   SFRSYM    DATA     BYTE      P6M0
      000000C9H   SFRSYM    DATA     BYTE      P5M1
      000000C0H   SFRSYM    DATA     BYTE      P4
      000000B0H.5 SFRSYM    DATA     BIT       CLKOUT0
      000000B0H.5 SFRSYM    DATA     BIT       T1
      000000E2H   SFRSYM    DATA     BYTE      P7M0
      000000CBH   SFRSYM    DATA     BYTE      P6M1
      000000C8H   SFRSYM    DATA     BYTE      P5
      000000C6H   SFRSYM    DATA     BYTE      ISP_TRIG
      000000A8H.7 SFRSYM    DATA     BIT       EA
      000000B0H.4 SFRSYM    DATA     BIT       CLKOUT1
      000000A0H.4 SFRSYM    DATA     BIT       SPI_SS_2
      000000E8H   SFRSYM    DATA     BYTE      P6
      000000E1H   SFRSYM    DATA     BYTE      P7M1
      000000C8H.4 SFRSYM    DATA     BIT       SPI_SS_3
      00000090H.4 SFRSYM    DATA     BIT       SPI_MISO
      00000090H.3 SFRSYM    DATA     BIT       SPI_MOSI
      00000090H.1 SFRSYM    DATA     BIT       CCP0
      000000F8H   SFRSYM    DATA     BYTE      P7
      000000AAH   SFRSYM    DATA     BYTE      WKTCL
      00000090H   SFRSYM    DATA     BIT       CCP1
      000000CEH   SFRSYM    DATA     BYTE      SPCTL
      000000D8H.7 SFRSYM    DATA     BIT       CF
      000000B0H.7 SFRSYM    DATA     BIT       CCP2
      000000F9H   SFRSYM    DATA     BYTE      CH
      000000A2H   SFRSYM    DATA     BYTE      P_SW1
      000000BAH   SFRSYM    DATA     BYTE      P_SW2
      000000A8H.5 SFRSYM    DATA     BIT       EADC
      000000A0H.1 SFRSYM    DATA     BIT       SPI_SCLK_2
      000000A8H   SFRSYM    DATA     BYTE      IE
      000000C0H.3 SFRSYM    DATA     BIT       SPI_SCLK_3
LX51 LINKER/LOCATER V4.66.41.0                                                        12/07/2018  17:31:29  PAGE 26


      000000E9H   SFRSYM    DATA     BYTE      CL
      000000C5H   SFRSYM    DATA     BYTE      IAP_CMD
      000000FAH   SFRSYM    DATA     BYTE      CCAP0H
      00000090H   SFRSYM    DATA     BIT       Dcode0
      000000FBH   SFRSYM    DATA     BYTE      CCAP1H
      00000090H.1 SFRSYM    DATA     BIT       Dcode1
      000000FCH   SFRSYM    DATA     BYTE      CCAP2H
      00000090H.2 SFRSYM    DATA     BIT       Dcode2
      000000BDH   SFRSYM    DATA     BYTE      ADC_RES
      000000B6H   SFRSYM    DATA     BYTE      IPH2
      00000090H.3 SFRSYM    DATA     BIT       Dcode3
      000000D8H.6 SFRSYM    DATA     BIT       CR
      000000EAH   SFRSYM    DATA     BYTE      CCAP0L
      00000090H.4 SFRSYM    DATA     BIT       Dcode4
      000000B0H.7 SFRSYM    DATA     BIT       RD
      000000EBH   SFRSYM    DATA     BYTE      CCAP1L
      000000DAH   SFRSYM    DATA     BYTE      CCAPM0
      00000090H.3 SFRSYM    DATA     BIT       Dcode5
      000000ECH   SFRSYM    DATA     BYTE      CCAP2L
      000000DBH   SFRSYM    DATA     BYTE      CCAPM1
      000000A8H.4 SFRSYM    DATA     BIT       ES
      000000DCH   SFRSYM    DATA     BYTE      CCAPM2
      000000B8H.5 SFRSYM    DATA     BIT       PADC
      000000A0H.2 SFRSYM    DATA     BIT       SPI_MISO_2
      000000A0H.3 SFRSYM    DATA     BIT       SPI_MOSI_2
      000000B8H   SFRSYM    DATA     BYTE      IP
      000000C0H.1 SFRSYM    DATA     BIT       SPI_MISO_3
      000000C0H   SFRSYM    DATA     BIT       SPI_MOSI_3
      00000098H   SFRSYM    DATA     BIT       RI
      000000B0H.2 SFRSYM    DATA     BIT       INT0
      000000D0H.7 SFRSYM    DATA     BIT       CY
      00000098H.1 SFRSYM    DATA     BIT       TI
      000000B0H.3 SFRSYM    DATA     BIT       INT1
      00000097H   SFRSYM    DATA     BYTE      CLK_DIV
      000000C3H   SFRSYM    DATA     BYTE      IAP_ADDRH
      00000090H   SFRSYM    DATA     BIT       RXD2
      000000C5H   SFRSYM    DATA     BYTE      ISP_CMD
      000000B8H.4 SFRSYM    DATA     BIT       PS
      00000090H.1 SFRSYM    DATA     BIT       TXD2
      00000081H   SFRSYM    DATA     BYTE      SP
      000000D9H   SFRSYM    DATA     BYTE      CMOD
      000000D8H   SFRSYM    DATA     BYTE      CCON
      000000C4H   SFRSYM    DATA     BYTE      IAP_ADDRL
      000000B8H.7 SFRSYM    DATA     BIT       PPCA
      000000D0H.2 SFRSYM    DATA     BIT       OV
      000000B0H.6 SFRSYM    DATA     BIT       WR
      000000A8H.6 SFRSYM    DATA     BIT       ELVD
      00000080H   SFRSYM    DATA     BIT       P00
      00000090H   SFRSYM    DATA     BIT       P10
      00000080H.1 SFRSYM    DATA     BIT       P01
      000000BCH   SFRSYM    DATA     BYTE      ADC_CONTR
      00000099H   SFRSYM    DATA     BYTE      SBUF
      00000087H   SFRSYM    DATA     BYTE      PCON
      000000A0H   SFRSYM    DATA     BIT       P20
      00000090H.1 SFRSYM    DATA     BIT       P11
      00000080H.2 SFRSYM    DATA     BIT       P02
      000000C3H   SFRSYM    DATA     BYTE      ISP_ADDRH
      000000B0H   SFRSYM    DATA     BIT       P30
      000000A0H.1 SFRSYM    DATA     BIT       P21
      00000090H.2 SFRSYM    DATA     BIT       P12
      00000080H.3 SFRSYM    DATA     BIT       P03
      000000C0H   SFRSYM    DATA     BIT       P40
      000000B0H.1 SFRSYM    DATA     BIT       P31
      000000A0H.2 SFRSYM    DATA     BIT       P22
      00000090H.3 SFRSYM    DATA     BIT       P13
LX51 LINKER/LOCATER V4.66.41.0                                                        12/07/2018  17:31:29  PAGE 27


      00000080H.4 SFRSYM    DATA     BIT       P04
      00000098H   SFRSYM    DATA     BYTE      SCON
      0000008FH   SFRSYM    DATA     BYTE      WAKE_CLKO
      000000C8H   SFRSYM    DATA     BIT       P50
      000000C0H.1 SFRSYM    DATA     BIT       P41
      000000B0H.2 SFRSYM    DATA     BIT       P32
      000000A0H.3 SFRSYM    DATA     BIT       P23
      00000090H.4 SFRSYM    DATA     BIT       P14
      00000080H.5 SFRSYM    DATA     BIT       P05
      00000089H   SFRSYM    DATA     BYTE      TMOD
      00000088H   SFRSYM    DATA     BYTE      TCON
      000000C8H.1 SFRSYM    DATA     BIT       P51
      000000C0H.2 SFRSYM    DATA     BIT       P42
      000000B0H.3 SFRSYM    DATA     BIT       P33
      000000A0H.4 SFRSYM    DATA     BIT       P24
      00000090H.5 SFRSYM    DATA     BIT       P15
      00000080H.6 SFRSYM    DATA     BIT       P06
      000000C4H   SFRSYM    DATA     BYTE      ISP_ADDRL
      000000B8H.6 SFRSYM    DATA     BIT       PLVD
      000000C8H.2 SFRSYM    DATA     BIT       P52
      000000C0H.3 SFRSYM    DATA     BIT       P43
      000000B0H.4 SFRSYM    DATA     BIT       P34
      000000A0H.5 SFRSYM    DATA     BIT       P25
      00000090H.6 SFRSYM    DATA     BIT       P16
      00000080H.7 SFRSYM    DATA     BIT       P07
      000000C8H.3 SFRSYM    DATA     BIT       P53
      000000C0H.4 SFRSYM    DATA     BIT       P44
      000000B0H.5 SFRSYM    DATA     BIT       P35
      000000A0H.6 SFRSYM    DATA     BIT       P26
      00000090H.7 SFRSYM    DATA     BIT       P17
      000000C8H.4 SFRSYM    DATA     BIT       P54
      000000C0H.5 SFRSYM    DATA     BIT       P45
      000000B0H.6 SFRSYM    DATA     BIT       P36
      000000A0H.7 SFRSYM    DATA     BIT       P27
      000000C8H.5 SFRSYM    DATA     BIT       P55
      000000C0H.6 SFRSYM    DATA     BIT       P46
      000000B0H.7 SFRSYM    DATA     BIT       P37
      000000C8H.6 SFRSYM    DATA     BIT       P56
      000000C0H.7 SFRSYM    DATA     BIT       P47
      000000C8H.7 SFRSYM    DATA     BIT       P57
      00000088H.1 SFRSYM    DATA     BIT       IE0
      000000A1H   SFRSYM    DATA     BYTE      BUS_SPEED
      00000088H.3 SFRSYM    DATA     BIT       IE1
      000000AFH   SFRSYM    DATA     BYTE      IE2
      000000F0H   SFRSYM    DATA     BYTE      B
      0000008EH   SFRSYM    DATA     BYTE      AUXR
      000000C7H   SFRSYM    DATA     BYTE      IAP_CONTR
      000000E0H   SFRSYM    DATA     BYTE      ACC
      000000A8H.1 SFRSYM    DATA     BIT       ET0
      000000A8H.3 SFRSYM    DATA     BIT       ET1
      00000088H.5 SFRSYM    DATA     BIT       TF0
      00000088H.7 SFRSYM    DATA     BIT       TF1
      000000B5H   SFRSYM    DATA     BYTE      IP2
      0000008CH   SFRSYM    DATA     BYTE      RL_TH0
      00000098H.2 SFRSYM    DATA     BIT       RB8
      0000008DH   SFRSYM    DATA     BYTE      RL_TH1
      0000008CH   SFRSYM    DATA     BYTE      TH0
      000000A8H   SFRSYM    DATA     BIT       EX0
      00000088H   SFRSYM    DATA     BIT       IT0
      000000D6H   SFRSYM    DATA     BYTE      RL_T2H
      0000008DH   SFRSYM    DATA     BYTE      TH1
      00000090H.6 SFRSYM    DATA     BIT       touchPad_1
      000000A8H.2 SFRSYM    DATA     BIT       EX1
      00000098H.3 SFRSYM    DATA     BIT       TB8
      00000088H.2 SFRSYM    DATA     BIT       IT1
LX51 LINKER/LOCATER V4.66.41.0                                                        12/07/2018  17:31:29  PAGE 28


      000000D4H   SFRSYM    DATA     BYTE      RL_T3H
      000000D6H   SFRSYM    DATA     BYTE      TH2
      000000D6H   SFRSYM    DATA     BYTE      T2H
      00000090H.7 SFRSYM    DATA     BIT       touchPad_2
      000000D0H   SFRSYM    DATA     BIT       P
      000000D2H   SFRSYM    DATA     BYTE      RL_T4H
      000000D4H   SFRSYM    DATA     BYTE      TH3
      000000D4H   SFRSYM    DATA     BYTE      T3H
      0000008AH   SFRSYM    DATA     BYTE      RL_TL0
      00000090H.5 SFRSYM    DATA     BIT       touchPad_3
      00000098H.7 SFRSYM    DATA     BIT       SM0
      000000D2H   SFRSYM    DATA     BYTE      TH4
      000000D2H   SFRSYM    DATA     BYTE      T4H
      0000008BH   SFRSYM    DATA     BYTE      RL_TL1
      0000008AH   SFRSYM    DATA     BYTE      TL0
      00000098H.6 SFRSYM    DATA     BIT       SM1
      000000D7H   SFRSYM    DATA     BYTE      RL_T2L
      0000008BH   SFRSYM    DATA     BYTE      TL1
      00000098H.5 SFRSYM    DATA     BIT       SM2
      000000D5H   SFRSYM    DATA     BYTE      RL_T3L
      000000D7H   SFRSYM    DATA     BYTE      TL2
      000000D7H   SFRSYM    DATA     BYTE      T2L
      000000D3H   SFRSYM    DATA     BYTE      RL_T4L
      000000D5H   SFRSYM    DATA     BYTE      TL3
      000000D5H   SFRSYM    DATA     BYTE      T3L
      000000B8H.1 SFRSYM    DATA     BIT       PT0
      000000D3H   SFRSYM    DATA     BYTE      TL4
      000000D3H   SFRSYM    DATA     BYTE      T4L
      000000B8H.3 SFRSYM    DATA     BIT       PT1
      000000D0H.3 SFRSYM    DATA     BIT       RS0
      000000C7H   SFRSYM    DATA     BYTE      ISP_CONTR
      00000088H.4 SFRSYM    DATA     BIT       TR0
      000000D0H.4 SFRSYM    DATA     BIT       RS1
      000000C2H   SFRSYM    DATA     BYTE      IAP_DATA
      00000088H.6 SFRSYM    DATA     BIT       TR1
      000000B8H   SFRSYM    DATA     BIT       PX0
      000000C1H   SFRSYM    DATA     BYTE      WDT_CONTR
      000000B8H.2 SFRSYM    DATA     BIT       PX1
      000000F2H   SFRSYM    DATA     BYTE      PCA_PWM0
      000000F3H   SFRSYM    DATA     BYTE      PCA_PWM1
      000000F4H   SFRSYM    DATA     BYTE      PCA_PWM2
      0000009DH   SFRSYM    DATA     BYTE      P1ASF
      00000083H   SFRSYM    DATA     BYTE      DPH
      000000D1H   SFRSYM    DATA     BYTE      T4T3M
      000000BEH   SFRSYM    DATA     BYTE      ADC_RESL
      00000082H   SFRSYM    DATA     BYTE      DPL
      000000CDH   SFRSYM    DATA     BYTE      SPSTAT
      000000B7H   SFRSYM    DATA     BYTE      IPH
      0000009BH   SFRSYM    DATA     BYTE      S2BUF
      00000097H   SFRSYM    DATA     BYTE      PCON2
      000000ADH   SFRSYM    DATA     BYTE      S3BUF
      00000098H.4 SFRSYM    DATA     BIT       REN
      00000085H   SFRSYM    DATA     BYTE      S4BUF
      00000080H.2 SFRSYM    DATA     BIT       Usr_key
      0000009AH   SFRSYM    DATA     BYTE      S2CON
      000000ACH   SFRSYM    DATA     BYTE      S3CON
      000000C2H   SFRSYM    DATA     BYTE      ISP_DATA
      00000084H   SFRSYM    DATA     BYTE      S4CON
      000000B9H   SFRSYM    DATA     BYTE      SADEN
      000000B0H   SFRSYM    DATA     BIT       RXD
      000000A9H   SFRSYM    DATA     BYTE      SADDR
      000000B0H.1 SFRSYM    DATA     BIT       TXD
      000000F0H   SFRSYM    DATA     BIT       B0
      000000F0H.1 SFRSYM    DATA     BIT       B1
      000000C6H   SFRSYM    DATA     BYTE      IAP_TRIG
LX51 LINKER/LOCATER V4.66.41.0                                                        12/07/2018  17:31:29  PAGE 29


      000000A2H   SFRSYM    DATA     BYTE      AUXR1
      000000F0H.2 SFRSYM    DATA     BIT       B2
      00000090H.2 SFRSYM    DATA     BIT       SPI_SS
      0000008FH   SFRSYM    DATA     BYTE      AUXR2
      000000F0H.3 SFRSYM    DATA     BIT       B3
      000000F0H.4 SFRSYM    DATA     BIT       B4
      000000D0H.5 SFRSYM    DATA     BIT       F0
      000000F0H.5 SFRSYM    DATA     BIT       B5
      000000D0H.1 SFRSYM    DATA     BIT       F1
      0000008FH   SFRSYM    DATA     BYTE      INT_CLKO
      000000F0H.6 SFRSYM    DATA     BIT       B6
      000000E0H   SFRSYM    DATA     BIT       ACC0
      000000F0H.7 SFRSYM    DATA     BIT       B7
      000000E0H.1 SFRSYM    DATA     BIT       ACC1
      000000E0H.2 SFRSYM    DATA     BIT       ACC2
      000000E0H.3 SFRSYM    DATA     BIT       ACC3
      000000D0H   SFRSYM    DATA     BYTE      PSW
      000000E0H.4 SFRSYM    DATA     BIT       ACC4
      00000090H.5 SFRSYM    DATA     BIT       SPI_SCLK
      000000D8H   SFRSYM    DATA     BIT       CCF0
      000000E0H.5 SFRSYM    DATA     BIT       ACC5
      000000D8H.1 SFRSYM    DATA     BIT       CCF1
      000000E0H.6 SFRSYM    DATA     BIT       ACC6
      000000CFH   SFRSYM    DATA     BYTE      SPDAT
      00000094H   SFRSYM    DATA     BYTE      P0M0

      010074BCH   BLOCK     CODE     ---       LVL=0
      010074BCH   LINE      CODE     ---       #49
      010074BCH   LINE      CODE     ---       #51
      010074BFH   LINE      CODE     ---       #52
      010074C2H   LINE      CODE     ---       #53
      010074C5H   LINE      CODE     ---       #54
      010074C8H   LINE      CODE     ---       #55
      010074CAH   LINE      CODE     ---       #56
      010074CCH   LINE      CODE     ---       #57
      010074CEH   LINE      CODE     ---       #59
      010074D0H   LINE      CODE     ---       #60
      ---         BLOCKEND  ---      ---       LVL=0

      01007584H   BLOCK     CODE     ---       LVL=0
      01007584H   LINE      CODE     ---       #62
      01007584H   LINE      CODE     ---       #64
      01007587H   LINE      CODE     ---       #65
      0100758AH   LINE      CODE     ---       #66
      0100758DH   LINE      CODE     ---       #67
      01007590H   LINE      CODE     ---       #69
      01007593H   LINE      CODE     ---       #70
      ---         BLOCKEND  ---      ---       LVL=0

      01000009H   BLOCK     CODE     ---       LVL=0
      01000009H   LINE      CODE     ---       #72
      01000009H   LINE      CODE     ---       #139
      ---         BLOCKEND  ---      ---       LVL=0

      010028CFH   BLOCK     CODE     ---       LVL=0
      010028ECH   BLOCK     CODE     NEAR LAB  LVL=1
      0100767DH   SYMBOL    CONST    WORD      period_1second
      00000011H   SYMBOL    DATA     WORD      counter_1second
      0100767FH   SYMBOL    CONST    BYTE      period_1ms
      00000013H   SYMBOL    DATA     BYTE      counter_1ms
      01007680H   SYMBOL    CONST    WORD      period_100ms
      00000014H   SYMBOL    DATA     WORD      counter_100ms
      01007682H   SYMBOL    CONST    BYTE      period10_100ms
      00000016H   SYMBOL    DATA     BYTE      counter10_100ms
      01007683H   SYMBOL    CONST    BYTE      period_tipsColor
LX51 LINKER/LOCATER V4.66.41.0                                                        12/07/2018  17:31:29  PAGE 30


      00000017H   SYMBOL    DATA     BYTE      counter_tipsColor
      02000649H   SYMBOL    XDATA    ---       cnt_relay1_Tips
      0200064CH   SYMBOL    XDATA    ---       cnt_relay2_Tips
      0200064FH   SYMBOL    XDATA    ---       cnt_relay3_Tips
      02000652H   SYMBOL    XDATA    ---       cnt_zigbNwk_Tips
      02000655H   SYMBOL    XDATA    BYTE      period_beep
      02000656H   SYMBOL    XDATA    BYTE      count_beep
      01002BFAH   BLOCK     CODE     NEAR LAB  LVL=2
      02000644H   SYMBOL    XDATA    WORD      tips_Period
      02000646H   SYMBOL    XDATA    WORD      tips_Count
      02000648H   SYMBOL    XDATA    BYTE      tips_Loop
      00000026H.0 SYMBOL    BIT      BIT       beeps_en
      ---         BLOCKEND  ---      ---       LVL=2
      ---         BLOCKEND  ---      ---       LVL=1
      010028CFH   LINE      CODE     ---       #141
      010028ECH   LINE      CODE     ---       #174
      01002906H   LINE      CODE     ---       #175
      01002906H   LINE      CODE     ---       #177
      0100290CH   LINE      CODE     ---       #178
      0100290EH   LINE      CODE     ---       #181
      01002914H   LINE      CODE     ---       #183
      01002920H   LINE      CODE     ---       #185
      01002920H   LINE      CODE     ---       #187
      0100292DH   LINE      CODE     ---       #189
      0100293FH   LINE      CODE     ---       #191
      01002941H   LINE      CODE     ---       #198
      01002941H   LINE      CODE     ---       #200
      0100294AH   LINE      CODE     ---       #202
      0100295BH   LINE      CODE     ---       #204
      0100295DH   LINE      CODE     ---       #206
      01002962H   LINE      CODE     ---       #207
      01002962H   LINE      CODE     ---       #209
      01002964H   LINE      CODE     ---       #211
      01002964H   LINE      CODE     ---       #213
      0100296CH   LINE      CODE     ---       #215
      01002972H   LINE      CODE     ---       #216
      01002974H   LINE      CODE     ---       #217
      0100297BH   LINE      CODE     ---       #218
      0100297BH   LINE      CODE     ---       #220
      0100297BH   LINE      CODE     ---       #222
      0100297BH   LINE      CODE     ---       #223
      0100297BH   LINE      CODE     ---       #224
      0100297BH   LINE      CODE     ---       #226
      0100298AH   LINE      CODE     ---       #227
      0100298AH   LINE      CODE     ---       #231
      0100299BH   LINE      CODE     ---       #232
      0100299BH   LINE      CODE     ---       #234
      0100299EH   LINE      CODE     ---       #237
      010029B6H   LINE      CODE     ---       #240
      010029C3H   LINE      CODE     ---       #241
      010029C9H   LINE      CODE     ---       #244
      010029E1H   LINE      CODE     ---       #247
      010029F9H   LINE      CODE     ---       #250
      01002A11H   LINE      CODE     ---       #253
      01002A29H   LINE      CODE     ---       #254
      01002A29H   LINE      CODE     ---       #257
      01002A43H   LINE      CODE     ---       #258
      01002A43H   LINE      CODE     ---       #260
      01002A49H   LINE      CODE     ---       #274
      01002A4CH   LINE      CODE     ---       #276
      01002A5EH   LINE      CODE     ---       #277
      01002A5EH   LINE      CODE     ---       #279
      01002A63H   LINE      CODE     ---       #280
      01002A65H   LINE      CODE     ---       #281
      01002A65H   LINE      CODE     ---       #282
LX51 LINKER/LOCATER V4.66.41.0                                                        12/07/2018  17:31:29  PAGE 31


      01002A65H   LINE      CODE     ---       #285
      01002A6CH   LINE      CODE     ---       #287
      01002A8CH   LINE      CODE     ---       #288
      01002A8CH   LINE      CODE     ---       #290
      01002A97H   LINE      CODE     ---       #292
      01002A9DH   LINE      CODE     ---       #294
      01002AA3H   LINE      CODE     ---       #295
      01002AAAH   LINE      CODE     ---       #296
      01002AB1H   LINE      CODE     ---       #297
      01002AB8H   LINE      CODE     ---       #301
      01002ABFH   LINE      CODE     ---       #303
      01002AC5H   LINE      CODE     ---       #304
      01002AC5H   LINE      CODE     ---       #305
      01002AC5H   LINE      CODE     ---       #308
      01002AD1H   LINE      CODE     ---       #310
      01002AF1H   LINE      CODE     ---       #311
      01002AF1H   LINE      CODE     ---       #313
      01002AF8H   LINE      CODE     ---       #315
      01002AFEH   LINE      CODE     ---       #316
      01002B03H   LINE      CODE     ---       #317
      01002B0AH   LINE      CODE     ---       #318
      01002B11H   LINE      CODE     ---       #319
      01002B11H   LINE      CODE     ---       #320
      01002B11H   LINE      CODE     ---       #323
      01002B19H   LINE      CODE     ---       #326
      01002B21H   LINE      CODE     ---       #329
      01002B29H   LINE      CODE     ---       #332
      01002B34H   LINE      CODE     ---       #335
      01002B3CH   LINE      CODE     ---       #338
      01002B44H   LINE      CODE     ---       #341
      01002B4CH   LINE      CODE     ---       #344
      01002B54H   LINE      CODE     ---       #347
      01002B5CH   LINE      CODE     ---       #350
      01002B64H   LINE      CODE     ---       #353
      01002B6CH   LINE      CODE     ---       #356
      01002B74H   LINE      CODE     ---       #359
      01002B7CH   LINE      CODE     ---       #360
      01002B7CH   LINE      CODE     ---       #363
      01002B7FH   LINE      CODE     ---       #365
      01002B8AH   LINE      CODE     ---       #366
      01002B8AH   LINE      CODE     ---       #368
      01002B94H   LINE      CODE     ---       #370
      01002B96H   LINE      CODE     ---       #372
      01002BA5H   LINE      CODE     ---       #373
      01002BB8H   LINE      CODE     ---       #374
      01002BBEH   LINE      CODE     ---       #377
      01002BD0H   LINE      CODE     ---       #380
      01002BD7H   LINE      CODE     ---       #381
      01002BDFH   LINE      CODE     ---       #382
      01002BE3H   LINE      CODE     ---       #384
      01002BE7H   LINE      CODE     ---       #386
      01002BE7H   LINE      CODE     ---       #389
      01002BE7H   LINE      CODE     ---       #390
      01002BE7H   LINE      CODE     ---       #391
      01002BE9H   LINE      CODE     ---       #392
      01002BE9H   LINE      CODE     ---       #393
      01002BE9H   LINE      CODE     ---       #396
      01002BFAH   LINE      CODE     ---       #397
      01002BFAH   LINE      CODE     ---       #404
      01002BFFH   LINE      CODE     ---       #406
      01002C14H   LINE      CODE     ---       #408
      01002C14H   LINE      CODE     ---       #410
      01002C1FH   LINE      CODE     ---       #411
      01002C37H   LINE      CODE     ---       #412
      01002C43H   LINE      CODE     ---       #413
LX51 LINKER/LOCATER V4.66.41.0                                                        12/07/2018  17:31:29  PAGE 32


      01002C4AH   LINE      CODE     ---       #414
      01002C4CH   LINE      CODE     ---       #415
      01002C52H   LINE      CODE     ---       #417
      01002C54H   LINE      CODE     ---       #419
      01002C54H   LINE      CODE     ---       #421
      01002C5AH   LINE      CODE     ---       #423
      01002C6FH   LINE      CODE     ---       #425
      01002C7BH   LINE      CODE     ---       #426
      01002C84H   LINE      CODE     ---       #428
      01002C86H   LINE      CODE     ---       #430
      01002C8DH   LINE      CODE     ---       #431
      01002C8FH   LINE      CODE     ---       #432
      01002C93H   LINE      CODE     ---       #433
      01002C93H   LINE      CODE     ---       #435
      01002C95H   LINE      CODE     ---       #437
      01002C9BH   LINE      CODE     ---       #438
      01002C9BH   LINE      CODE     ---       #440
      01002C9DH   LINE      CODE     ---       #442
      01002C9DH   LINE      CODE     ---       #444
      01002CA4H   LINE      CODE     ---       #445
      01002CA6H   LINE      CODE     ---       #446
      01002CA8H   LINE      CODE     ---       #447
      01002CACH   LINE      CODE     ---       #449
      01002CAEH   LINE      CODE     ---       #451
      01002CAEH   LINE      CODE     ---       #453
      01002CB0H   LINE      CODE     ---       #455
      01002CB0H   LINE      CODE     ---       #456
      01002CB0H   LINE      CODE     ---       #457
      01002CB0H   LINE      CODE     ---       #460
      01002CBFH   LINE      CODE     ---       #462
      01002CC2H   LINE      CODE     ---       #464
      01002CD1H   LINE      CODE     ---       #465
      01002CE0H   LINE      CODE     ---       #466
      01002CEFH   LINE      CODE     ---       #468
      01002CFEH   LINE      CODE     ---       #469
      01002D0DH   LINE      CODE     ---       #470
      01002D1CH   LINE      CODE     ---       #472
      01002D2BH   LINE      CODE     ---       #473
      01002D3AH   LINE      CODE     ---       #474
      01002D49H   LINE      CODE     ---       #476
      01002D58H   LINE      CODE     ---       #477
      01002D67H   LINE      CODE     ---       #478
      01002D76H   LINE      CODE     ---       #479
      01002D79H   LINE      CODE     ---       #480
      01002D79H   LINE      CODE     ---       #482
      01002D7BH   LINE      CODE     ---       #484
      01002D8CH   LINE      CODE     ---       #487
      01002DA8H   LINE      CODE     ---       #488
      01002DAAH   LINE      CODE     ---       #489
      01002DC6H   LINE      CODE     ---       #490
      01002DC8H   LINE      CODE     ---       #491
      01002DE4H   LINE      CODE     ---       #492
      01002DE6H   LINE      CODE     ---       #493
      01002DFEH   LINE      CODE     ---       #494
      01002E00H   LINE      CODE     ---       #496
      01002E03H   LINE      CODE     ---       #497
      01002E11H   LINE      CODE     ---       #500
      01002E2DH   LINE      CODE     ---       #501
      01002E2FH   LINE      CODE     ---       #502
      01002E4BH   LINE      CODE     ---       #503
      01002E4DH   LINE      CODE     ---       #504
      01002E69H   LINE      CODE     ---       #505
      01002E6BH   LINE      CODE     ---       #506
      01002E83H   LINE      CODE     ---       #507
      01002E85H   LINE      CODE     ---       #509
LX51 LINKER/LOCATER V4.66.41.0                                                        12/07/2018  17:31:29  PAGE 33


      01002E88H   LINE      CODE     ---       #510
      01002E96H   LINE      CODE     ---       #513
      01002EB2H   LINE      CODE     ---       #514
      01002EB4H   LINE      CODE     ---       #515
      01002ED0H   LINE      CODE     ---       #516
      01002ED2H   LINE      CODE     ---       #517
      01002EEEH   LINE      CODE     ---       #518
      01002EF0H   LINE      CODE     ---       #519
      01002F07H   LINE      CODE     ---       #520
      01002F09H   LINE      CODE     ---       #521
      01002F09H   LINE      CODE     ---       #522
      01002F09H   LINE      CODE     ---       #523
      ---         BLOCKEND  ---      ---       LVL=0

      ---         MODULE    ---      ---       DATAMANAGE
      00000026H.1 PUBLIC    BIT      BIT       deviceLock_flag
      0000001EH   PUBLIC    DATA     BYTE      SWITCH_TYPE
      020005C3H   PUBLIC    XDATA    ---       log_buf
      0000001DH   PUBLIC    DATA     BYTE      DEV_actReserve
      020005BDH   PUBLIC    XDATA    ---       MAC_ID
      020005BCH   PUBLIC    XDATA    BYTE      loopInsert_relayStatusRealTime_record
      0000001AH   PUBLIC    DATA     ---       CTRLEATHER_PORT
      00000018H   PUBLIC    DATA     WORD      dev_currentPanid
      020005B6H   PUBLIC    XDATA    ---       MAC_ID_DST
      0100639FH   PUBLIC    CODE     ---       devDataRecovery_relayStatus
      01006F19H   PUBLIC    CODE     ---       _devParamDtaaSave_relayStatusRealTime
      010073E3H   PUBLIC    CODE     ---       birthDay_Judge
      010064F1H   PUBLIC    CODE     ---       Factory_recover
      0100739BH   PUBLIC    CODE     ---       switchTypeReserve_GET
      01007525H   PUBLIC    CODE     ---       portCtrlEachOther_Reales
      010067F3H   PUBLIC    CODE     ---       MAC_ID_Relaes
      000000D8H.2 SFRSYM    DATA     BIT       CCF2
      000000E0H.7 SFRSYM    DATA     BIT       ACC7
      00000093H   SFRSYM    DATA     BYTE      P0M1
      00000092H   SFRSYM    DATA     BYTE      P1M0
      00000096H   SFRSYM    DATA     BYTE      P2M0
      00000091H   SFRSYM    DATA     BYTE      P1M1
      00000080H   SFRSYM    DATA     BYTE      P0
      000000B2H   SFRSYM    DATA     BYTE      P3M0
      00000095H   SFRSYM    DATA     BYTE      P2M1
      00000090H   SFRSYM    DATA     BYTE      P1
      000000B4H   SFRSYM    DATA     BYTE      P4M0
      000000B1H   SFRSYM    DATA     BYTE      P3M1
      000000A0H   SFRSYM    DATA     BYTE      P2
      000000CAH   SFRSYM    DATA     BYTE      P5M0
      000000B3H   SFRSYM    DATA     BYTE      P4M1
      000000B0H   SFRSYM    DATA     BYTE      P3
      000000ABH   SFRSYM    DATA     BYTE      WKTCH
      000000B0H.4 SFRSYM    DATA     BIT       T0
      000000D0H.6 SFRSYM    DATA     BIT       AC
      000000CCH   SFRSYM    DATA     BYTE      P6M0
      000000C9H   SFRSYM    DATA     BYTE      P5M1
      000000C0H   SFRSYM    DATA     BYTE      P4
      000000B0H.5 SFRSYM    DATA     BIT       CLKOUT0
      000000B0H.5 SFRSYM    DATA     BIT       T1
      000000E2H   SFRSYM    DATA     BYTE      P7M0
      000000CBH   SFRSYM    DATA     BYTE      P6M1
      000000C8H   SFRSYM    DATA     BYTE      P5
      000000C6H   SFRSYM    DATA     BYTE      ISP_TRIG
      000000A8H.7 SFRSYM    DATA     BIT       EA
      000000B0H.4 SFRSYM    DATA     BIT       CLKOUT1
      000000A0H.4 SFRSYM    DATA     BIT       SPI_SS_2
      000000E8H   SFRSYM    DATA     BYTE      P6
      000000E1H   SFRSYM    DATA     BYTE      P7M1
      000000C8H.4 SFRSYM    DATA     BIT       SPI_SS_3
LX51 LINKER/LOCATER V4.66.41.0                                                        12/07/2018  17:31:29  PAGE 34


      00000090H.4 SFRSYM    DATA     BIT       SPI_MISO
      00000090H.3 SFRSYM    DATA     BIT       SPI_MOSI
      00000090H.1 SFRSYM    DATA     BIT       CCP0
      000000F8H   SFRSYM    DATA     BYTE      P7
      000000AAH   SFRSYM    DATA     BYTE      WKTCL
      00000090H   SFRSYM    DATA     BIT       CCP1
      000000CEH   SFRSYM    DATA     BYTE      SPCTL
      000000D8H.7 SFRSYM    DATA     BIT       CF
      000000B0H.7 SFRSYM    DATA     BIT       CCP2
      000000F9H   SFRSYM    DATA     BYTE      CH
      000000A2H   SFRSYM    DATA     BYTE      P_SW1
      000000BAH   SFRSYM    DATA     BYTE      P_SW2
      000000A8H.5 SFRSYM    DATA     BIT       EADC
      000000A0H.1 SFRSYM    DATA     BIT       SPI_SCLK_2
      000000A8H   SFRSYM    DATA     BYTE      IE
      000000C0H.3 SFRSYM    DATA     BIT       SPI_SCLK_3
      000000E9H   SFRSYM    DATA     BYTE      CL
      000000C5H   SFRSYM    DATA     BYTE      IAP_CMD
      000000FAH   SFRSYM    DATA     BYTE      CCAP0H
      000000FBH   SFRSYM    DATA     BYTE      CCAP1H
      000000FCH   SFRSYM    DATA     BYTE      CCAP2H
      000000BDH   SFRSYM    DATA     BYTE      ADC_RES
      000000B6H   SFRSYM    DATA     BYTE      IPH2
      000000D8H.6 SFRSYM    DATA     BIT       CR
      000000EAH   SFRSYM    DATA     BYTE      CCAP0L
      000000B0H.7 SFRSYM    DATA     BIT       RD
      000000EBH   SFRSYM    DATA     BYTE      CCAP1L
      000000DAH   SFRSYM    DATA     BYTE      CCAPM0
      000000ECH   SFRSYM    DATA     BYTE      CCAP2L
      000000DBH   SFRSYM    DATA     BYTE      CCAPM1
      000000A8H.4 SFRSYM    DATA     BIT       ES
      000000DCH   SFRSYM    DATA     BYTE      CCAPM2
      000000B8H.5 SFRSYM    DATA     BIT       PADC
      000000A0H.2 SFRSYM    DATA     BIT       SPI_MISO_2
      000000A0H.3 SFRSYM    DATA     BIT       SPI_MOSI_2
      000000B8H   SFRSYM    DATA     BYTE      IP
      000000C0H.1 SFRSYM    DATA     BIT       SPI_MISO_3
      000000C0H   SFRSYM    DATA     BIT       SPI_MOSI_3
      00000098H   SFRSYM    DATA     BIT       RI
      000000B0H.2 SFRSYM    DATA     BIT       INT0
      000000D0H.7 SFRSYM    DATA     BIT       CY
      00000098H.1 SFRSYM    DATA     BIT       TI
      000000B0H.3 SFRSYM    DATA     BIT       INT1
      00000097H   SFRSYM    DATA     BYTE      CLK_DIV
      000000C3H   SFRSYM    DATA     BYTE      IAP_ADDRH
      00000090H   SFRSYM    DATA     BIT       RXD2
      000000C5H   SFRSYM    DATA     BYTE      ISP_CMD
      000000B8H.4 SFRSYM    DATA     BIT       PS
      00000090H.1 SFRSYM    DATA     BIT       TXD2
      00000081H   SFRSYM    DATA     BYTE      SP
      000000D9H   SFRSYM    DATA     BYTE      CMOD
      000000D8H   SFRSYM    DATA     BYTE      CCON
      000000C4H   SFRSYM    DATA     BYTE      IAP_ADDRL
      000000B8H.7 SFRSYM    DATA     BIT       PPCA
      000000D0H.2 SFRSYM    DATA     BIT       OV
      000000B0H.6 SFRSYM    DATA     BIT       WR
      000000A8H.6 SFRSYM    DATA     BIT       ELVD
      00000080H   SFRSYM    DATA     BIT       P00
      00000090H   SFRSYM    DATA     BIT       P10
      00000080H.1 SFRSYM    DATA     BIT       P01
      000000BCH   SFRSYM    DATA     BYTE      ADC_CONTR
      00000099H   SFRSYM    DATA     BYTE      SBUF
      00000087H   SFRSYM    DATA     BYTE      PCON
      000000A0H   SFRSYM    DATA     BIT       P20
      00000090H.1 SFRSYM    DATA     BIT       P11
LX51 LINKER/LOCATER V4.66.41.0                                                        12/07/2018  17:31:29  PAGE 35


      00000080H.2 SFRSYM    DATA     BIT       P02
      000000C3H   SFRSYM    DATA     BYTE      ISP_ADDRH
      000000B0H   SFRSYM    DATA     BIT       P30
      000000A0H.1 SFRSYM    DATA     BIT       P21
      00000090H.2 SFRSYM    DATA     BIT       P12
      00000080H.3 SFRSYM    DATA     BIT       P03
      000000C0H   SFRSYM    DATA     BIT       P40
      000000B0H.1 SFRSYM    DATA     BIT       P31
      000000A0H.2 SFRSYM    DATA     BIT       P22
      00000090H.3 SFRSYM    DATA     BIT       P13
      00000080H.4 SFRSYM    DATA     BIT       P04
      00000098H   SFRSYM    DATA     BYTE      SCON
      0000008FH   SFRSYM    DATA     BYTE      WAKE_CLKO
      000000C8H   SFRSYM    DATA     BIT       P50
      000000C0H.1 SFRSYM    DATA     BIT       P41
      000000B0H.2 SFRSYM    DATA     BIT       P32
      000000A0H.3 SFRSYM    DATA     BIT       P23
      00000090H.4 SFRSYM    DATA     BIT       P14
      00000080H.5 SFRSYM    DATA     BIT       P05
      00000089H   SFRSYM    DATA     BYTE      TMOD
      00000088H   SFRSYM    DATA     BYTE      TCON
      000000C8H.1 SFRSYM    DATA     BIT       P51
      000000C0H.2 SFRSYM    DATA     BIT       P42
      000000B0H.3 SFRSYM    DATA     BIT       P33
      000000A0H.4 SFRSYM    DATA     BIT       P24
      00000090H.5 SFRSYM    DATA     BIT       P15
      00000080H.6 SFRSYM    DATA     BIT       P06
      000000C4H   SFRSYM    DATA     BYTE      ISP_ADDRL
      000000B8H.6 SFRSYM    DATA     BIT       PLVD
      000000C8H.2 SFRSYM    DATA     BIT       P52
      000000C0H.3 SFRSYM    DATA     BIT       P43
      000000B0H.4 SFRSYM    DATA     BIT       P34
      000000A0H.5 SFRSYM    DATA     BIT       P25
      00000090H.6 SFRSYM    DATA     BIT       P16
      00000080H.7 SFRSYM    DATA     BIT       P07
      000000C8H.3 SFRSYM    DATA     BIT       P53
      000000C0H.4 SFRSYM    DATA     BIT       P44
      000000B0H.5 SFRSYM    DATA     BIT       P35
      000000A0H.6 SFRSYM    DATA     BIT       P26
      00000090H.7 SFRSYM    DATA     BIT       P17
      000000C8H.4 SFRSYM    DATA     BIT       P54
      000000C0H.5 SFRSYM    DATA     BIT       P45
      000000B0H.6 SFRSYM    DATA     BIT       P36
      000000A0H.7 SFRSYM    DATA     BIT       P27
      000000C8H.5 SFRSYM    DATA     BIT       P55
      000000C0H.6 SFRSYM    DATA     BIT       P46
      000000B0H.7 SFRSYM    DATA     BIT       P37
      000000C8H.6 SFRSYM    DATA     BIT       P56
      000000C0H.7 SFRSYM    DATA     BIT       P47
      000000C8H.7 SFRSYM    DATA     BIT       P57
      00000088H.1 SFRSYM    DATA     BIT       IE0
      000000A1H   SFRSYM    DATA     BYTE      BUS_SPEED
      00000088H.3 SFRSYM    DATA     BIT       IE1
      000000AFH   SFRSYM    DATA     BYTE      IE2
      000000F0H   SFRSYM    DATA     BYTE      B
      0000008EH   SFRSYM    DATA     BYTE      AUXR
      000000C7H   SFRSYM    DATA     BYTE      IAP_CONTR
      000000E0H   SFRSYM    DATA     BYTE      ACC
      000000A8H.1 SFRSYM    DATA     BIT       ET0
      000000A8H.3 SFRSYM    DATA     BIT       ET1
      00000088H.5 SFRSYM    DATA     BIT       TF0
      00000088H.7 SFRSYM    DATA     BIT       TF1
      000000B5H   SFRSYM    DATA     BYTE      IP2
      0000008CH   SFRSYM    DATA     BYTE      RL_TH0
      00000098H.2 SFRSYM    DATA     BIT       RB8
LX51 LINKER/LOCATER V4.66.41.0                                                        12/07/2018  17:31:29  PAGE 36


      0000008DH   SFRSYM    DATA     BYTE      RL_TH1
      0000008CH   SFRSYM    DATA     BYTE      TH0
      000000A8H   SFRSYM    DATA     BIT       EX0
      00000088H   SFRSYM    DATA     BIT       IT0
      000000D6H   SFRSYM    DATA     BYTE      RL_T2H
      0000008DH   SFRSYM    DATA     BYTE      TH1
      000000A8H.2 SFRSYM    DATA     BIT       EX1
      00000098H.3 SFRSYM    DATA     BIT       TB8
      00000088H.2 SFRSYM    DATA     BIT       IT1
      000000D4H   SFRSYM    DATA     BYTE      RL_T3H
      000000D6H   SFRSYM    DATA     BYTE      TH2
      000000D6H   SFRSYM    DATA     BYTE      T2H
      000000D0H   SFRSYM    DATA     BIT       P
      000000D2H   SFRSYM    DATA     BYTE      RL_T4H
      000000D4H   SFRSYM    DATA     BYTE      TH3
      000000D4H   SFRSYM    DATA     BYTE      T3H
      0000008AH   SFRSYM    DATA     BYTE      RL_TL0
      00000098H.7 SFRSYM    DATA     BIT       SM0
      000000D2H   SFRSYM    DATA     BYTE      TH4
      000000D2H   SFRSYM    DATA     BYTE      T4H
      0000008BH   SFRSYM    DATA     BYTE      RL_TL1
      0000008AH   SFRSYM    DATA     BYTE      TL0
      00000098H.6 SFRSYM    DATA     BIT       SM1
      000000D7H   SFRSYM    DATA     BYTE      RL_T2L
      0000008BH   SFRSYM    DATA     BYTE      TL1
      00000098H.5 SFRSYM    DATA     BIT       SM2
      000000D5H   SFRSYM    DATA     BYTE      RL_T3L
      000000D7H   SFRSYM    DATA     BYTE      TL2
      000000D7H   SFRSYM    DATA     BYTE      T2L
      000000D3H   SFRSYM    DATA     BYTE      RL_T4L
      000000D5H   SFRSYM    DATA     BYTE      TL3
      000000D5H   SFRSYM    DATA     BYTE      T3L
      000000B8H.1 SFRSYM    DATA     BIT       PT0
      000000D3H   SFRSYM    DATA     BYTE      TL4
      000000D3H   SFRSYM    DATA     BYTE      T4L
      000000B8H.3 SFRSYM    DATA     BIT       PT1
      000000D0H.3 SFRSYM    DATA     BIT       RS0
      000000C7H   SFRSYM    DATA     BYTE      ISP_CONTR
      00000088H.4 SFRSYM    DATA     BIT       TR0
      000000D0H.4 SFRSYM    DATA     BIT       RS1
      000000C2H   SFRSYM    DATA     BYTE      IAP_DATA
      00000088H.6 SFRSYM    DATA     BIT       TR1
      000000B8H   SFRSYM    DATA     BIT       PX0
      000000C1H   SFRSYM    DATA     BYTE      WDT_CONTR
      000000B8H.2 SFRSYM    DATA     BIT       PX1
      000000F2H   SFRSYM    DATA     BYTE      PCA_PWM0
      000000F3H   SFRSYM    DATA     BYTE      PCA_PWM1
      000000F4H   SFRSYM    DATA     BYTE      PCA_PWM2
      0000009DH   SFRSYM    DATA     BYTE      P1ASF
      00000083H   SFRSYM    DATA     BYTE      DPH
      000000D1H   SFRSYM    DATA     BYTE      T4T3M
      000000BEH   SFRSYM    DATA     BYTE      ADC_RESL
      00000082H   SFRSYM    DATA     BYTE      DPL
      000000CDH   SFRSYM    DATA     BYTE      SPSTAT
      000000B7H   SFRSYM    DATA     BYTE      IPH
      0000009BH   SFRSYM    DATA     BYTE      S2BUF
      00000097H   SFRSYM    DATA     BYTE      PCON2
      000000ADH   SFRSYM    DATA     BYTE      S3BUF
      00000098H.4 SFRSYM    DATA     BIT       REN
      00000085H   SFRSYM    DATA     BYTE      S4BUF
      0000009AH   SFRSYM    DATA     BYTE      S2CON
      000000ACH   SFRSYM    DATA     BYTE      S3CON
      000000C2H   SFRSYM    DATA     BYTE      ISP_DATA
      00000084H   SFRSYM    DATA     BYTE      S4CON
      000000B9H   SFRSYM    DATA     BYTE      SADEN
LX51 LINKER/LOCATER V4.66.41.0                                                        12/07/2018  17:31:29  PAGE 37


      000000B0H   SFRSYM    DATA     BIT       RXD
      000000A9H   SFRSYM    DATA     BYTE      SADDR
      000000B0H.1 SFRSYM    DATA     BIT       TXD
      000000F0H   SFRSYM    DATA     BIT       B0
      000000F0H.1 SFRSYM    DATA     BIT       B1
      000000C6H   SFRSYM    DATA     BYTE      IAP_TRIG
      000000A2H   SFRSYM    DATA     BYTE      AUXR1
      000000F0H.2 SFRSYM    DATA     BIT       B2
      00000090H.2 SFRSYM    DATA     BIT       SPI_SS
      0000008FH   SFRSYM    DATA     BYTE      AUXR2
      000000F0H.3 SFRSYM    DATA     BIT       B3
      000000F0H.4 SFRSYM    DATA     BIT       B4
      000000D0H.5 SFRSYM    DATA     BIT       F0
      000000F0H.5 SFRSYM    DATA     BIT       B5
      000000D0H.1 SFRSYM    DATA     BIT       F1
      0000008FH   SFRSYM    DATA     BYTE      INT_CLKO
      000000F0H.6 SFRSYM    DATA     BIT       B6
      000000E0H   SFRSYM    DATA     BIT       ACC0
      000000F0H.7 SFRSYM    DATA     BIT       B7
      000000E0H.1 SFRSYM    DATA     BIT       ACC1
      000000E0H.2 SFRSYM    DATA     BIT       ACC2
      000000E0H.3 SFRSYM    DATA     BIT       ACC3
      000000D0H   SFRSYM    DATA     BYTE      PSW
      000000E0H.4 SFRSYM    DATA     BIT       ACC4
      00000090H.5 SFRSYM    DATA     BIT       SPI_SCLK
      000000D8H   SFRSYM    DATA     BIT       CCF0
      000000E0H.5 SFRSYM    DATA     BIT       ACC5
      000000D8H.1 SFRSYM    DATA     BIT       CCF1
      000000E0H.6 SFRSYM    DATA     BIT       ACC6
      000000CFH   SFRSYM    DATA     BYTE      SPDAT
      00000094H   SFRSYM    DATA     BYTE      P0M0
      010054BAH   SYMBOL    CODE     ---       _?ix1000
      0100553AH   SYMBOL    CODE     ---       _?ix1001
      0100559EH   SYMBOL    CODE     ---       _?ix1002

      010067F3H   BLOCK     CODE     ---       LVL=0
      010067F3H   BLOCK     CODE     NEAR LAB  LVL=1
      00000006H   SYMBOL    DATA     ---       id_ptr
      ---         BLOCKEND  ---      ---       LVL=1
      010067F3H   LINE      CODE     ---       #47
      010067F3H   LINE      CODE     ---       #49
      010067F7H   LINE      CODE     ---       #51
      01006810H   LINE      CODE     ---       #54
      01006810H   LINE      CODE     ---       #56
      0100681FH   LINE      CODE     ---       #58
      01006848H   LINE      CODE     ---       #59
      01006851H   LINE      CODE     ---       #60
      0100687AH   LINE      CODE     ---       #61
      ---         BLOCKEND  ---      ---       LVL=0

      01007525H   BLOCK     CODE     ---       LVL=0
      01007525H   LINE      CODE     ---       #69
      01007525H   LINE      CODE     ---       #71
      ---         BLOCKEND  ---      ---       LVL=0

      0100739BH   BLOCK     CODE     ---       LVL=0
      0100739BH   BLOCK     CODE     NEAR LAB  LVL=1
      00000029H   SYMBOL    DATA     BYTE      act_Reserve
      ---         BLOCKEND  ---      ---       LVL=1
      0100739BH   LINE      CODE     ---       #84
      0100739BH   LINE      CODE     ---       #86
      0100739EH   LINE      CODE     ---       #88
      010073B0H   LINE      CODE     ---       #90
      010073B0H   LINE      CODE     ---       #92
      010073B3H   LINE      CODE     ---       #94
LX51 LINKER/LOCATER V4.66.41.0                                                        12/07/2018  17:31:29  PAGE 38


      010073B5H   LINE      CODE     ---       #96
      010073B5H   LINE      CODE     ---       #98
      010073B8H   LINE      CODE     ---       #100
      010073BAH   LINE      CODE     ---       #102
      010073BAH   LINE      CODE     ---       #103
      010073BAH   LINE      CODE     ---       #104
      010073BAH   LINE      CODE     ---       #105
      010073BAH   LINE      CODE     ---       #107
      010073BDH   LINE      CODE     ---       #109
      010073BDH   LINE      CODE     ---       #110
      010073BDH   LINE      CODE     ---       #112
      010073BFH   LINE      CODE     ---       #113
      ---         BLOCKEND  ---      ---       LVL=0

      010064F1H   BLOCK     CODE     ---       LVL=0
      010064F1H   BLOCK     CODE     NEAR LAB  LVL=1
      0200015BH   SYMBOL    XDATA    ---       datsTemp
      ---         BLOCKEND  ---      ---       LVL=1
      010064F1H   LINE      CODE     ---       #215
      010064F1H   LINE      CODE     ---       #217
      01006504H   LINE      CODE     ---       #219
      01006516H   LINE      CODE     ---       #220
      0100651CH   LINE      CODE     ---       #221
      0100652FH   LINE      CODE     ---       #223
      01006535H   LINE      CODE     ---       #224
      01006548H   LINE      CODE     ---       #225
      0100654EH   LINE      CODE     ---       #226
      01006561H   LINE      CODE     ---       #228
      01006566H   LINE      CODE     ---       #229
      01006577H   LINE      CODE     ---       #231
      01006586H   LINE      CODE     ---       #233
      0100658DH   LINE      CODE     ---       #235
      ---         BLOCKEND  ---      ---       LVL=0

      010073E3H   BLOCK     CODE     ---       LVL=0
      010073E3H   BLOCK     CODE     NEAR LAB  LVL=1
      02000000H   SYMBOL    XDATA    BYTE      datsTemp
      ---         BLOCKEND  ---      ---       LVL=1
      010073E3H   LINE      CODE     ---       #238
      010073E3H   LINE      CODE     ---       #240
      010073E8H   LINE      CODE     ---       #242
      010073F9H   LINE      CODE     ---       #243
      01007401H   LINE      CODE     ---       #245
      01007404H   LINE      CODE     ---       #246
      01007404H   LINE      CODE     ---       #247
      ---         BLOCKEND  ---      ---       LVL=0

      01006F19H   BLOCK     CODE     ---       LVL=0
      0000002AH   SYMBOL    DATA     BYTE      currentRelayStatus
      01006F1BH   BLOCK     CODE     NEAR LAB  LVL=1
      02000000H   SYMBOL    XDATA    ---       dataRead_temp
      ---         BLOCKEND  ---      ---       LVL=1
      01006F19H   LINE      CODE     ---       #250
      01006F1BH   LINE      CODE     ---       #252
      01006F2EH   LINE      CODE     ---       #254
      01006F37H   LINE      CODE     ---       #256
      01006F39H   LINE      CODE     ---       #257
      01006F3FH   LINE      CODE     ---       #258
      01006F3FH   LINE      CODE     ---       #260
      01006F53H   LINE      CODE     ---       #262
      ---         BLOCKEND  ---      ---       LVL=0

      0100639FH   BLOCK     CODE     ---       LVL=0
      0100639FH   BLOCK     CODE     NEAR LAB  LVL=1
      02000000H   SYMBOL    XDATA    ---       dataRead_temp
LX51 LINKER/LOCATER V4.66.41.0                                                        12/07/2018  17:31:29  PAGE 39


      02000064H   SYMBOL    XDATA    BYTE      loop
      02000065H   SYMBOL    XDATA    BYTE      res
      ---         BLOCKEND  ---      ---       LVL=1
      0100639FH   LINE      CODE     ---       #265
      0100639FH   LINE      CODE     ---       #267
      010063B2H   LINE      CODE     ---       #268
      010063B7H   LINE      CODE     ---       #269
      010063B9H   LINE      CODE     ---       #271
      010063CAH   LINE      CODE     ---       #273
      010063D9H   LINE      CODE     ---       #275
      010063E7H   LINE      CODE     ---       #277
      01006400H   LINE      CODE     ---       #279
      01006400H   LINE      CODE     ---       #281
      0100640FH   LINE      CODE     ---       #283
      01006431H   LINE      CODE     ---       #284
      0100643AH   LINE      CODE     ---       #285
      0100643AH   LINE      CODE     ---       #287
      0100643CH   LINE      CODE     ---       #288
      0100643CH   LINE      CODE     ---       #289
      01006444H   LINE      CODE     ---       #291
      0100644BH   LINE      CODE     ---       #293
      01006450H   LINE      CODE     ---       #294
      ---         BLOCKEND  ---      ---       LVL=0

      ---         MODULE    ---      ---       TIPS
      0000006FH   PUBLIC    DATA     BYTE      tipsInsert_swLedBKG_ON
      02000643H   PUBLIC    XDATA    BYTE      tipsTimeCount_touchReset
      0000006EH   PUBLIC    DATA     BYTE      devTips_status
      02000640H   PUBLIC    XDATA    ---       zigbNwk_Tips
      0200063DH   PUBLIC    XDATA    ---       devTips_beep
      0200063CH   PUBLIC    XDATA    BYTE      counter_ifTipsFree
      02000639H   PUBLIC    XDATA    ---       relay3_Tips
      02000636H   PUBLIC    XDATA    ---       relay2_Tips
      02000635H   PUBLIC    XDATA    BYTE      tipsTimeCount_zigNwkOpen
      02000632H   PUBLIC    XDATA    ---       relay1_Tips
      02000630H   PUBLIC    XDATA    WORD      counter_tipsAct
      0200062FH   PUBLIC    XDATA    BYTE      dev_statusBeeps
      0000006DH   PUBLIC    DATA     BYTE      tipsInsert_swLedBKG_OFF
      0000006CH   PUBLIC    DATA     BYTE      devTips_nwkZigb
      0200062EH   PUBLIC    XDATA    BYTE      tipsTimeCount_factoryRecover
      00000025H.1 PUBLIC    BIT      BIT       countEN_ifTipsFree
      00000025H.0 PUBLIC    BIT      BIT       ifHorsingLight_running_FLAG
      01006E9DH   PUBLIC    CODE     ---       color_Tab
      01006E9AH   PUBLIC    CODE     ---       tips_relayUnused
      01004785H   PUBLIC    CODE     ---       tips_sysButtonReales
      01007442H   PUBLIC    CODE     ---       tips_sysStandBy
      01006F69H   PUBLIC    CODE     ---       tips_sysTouchReset
      0100506FH   PUBLIC    CODE     ---       _tips_specified
      01006451H   PUBLIC    CODE     ---       tips_warning
      00000028H   PUBLIC    DATA     BYTE      ?_tipsLED_colorSet?BYTE
      01006926H   PUBLIC    CODE     ---       _tipsLED_colorSet
      01004078H   PUBLIC    CODE     ---       thread_Tips
      010074A6H   PUBLIC    CODE     ---       _tips_statusChangeToFactoryRecover
      01007490H   PUBLIC    CODE     ---       _tips_statusChangeToTouchReset
      010075CAH   PUBLIC    CODE     ---       tips_statusChangeToZigbNwkFind
      010074D1H   PUBLIC    CODE     ---       _tips_statusChangeToZigbNwkOpen
      01007538H   PUBLIC    CODE     ---       tips_statusChangeToNormal
      01006B99H   PUBLIC    CODE     ---       _thread_tipsGetDark
      010072DEH   PUBLIC    CODE     ---       _beeps_usrActive
      01006E13H   PUBLIC    CODE     ---       ledBKGColorSw_Reales
      01007163H   PUBLIC    CODE     ---       tipLED_pinInit
      000000D8H.2 SFRSYM    DATA     BIT       CCF2
      000000E0H.7 SFRSYM    DATA     BIT       ACC7
      00000093H   SFRSYM    DATA     BYTE      P0M1
      00000092H   SFRSYM    DATA     BYTE      P1M0
LX51 LINKER/LOCATER V4.66.41.0                                                        12/07/2018  17:31:29  PAGE 40


      00000096H   SFRSYM    DATA     BYTE      P2M0
      00000091H   SFRSYM    DATA     BYTE      P1M1
      00000080H   SFRSYM    DATA     BYTE      P0
      000000B2H   SFRSYM    DATA     BYTE      P3M0
      00000095H   SFRSYM    DATA     BYTE      P2M1
      00000090H   SFRSYM    DATA     BYTE      P1
      000000B4H   SFRSYM    DATA     BYTE      P4M0
      000000B1H   SFRSYM    DATA     BYTE      P3M1
      000000A0H   SFRSYM    DATA     BYTE      P2
      000000CAH   SFRSYM    DATA     BYTE      P5M0
      000000B3H   SFRSYM    DATA     BYTE      P4M1
      000000B0H   SFRSYM    DATA     BYTE      P3
      000000ABH   SFRSYM    DATA     BYTE      WKTCH
      000000B0H.4 SFRSYM    DATA     BIT       T0
      000000D0H.6 SFRSYM    DATA     BIT       AC
      000000CCH   SFRSYM    DATA     BYTE      P6M0
      000000C9H   SFRSYM    DATA     BYTE      P5M1
      000000C0H   SFRSYM    DATA     BYTE      P4
      000000B0H.5 SFRSYM    DATA     BIT       CLKOUT0
      000000B0H.5 SFRSYM    DATA     BIT       T1
      000000E2H   SFRSYM    DATA     BYTE      P7M0
      000000CBH   SFRSYM    DATA     BYTE      P6M1
      000000C8H   SFRSYM    DATA     BYTE      P5
      000000C6H   SFRSYM    DATA     BYTE      ISP_TRIG
      000000A8H.7 SFRSYM    DATA     BIT       EA
      000000B0H.4 SFRSYM    DATA     BIT       CLKOUT1
      000000A0H.4 SFRSYM    DATA     BIT       SPI_SS_2
      000000E8H   SFRSYM    DATA     BYTE      P6
      000000E1H   SFRSYM    DATA     BYTE      P7M1
      000000C8H.4 SFRSYM    DATA     BIT       SPI_SS_3
      00000090H.4 SFRSYM    DATA     BIT       SPI_MISO
      00000090H.3 SFRSYM    DATA     BIT       SPI_MOSI
      00000090H.1 SFRSYM    DATA     BIT       CCP0
      000000F8H   SFRSYM    DATA     BYTE      P7
      000000AAH   SFRSYM    DATA     BYTE      WKTCL
      00000090H   SFRSYM    DATA     BIT       CCP1
      000000CEH   SFRSYM    DATA     BYTE      SPCTL
      000000D8H.7 SFRSYM    DATA     BIT       CF
      000000B0H.7 SFRSYM    DATA     BIT       CCP2
      000000F9H   SFRSYM    DATA     BYTE      CH
      000000A2H   SFRSYM    DATA     BYTE      P_SW1
      000000BAH   SFRSYM    DATA     BYTE      P_SW2
      000000A8H.5 SFRSYM    DATA     BIT       EADC
      000000A0H.1 SFRSYM    DATA     BIT       SPI_SCLK_2
      000000A8H   SFRSYM    DATA     BYTE      IE
      000000C0H.3 SFRSYM    DATA     BIT       SPI_SCLK_3
      000000E9H   SFRSYM    DATA     BYTE      CL
      000000C5H   SFRSYM    DATA     BYTE      IAP_CMD
      000000FAH   SFRSYM    DATA     BYTE      CCAP0H
      00000090H   SFRSYM    DATA     BIT       Dcode0
      000000FBH   SFRSYM    DATA     BYTE      CCAP1H
      00000090H.1 SFRSYM    DATA     BIT       Dcode1
      000000FCH   SFRSYM    DATA     BYTE      CCAP2H
      00000090H.2 SFRSYM    DATA     BIT       Dcode2
      000000BDH   SFRSYM    DATA     BYTE      ADC_RES
      000000B6H   SFRSYM    DATA     BYTE      IPH2
      00000090H.3 SFRSYM    DATA     BIT       Dcode3
      000000D8H.6 SFRSYM    DATA     BIT       CR
      000000EAH   SFRSYM    DATA     BYTE      CCAP0L
      00000090H.4 SFRSYM    DATA     BIT       Dcode4
      000000B0H.7 SFRSYM    DATA     BIT       RD
      000000EBH   SFRSYM    DATA     BYTE      CCAP1L
      000000DAH   SFRSYM    DATA     BYTE      CCAPM0
      00000090H.3 SFRSYM    DATA     BIT       Dcode5
      000000ECH   SFRSYM    DATA     BYTE      CCAP2L
LX51 LINKER/LOCATER V4.66.41.0                                                        12/07/2018  17:31:29  PAGE 41


      000000DBH   SFRSYM    DATA     BYTE      CCAPM1
      000000A8H.4 SFRSYM    DATA     BIT       ES
      000000DCH   SFRSYM    DATA     BYTE      CCAPM2
      000000B8H.5 SFRSYM    DATA     BIT       PADC
      000000A0H.2 SFRSYM    DATA     BIT       SPI_MISO_2
      000000A0H.3 SFRSYM    DATA     BIT       SPI_MOSI_2
      000000B8H   SFRSYM    DATA     BYTE      IP
      000000C0H.1 SFRSYM    DATA     BIT       SPI_MISO_3
      000000C0H   SFRSYM    DATA     BIT       SPI_MOSI_3
      00000098H   SFRSYM    DATA     BIT       RI
      000000B0H.2 SFRSYM    DATA     BIT       INT0
      000000D0H.7 SFRSYM    DATA     BIT       CY
      00000098H.1 SFRSYM    DATA     BIT       TI
      000000B0H.3 SFRSYM    DATA     BIT       INT1
      00000097H   SFRSYM    DATA     BYTE      CLK_DIV
      000000C3H   SFRSYM    DATA     BYTE      IAP_ADDRH
      00000090H   SFRSYM    DATA     BIT       RXD2
      000000C5H   SFRSYM    DATA     BYTE      ISP_CMD
      000000B8H.4 SFRSYM    DATA     BIT       PS
      00000090H.1 SFRSYM    DATA     BIT       TXD2
      00000081H   SFRSYM    DATA     BYTE      SP
      000000D9H   SFRSYM    DATA     BYTE      CMOD
      000000D8H   SFRSYM    DATA     BYTE      CCON
      000000C4H   SFRSYM    DATA     BYTE      IAP_ADDRL
      000000B8H.7 SFRSYM    DATA     BIT       PPCA
      000000D0H.2 SFRSYM    DATA     BIT       OV
      000000B0H.6 SFRSYM    DATA     BIT       WR
      000000A8H.6 SFRSYM    DATA     BIT       ELVD
      00000080H   SFRSYM    DATA     BIT       P00
      00000090H   SFRSYM    DATA     BIT       P10
      00000080H.1 SFRSYM    DATA     BIT       P01
      000000BCH   SFRSYM    DATA     BYTE      ADC_CONTR
      00000099H   SFRSYM    DATA     BYTE      SBUF
      00000087H   SFRSYM    DATA     BYTE      PCON
      000000A0H   SFRSYM    DATA     BIT       P20
      00000090H.1 SFRSYM    DATA     BIT       P11
      00000080H.2 SFRSYM    DATA     BIT       P02
      000000C3H   SFRSYM    DATA     BYTE      ISP_ADDRH
      000000B0H   SFRSYM    DATA     BIT       P30
      000000A0H.1 SFRSYM    DATA     BIT       P21
      00000090H.2 SFRSYM    DATA     BIT       P12
      00000080H.3 SFRSYM    DATA     BIT       P03
      000000C0H   SFRSYM    DATA     BIT       P40
      000000B0H.1 SFRSYM    DATA     BIT       P31
      000000A0H.2 SFRSYM    DATA     BIT       P22
      00000090H.3 SFRSYM    DATA     BIT       P13
      00000080H.4 SFRSYM    DATA     BIT       P04
      00000098H   SFRSYM    DATA     BYTE      SCON
      0000008FH   SFRSYM    DATA     BYTE      WAKE_CLKO
      000000C8H   SFRSYM    DATA     BIT       P50
      000000C0H.1 SFRSYM    DATA     BIT       P41
      000000B0H.2 SFRSYM    DATA     BIT       P32
      000000A0H.3 SFRSYM    DATA     BIT       P23
      00000090H.4 SFRSYM    DATA     BIT       P14
      00000080H.5 SFRSYM    DATA     BIT       P05
      00000089H   SFRSYM    DATA     BYTE      TMOD
      00000088H   SFRSYM    DATA     BYTE      TCON
      000000C8H.1 SFRSYM    DATA     BIT       P51
      000000C0H.2 SFRSYM    DATA     BIT       P42
      000000B0H.3 SFRSYM    DATA     BIT       P33
      000000A0H.4 SFRSYM    DATA     BIT       P24
      00000090H.5 SFRSYM    DATA     BIT       P15
      00000080H.6 SFRSYM    DATA     BIT       P06
      000000C4H   SFRSYM    DATA     BYTE      ISP_ADDRL
      000000B8H.6 SFRSYM    DATA     BIT       PLVD
LX51 LINKER/LOCATER V4.66.41.0                                                        12/07/2018  17:31:29  PAGE 42


      000000C8H.2 SFRSYM    DATA     BIT       P52
      000000C0H.3 SFRSYM    DATA     BIT       P43
      000000B0H.4 SFRSYM    DATA     BIT       P34
      000000A0H.5 SFRSYM    DATA     BIT       P25
      00000090H.6 SFRSYM    DATA     BIT       P16
      00000080H.7 SFRSYM    DATA     BIT       P07
      000000C8H.3 SFRSYM    DATA     BIT       P53
      000000C0H.4 SFRSYM    DATA     BIT       P44
      000000B0H.5 SFRSYM    DATA     BIT       P35
      000000A0H.6 SFRSYM    DATA     BIT       P26
      00000090H.7 SFRSYM    DATA     BIT       P17
      000000C8H.4 SFRSYM    DATA     BIT       P54
      000000C0H.5 SFRSYM    DATA     BIT       P45
      000000B0H.6 SFRSYM    DATA     BIT       P36
      000000A0H.7 SFRSYM    DATA     BIT       P27
      000000C8H.5 SFRSYM    DATA     BIT       P55
      000000C0H.6 SFRSYM    DATA     BIT       P46
      000000B0H.7 SFRSYM    DATA     BIT       P37
      000000C8H.6 SFRSYM    DATA     BIT       P56
      000000C0H.7 SFRSYM    DATA     BIT       P47
      000000C8H.7 SFRSYM    DATA     BIT       P57
      00000088H.1 SFRSYM    DATA     BIT       IE0
      000000A1H   SFRSYM    DATA     BYTE      BUS_SPEED
      00000088H.3 SFRSYM    DATA     BIT       IE1
      000000AFH   SFRSYM    DATA     BYTE      IE2
      000000F0H   SFRSYM    DATA     BYTE      B
      0000008EH   SFRSYM    DATA     BYTE      AUXR
      000000C7H   SFRSYM    DATA     BYTE      IAP_CONTR
      000000E0H   SFRSYM    DATA     BYTE      ACC
      000000A8H.1 SFRSYM    DATA     BIT       ET0
      000000A8H.3 SFRSYM    DATA     BIT       ET1
      00000088H.5 SFRSYM    DATA     BIT       TF0
      00000088H.7 SFRSYM    DATA     BIT       TF1
      000000B5H   SFRSYM    DATA     BYTE      IP2
      0000008CH   SFRSYM    DATA     BYTE      RL_TH0
      00000098H.2 SFRSYM    DATA     BIT       RB8
      0000008DH   SFRSYM    DATA     BYTE      RL_TH1
      0000008CH   SFRSYM    DATA     BYTE      TH0
      000000A8H   SFRSYM    DATA     BIT       EX0
      00000088H   SFRSYM    DATA     BIT       IT0
      000000D6H   SFRSYM    DATA     BYTE      RL_T2H
      0000008DH   SFRSYM    DATA     BYTE      TH1
      00000090H.6 SFRSYM    DATA     BIT       touchPad_1
      000000A8H.2 SFRSYM    DATA     BIT       EX1
      00000098H.3 SFRSYM    DATA     BIT       TB8
      00000088H.2 SFRSYM    DATA     BIT       IT1
      000000D4H   SFRSYM    DATA     BYTE      RL_T3H
      000000D6H   SFRSYM    DATA     BYTE      TH2
      000000D6H   SFRSYM    DATA     BYTE      T2H
      00000090H.7 SFRSYM    DATA     BIT       touchPad_2
      000000D0H   SFRSYM    DATA     BIT       P
      000000D2H   SFRSYM    DATA     BYTE      RL_T4H
      000000D4H   SFRSYM    DATA     BYTE      TH3
      000000D4H   SFRSYM    DATA     BYTE      T3H
      0000008AH   SFRSYM    DATA     BYTE      RL_TL0
      00000090H.5 SFRSYM    DATA     BIT       touchPad_3
      00000098H.7 SFRSYM    DATA     BIT       SM0
      000000D2H   SFRSYM    DATA     BYTE      TH4
      000000D2H   SFRSYM    DATA     BYTE      T4H
      0000008BH   SFRSYM    DATA     BYTE      RL_TL1
      0000008AH   SFRSYM    DATA     BYTE      TL0
      00000098H.6 SFRSYM    DATA     BIT       SM1
      000000D7H   SFRSYM    DATA     BYTE      RL_T2L
      0000008BH   SFRSYM    DATA     BYTE      TL1
      00000098H.5 SFRSYM    DATA     BIT       SM2
LX51 LINKER/LOCATER V4.66.41.0                                                        12/07/2018  17:31:29  PAGE 43


      000000D5H   SFRSYM    DATA     BYTE      RL_T3L
      000000D7H   SFRSYM    DATA     BYTE      TL2
      000000D7H   SFRSYM    DATA     BYTE      T2L
      000000D3H   SFRSYM    DATA     BYTE      RL_T4L
      000000D5H   SFRSYM    DATA     BYTE      TL3
      000000D5H   SFRSYM    DATA     BYTE      T3L
      000000B8H.1 SFRSYM    DATA     BIT       PT0
      000000D3H   SFRSYM    DATA     BYTE      TL4
      000000D3H   SFRSYM    DATA     BYTE      T4L
      000000B8H.3 SFRSYM    DATA     BIT       PT1
      000000D0H.3 SFRSYM    DATA     BIT       RS0
      000000C7H   SFRSYM    DATA     BYTE      ISP_CONTR
      00000088H.4 SFRSYM    DATA     BIT       TR0
      000000D0H.4 SFRSYM    DATA     BIT       RS1
      000000C2H   SFRSYM    DATA     BYTE      IAP_DATA
      00000088H.6 SFRSYM    DATA     BIT       TR1
      000000B8H   SFRSYM    DATA     BIT       PX0
      000000C1H   SFRSYM    DATA     BYTE      WDT_CONTR
      000000B8H.2 SFRSYM    DATA     BIT       PX1
      000000F2H   SFRSYM    DATA     BYTE      PCA_PWM0
      000000F3H   SFRSYM    DATA     BYTE      PCA_PWM1
      000000F4H   SFRSYM    DATA     BYTE      PCA_PWM2
      0000009DH   SFRSYM    DATA     BYTE      P1ASF
      00000083H   SFRSYM    DATA     BYTE      DPH
      000000D1H   SFRSYM    DATA     BYTE      T4T3M
      000000BEH   SFRSYM    DATA     BYTE      ADC_RESL
      00000082H   SFRSYM    DATA     BYTE      DPL
      000000CDH   SFRSYM    DATA     BYTE      SPSTAT
      000000B7H   SFRSYM    DATA     BYTE      IPH
      0000009BH   SFRSYM    DATA     BYTE      S2BUF
      00000097H   SFRSYM    DATA     BYTE      PCON2
      000000ADH   SFRSYM    DATA     BYTE      S3BUF
      00000098H.4 SFRSYM    DATA     BIT       REN
      00000085H   SFRSYM    DATA     BYTE      S4BUF
      00000080H.2 SFRSYM    DATA     BIT       Usr_key
      0000009AH   SFRSYM    DATA     BYTE      S2CON
      000000ACH   SFRSYM    DATA     BYTE      S3CON
      000000C2H   SFRSYM    DATA     BYTE      ISP_DATA
      00000084H   SFRSYM    DATA     BYTE      S4CON
      000000B9H   SFRSYM    DATA     BYTE      SADEN
      000000B0H   SFRSYM    DATA     BIT       RXD
      000000A9H   SFRSYM    DATA     BYTE      SADDR
      000000B0H.1 SFRSYM    DATA     BIT       TXD
      000000F0H   SFRSYM    DATA     BIT       B0
      000000F0H.1 SFRSYM    DATA     BIT       B1
      000000C6H   SFRSYM    DATA     BYTE      IAP_TRIG
      000000A2H   SFRSYM    DATA     BYTE      AUXR1
      000000F0H.2 SFRSYM    DATA     BIT       B2
      00000090H.2 SFRSYM    DATA     BIT       SPI_SS
      0000008FH   SFRSYM    DATA     BYTE      AUXR2
      000000F0H.3 SFRSYM    DATA     BIT       B3
      000000F0H.4 SFRSYM    DATA     BIT       B4
      000000D0H.5 SFRSYM    DATA     BIT       F0
      000000F0H.5 SFRSYM    DATA     BIT       B5
      000000D0H.1 SFRSYM    DATA     BIT       F1
      0000008FH   SFRSYM    DATA     BYTE      INT_CLKO
      000000F0H.6 SFRSYM    DATA     BIT       B6
      000000E0H   SFRSYM    DATA     BIT       ACC0
      000000F0H.7 SFRSYM    DATA     BIT       B7
      000000E0H.1 SFRSYM    DATA     BIT       ACC1
      000000E0H.2 SFRSYM    DATA     BIT       ACC2
      000000E0H.3 SFRSYM    DATA     BIT       ACC3
      000000D0H   SFRSYM    DATA     BYTE      PSW
      000000E0H.4 SFRSYM    DATA     BIT       ACC4
      00000090H.5 SFRSYM    DATA     BIT       SPI_SCLK
LX51 LINKER/LOCATER V4.66.41.0                                                        12/07/2018  17:31:29  PAGE 44


      000000D8H   SFRSYM    DATA     BIT       CCF0
      000000E0H.5 SFRSYM    DATA     BIT       ACC5
      000000D8H.1 SFRSYM    DATA     BIT       CCF1
      000000E0H.6 SFRSYM    DATA     BIT       ACC6
      000000CFH   SFRSYM    DATA     BYTE      SPDAT
      00000094H   SFRSYM    DATA     BYTE      P0M0

      01007163H   BLOCK     CODE     ---       LVL=0
      01007163H   LINE      CODE     ---       #48
      01007163H   LINE      CODE     ---       #50
      01007166H   LINE      CODE     ---       #51
      01007169H   LINE      CODE     ---       #53
      0100716CH   LINE      CODE     ---       #54
      0100716FH   LINE      CODE     ---       #56
      01007172H   LINE      CODE     ---       #57
      01007175H   LINE      CODE     ---       #59
      01007178H   LINE      CODE     ---       #61
      01007181H   LINE      CODE     ---       #62
      0100718BH   LINE      CODE     ---       #63
      01007195H   LINE      CODE     ---       #64
      ---         BLOCKEND  ---      ---       LVL=0

      01006E13H   BLOCK     CODE     ---       LVL=0
      01006E13H   LINE      CODE     ---       #79
      01006E13H   LINE      CODE     ---       #81
      01006E26H   LINE      CODE     ---       #82
      01006E39H   LINE      CODE     ---       #84
      01006E43H   LINE      CODE     ---       #85
      01006E4DH   LINE      CODE     ---       #87
      01006E60H   LINE      CODE     ---       #88
      ---         BLOCKEND  ---      ---       LVL=0

      010072D8H   BLOCK     CODE     VOID      LVL=0
      ---         BLOCKEND  ---      ---       LVL=0

      010072DEH   BLOCK     CODE     ---       LVL=0
      00000007H   SYMBOL    DATA     BYTE      tons
      00000005H   SYMBOL    DATA     BYTE      time
      00000003H   SYMBOL    DATA     BYTE      loop
      010072DEH   LINE      CODE     ---       #92
      010072DEH   LINE      CODE     ---       #94
      010072E1H   LINE      CODE     ---       #96
      010072EDH   LINE      CODE     ---       #97
      010072F0H   LINE      CODE     ---       #98
      010072FAH   LINE      CODE     ---       #99
      01007300H   LINE      CODE     ---       #100
      01007300H   LINE      CODE     ---       #101
      ---         BLOCKEND  ---      ---       LVL=0

      01006B99H   BLOCK     CODE     ---       LVL=0
      00000005H   SYMBOL    DATA     BYTE      funSet
      01006B99H   LINE      CODE     ---       #103
      01006B9BH   LINE      CODE     ---       #105
      01006BB4H   LINE      CODE     ---       #106
      01006BD0H   LINE      CODE     ---       #107
      01006BEEH   LINE      CODE     ---       #108
      01006C0DH   LINE      CODE     ---       #109
      ---         BLOCKEND  ---      ---       LVL=0

      01007538H   BLOCK     CODE     ---       LVL=0
      01007538H   LINE      CODE     ---       #112
      01007538H   LINE      CODE     ---       #114
      0100753EH   LINE      CODE     ---       #115
      01007541H   LINE      CODE     ---       #116
      0100754AH   LINE      CODE     ---       #117
LX51 LINKER/LOCATER V4.66.41.0                                                        12/07/2018  17:31:29  PAGE 45


      ---         BLOCKEND  ---      ---       LVL=0

      010074D1H   BLOCK     CODE     ---       LVL=0
      00000006H   SYMBOL    DATA     BYTE      timeopen
      010074D1H   LINE      CODE     ---       #120
      010074D3H   LINE      CODE     ---       #122
      010074D6H   LINE      CODE     ---       #123
      010074DBH   LINE      CODE     ---       #124
      010074DEH   LINE      CODE     ---       #125
      010074E1H   LINE      CODE     ---       #126
      ---         BLOCKEND  ---      ---       LVL=0

      010075CAH   BLOCK     CODE     ---       LVL=0
      010075CAH   LINE      CODE     ---       #130
      010075CAH   LINE      CODE     ---       #132
      010075CDH   LINE      CODE     ---       #133
      010075D0H   LINE      CODE     ---       #134
      ---         BLOCKEND  ---      ---       LVL=0

      01007490H   BLOCK     CODE     ---       LVL=0
      00000007H   SYMBOL    DATA     BYTE      timeHold
      01007490H   LINE      CODE     ---       #138
      01007490H   LINE      CODE     ---       #140
      01007495H   LINE      CODE     ---       #141
      01007498H   LINE      CODE     ---       #142
      0100749DH   LINE      CODE     ---       #143
      ---         BLOCKEND  ---      ---       LVL=0

      010074A6H   BLOCK     CODE     ---       LVL=0
      00000007H   SYMBOL    DATA     BYTE      timeHold
      010074A6H   LINE      CODE     ---       #147
      010074A6H   LINE      CODE     ---       #149
      010074ABH   LINE      CODE     ---       #150
      010074AEH   LINE      CODE     ---       #151
      010074B3H   LINE      CODE     ---       #152
      ---         BLOCKEND  ---      ---       LVL=0

      01004078H   BLOCK     CODE     ---       LVL=0
      010040E1H   BLOCK     CODE     NEAR LAB  LVL=1
      00000056H   SYMBOL    DATA     WORD      tips_Counter
      01006EBBH   SYMBOL    CODE     WORD      tips_Period
      00000027H   SYMBOL    DATA     BYTE      relayStatus_tipsTemp
      0100433AH   BLOCK     CODE     NEAR LAB  LVL=2
      00000024H.3 SYMBOL    BIT      BIT       tips_Type
      ---         BLOCKEND  ---      ---       LVL=2
      ---         BLOCKEND  ---      ---       LVL=1
      01004078H   LINE      CODE     ---       #156
      01004078H   LINE      CODE     ---       #158
      0100407BH   LINE      CODE     ---       #160
      01004087H   LINE      CODE     ---       #161
      01004087H   LINE      CODE     ---       #163
      0100408AH   LINE      CODE     ---       #164
      0100408AH   LINE      CODE     ---       #166
      0100408CH   LINE      CODE     ---       #168
      01004094H   LINE      CODE     ---       #170
      010040A2H   LINE      CODE     ---       #172
      010040A2H   LINE      CODE     ---       #174
      010040A7H   LINE      CODE     ---       #175
      010040AAH   LINE      CODE     ---       #176
      010040AAH   LINE      CODE     ---       #177
      010040AAH   LINE      CODE     ---       #179
      010040DBH   LINE      CODE     ---       #181
      010040DBH   LINE      CODE     ---       #183
      010040DEH   LINE      CODE     ---       #185
      010040DEH   LINE      CODE     ---       #187
LX51 LINKER/LOCATER V4.66.41.0                                                        12/07/2018  17:31:29  PAGE 46


      010040DEH   LINE      CODE     ---       #189
      010040E1H   LINE      CODE     ---       #191
      010040E1H   LINE      CODE     ---       #193
      010040E1H   LINE      CODE     ---       #194
      010040E1H   LINE      CODE     ---       #198
      010040E8H   LINE      CODE     ---       #200
      010040EDH   LINE      CODE     ---       #202
      010040F2H   LINE      CODE     ---       #203
      010040F8H   LINE      CODE     ---       #205
      010040FAH   LINE      CODE     ---       #206
      010040FFH   LINE      CODE     ---       #208
      01004108H   LINE      CODE     ---       #209
      0100410EH   LINE      CODE     ---       #210
      01004113H   LINE      CODE     ---       #212
      01004115H   LINE      CODE     ---       #213
      0100411AH   LINE      CODE     ---       #215
      0100411AH   LINE      CODE     ---       #217
      0100411CH   LINE      CODE     ---       #218
      01004121H   LINE      CODE     ---       #220
      01004127H   LINE      CODE     ---       #222
      01004129H   LINE      CODE     ---       #223
      01004134H   LINE      CODE     ---       #225
      01004139H   LINE      CODE     ---       #226
      01004139H   LINE      CODE     ---       #229
      0100413FH   LINE      CODE     ---       #231
      0100413FH   LINE      CODE     ---       #233
      01004149H   LINE      CODE     ---       #235
      01004149H   LINE      CODE     ---       #237
      0100414FH   LINE      CODE     ---       #238
      01004152H   LINE      CODE     ---       #239
      01004152H   LINE      CODE     ---       #241
      01004154H   LINE      CODE     ---       #243
      01004154H   LINE      CODE     ---       #245
      01004157H   LINE      CODE     ---       #246
      01004171H   LINE      CODE     ---       #247
      01004174H   LINE      CODE     ---       #249
      01004177H   LINE      CODE     ---       #251
      01004177H   LINE      CODE     ---       #253
      0100417AH   LINE      CODE     ---       #254
      01004194H   LINE      CODE     ---       #255
      01004197H   LINE      CODE     ---       #257
      0100419AH   LINE      CODE     ---       #258
      0100419AH   LINE      CODE     ---       #260
      0100419AH   LINE      CODE     ---       #262
      0100419AH   LINE      CODE     ---       #263
      0100419AH   LINE      CODE     ---       #264
      0100419AH   LINE      CODE     ---       #265
      0100419AH   LINE      CODE     ---       #266
      0100419AH   LINE      CODE     ---       #268
      0100421BH   LINE      CODE     ---       #274
      010042A4H   LINE      CODE     ---       #280
      0100432DH   LINE      CODE     ---       #286
      0100432DH   LINE      CODE     ---       #287
      0100432DH   LINE      CODE     ---       #290
      0100432DH   LINE      CODE     ---       #292
      0100433AH   LINE      CODE     ---       #293
      0100433AH   LINE      CODE     ---       #296
      0100433AH   LINE      CODE     ---       #299
      01004352H   LINE      CODE     ---       #300
      01004352H   LINE      CODE     ---       #302
      01004354H   LINE      CODE     ---       #303
      01004359H   LINE      CODE     ---       #305
      0100436EH   LINE      CODE     ---       #307
      0100436EH   LINE      CODE     ---       #309
      01004373H   LINE      CODE     ---       #311
LX51 LINKER/LOCATER V4.66.41.0                                                        12/07/2018  17:31:29  PAGE 47


      01004375H   LINE      CODE     ---       #313
      01004375H   LINE      CODE     ---       #315
      01004383H   LINE      CODE     ---       #317
      01004385H   LINE      CODE     ---       #319
      01004385H   LINE      CODE     ---       #321
      0100438BH   LINE      CODE     ---       #323
      0100438DH   LINE      CODE     ---       #325
      0100438DH   LINE      CODE     ---       #327
      01004394H   LINE      CODE     ---       #329
      01004396H   LINE      CODE     ---       #331
      01004396H   LINE      CODE     ---       #333
      010043A6H   LINE      CODE     ---       #335
      010043A8H   LINE      CODE     ---       #337
      010043A8H   LINE      CODE     ---       #339
      010043BCH   LINE      CODE     ---       #341
      010043BCH   LINE      CODE     ---       #343
      010043BCH   LINE      CODE     ---       #345
      010043BFH   LINE      CODE     ---       #347
      010043C0H   LINE      CODE     ---       #348
      010043C0H   LINE      CODE     ---       #349
      010043C0H   LINE      CODE     ---       #350
      010043C0H   LINE      CODE     ---       #352
      010043C0H   LINE      CODE     ---       #354
      010043C0H   LINE      CODE     ---       #356
      010043CAH   LINE      CODE     ---       #357
      010043CAH   LINE      CODE     ---       #359
      010043CDH   LINE      CODE     ---       #361
      010043CDH   LINE      CODE     ---       #362
      010043DCH   LINE      CODE     ---       #363
      010043E5H   LINE      CODE     ---       #364
      010043E5H   LINE      CODE     ---       #365
      010043E5H   LINE      CODE     ---       #367
      010043E5H   LINE      CODE     ---       #369
      010043E7H   LINE      CODE     ---       #371
      010043E7H   LINE      CODE     ---       #373
      010043ECH   LINE      CODE     ---       #375
      010043ECH   LINE      CODE     ---       #377
      010043ECH   LINE      CODE     ---       #379
      010043EFH   LINE      CODE     ---       #381
      010043EFH   LINE      CODE     ---       #383
      010043EFH   LINE      CODE     ---       #385
      010043F8H   LINE      CODE     ---       #386
      010043F8H   LINE      CODE     ---       #388
      010043FBH   LINE      CODE     ---       #390
      010043FBH   LINE      CODE     ---       #391
      0100440AH   LINE      CODE     ---       #392
      0100441CH   LINE      CODE     ---       #393
      01004425H   LINE      CODE     ---       #394
      01004425H   LINE      CODE     ---       #396
      01004425H   LINE      CODE     ---       #398
      01004425H   LINE      CODE     ---       #400
      01004425H   LINE      CODE     ---       #402
      01004428H   LINE      CODE     ---       #404
      01004428H   LINE      CODE     ---       #405
      01004428H   LINE      CODE     ---       #406
      ---         BLOCKEND  ---      ---       LVL=0

      0100690FH   BLOCK     CODE     VOID      LVL=0
      ---         BLOCKEND  ---      ---       LVL=0

      01006926H   BLOCK     CODE     ---       LVL=0
      00000007H   SYMBOL    DATA     BYTE      obj
      00000005H   SYMBOL    DATA     BYTE      gray_R
      00000003H   SYMBOL    DATA     BYTE      gray_G
      0000002BH   SYMBOL    DATA     BYTE      gray_B
LX51 LINKER/LOCATER V4.66.41.0                                                        12/07/2018  17:31:29  PAGE 48


      01006937H   BLOCK     CODE     NEAR LAB  LVL=1
      01006EBDH   SYMBOL    CODE     BYTE      bright_coef
      ---         BLOCKEND  ---      ---       LVL=1
      01006926H   LINE      CODE     ---       #408
      01006926H   LINE      CODE     ---       #410
      01006932H   LINE      CODE     ---       #411
      01006932H   LINE      CODE     ---       #413
      01006937H   LINE      CODE     ---       #417
      01006942H   LINE      CODE     ---       #418
      01006947H   LINE      CODE     ---       #419
      0100694EH   LINE      CODE     ---       #420
      0100694EH   LINE      CODE     ---       #422
      0100695CH   LINE      CODE     ---       #424
      0100695CH   LINE      CODE     ---       #426
      01006963H   LINE      CODE     ---       #427
      01006963H   LINE      CODE     ---       #428
      01006963H   LINE      CODE     ---       #430
      01006965H   LINE      CODE     ---       #432
      01006965H   LINE      CODE     ---       #434
      0100696CH   LINE      CODE     ---       #435
      0100696CH   LINE      CODE     ---       #436
      0100696CH   LINE      CODE     ---       #438
      0100696EH   LINE      CODE     ---       #440
      0100696EH   LINE      CODE     ---       #442
      01006975H   LINE      CODE     ---       #443
      01006975H   LINE      CODE     ---       #444
      01006975H   LINE      CODE     ---       #446
      01006977H   LINE      CODE     ---       #448
      01006977H   LINE      CODE     ---       #450
      01006983H   LINE      CODE     ---       #451
      0100698DH   LINE      CODE     ---       #452
      01006998H   LINE      CODE     ---       #454
      01006998H   LINE      CODE     ---       #456
      01006998H   LINE      CODE     ---       #457
      01006998H   LINE      CODE     ---       #458
      01006998H   LINE      CODE     ---       #459
      ---         BLOCKEND  ---      ---       LVL=0

      01006451H   BLOCK     CODE     ---       LVL=0
      01006451H   BLOCK     CODE     NEAR LAB  LVL=1
      0200062DH   SYMBOL    XDATA    BYTE      tipsStep
      ---         BLOCKEND  ---      ---       LVL=1
      01006451H   LINE      CODE     ---       #461
      01006451H   LINE      CODE     ---       #465
      01006465H   LINE      CODE     ---       #467
      01006465H   LINE      CODE     ---       #469
      0100646FH   LINE      CODE     ---       #470
      01006475H   LINE      CODE     ---       #472
      01006476H   LINE      CODE     ---       #474
      01006476H   LINE      CODE     ---       #476
      01006481H   LINE      CODE     ---       #478
      01006491H   LINE      CODE     ---       #480
      010064ABH   LINE      CODE     ---       #485
      010064ACH   LINE      CODE     ---       #487
      010064C8H   LINE      CODE     ---       #491
      010064C8H   LINE      CODE     ---       #493
      010064C9H   LINE      CODE     ---       #495
      010064D3H   LINE      CODE     ---       #496
      010064D8H   LINE      CODE     ---       #497
      010064DEH   LINE      CODE     ---       #498
      010064DEH   LINE      CODE     ---       #500
      010064DFH   LINE      CODE     ---       #503
      010064DFH   LINE      CODE     ---       #505
      010064E9H   LINE      CODE     ---       #507
      010064EBH   LINE      CODE     ---       #509
LX51 LINKER/LOCATER V4.66.41.0                                                        12/07/2018  17:31:29  PAGE 49


      010064EBH   LINE      CODE     ---       #511
      010064F0H   LINE      CODE     ---       #513
      010064F0H   LINE      CODE     ---       #514
      010064F0H   LINE      CODE     ---       #515
      ---         BLOCKEND  ---      ---       LVL=0
      00000058H   SYMBOL    DATA     BYTE      localTips_Count
      00000024H.4 SYMBOL    BIT      BIT       count_FLG
      00000059H   SYMBOL    DATA     BYTE      tipsStep
      01006EBEH   SYMBOL    CODE     BYTE      speed
      01006EBFH   SYMBOL    CODE     BYTE      step_period
      0000005AH   SYMBOL    DATA     BYTE      localTips_Count
      00000024H.5 SYMBOL    BIT      BIT       count_FLG
      0000005BH   SYMBOL    DATA     BYTE      tipsStep
      0000005CH   SYMBOL    DATA     BYTE      pwmType_A
      0000005DH   SYMBOL    DATA     BYTE      pwmType_B
      0000005EH   SYMBOL    DATA     BYTE      pwmType_C
      0000005FH   SYMBOL    DATA     BYTE      pwmType_D
      01006EC0H   SYMBOL    CODE     BYTE      speed
      01006EC1H   SYMBOL    CODE     BYTE      step_period

      0100506FH   BLOCK     CODE     ---       LVL=0
      00000005H   SYMBOL    DATA     BYTE      tips_Type
      01005071H   BLOCK     CODE     NEAR LAB  LVL=1
      00000060H   SYMBOL    DATA     BYTE      localTips_Count
      00000024H.6 SYMBOL    BIT      BIT       count_FLG
      00000061H   SYMBOL    DATA     BYTE      tipsStep
      00000062H   SYMBOL    DATA     BYTE      pwmType_A
      00000063H   SYMBOL    DATA     BYTE      pwmType_B
      00000064H   SYMBOL    DATA     BYTE      pwmType_C
      00000065H   SYMBOL    DATA     BYTE      pwmType_D
      01006EC2H   SYMBOL    CODE     BYTE      speed_Mol
      01006EC3H   SYMBOL    CODE     BYTE      speed_Den
      01006EC4H   SYMBOL    CODE     BYTE      step_period
      ---         BLOCKEND  ---      ---       LVL=1
      0100506FH   LINE      CODE     ---       #658
      01005071H   LINE      CODE     ---       #672
      01005078H   LINE      CODE     ---       #674
      01005087H   LINE      CODE     ---       #675
      01005087H   LINE      CODE     ---       #677
      0100508AH   LINE      CODE     ---       #679
      01005092H   LINE      CODE     ---       #680
      01005092H   LINE      CODE     ---       #681
      01005092H   LINE      CODE     ---       #682
      0100509AH   LINE      CODE     ---       #684
      010050A1H   LINE      CODE     ---       #686
      010050A3H   LINE      CODE     ---       #690
      010050A3H   LINE      CODE     ---       #692
      010050ADH   LINE      CODE     ---       #694
      010050D9H   LINE      CODE     ---       #696
      010050E9H   LINE      CODE     ---       #697
      010050FCH   LINE      CODE     ---       #698
      0100510FH   LINE      CODE     ---       #699
      01005122H   LINE      CODE     ---       #700
      01005122H   LINE      CODE     ---       #702
      0100512FH   LINE      CODE     ---       #704
      0100512FH   LINE      CODE     ---       #706
      01005136H   LINE      CODE     ---       #708
      01005136H   LINE      CODE     ---       #710
      01005139H   LINE      CODE     ---       #712
      01005140H   LINE      CODE     ---       #714
      01005151H   LINE      CODE     ---       #716
      01005151H   LINE      CODE     ---       #717
      01005151H   LINE      CODE     ---       #719
      01005153H   LINE      CODE     ---       #721
      01005156H   LINE      CODE     ---       #722
LX51 LINKER/LOCATER V4.66.41.0                                                        12/07/2018  17:31:29  PAGE 50


      01005158H   LINE      CODE     ---       #723
      01005158H   LINE      CODE     ---       #725
      0100515BH   LINE      CODE     ---       #727
      01005170H   LINE      CODE     ---       #728
      01005185H   LINE      CODE     ---       #729
      0100519AH   LINE      CODE     ---       #730
      010051B2H   LINE      CODE     ---       #731
      010051B2H   LINE      CODE     ---       #733
      010051B3H   LINE      CODE     ---       #735
      010051C0H   LINE      CODE     ---       #736
      010051CDH   LINE      CODE     ---       #737
      010051DAH   LINE      CODE     ---       #738
      010051E7H   LINE      CODE     ---       #740
      010051F8H   LINE      CODE     ---       #741
      01005209H   LINE      CODE     ---       #742
      0100521AH   LINE      CODE     ---       #743
      01005226H   LINE      CODE     ---       #744
      01005226H   LINE      CODE     ---       #746
      01005229H   LINE      CODE     ---       #748
      01005229H   LINE      CODE     ---       #749
      01005229H   LINE      CODE     ---       #751
      01005229H   LINE      CODE     ---       #753
      01005229H   LINE      CODE     ---       #755
      01005230H   LINE      CODE     ---       #757
      01005230H   LINE      CODE     ---       #759
      01005233H   LINE      CODE     ---       #761
      0100523AH   LINE      CODE     ---       #764
      01005250H   LINE      CODE     ---       #766
      01005251H   LINE      CODE     ---       #773
      0100525FH   LINE      CODE     ---       #774
      0100526DH   LINE      CODE     ---       #775
      0100527BH   LINE      CODE     ---       #776
      01005289H   LINE      CODE     ---       #777
      01005289H   LINE      CODE     ---       #779
      0100528AH   LINE      CODE     ---       #786
      01005297H   LINE      CODE     ---       #787
      010052A4H   LINE      CODE     ---       #788
      010052B1H   LINE      CODE     ---       #789
      010052BEH   LINE      CODE     ---       #790
      010052BEH   LINE      CODE     ---       #792
      010052BEH   LINE      CODE     ---       #794
      010052BEH   LINE      CODE     ---       #795
      010052BEH   LINE      CODE     ---       #797
      010052BEH   LINE      CODE     ---       #799
      010052BEH   LINE      CODE     ---       #800
      010052BEH   LINE      CODE     ---       #801
      ---         BLOCKEND  ---      ---       LVL=0

      01006F69H   BLOCK     CODE     ---       LVL=0
      01006F69H   BLOCK     CODE     NEAR LAB  LVL=1
      00000024H.7 SYMBOL    BIT      BIT       tipsStep
      ---         BLOCKEND  ---      ---       LVL=1
      01006F69H   LINE      CODE     ---       #803
      01006F69H   LINE      CODE     ---       #807
      01006F73H   LINE      CODE     ---       #809
      01006F7AH   LINE      CODE     ---       #811
      01006F7DH   LINE      CODE     ---       #812
      01006F84H   LINE      CODE     ---       #813
      01006F8BH   LINE      CODE     ---       #814
      01006F92H   LINE      CODE     ---       #816
      01006F93H   LINE      CODE     ---       #818
      01006F96H   LINE      CODE     ---       #819
      01006F9DH   LINE      CODE     ---       #820
      01006FA4H   LINE      CODE     ---       #821
      01006FABH   LINE      CODE     ---       #822
LX51 LINKER/LOCATER V4.66.41.0                                                        12/07/2018  17:31:29  PAGE 51


      01006FABH   LINE      CODE     ---       #824
      01006FACH   LINE      CODE     ---       #826
      01006FB6H   LINE      CODE     ---       #827
      01006FB8H   LINE      CODE     ---       #828
      01006FB8H   LINE      CODE     ---       #829
      ---         BLOCKEND  ---      ---       LVL=0

      01007442H   BLOCK     CODE     ---       LVL=0
      01007442H   LINE      CODE     ---       #831
      01007442H   LINE      CODE     ---       #833
      01007449H   LINE      CODE     ---       #834
      01007450H   LINE      CODE     ---       #835
      01007457H   LINE      CODE     ---       #836
      0100745EH   LINE      CODE     ---       #837
      ---         BLOCKEND  ---      ---       LVL=0

      01004785H   BLOCK     CODE     ---       LVL=0
      01004785H   BLOCK     CODE     NEAR LAB  LVL=1
      00000066H   SYMBOL    DATA     BYTE      localTips_Count
      01006EC5H   SYMBOL    CODE     BYTE      localTips_Period
      00000067H   SYMBOL    DATA     BYTE      tipsStep
      00000068H   SYMBOL    DATA     BYTE      pwmType_A
      00000069H   SYMBOL    DATA     BYTE      pwmType_B
      0000006AH   SYMBOL    DATA     BYTE      pwmType_C
      0000006BH   SYMBOL    DATA     BYTE      pwmType_D
      ---         BLOCKEND  ---      ---       LVL=1
      01004785H   LINE      CODE     ---       #839
      01004785H   LINE      CODE     ---       #852
      0100478FH   LINE      CODE     ---       #854
      01004797H   LINE      CODE     ---       #856
      010047A3H   LINE      CODE     ---       #858
      010047A6H   LINE      CODE     ---       #859
      010047B4H   LINE      CODE     ---       #860
      010047BDH   LINE      CODE     ---       #861
      010047BFH   LINE      CODE     ---       #862
      010047BFH   LINE      CODE     ---       #864
      010047C1H   LINE      CODE     ---       #866
      010047D1H   LINE      CODE     ---       #867
      010047E4H   LINE      CODE     ---       #868
      010047F7H   LINE      CODE     ---       #869
      0100480AH   LINE      CODE     ---       #870
      0100480AH   LINE      CODE     ---       #871
      0100480AH   LINE      CODE     ---       #873
      01004830H   LINE      CODE     ---       #992
      01004830H   LINE      CODE     ---       #994
      01004841H   LINE      CODE     ---       #995
      01004852H   LINE      CODE     ---       #996
      01004863H   LINE      CODE     ---       #997
      01004869H   LINE      CODE     ---       #999
      0100486BH   LINE      CODE     ---       #1001
      0100486BH   LINE      CODE     ---       #1003
      01004878H   LINE      CODE     ---       #1004
      01004885H   LINE      CODE     ---       #1005
      01004892H   LINE      CODE     ---       #1006
      01004894H   LINE      CODE     ---       #1008
      01004897H   LINE      CODE     ---       #1010
      01004897H   LINE      CODE     ---       #1012
      010048ADH   LINE      CODE     ---       #1013
      010048C3H   LINE      CODE     ---       #1014
      010048D9H   LINE      CODE     ---       #1015
      010048EAH   LINE      CODE     ---       #1017
      010048EDH   LINE      CODE     ---       #1019
      010048EDH   LINE      CODE     ---       #1021
      010048FCH   LINE      CODE     ---       #1022
      0100490BH   LINE      CODE     ---       #1023
LX51 LINKER/LOCATER V4.66.41.0                                                        12/07/2018  17:31:29  PAGE 52


      0100491AH   LINE      CODE     ---       #1024
      01004924H   LINE      CODE     ---       #1026
      01004927H   LINE      CODE     ---       #1028
      01004927H   LINE      CODE     ---       #1030
      01004937H   LINE      CODE     ---       #1031
      01004947H   LINE      CODE     ---       #1032
      01004957H   LINE      CODE     ---       #1033
      01004962H   LINE      CODE     ---       #1035
      01004965H   LINE      CODE     ---       #1037
      01004965H   LINE      CODE     ---       #1039
      01004976H   LINE      CODE     ---       #1040
      01004987H   LINE      CODE     ---       #1041
      01004998H   LINE      CODE     ---       #1042
      010049A9H   LINE      CODE     ---       #1044
      010049B8H   LINE      CODE     ---       #1045
      010049C7H   LINE      CODE     ---       #1046
      010049D6H   LINE      CODE     ---       #1047
      010049E0H   LINE      CODE     ---       #1049
      010049E3H   LINE      CODE     ---       #1051
      010049E3H   LINE      CODE     ---       #1053
      010049F7H   LINE      CODE     ---       #1054
      01004A0BH   LINE      CODE     ---       #1055
      01004A1FH   LINE      CODE     ---       #1056
      01004A33H   LINE      CODE     ---       #1058
      01004A49H   LINE      CODE     ---       #1059
      01004A5FH   LINE      CODE     ---       #1060
      01004A75H   LINE      CODE     ---       #1061
      01004A8BH   LINE      CODE     ---       #1063
      01004A93H   LINE      CODE     ---       #1064
      01004A9BH   LINE      CODE     ---       #1065
      01004AA3H   LINE      CODE     ---       #1066
      01004AABH   LINE      CODE     ---       #1068
      01004AABH   LINE      CODE     ---       #1070
      01004AABH   LINE      CODE     ---       #1071
      01004AABH   LINE      CODE     ---       #1072
      ---         BLOCKEND  ---      ---       LVL=0

      ---         MODULE    ---      ---       DEVLOPEDEBUG
      02000667H   PUBLIC    XDATA    ---       dev_debugInfoLog
      0100615FH   PUBLIC    CODE     ---       thread_devlopeDebug
      000000D8H.2 SFRSYM    DATA     BIT       CCF2
      000000E0H.7 SFRSYM    DATA     BIT       ACC7
      00000093H   SFRSYM    DATA     BYTE      P0M1
      00000092H   SFRSYM    DATA     BYTE      P1M0
      00000096H   SFRSYM    DATA     BYTE      P2M0
      00000091H   SFRSYM    DATA     BYTE      P1M1
      00000080H   SFRSYM    DATA     BYTE      P0
      000000B2H   SFRSYM    DATA     BYTE      P3M0
      00000095H   SFRSYM    DATA     BYTE      P2M1
      00000090H   SFRSYM    DATA     BYTE      P1
      000000B4H   SFRSYM    DATA     BYTE      P4M0
      000000B1H   SFRSYM    DATA     BYTE      P3M1
      000000A0H   SFRSYM    DATA     BYTE      P2
      000000CAH   SFRSYM    DATA     BYTE      P5M0
      000000B3H   SFRSYM    DATA     BYTE      P4M1
      000000B0H   SFRSYM    DATA     BYTE      P3
      000000ABH   SFRSYM    DATA     BYTE      WKTCH
      000000B0H.4 SFRSYM    DATA     BIT       T0
      000000D0H.6 SFRSYM    DATA     BIT       AC
      000000CCH   SFRSYM    DATA     BYTE      P6M0
      000000C9H   SFRSYM    DATA     BYTE      P5M1
      000000C0H   SFRSYM    DATA     BYTE      P4
      000000B0H.5 SFRSYM    DATA     BIT       CLKOUT0
      000000B0H.5 SFRSYM    DATA     BIT       T1
      000000E2H   SFRSYM    DATA     BYTE      P7M0
LX51 LINKER/LOCATER V4.66.41.0                                                        12/07/2018  17:31:29  PAGE 53


      000000CBH   SFRSYM    DATA     BYTE      P6M1
      000000C8H   SFRSYM    DATA     BYTE      P5
      000000C6H   SFRSYM    DATA     BYTE      ISP_TRIG
      000000A8H.7 SFRSYM    DATA     BIT       EA
      000000B0H.4 SFRSYM    DATA     BIT       CLKOUT1
      000000A0H.4 SFRSYM    DATA     BIT       SPI_SS_2
      000000E8H   SFRSYM    DATA     BYTE      P6
      000000E1H   SFRSYM    DATA     BYTE      P7M1
      000000C8H.4 SFRSYM    DATA     BIT       SPI_SS_3
      00000090H.4 SFRSYM    DATA     BIT       SPI_MISO
      00000090H.3 SFRSYM    DATA     BIT       SPI_MOSI
      00000090H.1 SFRSYM    DATA     BIT       CCP0
      000000F8H   SFRSYM    DATA     BYTE      P7
      000000AAH   SFRSYM    DATA     BYTE      WKTCL
      00000090H   SFRSYM    DATA     BIT       CCP1
      000000CEH   SFRSYM    DATA     BYTE      SPCTL
      000000D8H.7 SFRSYM    DATA     BIT       CF
      000000B0H.7 SFRSYM    DATA     BIT       CCP2
      000000F9H   SFRSYM    DATA     BYTE      CH
      000000A2H   SFRSYM    DATA     BYTE      P_SW1
      000000BAH   SFRSYM    DATA     BYTE      P_SW2
      000000A8H.5 SFRSYM    DATA     BIT       EADC
      000000A0H.1 SFRSYM    DATA     BIT       SPI_SCLK_2
      000000A8H   SFRSYM    DATA     BYTE      IE
      000000C0H.3 SFRSYM    DATA     BIT       SPI_SCLK_3
      000000E9H   SFRSYM    DATA     BYTE      CL
      000000C5H   SFRSYM    DATA     BYTE      IAP_CMD
      000000FAH   SFRSYM    DATA     BYTE      CCAP0H
      000000FBH   SFRSYM    DATA     BYTE      CCAP1H
      000000FCH   SFRSYM    DATA     BYTE      CCAP2H
      000000BDH   SFRSYM    DATA     BYTE      ADC_RES
      000000B6H   SFRSYM    DATA     BYTE      IPH2
      000000D8H.6 SFRSYM    DATA     BIT       CR
      000000EAH   SFRSYM    DATA     BYTE      CCAP0L
      000000B0H.7 SFRSYM    DATA     BIT       RD
      000000EBH   SFRSYM    DATA     BYTE      CCAP1L
      000000DAH   SFRSYM    DATA     BYTE      CCAPM0
      000000ECH   SFRSYM    DATA     BYTE      CCAP2L
      000000DBH   SFRSYM    DATA     BYTE      CCAPM1
      000000A8H.4 SFRSYM    DATA     BIT       ES
      000000DCH   SFRSYM    DATA     BYTE      CCAPM2
      000000B8H.5 SFRSYM    DATA     BIT       PADC
      000000A0H.2 SFRSYM    DATA     BIT       SPI_MISO_2
      000000A0H.3 SFRSYM    DATA     BIT       SPI_MOSI_2
      000000B8H   SFRSYM    DATA     BYTE      IP
      000000C0H.1 SFRSYM    DATA     BIT       SPI_MISO_3
      000000C0H   SFRSYM    DATA     BIT       SPI_MOSI_3
      00000098H   SFRSYM    DATA     BIT       RI
      000000B0H.2 SFRSYM    DATA     BIT       INT0
      000000D0H.7 SFRSYM    DATA     BIT       CY
      00000098H.1 SFRSYM    DATA     BIT       TI
      000000B0H.3 SFRSYM    DATA     BIT       INT1
      00000097H   SFRSYM    DATA     BYTE      CLK_DIV
      000000C3H   SFRSYM    DATA     BYTE      IAP_ADDRH
      00000090H   SFRSYM    DATA     BIT       RXD2
      000000C5H   SFRSYM    DATA     BYTE      ISP_CMD
      000000B8H.4 SFRSYM    DATA     BIT       PS
      00000090H.1 SFRSYM    DATA     BIT       TXD2
      00000081H   SFRSYM    DATA     BYTE      SP
      000000D9H   SFRSYM    DATA     BYTE      CMOD
      000000D8H   SFRSYM    DATA     BYTE      CCON
      000000C4H   SFRSYM    DATA     BYTE      IAP_ADDRL
      000000B8H.7 SFRSYM    DATA     BIT       PPCA
      000000D0H.2 SFRSYM    DATA     BIT       OV
      000000B0H.6 SFRSYM    DATA     BIT       WR
LX51 LINKER/LOCATER V4.66.41.0                                                        12/07/2018  17:31:29  PAGE 54


      000000A8H.6 SFRSYM    DATA     BIT       ELVD
      00000080H   SFRSYM    DATA     BIT       P00
      00000090H   SFRSYM    DATA     BIT       P10
      00000080H.1 SFRSYM    DATA     BIT       P01
      000000BCH   SFRSYM    DATA     BYTE      ADC_CONTR
      00000099H   SFRSYM    DATA     BYTE      SBUF
      00000087H   SFRSYM    DATA     BYTE      PCON
      000000A0H   SFRSYM    DATA     BIT       P20
      00000090H.1 SFRSYM    DATA     BIT       P11
      00000080H.2 SFRSYM    DATA     BIT       P02
      000000C3H   SFRSYM    DATA     BYTE      ISP_ADDRH
      000000B0H   SFRSYM    DATA     BIT       P30
      000000A0H.1 SFRSYM    DATA     BIT       P21
      00000090H.2 SFRSYM    DATA     BIT       P12
      00000080H.3 SFRSYM    DATA     BIT       P03
      000000C0H   SFRSYM    DATA     BIT       P40
      000000B0H.1 SFRSYM    DATA     BIT       P31
      000000A0H.2 SFRSYM    DATA     BIT       P22
      00000090H.3 SFRSYM    DATA     BIT       P13
      00000080H.4 SFRSYM    DATA     BIT       P04
      00000098H   SFRSYM    DATA     BYTE      SCON
      0000008FH   SFRSYM    DATA     BYTE      WAKE_CLKO
      000000C8H   SFRSYM    DATA     BIT       P50
      000000C0H.1 SFRSYM    DATA     BIT       P41
      000000B0H.2 SFRSYM    DATA     BIT       P32
      000000A0H.3 SFRSYM    DATA     BIT       P23
      00000090H.4 SFRSYM    DATA     BIT       P14
      00000080H.5 SFRSYM    DATA     BIT       P05
      00000089H   SFRSYM    DATA     BYTE      TMOD
      00000088H   SFRSYM    DATA     BYTE      TCON
      000000C8H.1 SFRSYM    DATA     BIT       P51
      000000C0H.2 SFRSYM    DATA     BIT       P42
      000000B0H.3 SFRSYM    DATA     BIT       P33
      000000A0H.4 SFRSYM    DATA     BIT       P24
      00000090H.5 SFRSYM    DATA     BIT       P15
      00000080H.6 SFRSYM    DATA     BIT       P06
      000000C4H   SFRSYM    DATA     BYTE      ISP_ADDRL
      000000B8H.6 SFRSYM    DATA     BIT       PLVD
      000000C8H.2 SFRSYM    DATA     BIT       P52
      000000C0H.3 SFRSYM    DATA     BIT       P43
      000000B0H.4 SFRSYM    DATA     BIT       P34
      000000A0H.5 SFRSYM    DATA     BIT       P25
      00000090H.6 SFRSYM    DATA     BIT       P16
      00000080H.7 SFRSYM    DATA     BIT       P07
      000000C8H.3 SFRSYM    DATA     BIT       P53
      000000C0H.4 SFRSYM    DATA     BIT       P44
      000000B0H.5 SFRSYM    DATA     BIT       P35
      000000A0H.6 SFRSYM    DATA     BIT       P26
      00000090H.7 SFRSYM    DATA     BIT       P17
      000000C8H.4 SFRSYM    DATA     BIT       P54
      000000C0H.5 SFRSYM    DATA     BIT       P45
      000000B0H.6 SFRSYM    DATA     BIT       P36
      000000A0H.7 SFRSYM    DATA     BIT       P27
      000000C8H.5 SFRSYM    DATA     BIT       P55
      000000C0H.6 SFRSYM    DATA     BIT       P46
      000000B0H.7 SFRSYM    DATA     BIT       P37
      000000C8H.6 SFRSYM    DATA     BIT       P56
      000000C0H.7 SFRSYM    DATA     BIT       P47
      000000C8H.7 SFRSYM    DATA     BIT       P57
      00000088H.1 SFRSYM    DATA     BIT       IE0
      000000A1H   SFRSYM    DATA     BYTE      BUS_SPEED
      00000088H.3 SFRSYM    DATA     BIT       IE1
      000000AFH   SFRSYM    DATA     BYTE      IE2
      000000F0H   SFRSYM    DATA     BYTE      B
      0000008EH   SFRSYM    DATA     BYTE      AUXR
LX51 LINKER/LOCATER V4.66.41.0                                                        12/07/2018  17:31:29  PAGE 55


      000000C7H   SFRSYM    DATA     BYTE      IAP_CONTR
      000000E0H   SFRSYM    DATA     BYTE      ACC
      000000A8H.1 SFRSYM    DATA     BIT       ET0
      000000A8H.3 SFRSYM    DATA     BIT       ET1
      00000088H.5 SFRSYM    DATA     BIT       TF0
      00000088H.7 SFRSYM    DATA     BIT       TF1
      000000B5H   SFRSYM    DATA     BYTE      IP2
      0000008CH   SFRSYM    DATA     BYTE      RL_TH0
      00000098H.2 SFRSYM    DATA     BIT       RB8
      0000008DH   SFRSYM    DATA     BYTE      RL_TH1
      0000008CH   SFRSYM    DATA     BYTE      TH0
      000000A8H   SFRSYM    DATA     BIT       EX0
      00000088H   SFRSYM    DATA     BIT       IT0
      000000D6H   SFRSYM    DATA     BYTE      RL_T2H
      0000008DH   SFRSYM    DATA     BYTE      TH1
      000000A8H.2 SFRSYM    DATA     BIT       EX1
      00000098H.3 SFRSYM    DATA     BIT       TB8
      00000088H.2 SFRSYM    DATA     BIT       IT1
      000000D4H   SFRSYM    DATA     BYTE      RL_T3H
      000000D6H   SFRSYM    DATA     BYTE      TH2
      000000D6H   SFRSYM    DATA     BYTE      T2H
      000000D0H   SFRSYM    DATA     BIT       P
      000000D2H   SFRSYM    DATA     BYTE      RL_T4H
      000000D4H   SFRSYM    DATA     BYTE      TH3
      000000D4H   SFRSYM    DATA     BYTE      T3H
      0000008AH   SFRSYM    DATA     BYTE      RL_TL0
      00000098H.7 SFRSYM    DATA     BIT       SM0
      000000D2H   SFRSYM    DATA     BYTE      TH4
      000000D2H   SFRSYM    DATA     BYTE      T4H
      0000008BH   SFRSYM    DATA     BYTE      RL_TL1
      0000008AH   SFRSYM    DATA     BYTE      TL0
      00000098H.6 SFRSYM    DATA     BIT       SM1
      000000D7H   SFRSYM    DATA     BYTE      RL_T2L
      0000008BH   SFRSYM    DATA     BYTE      TL1
      00000098H.5 SFRSYM    DATA     BIT       SM2
      000000D5H   SFRSYM    DATA     BYTE      RL_T3L
      000000D7H   SFRSYM    DATA     BYTE      TL2
      000000D7H   SFRSYM    DATA     BYTE      T2L
      000000D3H   SFRSYM    DATA     BYTE      RL_T4L
      000000D5H   SFRSYM    DATA     BYTE      TL3
      000000D5H   SFRSYM    DATA     BYTE      T3L
      000000B8H.1 SFRSYM    DATA     BIT       PT0
      000000D3H   SFRSYM    DATA     BYTE      TL4
      000000D3H   SFRSYM    DATA     BYTE      T4L
      000000B8H.3 SFRSYM    DATA     BIT       PT1
      000000D0H.3 SFRSYM    DATA     BIT       RS0
      000000C7H   SFRSYM    DATA     BYTE      ISP_CONTR
      00000088H.4 SFRSYM    DATA     BIT       TR0
      000000D0H.4 SFRSYM    DATA     BIT       RS1
      000000C2H   SFRSYM    DATA     BYTE      IAP_DATA
      00000088H.6 SFRSYM    DATA     BIT       TR1
      000000B8H   SFRSYM    DATA     BIT       PX0
      000000C1H   SFRSYM    DATA     BYTE      WDT_CONTR
      000000B8H.2 SFRSYM    DATA     BIT       PX1
      000000F2H   SFRSYM    DATA     BYTE      PCA_PWM0
      000000F3H   SFRSYM    DATA     BYTE      PCA_PWM1
      000000F4H   SFRSYM    DATA     BYTE      PCA_PWM2
      0000009DH   SFRSYM    DATA     BYTE      P1ASF
      00000083H   SFRSYM    DATA     BYTE      DPH
      000000D1H   SFRSYM    DATA     BYTE      T4T3M
      000000BEH   SFRSYM    DATA     BYTE      ADC_RESL
      00000082H   SFRSYM    DATA     BYTE      DPL
      000000CDH   SFRSYM    DATA     BYTE      SPSTAT
      000000B7H   SFRSYM    DATA     BYTE      IPH
      0000009BH   SFRSYM    DATA     BYTE      S2BUF
LX51 LINKER/LOCATER V4.66.41.0                                                        12/07/2018  17:31:29  PAGE 56


      00000097H   SFRSYM    DATA     BYTE      PCON2
      000000ADH   SFRSYM    DATA     BYTE      S3BUF
      00000098H.4 SFRSYM    DATA     BIT       REN
      00000085H   SFRSYM    DATA     BYTE      S4BUF
      0000009AH   SFRSYM    DATA     BYTE      S2CON
      000000ACH   SFRSYM    DATA     BYTE      S3CON
      000000C2H   SFRSYM    DATA     BYTE      ISP_DATA
      00000084H   SFRSYM    DATA     BYTE      S4CON
      000000B9H   SFRSYM    DATA     BYTE      SADEN
      000000B0H   SFRSYM    DATA     BIT       RXD
      000000A9H   SFRSYM    DATA     BYTE      SADDR
      000000B0H.1 SFRSYM    DATA     BIT       TXD
      000000F0H   SFRSYM    DATA     BIT       B0
      000000F0H.1 SFRSYM    DATA     BIT       B1
      000000C6H   SFRSYM    DATA     BYTE      IAP_TRIG
      000000A2H   SFRSYM    DATA     BYTE      AUXR1
      000000F0H.2 SFRSYM    DATA     BIT       B2
      00000090H.2 SFRSYM    DATA     BIT       SPI_SS
      0000008FH   SFRSYM    DATA     BYTE      AUXR2
      000000F0H.3 SFRSYM    DATA     BIT       B3
      000000F0H.4 SFRSYM    DATA     BIT       B4
      000000D0H.5 SFRSYM    DATA     BIT       F0
      000000F0H.5 SFRSYM    DATA     BIT       B5
      000000D0H.1 SFRSYM    DATA     BIT       F1
      0000008FH   SFRSYM    DATA     BYTE      INT_CLKO
      000000F0H.6 SFRSYM    DATA     BIT       B6
      000000E0H   SFRSYM    DATA     BIT       ACC0
      000000F0H.7 SFRSYM    DATA     BIT       B7
      000000E0H.1 SFRSYM    DATA     BIT       ACC1
      000000E0H.2 SFRSYM    DATA     BIT       ACC2
      000000E0H.3 SFRSYM    DATA     BIT       ACC3
      000000D0H   SFRSYM    DATA     BYTE      PSW
      000000E0H.4 SFRSYM    DATA     BIT       ACC4
      00000090H.5 SFRSYM    DATA     BIT       SPI_SCLK
      000000D8H   SFRSYM    DATA     BIT       CCF0
      000000E0H.5 SFRSYM    DATA     BIT       ACC5
      000000D8H.1 SFRSYM    DATA     BIT       CCF1
      000000E0H.6 SFRSYM    DATA     BIT       ACC6
      000000CFH   SFRSYM    DATA     BYTE      SPDAT
      00000094H   SFRSYM    DATA     BYTE      P0M0

      0100615FH   BLOCK     CODE     ---       LVL=0
      0100615FH   LINE      CODE     ---       #16
      0100615FH   LINE      CODE     ---       #21
      0100615FH   LINE      CODE     ---       #23
      01006168H   LINE      CODE     ---       #25
      01006176H   LINE      CODE     ---       #27
      01006176H   LINE      CODE     ---       #29
      01006180H   LINE      CODE     ---       #31
      01006183H   LINE      CODE     ---       #33
      01006192H   LINE      CODE     ---       #37
      010061C2H   LINE      CODE     ---       #38
      010061C2H   LINE      CODE     ---       #39
      010061C2H   LINE      CODE     ---       #41
      010061C4H   LINE      CODE     ---       #43
      010061C4H   LINE      CODE     ---       #45
      010061CBH   LINE      CODE     ---       #47
      010061CEH   LINE      CODE     ---       #49
      010061DDH   LINE      CODE     ---       #50
      010061E6H   LINE      CODE     ---       #51
      010061E6H   LINE      CODE     ---       #52
      010061E6H   LINE      CODE     ---       #54
      010061E8H   LINE      CODE     ---       #56
      010061E8H   LINE      CODE     ---       #58
      010061F7H   LINE      CODE     ---       #59
LX51 LINKER/LOCATER V4.66.41.0                                                        12/07/2018  17:31:29  PAGE 57


      01006212H   LINE      CODE     ---       #60
      0100621BH   LINE      CODE     ---       #61
      0100621BH   LINE      CODE     ---       #63
      0100621BH   LINE      CODE     ---       #64
      0100621BH   LINE      CODE     ---       #66
      01006220H   LINE      CODE     ---       #67
      01006220H   LINE      CODE     ---       #68
      01006220H   LINE      CODE     ---       #70
      ---         BLOCKEND  ---      ---       LVL=0

      ---         MODULE    ---      ---       DATATRANS
      02000483H   PUBLIC    XDATA    BYTE      heartBeatPeriod
      00000024H.2 PUBLIC    BIT      BIT       uartRX_toutFLG
      020003E9H   PUBLIC    XDATA    ---       datsRcv_ZIGB
      020003BCH   PUBLIC    XDATA    ---       datsSend_requestEx
      020003BBH   PUBLIC    XDATA    BYTE      timeCounter_coordinatorLost_detecting
      020003B9H   PUBLIC    XDATA    ---       devNwkHoldTime_Param
      020003B8H   PUBLIC    XDATA    BYTE      factoryRecover_HoldTimeCount
      00000010H   PUBLIC    DATA     BYTE      dtModeKeepAcess_currentCmd
      020003B7H   PUBLIC    XDATA    BYTE      colonyCtrlGet_queryCounter
      020003B6H   PUBLIC    XDATA    BYTE      heartBeatHang_timeCnt
      020003B0H   PUBLIC    XDATA    ---       dev_agingCmd_rcvPassive
      00000024H.1 PUBLIC    BIT      BIT       factoryRecover_standBy_FLG
      00000024H.0 PUBLIC    BIT      BIT       reConnectAfterDatsReq_IF
      00000023H.7 PUBLIC    BIT      BIT       heartBeatCycle_FLG
      0000000FH   PUBLIC    DATA     BYTE      datsRcv_length
      020003AEH   PUBLIC    XDATA    ---       devStatus_switch
      020003ACH   PUBLIC    XDATA    ---       devRemoteDataReqMethod
      02000328H   PUBLIC    XDATA    ---       datsRcv_respond
      02000327H   PUBLIC    XDATA    BYTE      colonyCtrlGet_statusLocalScene
      020002F6H   PUBLIC    XDATA    ---       dev_currentDataPoint
      020002F3H   PUBLIC    XDATA    ---       localDataRecord_eaCtrl
      0200026FH   PUBLIC    XDATA    ---       datsSend_request
      0200026DH   PUBLIC    XDATA    WORD      zigbNwkAction_counter
      0200026BH   PUBLIC    XDATA    WORD      dtReqEx_counter
      0000000EH   PUBLIC    DATA     BYTE      rxTout_count
      0200026AH   PUBLIC    XDATA    BYTE      heartBeatCount
      02000264H   PUBLIC    XDATA    ---       dev_agingCmd_sndInitative
      00000023H.6 PUBLIC    BIT      BIT       rxTout_count_EN
      0000000DH   PUBLIC    DATA     BYTE      devRunning_Status
      02000263H   PUBLIC    XDATA    BYTE      colonyCtrlGetHang_timeCnt
      02000260H   PUBLIC    XDATA    ---       colonyCtrlGet_statusLocalEaCtrl
      00000023H.5 PUBLIC    BIT      BIT       coordinatorOnline_IF
      01001F15H   PUBLIC    CODE     ---       thread_dataTrans
      0100745FH   PUBLIC    CODE     ---       fun_factoryRecoverOpreat
      010075DFH   PUBLIC    CODE     ---       devHoldStop_makeInAdvance
      00000020H.4 PUBLIC    BIT      BIT       ?devStatusChangeTo_devHold?BIT
      01006FB9H   PUBLIC    CODE     ---       devStatusChangeTo_devHold
      00000020H.4 PUBLIC    BIT      BIT       ?ZigB_nwkOpen?BIT
      0000002EH   PUBLIC    DATA     BYTE      ?ZigB_nwkOpen?BYTE
      01006D50H   PUBLIC    CODE     ---       ZigB_nwkOpen
      00000036H   PUBLIC    DATA     BYTE      ?_zigb_VALIDA_INPUT?BYTE
      0100662CH   PUBLIC    CODE     ---       _zigb_VALIDA_INPUT
      010074E6H   PUBLIC    CODE     ---       _periodDataTrans_momentHang
      0100675DH   PUBLIC    CODE     ---       UART1_Rountine
      01000026H   PUBLIC    CODE     ---       uartObjZigb_Init
      0100754BH   PUBLIC    CODE     ---       zigbUart_pinInit
      000000D8H.2 SFRSYM    DATA     BIT       CCF2
      000000E0H.7 SFRSYM    DATA     BIT       ACC7
      00000093H   SFRSYM    DATA     BYTE      P0M1
      00000092H   SFRSYM    DATA     BYTE      P1M0
      00000096H   SFRSYM    DATA     BYTE      P2M0
      00000091H   SFRSYM    DATA     BYTE      P1M1
      00000080H   SFRSYM    DATA     BYTE      P0
      000000B2H   SFRSYM    DATA     BYTE      P3M0
LX51 LINKER/LOCATER V4.66.41.0                                                        12/07/2018  17:31:29  PAGE 58


      00000095H   SFRSYM    DATA     BYTE      P2M1
      00000090H   SFRSYM    DATA     BYTE      P1
      000000B4H   SFRSYM    DATA     BYTE      P4M0
      000000B1H   SFRSYM    DATA     BYTE      P3M1
      000000A0H   SFRSYM    DATA     BYTE      P2
      000000CAH   SFRSYM    DATA     BYTE      P5M0
      000000B3H   SFRSYM    DATA     BYTE      P4M1
      000000B0H   SFRSYM    DATA     BYTE      P3
      000000ABH   SFRSYM    DATA     BYTE      WKTCH
      000000B0H.4 SFRSYM    DATA     BIT       T0
      000000D0H.6 SFRSYM    DATA     BIT       AC
      000000CCH   SFRSYM    DATA     BYTE      P6M0
      000000C9H   SFRSYM    DATA     BYTE      P5M1
      000000C0H   SFRSYM    DATA     BYTE      P4
      000000B0H.5 SFRSYM    DATA     BIT       CLKOUT0
      000000B0H.5 SFRSYM    DATA     BIT       T1
      000000E2H   SFRSYM    DATA     BYTE      P7M0
      000000CBH   SFRSYM    DATA     BYTE      P6M1
      000000C8H   SFRSYM    DATA     BYTE      P5
      000000C6H   SFRSYM    DATA     BYTE      ISP_TRIG
      000000A8H.7 SFRSYM    DATA     BIT       EA
      000000B0H.4 SFRSYM    DATA     BIT       CLKOUT1
      000000A0H.4 SFRSYM    DATA     BIT       SPI_SS_2
      000000E8H   SFRSYM    DATA     BYTE      P6
      000000E1H   SFRSYM    DATA     BYTE      P7M1
      000000C8H.4 SFRSYM    DATA     BIT       SPI_SS_3
      00000090H.4 SFRSYM    DATA     BIT       SPI_MISO
      00000090H.3 SFRSYM    DATA     BIT       SPI_MOSI
      00000090H.1 SFRSYM    DATA     BIT       CCP0
      000000F8H   SFRSYM    DATA     BYTE      P7
      000000AAH   SFRSYM    DATA     BYTE      WKTCL
      00000090H   SFRSYM    DATA     BIT       CCP1
      000000CEH   SFRSYM    DATA     BYTE      SPCTL
      000000D8H.7 SFRSYM    DATA     BIT       CF
      000000B0H.7 SFRSYM    DATA     BIT       CCP2
      000000F9H   SFRSYM    DATA     BYTE      CH
      000000A2H   SFRSYM    DATA     BYTE      P_SW1
      000000BAH   SFRSYM    DATA     BYTE      P_SW2
      000000A8H.5 SFRSYM    DATA     BIT       EADC
      000000A0H.1 SFRSYM    DATA     BIT       SPI_SCLK_2
      000000A8H   SFRSYM    DATA     BYTE      IE
      000000C0H.3 SFRSYM    DATA     BIT       SPI_SCLK_3
      000000E9H   SFRSYM    DATA     BYTE      CL
      000000C5H   SFRSYM    DATA     BYTE      IAP_CMD
      000000FAH   SFRSYM    DATA     BYTE      CCAP0H
      000000FBH   SFRSYM    DATA     BYTE      CCAP1H
      000000FCH   SFRSYM    DATA     BYTE      CCAP2H
      000000BDH   SFRSYM    DATA     BYTE      ADC_RES
      000000B6H   SFRSYM    DATA     BYTE      IPH2
      000000D8H.6 SFRSYM    DATA     BIT       CR
      000000EAH   SFRSYM    DATA     BYTE      CCAP0L
      000000B0H.7 SFRSYM    DATA     BIT       RD
      000000EBH   SFRSYM    DATA     BYTE      CCAP1L
      000000DAH   SFRSYM    DATA     BYTE      CCAPM0
      000000ECH   SFRSYM    DATA     BYTE      CCAP2L
      000000DBH   SFRSYM    DATA     BYTE      CCAPM1
      000000A8H.4 SFRSYM    DATA     BIT       ES
      000000DCH   SFRSYM    DATA     BYTE      CCAPM2
      000000B8H.5 SFRSYM    DATA     BIT       PADC
      000000A0H.2 SFRSYM    DATA     BIT       SPI_MISO_2
      000000A0H.3 SFRSYM    DATA     BIT       SPI_MOSI_2
      000000B8H   SFRSYM    DATA     BYTE      IP
      000000C0H.1 SFRSYM    DATA     BIT       SPI_MISO_3
      000000C0H   SFRSYM    DATA     BIT       SPI_MOSI_3
      00000098H   SFRSYM    DATA     BIT       RI
LX51 LINKER/LOCATER V4.66.41.0                                                        12/07/2018  17:31:29  PAGE 59


      000000B0H.2 SFRSYM    DATA     BIT       INT0
      000000D0H.7 SFRSYM    DATA     BIT       CY
      00000098H.1 SFRSYM    DATA     BIT       TI
      000000B0H.3 SFRSYM    DATA     BIT       INT1
      00000097H   SFRSYM    DATA     BYTE      CLK_DIV
      000000C3H   SFRSYM    DATA     BYTE      IAP_ADDRH
      00000090H   SFRSYM    DATA     BIT       RXD2
      000000C5H   SFRSYM    DATA     BYTE      ISP_CMD
      000000B8H.4 SFRSYM    DATA     BIT       PS
      00000090H.1 SFRSYM    DATA     BIT       TXD2
      00000081H   SFRSYM    DATA     BYTE      SP
      000000D9H   SFRSYM    DATA     BYTE      CMOD
      000000D8H   SFRSYM    DATA     BYTE      CCON
      000000C4H   SFRSYM    DATA     BYTE      IAP_ADDRL
      000000B8H.7 SFRSYM    DATA     BIT       PPCA
      000000D0H.2 SFRSYM    DATA     BIT       OV
      000000B0H.6 SFRSYM    DATA     BIT       WR
      000000A8H.6 SFRSYM    DATA     BIT       ELVD
      00000080H   SFRSYM    DATA     BIT       P00
      00000090H   SFRSYM    DATA     BIT       P10
      00000080H.1 SFRSYM    DATA     BIT       P01
      000000BCH   SFRSYM    DATA     BYTE      ADC_CONTR
      00000099H   SFRSYM    DATA     BYTE      SBUF
      00000087H   SFRSYM    DATA     BYTE      PCON
      000000A0H   SFRSYM    DATA     BIT       P20
      00000090H.1 SFRSYM    DATA     BIT       P11
      00000080H.2 SFRSYM    DATA     BIT       P02
      000000C3H   SFRSYM    DATA     BYTE      ISP_ADDRH
      000000B0H   SFRSYM    DATA     BIT       P30
      000000A0H.1 SFRSYM    DATA     BIT       P21
      00000090H.2 SFRSYM    DATA     BIT       P12
      00000080H.3 SFRSYM    DATA     BIT       P03
      000000C0H   SFRSYM    DATA     BIT       P40
      000000B0H.1 SFRSYM    DATA     BIT       P31
      000000A0H.2 SFRSYM    DATA     BIT       P22
      00000090H.3 SFRSYM    DATA     BIT       P13
      00000080H.4 SFRSYM    DATA     BIT       P04
      00000098H   SFRSYM    DATA     BYTE      SCON
      0000008FH   SFRSYM    DATA     BYTE      WAKE_CLKO
      000000C8H   SFRSYM    DATA     BIT       P50
      000000C0H.1 SFRSYM    DATA     BIT       P41
      000000B0H.2 SFRSYM    DATA     BIT       P32
      000000A0H.3 SFRSYM    DATA     BIT       P23
      00000090H.4 SFRSYM    DATA     BIT       P14
      00000080H.5 SFRSYM    DATA     BIT       P05
      00000089H   SFRSYM    DATA     BYTE      TMOD
      00000088H   SFRSYM    DATA     BYTE      TCON
      000000C8H.1 SFRSYM    DATA     BIT       P51
      000000C0H.2 SFRSYM    DATA     BIT       P42
      000000B0H.3 SFRSYM    DATA     BIT       P33
      000000A0H.4 SFRSYM    DATA     BIT       P24
      00000090H.5 SFRSYM    DATA     BIT       P15
      00000080H.6 SFRSYM    DATA     BIT       P06
      000000C4H   SFRSYM    DATA     BYTE      ISP_ADDRL
      000000B8H.6 SFRSYM    DATA     BIT       PLVD
      000000C8H.2 SFRSYM    DATA     BIT       P52
      000000C0H.3 SFRSYM    DATA     BIT       P43
      000000B0H.4 SFRSYM    DATA     BIT       P34
      000000A0H.5 SFRSYM    DATA     BIT       P25
      00000090H.6 SFRSYM    DATA     BIT       P16
      00000080H.7 SFRSYM    DATA     BIT       P07
      000000C8H.3 SFRSYM    DATA     BIT       P53
      000000C0H.4 SFRSYM    DATA     BIT       P44
      000000B0H.5 SFRSYM    DATA     BIT       P35
      000000A0H.6 SFRSYM    DATA     BIT       P26
LX51 LINKER/LOCATER V4.66.41.0                                                        12/07/2018  17:31:29  PAGE 60


      00000090H.7 SFRSYM    DATA     BIT       P17
      000000C8H.4 SFRSYM    DATA     BIT       P54
      000000C0H.5 SFRSYM    DATA     BIT       P45
      000000B0H.6 SFRSYM    DATA     BIT       P36
      000000A0H.7 SFRSYM    DATA     BIT       P27
      000000C8H.5 SFRSYM    DATA     BIT       P55
      000000C0H.6 SFRSYM    DATA     BIT       P46
      000000B0H.7 SFRSYM    DATA     BIT       P37
      000000C8H.6 SFRSYM    DATA     BIT       P56
      000000C0H.7 SFRSYM    DATA     BIT       P47
      000000C8H.7 SFRSYM    DATA     BIT       P57
      00000088H.1 SFRSYM    DATA     BIT       IE0
      000000A1H   SFRSYM    DATA     BYTE      BUS_SPEED
      00000088H.3 SFRSYM    DATA     BIT       IE1
      000000AFH   SFRSYM    DATA     BYTE      IE2
      000000F0H   SFRSYM    DATA     BYTE      B
      0000008EH   SFRSYM    DATA     BYTE      AUXR
      000000C7H   SFRSYM    DATA     BYTE      IAP_CONTR
      000000E0H   SFRSYM    DATA     BYTE      ACC
      000000A8H.1 SFRSYM    DATA     BIT       ET0
      000000A8H.3 SFRSYM    DATA     BIT       ET1
      00000088H.5 SFRSYM    DATA     BIT       TF0
      00000088H.7 SFRSYM    DATA     BIT       TF1
      000000B5H   SFRSYM    DATA     BYTE      IP2
      0000008CH   SFRSYM    DATA     BYTE      RL_TH0
      00000098H.2 SFRSYM    DATA     BIT       RB8
      0000008DH   SFRSYM    DATA     BYTE      RL_TH1
      0000008CH   SFRSYM    DATA     BYTE      TH0
      000000A8H   SFRSYM    DATA     BIT       EX0
      00000088H   SFRSYM    DATA     BIT       IT0
      000000D6H   SFRSYM    DATA     BYTE      RL_T2H
      0000008DH   SFRSYM    DATA     BYTE      TH1
      000000A8H.2 SFRSYM    DATA     BIT       EX1
      00000098H.3 SFRSYM    DATA     BIT       TB8
      00000088H.2 SFRSYM    DATA     BIT       IT1
      000000D4H   SFRSYM    DATA     BYTE      RL_T3H
      000000D6H   SFRSYM    DATA     BYTE      TH2
      000000D6H   SFRSYM    DATA     BYTE      T2H
      000000D0H   SFRSYM    DATA     BIT       P
      000000D2H   SFRSYM    DATA     BYTE      RL_T4H
      000000D4H   SFRSYM    DATA     BYTE      TH3
      000000D4H   SFRSYM    DATA     BYTE      T3H
      0000008AH   SFRSYM    DATA     BYTE      RL_TL0
      00000098H.7 SFRSYM    DATA     BIT       SM0
      000000D2H   SFRSYM    DATA     BYTE      TH4
      000000D2H   SFRSYM    DATA     BYTE      T4H
      0000008BH   SFRSYM    DATA     BYTE      RL_TL1
      0000008AH   SFRSYM    DATA     BYTE      TL0
      00000098H.6 SFRSYM    DATA     BIT       SM1
      000000D7H   SFRSYM    DATA     BYTE      RL_T2L
      0000008BH   SFRSYM    DATA     BYTE      TL1
      00000098H.5 SFRSYM    DATA     BIT       SM2
      000000D5H   SFRSYM    DATA     BYTE      RL_T3L
      000000D7H   SFRSYM    DATA     BYTE      TL2
      000000D7H   SFRSYM    DATA     BYTE      T2L
      000000D3H   SFRSYM    DATA     BYTE      RL_T4L
      000000D5H   SFRSYM    DATA     BYTE      TL3
      000000D5H   SFRSYM    DATA     BYTE      T3L
      000000B8H.1 SFRSYM    DATA     BIT       PT0
      000000D3H   SFRSYM    DATA     BYTE      TL4
      000000D3H   SFRSYM    DATA     BYTE      T4L
      000000B8H.3 SFRSYM    DATA     BIT       PT1
      000000D0H.3 SFRSYM    DATA     BIT       RS0
      000000C7H   SFRSYM    DATA     BYTE      ISP_CONTR
      00000088H.4 SFRSYM    DATA     BIT       TR0
LX51 LINKER/LOCATER V4.66.41.0                                                        12/07/2018  17:31:29  PAGE 61


      000000D0H.4 SFRSYM    DATA     BIT       RS1
      000000C2H   SFRSYM    DATA     BYTE      IAP_DATA
      00000088H.6 SFRSYM    DATA     BIT       TR1
      000000B8H   SFRSYM    DATA     BIT       PX0
      000000C1H   SFRSYM    DATA     BYTE      WDT_CONTR
      000000B8H.2 SFRSYM    DATA     BIT       PX1
      000000F2H   SFRSYM    DATA     BYTE      PCA_PWM0
      000000F3H   SFRSYM    DATA     BYTE      PCA_PWM1
      000000F4H   SFRSYM    DATA     BYTE      PCA_PWM2
      0000009DH   SFRSYM    DATA     BYTE      P1ASF
      00000083H   SFRSYM    DATA     BYTE      DPH
      000000D1H   SFRSYM    DATA     BYTE      T4T3M
      000000BEH   SFRSYM    DATA     BYTE      ADC_RESL
      00000082H   SFRSYM    DATA     BYTE      DPL
      000000CDH   SFRSYM    DATA     BYTE      SPSTAT
      000000B7H   SFRSYM    DATA     BYTE      IPH
      0000009BH   SFRSYM    DATA     BYTE      S2BUF
      00000097H   SFRSYM    DATA     BYTE      PCON2
      000000ADH   SFRSYM    DATA     BYTE      S3BUF
      00000098H.4 SFRSYM    DATA     BIT       REN
      00000085H   SFRSYM    DATA     BYTE      S4BUF
      0000009AH   SFRSYM    DATA     BYTE      S2CON
      000000ACH   SFRSYM    DATA     BYTE      S3CON
      000000C2H   SFRSYM    DATA     BYTE      ISP_DATA
      00000084H   SFRSYM    DATA     BYTE      S4CON
      000000B9H   SFRSYM    DATA     BYTE      SADEN
      000000B0H   SFRSYM    DATA     BIT       RXD
      000000A9H   SFRSYM    DATA     BYTE      SADDR
      000000B0H.1 SFRSYM    DATA     BIT       TXD
      000000F0H   SFRSYM    DATA     BIT       B0
      000000F0H.1 SFRSYM    DATA     BIT       B1
      000000C6H   SFRSYM    DATA     BYTE      IAP_TRIG
      000000A2H   SFRSYM    DATA     BYTE      AUXR1
      000000F0H.2 SFRSYM    DATA     BIT       B2
      00000090H.2 SFRSYM    DATA     BIT       SPI_SS
      0000008FH   SFRSYM    DATA     BYTE      AUXR2
      000000F0H.3 SFRSYM    DATA     BIT       B3
      000000F0H.4 SFRSYM    DATA     BIT       B4
      000000D0H.5 SFRSYM    DATA     BIT       F0
      000000F0H.5 SFRSYM    DATA     BIT       B5
      000000D0H.1 SFRSYM    DATA     BIT       F1
      0000008FH   SFRSYM    DATA     BYTE      INT_CLKO
      000000F0H.6 SFRSYM    DATA     BIT       B6
      000000E0H   SFRSYM    DATA     BIT       ACC0
      000000F0H.7 SFRSYM    DATA     BIT       B7
      000000E0H.1 SFRSYM    DATA     BIT       ACC1
      000000E0H.2 SFRSYM    DATA     BIT       ACC2
      000000E0H.3 SFRSYM    DATA     BIT       ACC3
      000000D0H   SFRSYM    DATA     BYTE      PSW
      000000E0H.4 SFRSYM    DATA     BIT       ACC4
      00000090H.5 SFRSYM    DATA     BIT       SPI_SCLK
      000000D8H   SFRSYM    DATA     BIT       CCF0
      000000E0H.5 SFRSYM    DATA     BIT       ACC5
      000000D8H.1 SFRSYM    DATA     BIT       CCF1
      000000E0H.6 SFRSYM    DATA     BIT       ACC6
      000000CFH   SFRSYM    DATA     BYTE      SPDAT
      00000094H   SFRSYM    DATA     BYTE      P0M0
      010052BFH   SYMBOL    CODE     ---       _zigB_sysTimeSet
      01006EC6H   SYMBOL    CODE     ---       ZigB_getPanIDCurrent
      01006B20H   SYMBOL    CODE     ---       _zigb_datsRequest
      01004AACH   SYMBOL    CODE     ---       dataTransRequest_datsSend
      01005BD6H   SYMBOL    CODE     ---       getSystemTime_reales
      01003CB0H   SYMBOL    CODE     ---       zigB_nwkJoinRequest
      01000639H   SYMBOL    CODE     ---       _?ix1000
      01000E87H   SYMBOL    CODE     ---       _?ix1010
LX51 LINKER/LOCATER V4.66.41.0                                                        12/07/2018  17:31:29  PAGE 62


      01000679H   SYMBOL    CODE     ---       _?ix1001
      010010B4H   SYMBOL    CODE     ---       _?ix1020
      01000EE7H   SYMBOL    CODE     ---       _?ix1011
      0100075FH   SYMBOL    CODE     ---       _?ix1002
      01000F27H   SYMBOL    CODE     ---       _?ix1012
      01000762H   SYMBOL    CODE     ---       _?ix1003
      01000F2CH   SYMBOL    CODE     ---       _?ix1013
      0100078AH   SYMBOL    CODE     ---       _?ix1004
      01000F2FH   SYMBOL    CODE     ---       _?ix1014
      01000837H   SYMBOL    CODE     ---       _?ix1005
      01000F51H   SYMBOL    CODE     ---       _?ix1015
      01005ACAH   SYMBOL    CODE     ---       function_devNwkHold
      01000D8DH   SYMBOL    CODE     ---       _?ix1006
      01000FB7H   SYMBOL    CODE     ---       _?ix1016
      01000DCDH   SYMBOL    CODE     ---       _?ix1007
      01000FE8H   SYMBOL    CODE     ---       _?ix1017
      01000DDFH   SYMBOL    CODE     ---       _?ix1008
      01000FF2H   SYMBOL    CODE     ---       _?ix1018
      01000E27H   SYMBOL    CODE     ---       _?ix1009
      01001052H   SYMBOL    CODE     ---       _?ix1019
      01007284H   SYMBOL    CODE     ---       _frame_Check
      01006CEDH   SYMBOL    CODE     ---       _dataParing_scenarioCtrl
      010010BAH   SYMBOL    CODE     ---       _dataParing_Nomal
      01006999H   SYMBOL    CODE     ---       _zigb_datsLoad_datsSend
      0100709DH   SYMBOL    CODE     ---       _dataSendRemote_straightforward
      0100574DH   SYMBOL    CODE     ---       dtasTX_loadBasic_CUST
      01004DBAH   SYMBOL    CODE     ---       _dataParing_zigbSysCtrl
      01006221H   SYMBOL    CODE     ---       _ZigB_TXFrameLoad

      0100754BH   BLOCK     CODE     ---       LVL=0
      0100754BH   LINE      CODE     ---       #72
      0100754BH   LINE      CODE     ---       #75
      0100754EH   LINE      CODE     ---       #76
      01007551H   LINE      CODE     ---       #79
      01007554H   LINE      CODE     ---       #80
      01007557H   LINE      CODE     ---       #83
      0100755AH   LINE      CODE     ---       #84
      0100755DH   LINE      CODE     ---       #85
      ---         BLOCKEND  ---      ---       LVL=0

      01000026H   BLOCK     CODE     ---       LVL=0
      01000032H   BLOCK     CODE     NEAR LAB  LVL=1
      00000027H   SYMBOL    DATA     DWORD     j
      ---         BLOCKEND  ---      ---       LVL=1
      01000026H   LINE      CODE     ---       #88
      01000026H   LINE      CODE     ---       #90
      01000028H   LINE      CODE     ---       #92
      0100002AH   LINE      CODE     ---       #93
      01000032H   LINE      CODE     ---       #95
      01000032H   LINE      CODE     ---       #96
      0100003CH   LINE      CODE     ---       #97
      01000051H   LINE      CODE     ---       #99
      0100005FH   LINE      CODE     ---       #100
      01000062H   LINE      CODE     ---       #101
      01000062H   LINE      CODE     ---       #102
      01000065H   LINE      CODE     ---       #103
      01000068H   LINE      CODE     ---       #104
      0100006BH   LINE      CODE     ---       #105
      0100006EH   LINE      CODE     ---       #107
      01000071H   LINE      CODE     ---       #108
      01000074H   LINE      CODE     ---       #109
      01000077H   LINE      CODE     ---       #111
      01000079H   LINE      CODE     ---       #112
      0100007BH   LINE      CODE     ---       #113
      0100007EH   LINE      CODE     ---       #115
LX51 LINKER/LOCATER V4.66.41.0                                                        12/07/2018  17:31:29  PAGE 63


      0100008DH   LINE      CODE     ---       #117
      0100008FH   LINE      CODE     ---       #119
      01000098H   LINE      CODE     ---       #120
      ---         BLOCKEND  ---      ---       LVL=0

      0100675DH   BLOCK     CODE     ---       LVL=0
      0100675DH   LINE      CODE     ---       #143
      0100677AH   LINE      CODE     ---       #146
      0100677DH   LINE      CODE     ---       #147
      0100677DH   LINE      CODE     ---       #148
      0100677FH   LINE      CODE     ---       #149
      01006783H   LINE      CODE     ---       #150
      01006783H   LINE      CODE     ---       #156
      01006786H   LINE      CODE     ---       #158
      01006788H   LINE      CODE     ---       #159
      0100678AH   LINE      CODE     ---       #160
      0100678CH   LINE      CODE     ---       #162
      0100679AH   LINE      CODE     ---       #163
      0100679AH   LINE      CODE     ---       #165
      010067ABH   LINE      CODE     ---       #166
      010067AEH   LINE      CODE     ---       #167
      010067AEH   LINE      CODE     ---       #168
      010067AEH   LINE      CODE     ---       #170
      010067B1H   LINE      CODE     ---       #171
      010067B1H   LINE      CODE     ---       #172
      010067B3H   LINE      CODE     ---       #173
      010067B9H   LINE      CODE     ---       #174
      010067B9H   LINE      CODE     ---       #175
      010067C7H   LINE      CODE     ---       #176
      010067D3H   LINE      CODE     ---       #177
      010067D5H   LINE      CODE     ---       #178
      010067D8H   LINE      CODE     ---       #179
      010067D8H   LINE      CODE     ---       #180
      ---         BLOCKEND  ---      ---       LVL=0

      01007284H   BLOCK     CODE     ---       LVL=0
      00000039H   SYMBOL    DATA     ---       frame_temp
      00000005H   SYMBOL    DATA     BYTE      check_num
      0100728AH   BLOCK     CODE     NEAR LAB  LVL=1
      00000007H   SYMBOL    DATA     BYTE      loop
      00000006H   SYMBOL    DATA     BYTE      val_Check
      ---         BLOCKEND  ---      ---       LVL=1
      01007284H   LINE      CODE     ---       #184
      0100728AH   LINE      CODE     ---       #186
      0100728CH   LINE      CODE     ---       #187
      0100728DH   LINE      CODE     ---       #189
      01007292H   LINE      CODE     ---       #191
      010072A2H   LINE      CODE     ---       #192
      010072A5H   LINE      CODE     ---       #194
      010072A8H   LINE      CODE     ---       #195
      010072ABH   LINE      CODE     ---       #197
      010072ADH   LINE      CODE     ---       #198
      ---         BLOCKEND  ---      ---       LVL=0

      0100574DH   BLOCK     CODE     ---       LVL=0
      00000020H.6 SYMBOL    BIT      BIT       ifRemoteDats
      00000033H   SYMBOL    DATA     ---       dats_Tx
      00000036H   SYMBOL    DATA     BYTE      datsLen_TX
      00000037H   SYMBOL    DATA     BYTE      frame_Type
      00000038H   SYMBOL    DATA     BYTE      frame_CMD
      00000020H.7 SYMBOL    BIT      BIT       ifSpecial_CMD
      010057B1H   BLOCK     CODE     NEAR LAB  LVL=1
      0200015BH   SYMBOL    XDATA    ---       dats_Temp
      ---         BLOCKEND  ---      ---       LVL=1
      0100574DH   LINE      CODE     ---       #202
LX51 LINKER/LOCATER V4.66.41.0                                                        12/07/2018  17:31:29  PAGE 64


      0100574DH   LINE      CODE     ---       #207
      0100574DH   LINE      CODE     ---       #209
      0100575BH   LINE      CODE     ---       #210
      01005763H   LINE      CODE     ---       #212
      01005774H   LINE      CODE     ---       #214
      0100578EH   LINE      CODE     ---       #216
      010057ABH   LINE      CODE     ---       #218
      010057B1H   LINE      CODE     ---       #220
      010057C4H   LINE      CODE     ---       #222
      010057CFH   LINE      CODE     ---       #223
      010057DFH   LINE      CODE     ---       #225
      010057F8H   LINE      CODE     ---       #226
      01005811H   LINE      CODE     ---       #227
      01005830H   LINE      CODE     ---       #228
      0100584AH   LINE      CODE     ---       #229
      01005864H   LINE      CODE     ---       #231
      01005867H   LINE      CODE     ---       #233
      01005867H   LINE      CODE     ---       #235
      01005872H   LINE      CODE     ---       #236
      01005880H   LINE      CODE     ---       #238
      01005882H   LINE      CODE     ---       #239
      01005882H   LINE      CODE     ---       #240
      ---         BLOCKEND  ---      ---       LVL=0
      00000005H   SYMBOL    DATA     BYTE      length
      00000007H   SYMBOL    DATA     BYTE      loop
      00000006H   SYMBOL    DATA     BYTE      valXOR

      01006221H   BLOCK     CODE     VOID      LVL=0
      ---         BLOCKEND  ---      ---       LVL=0

      0100622BH   BLOCK     CODE     ---       LVL=0
      00000046H   SYMBOL    DATA     ---       frame
      00000049H   SYMBOL    DATA     ---       cmd
      0000004CH   SYMBOL    DATA     BYTE      cmdLen
      0000004DH   SYMBOL    DATA     ---       dats
      00000050H   SYMBOL    DATA     BYTE      datsLen
      00000007H   SYMBOL    DATA     BYTE      frameHead
      00000051H   SYMBOL    DATA     BYTE      xor_check
      00000006H   SYMBOL    DATA     BYTE      loop
      00000052H   SYMBOL    DATA     BYTE      ptr
      01006231H   BLOCK     CODE     NEAR LAB  LVL=1
      00000007H   SYMBOL    DATA     BYTE      frameHead
      00000051H   SYMBOL    DATA     BYTE      xor_check
      00000006H   SYMBOL    DATA     BYTE      loop
      00000052H   SYMBOL    DATA     BYTE      ptr
      ---         BLOCKEND  ---      ---       LVL=1
      0100622BH   LINE      CODE     ---       #256
      01006231H   LINE      CODE     ---       #258
      01006231H   LINE      CODE     ---       #259
      01006234H   LINE      CODE     ---       #260
      01006235H   LINE      CODE     ---       #261
      01006237H   LINE      CODE     ---       #263
      01006244H   LINE      CODE     ---       #264
      01006252H   LINE      CODE     ---       #266
      0100626EH   LINE      CODE     ---       #267
      01006274H   LINE      CODE     ---       #268
      0100628FH   LINE      CODE     ---       #270
      010062ABH   LINE      CODE     ---       #271
      010062B1H   LINE      CODE     ---       #272
      010062CCH   LINE      CODE     ---       #274
      010062E0H   LINE      CODE     ---       #276
      010062E2H   LINE      CODE     ---       #277
      ---         BLOCKEND  ---      ---       LVL=0

      010074E6H   BLOCK     CODE     ---       LVL=0
LX51 LINKER/LOCATER V4.66.41.0                                                        12/07/2018  17:31:29  PAGE 65


      00000007H   SYMBOL    DATA     BYTE      hangTime
      010074E6H   LINE      CODE     ---       #280
      010074E6H   LINE      CODE     ---       #282
      010074EBH   LINE      CODE     ---       #283
      010074F1H   LINE      CODE     ---       #285
      010074FAH   LINE      CODE     ---       #286
      ---         BLOCKEND  ---      ---       LVL=0

      01006B20H   BLOCK     CODE     ---       LVL=0
      0000003AH   SYMBOL    DATA     ---       frameREQ
      0000003DH   SYMBOL    DATA     BYTE      frameREQ_Len
      0000003EH   SYMBOL    DATA     ---       resp_cmd
      00000041H   SYMBOL    DATA     ---       resp_dats
      00000044H   SYMBOL    DATA     BYTE      loopReapt
      00000045H   SYMBOL    DATA     WORD      timeWait
      01006B28H   BLOCK     CODE     NEAR LAB  LVL=1
      00000047H   SYMBOL    DATA     WORD      Local_Delay
      00000049H   SYMBOL    DATA     BYTE      loop
      ---         BLOCKEND  ---      ---       LVL=1
      01006B20H   LINE      CODE     ---       #290
      01006B28H   LINE      CODE     ---       #294
      01006B28H   LINE      CODE     ---       #296
      01006B2EH   LINE      CODE     ---       #297
      01006B31H   LINE      CODE     ---       #299
      01006B3AH   LINE      CODE     ---       #301
      01006B3CH   LINE      CODE     ---       #302
      01006B46H   LINE      CODE     ---       #303
      01006B51H   LINE      CODE     ---       #305
      01006B5BH   LINE      CODE     ---       #307
      01006B5EH   LINE      CODE     ---       #309
      01006B60H   LINE      CODE     ---       #311
      01006B76H   LINE      CODE     ---       #313
      01006B8CH   LINE      CODE     ---       #314
      01006B92H   LINE      CODE     ---       #316
      01006B92H   LINE      CODE     ---       #317
      01006B92H   LINE      CODE     ---       #318
      01006B92H   LINE      CODE     ---       #319
      01006B96H   LINE      CODE     ---       #321
      01006B98H   LINE      CODE     ---       #322
      ---         BLOCKEND  ---      ---       LVL=0

      0100662CH   BLOCK     CODE     ---       LVL=0
      00000036H   SYMBOL    DATA     ---       REQ_CMD
      00000039H   SYMBOL    DATA     ---       REQ_DATS
      0000003CH   SYMBOL    DATA     BYTE      REQdatsLen
      0000003DH   SYMBOL    DATA     ---       ANSR_frame
      00000040H   SYMBOL    DATA     BYTE      ANSRdatsLen
      00000041H   SYMBOL    DATA     BYTE      times
      00000042H   SYMBOL    DATA     WORD      timeDelay
      01006632H   BLOCK     CODE     NEAR LAB  LVL=1
      02000176H   SYMBOL    XDATA    ---       dataTXBUF
      00000044H   SYMBOL    DATA     BYTE      loop
      00000045H   SYMBOL    DATA     BYTE      datsTX_Len
      ---         BLOCKEND  ---      ---       LVL=1
      0100662CH   LINE      CODE     ---       #325
      01006632H   LINE      CODE     ---       #330
      01006632H   LINE      CODE     ---       #333
      01006645H   LINE      CODE     ---       #334
      01006648H   LINE      CODE     ---       #337
      0100666BH   LINE      CODE     ---       #339
      01006675H   LINE      CODE     ---       #341
      01006677H   LINE      CODE     ---       #342
      01006681H   LINE      CODE     ---       #343
      0100668CH   LINE      CODE     ---       #345
      01006696H   LINE      CODE     ---       #347
LX51 LINKER/LOCATER V4.66.41.0                                                        12/07/2018  17:31:29  PAGE 66


      01006699H   LINE      CODE     ---       #349
      0100669BH   LINE      CODE     ---       #351
      010066B7H   LINE      CODE     ---       #353
      010066BEH   LINE      CODE     ---       #354
      010066C0H   LINE      CODE     ---       #355
      010066C0H   LINE      CODE     ---       #356
      010066C0H   LINE      CODE     ---       #357
      010066C0H   LINE      CODE     ---       #358
      010066C4H   LINE      CODE     ---       #360
      010066C5H   LINE      CODE     ---       #361
      ---         BLOCKEND  ---      ---       LVL=0

      01006D50H   BLOCK     CODE     ---       LVL=0
      00000020H.4 SYMBOL    BIT      BIT       openIF
      0000002EH   SYMBOL    DATA     BYTE      openTime
      01006D50H   BLOCK     CODE     NEAR LAB  LVL=1
      010006D9H   SYMBOL    CODE     ---       default_param
      00000020H.5 SYMBOL    BIT      BIT       resultSet
      0000002FH   SYMBOL    DATA     BYTE      openTime_temp
      0200016BH   SYMBOL    XDATA    ---       paramTX_temp
      ---         BLOCKEND  ---      ---       LVL=1
      01006D50H   LINE      CODE     ---       #476
      01006D50H   LINE      CODE     ---       #480
      01006D52H   LINE      CODE     ---       #482
      01006D55H   LINE      CODE     ---       #485
      01006D67H   LINE      CODE     ---       #487
      01006D77H   LINE      CODE     ---       #492
      01006DAFH   LINE      CODE     ---       #506
      01006DB1H   LINE      CODE     ---       #507
      ---         BLOCKEND  ---      ---       LVL=0

      01006EC6H   BLOCK     CODE     ---       LVL=0
      01006EC6H   BLOCK     CODE     NEAR LAB  LVL=1
      00000038H   SYMBOL    DATA     WORD      PANID_temp
      0200010AH   SYMBOL    XDATA    ---       paramTX_temp
      01000782H   SYMBOL    CODE     ---       frameREQ_zigbPanIDGet
      01000788H   SYMBOL    CODE     ---       cmdResp_zigbPanIDGet
      00000007H   SYMBOL    DATA     BYTE      datsResp_Len
      ---         BLOCKEND  ---      ---       LVL=1
      01006EC6H   LINE      CODE     ---       #510
      01006EC6H   LINE      CODE     ---       #512
      01006ECBH   LINE      CODE     ---       #515
      01006EDDH   LINE      CODE     ---       #519
      01006EDFH   LINE      CODE     ---       #521
      01006F05H   LINE      CODE     ---       #523
      01006F08H   LINE      CODE     ---       #525
      01006F0EH   LINE      CODE     ---       #526
      01006F14H   LINE      CODE     ---       #529
      01006F14H   LINE      CODE     ---       #531
      01006F18H   LINE      CODE     ---       #532
      ---         BLOCKEND  ---      ---       LVL=0

      01005BD6H   BLOCK     CODE     ---       LVL=0
      01005BD6H   BLOCK     CODE     NEAR LAB  LVL=1
      00000020H.2 SYMBOL    BIT      BIT       resultOpreat
      020000C9H   SYMBOL    XDATA    ---       paramTX_temp
      010007AAH   SYMBOL    CODE     ---       frameREQ_zigbSystimeGet
      010007AFH   SYMBOL    CODE     ---       cmdResp_zigbSystimeGet
      00000007H   SYMBOL    DATA     BYTE      datsResp_Len
      01005C1BH   BLOCK     CODE     NEAR LAB  LVL=2
      00000027H   SYMBOL    DATA     WORD      Y_temp16
      00000029H   SYMBOL    DATA     BYTE      Y_temp8
      0000002AH   SYMBOL    DATA     BYTE      M_temp8
      0000002BH   SYMBOL    DATA     BYTE      Y
      0000002CH   SYMBOL    DATA     BYTE      M
LX51 LINKER/LOCATER V4.66.41.0                                                        12/07/2018  17:31:29  PAGE 67


      0000002DH   SYMBOL    DATA     BYTE      D
      0000002EH   SYMBOL    DATA     BYTE      W
      ---         BLOCKEND  ---      ---       LVL=2
      ---         BLOCKEND  ---      ---       LVL=1
      01005BD6H   LINE      CODE     ---       #535
      01005BD6H   LINE      CODE     ---       #537
      01005BD8H   LINE      CODE     ---       #540
      01005BEBH   LINE      CODE     ---       #544
      01005BEDH   LINE      CODE     ---       #546
      01005C13H   LINE      CODE     ---       #548
      01005C1BH   LINE      CODE     ---       #549
      01005C1BH   LINE      CODE     ---       #551
      01005C2BH   LINE      CODE     ---       #552
      01005C2EH   LINE      CODE     ---       #553
      01005C30H   LINE      CODE     ---       #555
      01005C3DH   LINE      CODE     ---       #556
      01005C43H   LINE      CODE     ---       #557
      01005C47H   LINE      CODE     ---       #558
      01005C4AH   LINE      CODE     ---       #561
      01005C4DH   LINE      CODE     ---       #562
      01005C58H   LINE      CODE     ---       #564
      01005C5EH   LINE      CODE     ---       #565
      01005C60H   LINE      CODE     ---       #566
      01005C62H   LINE      CODE     ---       #567
      01005C65H   LINE      CODE     ---       #570
      01005C88H   LINE      CODE     ---       #571
      01005C8FH   LINE      CODE     ---       #574
      01005C9CH   LINE      CODE     ---       #576
      01005CA2H   LINE      CODE     ---       #577
      01005CA8H   LINE      CODE     ---       #578
      01005CAEH   LINE      CODE     ---       #580
      01005CB6H   LINE      CODE     ---       #581
      01005CBEH   LINE      CODE     ---       #582
      01005CC7H   LINE      CODE     ---       #585
      01005CDBH   LINE      CODE     ---       #587
      01005CDDH   LINE      CODE     ---       #588
      01005CDDH   LINE      CODE     ---       #599
      01005CDFH   LINE      CODE     ---       #600
      ---         BLOCKEND  ---      ---       LVL=0

      010052BFH   BLOCK     CODE     ---       LVL=0
      0000002EH   SYMBOL    DATA     DWORD     timeStamp
      00000020H.4 SYMBOL    BIT      BIT       timeZoneAdjust_IF
      010052C7H   BLOCK     CODE     NEAR LAB  LVL=1
      010007B1H   SYMBOL    CODE     ---       default_param
      0200016BH   SYMBOL    XDATA    ---       timeStampArray
      00000020H.5 SYMBOL    BIT      BIT       resultSet
      00000032H   SYMBOL    DATA     DWORD     timeStamp_temp
      ---         BLOCKEND  ---      ---       LVL=1
      010052BFH   LINE      CODE     ---       #604
      010052C7H   LINE      CODE     ---       #607
      010052DAH   LINE      CODE     ---       #608
      010052DCH   LINE      CODE     ---       #609
      010052E8H   LINE      CODE     ---       #611
      010052EEH   LINE      CODE     ---       #613
      010052F7H   LINE      CODE     ---       #615
      01005335H   LINE      CODE     ---       #617
      01005338H   LINE      CODE     ---       #618
      01005348H   LINE      CODE     ---       #620
      0100539EH   LINE      CODE     ---       #622
      010053A0H   LINE      CODE     ---       #623
      010053AAH   LINE      CODE     ---       #625
      010053FFH   LINE      CODE     ---       #626
      010053FFH   LINE      CODE     ---       #627
      010053FFH   LINE      CODE     ---       #629
LX51 LINKER/LOCATER V4.66.41.0                                                        12/07/2018  17:31:29  PAGE 68


      01005407H   LINE      CODE     ---       #630
      01005417H   LINE      CODE     ---       #631
      01005427H   LINE      CODE     ---       #632
      01005436H   LINE      CODE     ---       #637
      0100546EH   LINE      CODE     ---       #651
      01005470H   LINE      CODE     ---       #652
      ---         BLOCKEND  ---      ---       LVL=0

      01003CB0H   BLOCK     CODE     ---       LVL=0
      00000020H.2 SYMBOL    BIT      BIT       reJoin_IF
      01003CB0H   BLOCK     CODE     NEAR LAB  LVL=1
      01000842H   SYMBOL    CODE     ---       ZigbInit_dats
      01000CF8H   SYMBOL    CODE     ---       defaultParam_clusterRegister
      01000D7EH   SYMBOL    CODE     ---       frameResponseSubs_clusterRegister
      01000D84H   SYMBOL    CODE     ---       cluster_Default
      020000C9H   SYMBOL    XDATA    ---       paramTX_temp
      0200025CH   SYMBOL    XDATA    BYTE      step_CortexA
      0200025DH   SYMBOL    XDATA    BYTE      step_CortexB
      0200025EH   SYMBOL    XDATA    BYTE      reactionLoop
      02000109H   SYMBOL    XDATA    BYTE      actionReaptDefine_normal
      00000027H   SYMBOL    DATA     BYTE      datsTX_Len
      01003D53H   BLOCK     CODE     NEAR LAB  LVL=2
      0200025BH   SYMBOL    XDATA    BYTE      stepDisp_CortexA
      00000028H   SYMBOL    DATA     ---       datsREG_cluster
      ---         BLOCKEND  ---      ---       LVL=2
      01003F36H   BLOCK     CODE     NEAR LAB  LVL=2
      00000028H   SYMBOL    DATA     ---       datsREG_cluster
      ---         BLOCKEND  ---      ---       LVL=2
      ---         BLOCKEND  ---      ---       LVL=1
      01003CB0H   LINE      CODE     ---       #721
      01003CB0H   LINE      CODE     ---       #757
      01003CC3H   LINE      CODE     ---       #762
      01003CC9H   LINE      CODE     ---       #764
      01003CCCH   LINE      CODE     ---       #766
      01003CD4H   LINE      CODE     ---       #768
      01003CD7H   LINE      CODE     ---       #769
      01003CDBH   LINE      CODE     ---       #771
      01003CE0H   LINE      CODE     ---       #772
      01003CE2H   LINE      CODE     ---       #773
      01003CE4H   LINE      CODE     ---       #774
      01003CE7H   LINE      CODE     ---       #777
      01003CE7H   LINE      CODE     ---       #779
      01003CF0H   LINE      CODE     ---       #781
      01003CF2H   LINE      CODE     ---       #782
      01003CF4H   LINE      CODE     ---       #783
      01003CF6H   LINE      CODE     ---       #784
      01003CF8H   LINE      CODE     ---       #786
      01003CFEH   LINE      CODE     ---       #788
      01003D01H   LINE      CODE     ---       #789
      01003D04H   LINE      CODE     ---       #791
      01003D0BH   LINE      CODE     ---       #794
      01003D0BH   LINE      CODE     ---       #795
      01003D1AH   LINE      CODE     ---       #796
      01003D2CH   LINE      CODE     ---       #797
      01003D35H   LINE      CODE     ---       #798
      01003D35H   LINE      CODE     ---       #802
      01003D35H   LINE      CODE     ---       #804
      01003D41H   LINE      CODE     ---       #805
      01003D53H   LINE      CODE     ---       #808
      01003D53H   LINE      CODE     ---       #812
      01003D5AH   LINE      CODE     ---       #814
      01003D60H   LINE      CODE     ---       #815
      01003D6FH   LINE      CODE     ---       #816
      01003D93H   LINE      CODE     ---       #817
      01003D9CH   LINE      CODE     ---       #818
LX51 LINKER/LOCATER V4.66.41.0                                                        12/07/2018  17:31:29  PAGE 69


      01003D9CH   LINE      CODE     ---       #819
      01003D9CH   LINE      CODE     ---       #822
      01003DA6H   LINE      CODE     ---       #824
      01003DACH   LINE      CODE     ---       #826
      01003DACH   LINE      CODE     ---       #828
      01003DBDH   LINE      CODE     ---       #830
      01003DBDH   LINE      CODE     ---       #832
      01003DBFH   LINE      CODE     ---       #833
      01003DC7H   LINE      CODE     ---       #834
      01003DC7H   LINE      CODE     ---       #836
      01003DCAH   LINE      CODE     ---       #838
      01003DCAH   LINE      CODE     ---       #840
      01003DD7H   LINE      CODE     ---       #842
      01003DD9H   LINE      CODE     ---       #843
      01003DE3H   LINE      CODE     ---       #844
      01003DE9H   LINE      CODE     ---       #845
      01003DE9H   LINE      CODE     ---       #847
      01003DEAH   LINE      CODE     ---       #849
      01003DEAH   LINE      CODE     ---       #851
      01003DF8H   LINE      CODE     ---       #853
      01003DFEH   LINE      CODE     ---       #855
      01003E00H   LINE      CODE     ---       #857
      01003E23H   LINE      CODE     ---       #859
      01003E23H   LINE      CODE     ---       #860
      01003E23H   LINE      CODE     ---       #861
      01003E23H   LINE      CODE     ---       #862
      01003E23H   LINE      CODE     ---       #863
      01003E23H   LINE      CODE     ---       #865
      01003E26H   LINE      CODE     ---       #866
      01003E26H   LINE      CODE     ---       #868
      01003E26H   LINE      CODE     ---       #869
      01003E26H   LINE      CODE     ---       #870
      01003E26H   LINE      CODE     ---       #871
      01003E3BH   LINE      CODE     ---       #875
      01003E49H   LINE      CODE     ---       #877
      01003E49H   LINE      CODE     ---       #879
      01003E5CH   LINE      CODE     ---       #881
      01003E69H   LINE      CODE     ---       #883
      01003E69H   LINE      CODE     ---       #884
      01003E69H   LINE      CODE     ---       #885
      01003E6CH   LINE      CODE     ---       #886
      01003E6CH   LINE      CODE     ---       #888
      01003EA9H   LINE      CODE     ---       #894
      01003EB4H   LINE      CODE     ---       #896
      01003ED3H   LINE      CODE     ---       #897
      01003ED3H   LINE      CODE     ---       #899
      01003ED6H   LINE      CODE     ---       #901
      01003ED6H   LINE      CODE     ---       #903
      01003EE0H   LINE      CODE     ---       #905
      01003EE0H   LINE      CODE     ---       #906
      01003EE0H   LINE      CODE     ---       #907
      01003EE3H   LINE      CODE     ---       #909
      01003EE9H   LINE      CODE     ---       #911
      01003EEBH   LINE      CODE     ---       #913
      01003F27H   LINE      CODE     ---       #915
      01003F27H   LINE      CODE     ---       #916
      01003F27H   LINE      CODE     ---       #917
      01003F27H   LINE      CODE     ---       #918
      01003F27H   LINE      CODE     ---       #919
      01003F27H   LINE      CODE     ---       #921
      01003F2AH   LINE      CODE     ---       #922
      01003F2AH   LINE      CODE     ---       #924
      01003F2AH   LINE      CODE     ---       #925
      01003F36H   LINE      CODE     ---       #927
      01003F49H   LINE      CODE     ---       #928
LX51 LINKER/LOCATER V4.66.41.0                                                        12/07/2018  17:31:29  PAGE 70


      01003F60H   LINE      CODE     ---       #929
      01003F6AH   LINE      CODE     ---       #931
      01003F7DH   LINE      CODE     ---       #932
      01003F93H   LINE      CODE     ---       #933
      01003F96H   LINE      CODE     ---       #935
      01003F98H   LINE      CODE     ---       #937
      01003FAEH   LINE      CODE     ---       #939
      01003FB0H   LINE      CODE     ---       #940
      01003FB3H   LINE      CODE     ---       #941
      01003FB6H   LINE      CODE     ---       #943
      01003FB6H   LINE      CODE     ---       #947
      01003FB6H   LINE      CODE     ---       #948
      01003FB6H   LINE      CODE     ---       #950
      01003FC3H   LINE      CODE     ---       #952
      01003FC3H   LINE      CODE     ---       #954
      01003FCCH   LINE      CODE     ---       #956
      01003FCEH   LINE      CODE     ---       #957
      01003FD2H   LINE      CODE     ---       #958
      01003FD3H   LINE      CODE     ---       #959
      01003FD3H   LINE      CODE     ---       #961
      01003FF0H   LINE      CODE     ---       #967
      01003FFBH   LINE      CODE     ---       #969
      0100400CH   LINE      CODE     ---       #970
      01004012H   LINE      CODE     ---       #972
      01004013H   LINE      CODE     ---       #974
      01004013H   LINE      CODE     ---       #976
      0100401DH   LINE      CODE     ---       #978
      01004023H   LINE      CODE     ---       #979
      01004028H   LINE      CODE     ---       #980
      01004029H   LINE      CODE     ---       #982
      0100402CH   LINE      CODE     ---       #984
      0100402EH   LINE      CODE     ---       #986
      0100406AH   LINE      CODE     ---       #987
      0100406AH   LINE      CODE     ---       #989
      0100406FH   LINE      CODE     ---       #990
      01004071H   LINE      CODE     ---       #991
      01004077H   LINE      CODE     ---       #992
      01004077H   LINE      CODE     ---       #993
      01004077H   LINE      CODE     ---       #995
      01004077H   LINE      CODE     ---       #996
      01004077H   LINE      CODE     ---       #997
      01004077H   LINE      CODE     ---       #998
      ---         BLOCKEND  ---      ---       LVL=0

      01006999H   BLOCK     CODE     ---       LVL=0
      00000032H   SYMBOL    DATA     ---       frame_Temp
      00000035H   SYMBOL    DATA     WORD      DstAddr
      00000037H   SYMBOL    DATA     BYTE      portPoint
      00000038H   SYMBOL    DATA     ---       dats
      0000003BH   SYMBOL    DATA     BYTE      datsLen
      010069A3H   BLOCK     CODE     NEAR LAB  LVL=1
      01000DDDH   SYMBOL    CODE     ---       zigbCMD_DatsSend
      0200016AH   SYMBOL    XDATA    ---       buf_datsLOAD
      0000003CH   SYMBOL    DATA     BYTE      datsTX_Len
      ---         BLOCKEND  ---      ---       LVL=1
      01006999H   LINE      CODE     ---       #1002
      010069A3H   LINE      CODE     ---       #1006
      010069A3H   LINE      CODE     ---       #1011
      010069B6H   LINE      CODE     ---       #1012
      010069B9H   LINE      CODE     ---       #1014
      010069C6H   LINE      CODE     ---       #1017
      010069CCH   LINE      CODE     ---       #1018
      010069D0H   LINE      CODE     ---       #1019
      010069D4H   LINE      CODE     ---       #1020
      010069D6H   LINE      CODE     ---       #1021
LX51 LINKER/LOCATER V4.66.41.0                                                        12/07/2018  17:31:29  PAGE 71


      010069DAH   LINE      CODE     ---       #1022
      010069DEH   LINE      CODE     ---       #1023
      010069E1H   LINE      CODE     ---       #1024
      010069E5H   LINE      CODE     ---       #1025
      010069E9H   LINE      CODE     ---       #1026
      010069FBH   LINE      CODE     ---       #1028
      01006A1FH   LINE      CODE     ---       #1029
      ---         BLOCKEND  ---      ---       LVL=0

      0100709DH   BLOCK     CODE     ---       LVL=0
      0000002BH   SYMBOL    DATA     WORD      DstAddr
      0000002DH   SYMBOL    DATA     BYTE      port
      0000002EH   SYMBOL    DATA     ---       dats
      00000031H   SYMBOL    DATA     BYTE      datsLen
      010070A9H   BLOCK     CODE     NEAR LAB  LVL=1
      020000CCH   SYMBOL    XDATA    ---       buf_datsTX
      00000005H   SYMBOL    DATA     BYTE      datsTX_Len
      ---         BLOCKEND  ---      ---       LVL=1
      0100709DH   LINE      CODE     ---       #1033
      010070A9H   LINE      CODE     ---       #1036
      010070A9H   LINE      CODE     ---       #1038
      010070BCH   LINE      CODE     ---       #1039
      010070BCH   LINE      CODE     ---       #1041
      010070DAH   LINE      CODE     ---       #1043
      ---         BLOCKEND  ---      ---       LVL=0

      01004AACH   BLOCK     CODE     ---       LVL=0
      01004AACH   BLOCK     CODE     NEAR LAB  LVL=1
      020000CAH   SYMBOL    XDATA    ---       buf_datsTX
      00000027H   SYMBOL    DATA     BYTE      datsTX_Len
      0200012AH   SYMBOL    XDATA    ---       buf_datsRX
      00000028H   SYMBOL    DATA     BYTE      datsRX_Len
      00000029H   SYMBOL    DATA     ---       ASR_dats
      01000F2AH   SYMBOL    CODE     ---       ASR_cmd
      00000008H   SYMBOL    DATA     BYTE      datsTrans_respondCode
      00000009H   SYMBOL    DATA     BYTE      step
      0000000AH   SYMBOL    DATA     BYTE      reactionLoop
      01004BA4H   BLOCK     CODE     NEAR LAB  LVL=2
      0200025FH   SYMBOL    XDATA    BYTE      local_funRecord
      020000C9H   SYMBOL    XDATA    BYTE      funRecord_temp
      ---         BLOCKEND  ---      ---       LVL=2
      01004C75H   BLOCK     CODE     NEAR LAB  LVL=2
      00000088H   SYMBOL    IDATA    WORD      datsFrom_addr
      0000008AH   SYMBOL    IDATA    BYTE      dstPoint
      ---         BLOCKEND  ---      ---       LVL=2
      ---         BLOCKEND  ---      ---       LVL=1
      01004AACH   LINE      CODE     ---       #1048
      01004AACH   LINE      CODE     ---       #1050
      01004ABFH   LINE      CODE     ---       #1051
      01004AC2H   LINE      CODE     ---       #1054
      01004AD4H   LINE      CODE     ---       #1055
      01004AD7H   LINE      CODE     ---       #1058
      01004AE8H   LINE      CODE     ---       #1070
      01004AF0H   LINE      CODE     ---       #1072
      01004AF3H   LINE      CODE     ---       #1073
      01004AF7H   LINE      CODE     ---       #1075
      01004AFAH   LINE      CODE     ---       #1076
      01004AFDH   LINE      CODE     ---       #1079
      01004AFDH   LINE      CODE     ---       #1082
      01004B00H   LINE      CODE     ---       #1083
      01004B06H   LINE      CODE     ---       #1084
      01004B09H   LINE      CODE     ---       #1085
      01004B2CH   LINE      CODE     ---       #1087
      01004B54H   LINE      CODE     ---       #1089
      01004B72H   LINE      CODE     ---       #1091
LX51 LINKER/LOCATER V4.66.41.0                                                        12/07/2018  17:31:29  PAGE 72


      01004B72H   LINE      CODE     ---       #1093
      01004B79H   LINE      CODE     ---       #1095
      01004B7CH   LINE      CODE     ---       #1097
      01004B7FH   LINE      CODE     ---       #1098
      01004B7FH   LINE      CODE     ---       #1100
      01004B82H   LINE      CODE     ---       #1101
      01004B82H   LINE      CODE     ---       #1103
      01004B84H   LINE      CODE     ---       #1104
      01004B96H   LINE      CODE     ---       #1105
      01004BA0H   LINE      CODE     ---       #1106
      01004BA3H   LINE      CODE     ---       #1108
      01004BA4H   LINE      CODE     ---       #1110
      01004BA4H   LINE      CODE     ---       #1113
      01004BC8H   LINE      CODE     ---       #1115
      01004BCCH   LINE      CODE     ---       #1117
      01004BCEH   LINE      CODE     ---       #1118
      01004BD0H   LINE      CODE     ---       #1119
      01004BD0H   LINE      CODE     ---       #1120
      01004BD2H   LINE      CODE     ---       #1121
      01004BD2H   LINE      CODE     ---       #1123
      01004BD9H   LINE      CODE     ---       #1125
      01004BE5H   LINE      CODE     ---       #1127
      01004BE7H   LINE      CODE     ---       #1129
      01004BF2H   LINE      CODE     ---       #1130
      01004BF2H   LINE      CODE     ---       #1131
      01004BF2H   LINE      CODE     ---       #1133
      01004BF8H   LINE      CODE     ---       #1135
      01004BFAH   LINE      CODE     ---       #1137
      01004C16H   LINE      CODE     ---       #1139
      01004C1CH   LINE      CODE     ---       #1141
      01004C1FH   LINE      CODE     ---       #1143
      01004C21H   LINE      CODE     ---       #1145
      01004C24H   LINE      CODE     ---       #1146
      01004C2EH   LINE      CODE     ---       #1147
      01004C2EH   LINE      CODE     ---       #1149
      01004C33H   LINE      CODE     ---       #1151
      01004C34H   LINE      CODE     ---       #1153
      01004C4DH   LINE      CODE     ---       #1155
      01004C53H   LINE      CODE     ---       #1157
      01004C5DH   LINE      CODE     ---       #1161
      01004C5DH   LINE      CODE     ---       #1163
      01004C5DH   LINE      CODE     ---       #1164
      01004C5DH   LINE      CODE     ---       #1165
      01004C5DH   LINE      CODE     ---       #1175
      01004C5DH   LINE      CODE     ---       #1176
      01004C5DH   LINE      CODE     ---       #1177
      01004C5DH   LINE      CODE     ---       #1179
      01004C60H   LINE      CODE     ---       #1181
      01004C60H   LINE      CODE     ---       #1183
      01004C6AH   LINE      CODE     ---       #1185
      01004C6CH   LINE      CODE     ---       #1186
      01004C6EH   LINE      CODE     ---       #1187
      01004C6FH   LINE      CODE     ---       #1188
      01004C6FH   LINE      CODE     ---       #1190
      01004C75H   LINE      CODE     ---       #1192
      01004C82H   LINE      CODE     ---       #1193
      01004C88H   LINE      CODE     ---       #1195
      01004C8AH   LINE      CODE     ---       #1197
      01004C92H   LINE      CODE     ---       #1200
      01004C92H   LINE      CODE     ---       #1201
      01004CA1H   LINE      CODE     ---       #1202
      01004CBCH   LINE      CODE     ---       #1203
      01004CC5H   LINE      CODE     ---       #1204
      01004CC5H   LINE      CODE     ---       #1206
      01004CC5H   LINE      CODE     ---       #1208
LX51 LINKER/LOCATER V4.66.41.0                                                        12/07/2018  17:31:29  PAGE 73


      01004CF9H   LINE      CODE     ---       #1210
      01004CF9H   LINE      CODE     ---       #1212
      01004CFCH   LINE      CODE     ---       #1214
      01004CFDH   LINE      CODE     ---       #1217
      01004CFDH   LINE      CODE     ---       #1218
      01004D0CH   LINE      CODE     ---       #1220
      01004D30H   LINE      CODE     ---       #1222
      01004D39H   LINE      CODE     ---       #1223
      01004D39H   LINE      CODE     ---       #1225
      01004D39H   LINE      CODE     ---       #1226
      01004D39H   LINE      CODE     ---       #1227
      01004D39H   LINE      CODE     ---       #1229
      01004D39H   LINE      CODE     ---       #1231
      01004D39H   LINE      CODE     ---       #1233
      01004D3CH   LINE      CODE     ---       #1235
      01004D3EH   LINE      CODE     ---       #1236
      01004D41H   LINE      CODE     ---       #1238
      01004D43H   LINE      CODE     ---       #1240
      01004D46H   LINE      CODE     ---       #1241
      01004D46H   LINE      CODE     ---       #1243
      01004D46H   LINE      CODE     ---       #1244
      01004D46H   LINE      CODE     ---       #1247
      01004D46H   LINE      CODE     ---       #1248
      01004D46H   LINE      CODE     ---       #1250
      01004D48H   LINE      CODE     ---       #1252
      01004D48H   LINE      CODE     ---       #1254
      01004D4BH   LINE      CODE     ---       #1256
      01004D4DH   LINE      CODE     ---       #1257
      01004D50H   LINE      CODE     ---       #1259
      01004D52H   LINE      CODE     ---       #1261
      01004D55H   LINE      CODE     ---       #1262
      01004D55H   LINE      CODE     ---       #1265
      01004D59H   LINE      CODE     ---       #1268
      01004D59H   LINE      CODE     ---       #1269
      01004D68H   LINE      CODE     ---       #1270
      01004D80H   LINE      CODE     ---       #1271
      01004D89H   LINE      CODE     ---       #1272
      01004D89H   LINE      CODE     ---       #1275
      01004D97H   LINE      CODE     ---       #1277
      01004D97H   LINE      CODE     ---       #1278
      01004D97H   LINE      CODE     ---       #1279
      01004D97H   LINE      CODE     ---       #1281
      01004D97H   LINE      CODE     ---       #1283
      01004D99H   LINE      CODE     ---       #1285
      01004D99H   LINE      CODE     ---       #1287
      01004D9CH   LINE      CODE     ---       #1289
      01004D9CH   LINE      CODE     ---       #1290
      01004D9CH   LINE      CODE     ---       #1292
      01004D9FH   LINE      CODE     ---       #1293
      01004D9FH   LINE      CODE     ---       #1295
      01004DA2H   LINE      CODE     ---       #1296
      01004DA4H   LINE      CODE     ---       #1299
      01004DABH   LINE      CODE     ---       #1300
      01004DB5H   LINE      CODE     ---       #1302
      01004DB6H   LINE      CODE     ---       #1304
      01004DB6H   LINE      CODE     ---       #1306
      01004DB9H   LINE      CODE     ---       #1308
      01004DB9H   LINE      CODE     ---       #1309
      01004DB9H   LINE      CODE     ---       #1310
      ---         BLOCKEND  ---      ---       LVL=0

      01006FB9H   BLOCK     CODE     ---       LVL=0
      00000020H.4 SYMBOL    BIT      BIT       zigbNwkSysNote_IF
      01006FB9H   LINE      CODE     ---       #1313
      01006FB9H   LINE      CODE     ---       #1315
LX51 LINKER/LOCATER V4.66.41.0                                                        12/07/2018  17:31:29  PAGE 74


      01006FBFH   LINE      CODE     ---       #1316
      01006FC9H   LINE      CODE     ---       #1318
      01006FCFH   LINE      CODE     ---       #1319
      01006FD6H   LINE      CODE     ---       #1321
      01006FD9H   LINE      CODE     ---       #1322
      01006FDEH   LINE      CODE     ---       #1325
      01006FDEH   LINE      CODE     ---       #1326
      01006FEDH   LINE      CODE     ---       #1327
      01006FFFH   LINE      CODE     ---       #1328
      ---         BLOCKEND  ---      ---       LVL=0

      010075DFH   BLOCK     CODE     ---       LVL=0
      010075DFH   LINE      CODE     ---       #1334
      010075DFH   LINE      CODE     ---       #1336
      010075E7H   LINE      CODE     ---       #1337
      ---         BLOCKEND  ---      ---       LVL=0

      01005ACAH   BLOCK     CODE     ---       LVL=0
      01005ACAH   BLOCK     CODE     NEAR LAB  LVL=1
      0000000BH   SYMBOL    DATA     INT       status_Step
      01005AF6H   BLOCK     CODE     NEAR LAB  LVL=2
      020000C9H   SYMBOL    XDATA    ---       dats_Note
      ---         BLOCKEND  ---      ---       LVL=2
      ---         BLOCKEND  ---      ---       LVL=1
      01005ACAH   LINE      CODE     ---       #1341
      01005ACAH   LINE      CODE     ---       #1345
      01005AD1H   LINE      CODE     ---       #1347
      01005AD4H   LINE      CODE     ---       #1348
      01005AD8H   LINE      CODE     ---       #1350
      01005ADDH   LINE      CODE     ---       #1351
      01005AE3H   LINE      CODE     ---       #1353
      01005AE6H   LINE      CODE     ---       #1356
      01005AE6H   LINE      CODE     ---       #1358
      01005AEFH   LINE      CODE     ---       #1360
      01005AF6H   LINE      CODE     ---       #1362
      01005B09H   LINE      CODE     ---       #1364
      01005B10H   LINE      CODE     ---       #1366
      01005B22H   LINE      CODE     ---       #1371
      01005B29H   LINE      CODE     ---       #1372
      01005B29H   LINE      CODE     ---       #1374
      01005B29H   LINE      CODE     ---       #1376
      01005B39H   LINE      CODE     ---       #1378
      01005B39H   LINE      CODE     ---       #1380
      01005B3BH   LINE      CODE     ---       #1381
      01005B44H   LINE      CODE     ---       #1382
      01005B4AH   LINE      CODE     ---       #1384
      01005B4BH   LINE      CODE     ---       #1386
      01005B4BH   LINE      CODE     ---       #1388
      01005B58H   LINE      CODE     ---       #1390
      01005B5AH   LINE      CODE     ---       #1391
      01005B64H   LINE      CODE     ---       #1392
      01005B6AH   LINE      CODE     ---       #1393
      01005B6AH   LINE      CODE     ---       #1395
      01005B6BH   LINE      CODE     ---       #1397
      01005B6BH   LINE      CODE     ---       #1399
      01005B75H   LINE      CODE     ---       #1401
      01005B79H   LINE      CODE     ---       #1404
      01005B79H   LINE      CODE     ---       #1405
      01005B86H   LINE      CODE     ---       #1406
      01005B98H   LINE      CODE     ---       #1407
      01005B98H   LINE      CODE     ---       #1408
      01005B98H   LINE      CODE     ---       #1410
      01005B98H   LINE      CODE     ---       #1412
      01005B9AH   LINE      CODE     ---       #1414
      01005B9AH   LINE      CODE     ---       #1416
LX51 LINKER/LOCATER V4.66.41.0                                                        12/07/2018  17:31:29  PAGE 75


      01005B9FH   LINE      CODE     ---       #1418
      01005BA0H   LINE      CODE     ---       #1419
      01005BA0H   LINE      CODE     ---       #1420
      01005BA0H   LINE      CODE     ---       #1422
      01005BA0H   LINE      CODE     ---       #1425
      01005BA5H   LINE      CODE     ---       #1426
      01005BA7H   LINE      CODE     ---       #1428
      01005BAAH   LINE      CODE     ---       #1429
      01005BADH   LINE      CODE     ---       #1432
      01005BADH   LINE      CODE     ---       #1433
      01005BBAH   LINE      CODE     ---       #1434
      01005BCCH   LINE      CODE     ---       #1435
      01005BD5H   LINE      CODE     ---       #1436
      01005BD5H   LINE      CODE     ---       #1438
      01005BD5H   LINE      CODE     ---       #1439
      ---         BLOCKEND  ---      ---       LVL=0

      01006CEDH   BLOCK     CODE     ---       LVL=0
      00000027H   SYMBOL    DATA     ---       datsFrame
      01006CF3H   BLOCK     CODE     NEAR LAB  LVL=1
      0000002AH   SYMBOL    DATA     BYTE      dataTX_temp
      ---         BLOCKEND  ---      ---       LVL=1
      01006CEDH   LINE      CODE     ---       #1443
      01006CF3H   LINE      CODE     ---       #1445
      01006CF6H   LINE      CODE     ---       #1447
      01006CFEH   LINE      CODE     ---       #1448
      01006D02H   LINE      CODE     ---       #1450
      01006D07H   LINE      CODE     ---       #1452
      01006D18H   LINE      CODE     ---       #1455
      01006D18H   LINE      CODE     ---       #1456
      01006D27H   LINE      CODE     ---       #1457
      01006D47H   LINE      CODE     ---       #1458
      ---         BLOCKEND  ---      ---       LVL=0

      01004DBAH   BLOCK     CODE     ---       LVL=0
      00000027H   SYMBOL    DATA     ---       datsFrame
      01004DC0H   BLOCK     CODE     NEAR LAB  LVL=1
      02000149H   SYMBOL    XDATA    ---       dats
      01004E2BH   BLOCK     CODE     NEAR LAB  LVL=2
      00000020H.2 SYMBOL    BIT      BIT       resultSet
      00000020H.2 SYMBOL    BIT      BIT       resultSet
      00000020H.3 SYMBOL    BIT      BIT       timeZoneAdjust_needIF
      0000002AH   SYMBOL    DATA     DWORD     time_Temp
      00000088H   SYMBOL    IDATA    BYTE      statusRelay_temp
      ---         BLOCKEND  ---      ---       LVL=2
      01004E75H   BLOCK     CODE     NEAR LAB  LVL=2
      00000020H.2 SYMBOL    BIT      BIT       resultSet
      00000020H.3 SYMBOL    BIT      BIT       timeZoneAdjust_needIF
      0000002AH   SYMBOL    DATA     DWORD     time_Temp
      00000088H   SYMBOL    IDATA    BYTE      statusRelay_temp
      01004F7CH   BLOCK     CODE     NEAR LAB  LVL=3
      020000C9H   SYMBOL    XDATA    ---       log_buf
      02000109H   SYMBOL    XDATA    ---       log_buf
      ---         BLOCKEND  ---      ---       LVL=3
      ---         BLOCKEND  ---      ---       LVL=2
      01004FEAH   BLOCK     CODE     NEAR LAB  LVL=2
      02000109H   SYMBOL    XDATA    ---       log_buf
      ---         BLOCKEND  ---      ---       LVL=2
      01005016H   BLOCK     CODE     NEAR LAB  LVL=2
      00000088H   SYMBOL    IDATA    BYTE      statusRelay_temp
      ---         BLOCKEND  ---      ---       LVL=2
      ---         BLOCKEND  ---      ---       LVL=1
      01004DBAH   LINE      CODE     ---       #1465
      01004DC0H   LINE      CODE     ---       #1474
      01004DD3H   LINE      CODE     ---       #1476
LX51 LINKER/LOCATER V4.66.41.0                                                        12/07/2018  17:31:29  PAGE 76


      01004DE0H   LINE      CODE     ---       #1477
      01004DF9H   LINE      CODE     ---       #1478
      01004E09H   LINE      CODE     ---       #1480
      01004E2BH   LINE      CODE     ---       #1482
      01004E2BH   LINE      CODE     ---       #1484
      01004E2DH   LINE      CODE     ---       #1486
      01004E3AH   LINE      CODE     ---       #1487
      01004E42H   LINE      CODE     ---       #1490
      01004E42H   LINE      CODE     ---       #1491
      01004E51H   LINE      CODE     ---       #1492
      01004E6CH   LINE      CODE     ---       #1493
      01004E72H   LINE      CODE     ---       #1494
      01004E72H   LINE      CODE     ---       #1497
      01004E75H   LINE      CODE     ---       #1499
      01004E75H   LINE      CODE     ---       #1501
      01004E77H   LINE      CODE     ---       #1502
      01004E79H   LINE      CODE     ---       #1503
      01004E82H   LINE      CODE     ---       #1505
      01004E98H   LINE      CODE     ---       #1506
      01004EB8H   LINE      CODE     ---       #1507
      01004ED8H   LINE      CODE     ---       #1508
      01004EF8H   LINE      CODE     ---       #1509
      01004F0EH   LINE      CODE     ---       #1511
      01004F13H   LINE      CODE     ---       #1512
      01004F1BH   LINE      CODE     ---       #1513
      01004F2EH   LINE      CODE     ---       #1514
      01004F41H   LINE      CODE     ---       #1515
      01004F41H   LINE      CODE     ---       #1517
      01004F49H   LINE      CODE     ---       #1518
      01004F7CH   LINE      CODE     ---       #1521
      01004F7CH   LINE      CODE     ---       #1524
      01004FB2H   LINE      CODE     ---       #1525
      01004FBBH   LINE      CODE     ---       #1526
      01004FBBH   LINE      CODE     ---       #1528
      01004FBBH   LINE      CODE     ---       #1530
      01004FBBH   LINE      CODE     ---       #1533
      01004FBBH   LINE      CODE     ---       #1534
      01004FCAH   LINE      CODE     ---       #1535
      01004FDCH   LINE      CODE     ---       #1536
      01004FE5H   LINE      CODE     ---       #1537
      01004FE5H   LINE      CODE     ---       #1539
      01004FEAH   LINE      CODE     ---       #1541
      01004FEAH   LINE      CODE     ---       #1543
      01004FEAH   LINE      CODE     ---       #1546
      01004FEAH   LINE      CODE     ---       #1549
      01005005H   LINE      CODE     ---       #1550
      0100500EH   LINE      CODE     ---       #1551
      0100500EH   LINE      CODE     ---       #1553
      0100500EH   LINE      CODE     ---       #1558
      0100500EH   LINE      CODE     ---       #1568
      0100500EH   LINE      CODE     ---       #1570
      01005016H   LINE      CODE     ---       #1572
      01005016H   LINE      CODE     ---       #1647
      01005016H   LINE      CODE     ---       #1649
      0100501DH   LINE      CODE     ---       #1651
      01005029H   LINE      CODE     ---       #1654
      01005029H   LINE      CODE     ---       #1655
      01005038H   LINE      CODE     ---       #1656
      0100504AH   LINE      CODE     ---       #1657
      01005053H   LINE      CODE     ---       #1658
      01005053H   LINE      CODE     ---       #1662
      0100505BH   LINE      CODE     ---       #1664
      01005060H   LINE      CODE     ---       #1666
      01005066H   LINE      CODE     ---       #1667
      0100506EH   LINE      CODE     ---       #1668
LX51 LINKER/LOCATER V4.66.41.0                                                        12/07/2018  17:31:29  PAGE 77


      0100506EH   LINE      CODE     ---       #1669
      0100506EH   LINE      CODE     ---       #1671
      0100506EH   LINE      CODE     ---       #1673
      0100506EH   LINE      CODE     ---       #1674
      0100506EH   LINE      CODE     ---       #1675
      ---         BLOCKEND  ---      ---       LVL=0

      010010BAH   BLOCK     CODE     ---       LVL=0
      00000027H   SYMBOL    DATA     ---       datsParam
      0000002AH   SYMBOL    DATA     WORD      nwkAddr_from
      0000002CH   SYMBOL    DATA     BYTE      port_from
      010010C4H   BLOCK     CODE     NEAR LAB  LVL=1
      020000FBH   SYMBOL    XDATA    ---       paramTX_temp
      00000020H.2 SYMBOL    BIT      BIT       dataFromRemote_IF
      01001142H   BLOCK     CODE     NEAR LAB  LVL=2
      00000020H.3 SYMBOL    BIT      BIT       frameCheck_Done
      01000FB1H   SYMBOL    CODE     ---       agingCmd_Temp
      020000CAH   SYMBOL    XDATA    ---       dev_dataPointTemp
      00000020H.3 SYMBOL    BIT      BIT       frameCodeCheck_PASS
      00000020H.4 SYMBOL    BIT      BIT       frameMacCheck_PASS
      01001144H   BLOCK     CODE     NEAR LAB  LVL=3
      00000020H.4 SYMBOL    BIT      BIT       frameCodeCheck_PASS
      00000020H.5 SYMBOL    BIT      BIT       frameMacCheck_PASS
      00000020H.4 SYMBOL    BIT      BIT       respond_IF
      00000020H.5 SYMBOL    BIT      BIT       specialCmd_IF
      ---         BLOCKEND  ---      ---       LVL=3
      010011B5H   BLOCK     CODE     NEAR LAB  LVL=3
      00000020H.4 SYMBOL    BIT      BIT       respond_IF
      00000020H.5 SYMBOL    BIT      BIT       specialCmd_IF
      0100135DH   BLOCK     CODE     NEAR LAB  LVL=4
      0000002DH   SYMBOL    DATA     BYTE      deviceLock_IF
      0000002DH   SYMBOL    DATA     BYTE      deviceLock_IF
      ---         BLOCKEND  ---      ---       LVL=4
      01001374H   BLOCK     CODE     NEAR LAB  LVL=4
      0000002DH   SYMBOL    DATA     BYTE      deviceLock_IF
      ---         BLOCKEND  ---      ---       LVL=4
      010013B5H   BLOCK     CODE     NEAR LAB  LVL=4
      0000002DH   SYMBOL    DATA     BYTE      loop
      0000002DH   SYMBOL    DATA     BYTE      deviceLock_IF
      0000002DH   SYMBOL    DATA     BYTE      loop
      0000002DH   SYMBOL    DATA     ---       dataTemp
      020000C9H   SYMBOL    XDATA    BYTE      loop
      ---         BLOCKEND  ---      ---       LVL=4
      010014B8H   BLOCK     CODE     NEAR LAB  LVL=4
      0000002DH   SYMBOL    DATA     BYTE      datsTemp
      0000002DH   SYMBOL    DATA     BYTE      datsTemp
      0000002DH   SYMBOL    DATA     BYTE      loop
      0000002DH   SYMBOL    DATA     BYTE      loop
      0000002EH   SYMBOL    DATA     BYTE      effective_oprate
      0000002DH   SYMBOL    DATA     BYTE      loop
      00000023H.2 SYMBOL    BIT      BIT       local_ftyRecover_standbyFLG
      ---         BLOCKEND  ---      ---       LVL=4
      010014D0H   BLOCK     CODE     NEAR LAB  LVL=4
      0000002DH   SYMBOL    DATA     BYTE      datsTemp
      0000002DH   SYMBOL    DATA     BYTE      loop
      0000002DH   SYMBOL    DATA     BYTE      loop
      0000002EH   SYMBOL    DATA     BYTE      effective_oprate
      0000002DH   SYMBOL    DATA     BYTE      loop
      00000023H.2 SYMBOL    BIT      BIT       local_ftyRecover_standbyFLG
      ---         BLOCKEND  ---      ---       LVL=4
      01001509H   BLOCK     CODE     NEAR LAB  LVL=4
      0000002DH   SYMBOL    DATA     BYTE      loop
      0000002DH   SYMBOL    DATA     BYTE      loop
      0000002EH   SYMBOL    DATA     BYTE      effective_oprate
      0000002DH   SYMBOL    DATA     BYTE      loop
LX51 LINKER/LOCATER V4.66.41.0                                                        12/07/2018  17:31:29  PAGE 78


      00000023H.2 SYMBOL    BIT      BIT       local_ftyRecover_standbyFLG
      ---         BLOCKEND  ---      ---       LVL=4
      010016C5H   BLOCK     CODE     NEAR LAB  LVL=4
      0000002DH   SYMBOL    DATA     BYTE      loop
      0000002EH   SYMBOL    DATA     BYTE      effective_oprate
      0000002DH   SYMBOL    DATA     BYTE      loop
      00000023H.2 SYMBOL    BIT      BIT       local_ftyRecover_standbyFLG
      ---         BLOCKEND  ---      ---       LVL=4
      01001739H   BLOCK     CODE     NEAR LAB  LVL=4
      0000002DH   SYMBOL    DATA     BYTE      loop
      00000023H.2 SYMBOL    BIT      BIT       local_ftyRecover_standbyFLG
      ---         BLOCKEND  ---      ---       LVL=4
      010017E3H   BLOCK     CODE     NEAR LAB  LVL=4
      0000002DH   SYMBOL    DATA     BYTE      datsTX_Len
      ---         BLOCKEND  ---      ---       LVL=4
      ---         BLOCKEND  ---      ---       LVL=3
      ---         BLOCKEND  ---      ---       LVL=2
      0100186EH   BLOCK     CODE     NEAR LAB  LVL=2
      01000FB1H   SYMBOL    CODE     ---       agingCmd_Temp
      020000CAH   SYMBOL    XDATA    ---       dev_dataPointTemp
      00000020H.3 SYMBOL    BIT      BIT       frameCodeCheck_PASS
      00000020H.4 SYMBOL    BIT      BIT       frameMacCheck_PASS
      01001923H   BLOCK     CODE     NEAR LAB  LVL=3
      00000023H.2 SYMBOL    BIT      BIT       local_ftyRecover_standbyFLG
      01001A61H   BLOCK     CODE     NEAR LAB  LVL=4
      0000002DH   SYMBOL    DATA     BYTE      deviceLock_IF
      0000002DH   SYMBOL    DATA     BYTE      loop
      0000002DH   SYMBOL    DATA     ---       dataTemp
      020000C9H   SYMBOL    XDATA    BYTE      loop
      ---         BLOCKEND  ---      ---       LVL=4
      01001ACAH   BLOCK     CODE     NEAR LAB  LVL=4
      0000002DH   SYMBOL    DATA     BYTE      loop
      0000002DH   SYMBOL    DATA     ---       dataTemp
      020000C9H   SYMBOL    XDATA    BYTE      loop
      ---         BLOCKEND  ---      ---       LVL=4
      01001C14H   BLOCK     CODE     NEAR LAB  LVL=4
      0000002DH   SYMBOL    DATA     ---       dataTemp
      020000C9H   SYMBOL    XDATA    BYTE      loop
      ---         BLOCKEND  ---      ---       LVL=4
      01001DB0H   BLOCK     CODE     NEAR LAB  LVL=4
      020000C9H   SYMBOL    XDATA    BYTE      loop
      ---         BLOCKEND  ---      ---       LVL=4
      ---         BLOCKEND  ---      ---       LVL=3
      ---         BLOCKEND  ---      ---       LVL=2
      ---         BLOCKEND  ---      ---       LVL=1
      010010BAH   LINE      CODE     ---       #1679
      010010C4H   LINE      CODE     ---       #1682
      010010D7H   LINE      CODE     ---       #1684
      010010D9H   LINE      CODE     ---       #1687
      010010FAH   LINE      CODE     ---       #1690
      010010FAH   LINE      CODE     ---       #1692
      010010FCH   LINE      CODE     ---       #1694
      01001110H   LINE      CODE     ---       #1695
      01001142H   LINE      CODE     ---       #1696
      01001142H   LINE      CODE     ---       #1699
      01001142H   LINE      CODE     ---       #1701
      01001144H   LINE      CODE     ---       #1704
      01001146H   LINE      CODE     ---       #1705
      01001148H   LINE      CODE     ---       #1707
      01001169H   LINE      CODE     ---       #1708
      01001188H   LINE      CODE     ---       #1710
      01001198H   LINE      CODE     ---       #1712
      0100119AH   LINE      CODE     ---       #1714
      0100119CH   LINE      CODE     ---       #1715
      010011A5H   LINE      CODE     ---       #1716
LX51 LINKER/LOCATER V4.66.41.0                                                        12/07/2018  17:31:29  PAGE 79


      010011A5H   LINE      CODE     ---       #1718
      010011A7H   LINE      CODE     ---       #1719
      010011A7H   LINE      CODE     ---       #1721
      010011AFH   LINE      CODE     ---       #1722
      010011AFH   LINE      CODE     ---       #1724
      010011B5H   LINE      CODE     ---       #1726
      010011B7H   LINE      CODE     ---       #1727
      010011B9H   LINE      CODE     ---       #1731
      010011C8H   LINE      CODE     ---       #1732
      010011EBH   LINE      CODE     ---       #1733
      010011F4H   LINE      CODE     ---       #1734
      010011F4H   LINE      CODE     ---       #1736
      01001203H   LINE      CODE     ---       #1738
      0100124CH   LINE      CODE     ---       #1740
      0100124CH   LINE      CODE     ---       #1742
      01001252H   LINE      CODE     ---       #1744
      01001255H   LINE      CODE     ---       #1745
      0100125AH   LINE      CODE     ---       #1747
      01001262H   LINE      CODE     ---       #1748
      01001266H   LINE      CODE     ---       #1750
      0100126CH   LINE      CODE     ---       #1751
      01001270H   LINE      CODE     ---       #1753
      01001280H   LINE      CODE     ---       #1754
      0100128AH   LINE      CODE     ---       #1755
      0100129DH   LINE      CODE     ---       #1756
      010012B0H   LINE      CODE     ---       #1758
      010012B5H   LINE      CODE     ---       #1760
      010012B5H   LINE      CODE     ---       #1761
      010012B5H   LINE      CODE     ---       #1763
      010012B8H   LINE      CODE     ---       #1766
      010012B8H   LINE      CODE     ---       #1768
      010012B8H   LINE      CODE     ---       #1770
      010012B8H   LINE      CODE     ---       #1772
      010012BDH   LINE      CODE     ---       #1773
      010012D0H   LINE      CODE     ---       #1774
      010012E7H   LINE      CODE     ---       #1775
      01001300H   LINE      CODE     ---       #1776
      01001314H   LINE      CODE     ---       #1778
      01001324H   LINE      CODE     ---       #1779
      01001328H   LINE      CODE     ---       #1781
      01001328H   LINE      CODE     ---       #1782
      01001328H   LINE      CODE     ---       #1784
      0100132AH   LINE      CODE     ---       #1786
      0100132AH   LINE      CODE     ---       #1788
      01001334H   LINE      CODE     ---       #1789
      01001337H   LINE      CODE     ---       #1790
      01001347H   LINE      CODE     ---       #1791
      01001356H   LINE      CODE     ---       #1793
      01001358H   LINE      CODE     ---       #1794
      0100135AH   LINE      CODE     ---       #1796
      0100135DH   LINE      CODE     ---       #1798
      0100135DH   LINE      CODE     ---       #1800
      0100135DH   LINE      CODE     ---       #1802
      0100135DH   LINE      CODE     ---       #1805
      0100135DH   LINE      CODE     ---       #1806
      01001360H   LINE      CODE     ---       #1808
      01001362H   LINE      CODE     ---       #1809
      01001372H   LINE      CODE     ---       #1810
      01001372H   LINE      CODE     ---       #1812
      01001374H   LINE      CODE     ---       #1814
      01001374H   LINE      CODE     ---       #1817
      01001374H   LINE      CODE     ---       #1818
      01001377H   LINE      CODE     ---       #1820
      01001379H   LINE      CODE     ---       #1821
      01001389H   LINE      CODE     ---       #1822
LX51 LINKER/LOCATER V4.66.41.0                                                        12/07/2018  17:31:29  PAGE 80


      01001389H   LINE      CODE     ---       #1824
      0100138CH   LINE      CODE     ---       #1826
      0100138CH   LINE      CODE     ---       #1829
      010013B5H   LINE      CODE     ---       #1831
      010013B5H   LINE      CODE     ---       #1832
      010013B5H   LINE      CODE     ---       #1834
      010013B8H   LINE      CODE     ---       #1837
      010013C9H   LINE      CODE     ---       #1840
      010013CCH   LINE      CODE     ---       #1842
      010013E5H   LINE      CODE     ---       #1844
      010013F8H   LINE      CODE     ---       #1845
      010013F8H   LINE      CODE     ---       #1846
      010013FFH   LINE      CODE     ---       #1848
      01001401H   LINE      CODE     ---       #1851
      01001401H   LINE      CODE     ---       #1852
      01001410H   LINE      CODE     ---       #1853
      01001439H   LINE      CODE     ---       #1854
      01001442H   LINE      CODE     ---       #1855
      01001442H   LINE      CODE     ---       #1858
      01001444H   LINE      CODE     ---       #1860
      01001444H   LINE      CODE     ---       #1862
      01001450H   LINE      CODE     ---       #1863
      01001460H   LINE      CODE     ---       #1864
      01001467H   LINE      CODE     ---       #1866
      01001469H   LINE      CODE     ---       #1868
      01001469H   LINE      CODE     ---       #1870
      01001470H   LINE      CODE     ---       #1872
      01001472H   LINE      CODE     ---       #1874
      01001472H   LINE      CODE     ---       #1876
      01001485H   LINE      CODE     ---       #1878
      01001494H   LINE      CODE     ---       #1879
      010014A3H   LINE      CODE     ---       #1881
      010014A3H   LINE      CODE     ---       #1883
      010014A3H   LINE      CODE     ---       #1884
      010014A3H   LINE      CODE     ---       #1886
      010014B3H   LINE      CODE     ---       #1888
      010014B5H   LINE      CODE     ---       #1890
      010014B8H   LINE      CODE     ---       #1892
      010014B8H   LINE      CODE     ---       #1894
      010014B8H   LINE      CODE     ---       #1896
      010014BBH   LINE      CODE     ---       #1898
      010014CBH   LINE      CODE     ---       #1899
      010014CEH   LINE      CODE     ---       #1900
      010014CEH   LINE      CODE     ---       #1902
      010014CEH   LINE      CODE     ---       #1904
      010014D0H   LINE      CODE     ---       #1906
      010014D0H   LINE      CODE     ---       #1908
      010014D3H   LINE      CODE     ---       #1910
      010014E3H   LINE      CODE     ---       #1911
      010014E6H   LINE      CODE     ---       #1912
      010014F9H   LINE      CODE     ---       #1914
      010014FBH   LINE      CODE     ---       #1916
      010014FEH   LINE      CODE     ---       #1918
      010014FEH   LINE      CODE     ---       #1920
      01001500H   LINE      CODE     ---       #1922
      01001503H   LINE      CODE     ---       #1924
      01001503H   LINE      CODE     ---       #1926
      01001506H   LINE      CODE     ---       #1928
      01001509H   LINE      CODE     ---       #1930
      01001509H   LINE      CODE     ---       #1932
      0100150CH   LINE      CODE     ---       #1934
      01001532H   LINE      CODE     ---       #1936
      01001532H   LINE      CODE     ---       #1938
      01001535H   LINE      CODE     ---       #1940
      01001551H   LINE      CODE     ---       #1942
LX51 LINKER/LOCATER V4.66.41.0                                                        12/07/2018  17:31:29  PAGE 81


      01001561H   LINE      CODE     ---       #1943
      01001595H   LINE      CODE     ---       #1945
      01001597H   LINE      CODE     ---       #1947
      010015A9H   LINE      CODE     ---       #1948
      010015A9H   LINE      CODE     ---       #1949
      010015B1H   LINE      CODE     ---       #1950
      010015C9H   LINE      CODE     ---       #1951
      010015CCH   LINE      CODE     ---       #1953
      010015CCH   LINE      CODE     ---       #1954
      010015DBH   LINE      CODE     ---       #1955
      01001614H   LINE      CODE     ---       #1956
      0100161DH   LINE      CODE     ---       #1957
      0100161DH   LINE      CODE     ---       #1960
      01001620H   LINE      CODE     ---       #1962
      01001620H   LINE      CODE     ---       #1964
      01001631H   LINE      CODE     ---       #1966
      01001635H   LINE      CODE     ---       #1967
      01001639H   LINE      CODE     ---       #1969
      01001642H   LINE      CODE     ---       #1971
      01001643H   LINE      CODE     ---       #1973
      01001645H   LINE      CODE     ---       #1975
      01001649H   LINE      CODE     ---       #1976
      0100164DH   LINE      CODE     ---       #1977
      01001652H   LINE      CODE     ---       #1978
      01001652H   LINE      CODE     ---       #1980
      01001654H   LINE      CODE     ---       #1982
      01001654H   LINE      CODE     ---       #1984
      01001665H   LINE      CODE     ---       #1986
      01001669H   LINE      CODE     ---       #1987
      0100166DH   LINE      CODE     ---       #1988
      0100166EH   LINE      CODE     ---       #1990
      01001670H   LINE      CODE     ---       #1992
      01001674H   LINE      CODE     ---       #1993
      01001678H   LINE      CODE     ---       #1994
      0100167DH   LINE      CODE     ---       #1995
      0100167DH   LINE      CODE     ---       #1997
      01001690H   LINE      CODE     ---       #1998
      010016A3H   LINE      CODE     ---       #2000
      010016A5H   LINE      CODE     ---       #2002
      010016A5H   LINE      CODE     ---       #2004
      010016BDH   LINE      CODE     ---       #2005
      010016C0H   LINE      CODE     ---       #2007
      010016C0H   LINE      CODE     ---       #2009
      010016C0H   LINE      CODE     ---       #2010
      010016C0H   LINE      CODE     ---       #2012
      010016C2H   LINE      CODE     ---       #2014
      010016C5H   LINE      CODE     ---       #2016
      010016C5H   LINE      CODE     ---       #2018
      010016C8H   LINE      CODE     ---       #2019
      010016D6H   LINE      CODE     ---       #2021
      010016D9H   LINE      CODE     ---       #2023
      010016E9H   LINE      CODE     ---       #2025
      0100170EH   LINE      CODE     ---       #2026
      01001729H   LINE      CODE     ---       #2027
      0100172BH   LINE      CODE     ---       #2028
      0100172BH   LINE      CODE     ---       #2029
      01001734H   LINE      CODE     ---       #2031
      01001736H   LINE      CODE     ---       #2033
      01001739H   LINE      CODE     ---       #2035
      01001739H   LINE      CODE     ---       #2037
      0100173CH   LINE      CODE     ---       #2039
      0100173EH   LINE      CODE     ---       #2041
      0100175AH   LINE      CODE     ---       #2042
      01001763H   LINE      CODE     ---       #2044
      01001765H   LINE      CODE     ---       #2046
LX51 LINKER/LOCATER V4.66.41.0                                                        12/07/2018  17:31:29  PAGE 82


      01001767H   LINE      CODE     ---       #2048
      01001767H   LINE      CODE     ---       #2050
      0100177FH   LINE      CODE     ---       #2051
      01001797H   LINE      CODE     ---       #2052
      010017A5H   LINE      CODE     ---       #2053
      010017ADH   LINE      CODE     ---       #2055
      010017AFH   LINE      CODE     ---       #2057
      010017B1H   LINE      CODE     ---       #2059
      010017B1H   LINE      CODE     ---       #2061
      010017C4H   LINE      CODE     ---       #2062
      010017D7H   LINE      CODE     ---       #2064
      010017D9H   LINE      CODE     ---       #2066
      010017DBH   LINE      CODE     ---       #2111
      010017DBH   LINE      CODE     ---       #2113
      010017DDH   LINE      CODE     ---       #2115
      010017DDH   LINE      CODE     ---       #2116
      010017DDH   LINE      CODE     ---       #2119
      010017E3H   LINE      CODE     ---       #2121
      010017E6H   LINE      CODE     ---       #2123
      010017E8H   LINE      CODE     ---       #2125
      01001812H   LINE      CODE     ---       #2132
      01001818H   LINE      CODE     ---       #2134
      01001822H   LINE      CODE     ---       #2135
      01001828H   LINE      CODE     ---       #2136
      01001837H   LINE      CODE     ---       #2137
      0100184AH   LINE      CODE     ---       #2138
      01001850H   LINE      CODE     ---       #2139
      01001855H   LINE      CODE     ---       #2140
      0100185CH   LINE      CODE     ---       #2141
      0100186AH   LINE      CODE     ---       #2142
      0100186DH   LINE      CODE     ---       #2151
      0100186DH   LINE      CODE     ---       #2152
      0100186DH   LINE      CODE     ---       #2153
      0100186EH   LINE      CODE     ---       #2156
      0100186EH   LINE      CODE     ---       #2160
      0100186EH   LINE      CODE     ---       #2163
      0100186EH   LINE      CODE     ---       #2167
      0100186EH   LINE      CODE     ---       #2171
      0100186EH   LINE      CODE     ---       #2174
      01001881H   LINE      CODE     ---       #2176
      01001883H   LINE      CODE     ---       #2177
      01001885H   LINE      CODE     ---       #2187
      010018C7H   LINE      CODE     ---       #2188
      010018E6H   LINE      CODE     ---       #2190
      010018F2H   LINE      CODE     ---       #2192
      0100190AH   LINE      CODE     ---       #2204
      01001923H   LINE      CODE     ---       #2206
      01001923H   LINE      CODE     ---       #2273
      0100193CH   LINE      CODE     ---       #2275
      01001942H   LINE      CODE     ---       #2277
      01001955H   LINE      CODE     ---       #2281
      0100195CH   LINE      CODE     ---       #2283
      0100196CH   LINE      CODE     ---       #2285
      01001973H   LINE      CODE     ---       #2286
      01001977H   LINE      CODE     ---       #2288
      0100197EH   LINE      CODE     ---       #2290
      0100197EH   LINE      CODE     ---       #2292
      0100198DH   LINE      CODE     ---       #2293
      010019B5H   LINE      CODE     ---       #2294
      010019BEH   LINE      CODE     ---       #2295
      010019BEH   LINE      CODE     ---       #2297
      010019BEH   LINE      CODE     ---       #2298
      010019BEH   LINE      CODE     ---       #2300
      010019C5H   LINE      CODE     ---       #2302
      010019CDH   LINE      CODE     ---       #2304
LX51 LINKER/LOCATER V4.66.41.0                                                        12/07/2018  17:31:29  PAGE 83


      010019D1H   LINE      CODE     ---       #2305
      010019D5H   LINE      CODE     ---       #2306
      010019DAH   LINE      CODE     ---       #2307
      010019E0H   LINE      CODE     ---       #2309
      010019E0H   LINE      CODE     ---       #2311
      010019EDH   LINE      CODE     ---       #2312
      01001A0FH   LINE      CODE     ---       #2313
      01001A18H   LINE      CODE     ---       #2314
      01001A18H   LINE      CODE     ---       #2317
      01001A1AH   LINE      CODE     ---       #2319
      01001A1EH   LINE      CODE     ---       #2320
      01001A22H   LINE      CODE     ---       #2321
      01001A27H   LINE      CODE     ---       #2322
      01001A27H   LINE      CODE     ---       #2323
      01001A27H   LINE      CODE     ---       #2325
      01001A2EH   LINE      CODE     ---       #2327
      01001A30H   LINE      CODE     ---       #2329
      01001A30H   LINE      CODE     ---       #2331
      01001A3FH   LINE      CODE     ---       #2332
      01001A51H   LINE      CODE     ---       #2333
      01001A5AH   LINE      CODE     ---       #2334
      01001A5AH   LINE      CODE     ---       #2336
      01001A5AH   LINE      CODE     ---       #2338
      01001A61H   LINE      CODE     ---       #2340
      01001A64H   LINE      CODE     ---       #2345
      01001A71H   LINE      CODE     ---       #2346
      01001A91H   LINE      CODE     ---       #2347
      01001A9AH   LINE      CODE     ---       #2348
      01001A9AH   LINE      CODE     ---       #2351
      01001AA1H   LINE      CODE     ---       #2353
      01001AA6H   LINE      CODE     ---       #2355
      01001AA8H   LINE      CODE     ---       #2357
      01001AADH   LINE      CODE     ---       #2358
      01001AADH   LINE      CODE     ---       #2359
      01001AC0H   LINE      CODE     ---       #2360
      01001AC0H   LINE      CODE     ---       #2362
      01001ACAH   LINE      CODE     ---       #2364
      01001ACDH   LINE      CODE     ---       #2368
      01001ADAH   LINE      CODE     ---       #2371
      01001B03H   LINE      CODE     ---       #2372
      01001B0CH   LINE      CODE     ---       #2373
      01001B0CH   LINE      CODE     ---       #2375
      01001B0FH   LINE      CODE     ---       #2377
      01001B23H   LINE      CODE     ---       #2379
      01001B33H   LINE      CODE     ---       #2380
      01001B5FH   LINE      CODE     ---       #2382
      01001B61H   LINE      CODE     ---       #2384
      01001B73H   LINE      CODE     ---       #2385
      01001B73H   LINE      CODE     ---       #2386
      01001B7BH   LINE      CODE     ---       #2387
      01001B8EH   LINE      CODE     ---       #2388
      01001B91H   LINE      CODE     ---       #2389
      01001B91H   LINE      CODE     ---       #2391
      01001B98H   LINE      CODE     ---       #2394
      01001B98H   LINE      CODE     ---       #2396
      01001BA7H   LINE      CODE     ---       #2397
      01001BC2H   LINE      CODE     ---       #2398
      01001BCBH   LINE      CODE     ---       #2399
      01001BCBH   LINE      CODE     ---       #2402
      01001BDDH   LINE      CODE     ---       #2403
      01001BE4H   LINE      CODE     ---       #2404
      01001BF7H   LINE      CODE     ---       #2405
      01001C0AH   LINE      CODE     ---       #2406
      01001C0AH   LINE      CODE     ---       #2408
      01001C14H   LINE      CODE     ---       #2410
LX51 LINKER/LOCATER V4.66.41.0                                                        12/07/2018  17:31:29  PAGE 84


      01001C27H   LINE      CODE     ---       #2414
      01001C36H   LINE      CODE     ---       #2417
      01001C5FH   LINE      CODE     ---       #2418
      01001C68H   LINE      CODE     ---       #2420
      01001C77H   LINE      CODE     ---       #2423
      01001CA0H   LINE      CODE     ---       #2424
      01001CA9H   LINE      CODE     ---       #2425
      01001CA9H   LINE      CODE     ---       #2427
      01001CB7H   LINE      CODE     ---       #2428
      01001CC5H   LINE      CODE     ---       #2429
      01001CCBH   LINE      CODE     ---       #2430
      01001CCFH   LINE      CODE     ---       #2431
      01001CD3H   LINE      CODE     ---       #2432
      01001CD7H   LINE      CODE     ---       #2434
      01001CEAH   LINE      CODE     ---       #2435
      01001CEDH   LINE      CODE     ---       #2436
      01001CEDH   LINE      CODE     ---       #2438
      01001CF4H   LINE      CODE     ---       #2441
      01001CF4H   LINE      CODE     ---       #2443
      01001D03H   LINE      CODE     ---       #2444
      01001D25H   LINE      CODE     ---       #2445
      01001D2EH   LINE      CODE     ---       #2446
      01001D2EH   LINE      CODE     ---       #2449
      01001D34H   LINE      CODE     ---       #2450
      01001D38H   LINE      CODE     ---       #2451
      01001D4BH   LINE      CODE     ---       #2452
      01001D4BH   LINE      CODE     ---       #2454
      01001D52H   LINE      CODE     ---       #2457
      01001D52H   LINE      CODE     ---       #2459
      01001D61H   LINE      CODE     ---       #2460
      01001D81H   LINE      CODE     ---       #2461
      01001D8AH   LINE      CODE     ---       #2462
      01001D8AH   LINE      CODE     ---       #2465
      01001D96H   LINE      CODE     ---       #2466
      01001DA0H   LINE      CODE     ---       #2467
      01001DA3H   LINE      CODE     ---       #2468
      01001DA3H   LINE      CODE     ---       #2470
      01001DB0H   LINE      CODE     ---       #2472
      01001DB5H   LINE      CODE     ---       #2476
      01001DC2H   LINE      CODE     ---       #2480
      01001DF9H   LINE      CODE     ---       #2481
      01001E02H   LINE      CODE     ---       #2482
      01001E02H   LINE      CODE     ---       #2485
      01001E11H   LINE      CODE     ---       #2487
      01001E2FH   LINE      CODE     ---       #2489
      01001E4DH   LINE      CODE     ---       #2490
      01001E63H   LINE      CODE     ---       #2491
      01001E63H   LINE      CODE     ---       #2492
      01001E6BH   LINE      CODE     ---       #2494
      01001E6DH   LINE      CODE     ---       #2495
      01001E6DH   LINE      CODE     ---       #2497
      01001E6EH   LINE      CODE     ---       #2499
      01001E7DH   LINE      CODE     ---       #2501
      01001E83H   LINE      CODE     ---       #2504
      01001E83H   LINE      CODE     ---       #2506
      01001E92H   LINE      CODE     ---       #2507
      01001EA4H   LINE      CODE     ---       #2508
      01001EADH   LINE      CODE     ---       #2509
      01001EADH   LINE      CODE     ---       #2511
      01001EAFH   LINE      CODE     ---       #2512
      01001EB2H   LINE      CODE     ---       #2513
      01001EB2H   LINE      CODE     ---       #2514
      01001EB2H   LINE      CODE     ---       #2516
      01001EB2H   LINE      CODE     ---       #2518
      01001EB2H   LINE      CODE     ---       #2520
LX51 LINKER/LOCATER V4.66.41.0                                                        12/07/2018  17:31:29  PAGE 85


      01001EC8H   LINE      CODE     ---       #2522
      01001ECBH   LINE      CODE     ---       #2524
      01001ECCH   LINE      CODE     ---       #2526
      01001ED2H   LINE      CODE     ---       #2527
      01001EE1H   LINE      CODE     ---       #2528
      01001EE4H   LINE      CODE     ---       #2529
      01001EE4H   LINE      CODE     ---       #2531
      01001EE5H   LINE      CODE     ---       #2533
      01001EE5H   LINE      CODE     ---       #2534
      01001EE5H   LINE      CODE     ---       #2535
      01001EE5H   LINE      CODE     ---       #2537
      01001EE5H   LINE      CODE     ---       #2540
      01001EE5H   LINE      CODE     ---       #2542
      01001EEAH   LINE      CODE     ---       #2544
      01001EEAH   LINE      CODE     ---       #2546
      01001EF9H   LINE      CODE     ---       #2547
      01001F0BH   LINE      CODE     ---       #2548
      01001F14H   LINE      CODE     ---       #2549
      01001F14H   LINE      CODE     ---       #2551
      01001F14H   LINE      CODE     ---       #2555
      01001F14H   LINE      CODE     ---       #2556
      01001F14H   LINE      CODE     ---       #2557
      ---         BLOCKEND  ---      ---       LVL=0

      0100745FH   BLOCK     CODE     ---       LVL=0
      0100745FH   LINE      CODE     ---       #2560
      0100745FH   LINE      CODE     ---       #2562
      01007465H   LINE      CODE     ---       #2563
      0100746CH   LINE      CODE     ---       #2565
      01007472H   LINE      CODE     ---       #2566
      01007474H   LINE      CODE     ---       #2567
      ---         BLOCKEND  ---      ---       LVL=0

      01001F15H   BLOCK     CODE     ---       LVL=0
      01001F15H   BLOCK     CODE     NEAR LAB  LVL=1
      01000FEEH   SYMBOL    CODE     ---       cmd_datsComing
      01000FF0H   SYMBOL    CODE     ---       cmd_nwkOpenNote
      02000009H   SYMBOL    XDATA    ---       paramTX_temp
      02000069H   SYMBOL    XDATA    ---       paramRX_temp
      00000023H.4 SYMBOL    BIT      BIT       heartBeat_cmdFLG
      01001F7AH   BLOCK     CODE     NEAR LAB  LVL=2
      00000023H.3 SYMBOL    BIT      BIT       FLG_timeSetInit
      010010B2H   SYMBOL    CODE     WORD      DTREQ_EXATTR_ONCEPERIOD
      0000007FH   SYMBOL    IDATA    WORD      constandLoop_reserve
      02000007H   SYMBOL    XDATA    BYTE      frame_dataLen
      00000020H.0 SYMBOL    BIT      BIT       dataFromRemote_IF
      00000020H.1 SYMBOL    BIT      BIT       specialCmd_IF
      02000008H   SYMBOL    XDATA    BYTE      datsTX_Len
      ---         BLOCKEND  ---      ---       LVL=2
      01001FD4H   BLOCK     CODE     NEAR LAB  LVL=2
      010010B2H   SYMBOL    CODE     WORD      DTREQ_EXATTR_ONCEPERIOD
      0000007FH   SYMBOL    IDATA    WORD      constandLoop_reserve
      02000007H   SYMBOL    XDATA    BYTE      frame_dataLen
      00000020H.0 SYMBOL    BIT      BIT       dataFromRemote_IF
      00000020H.1 SYMBOL    BIT      BIT       specialCmd_IF
      02000008H   SYMBOL    XDATA    BYTE      datsTX_Len
      0100200CH   BLOCK     CODE     NEAR LAB  LVL=3
      0000007DH   SYMBOL    IDATA    WORD      current_Insert
      00000082H   SYMBOL    IDATA    BYTE      statusRelay_temp
      00000083H   SYMBOL    IDATA    BYTE      localActLoop
      ---         BLOCKEND  ---      ---       LVL=3
      ---         BLOCKEND  ---      ---       LVL=2
      0100218BH   BLOCK     CODE     NEAR LAB  LVL=2
      02000007H   SYMBOL    XDATA    BYTE      frame_dataLen
      00000020H.0 SYMBOL    BIT      BIT       dataFromRemote_IF
LX51 LINKER/LOCATER V4.66.41.0                                                        12/07/2018  17:31:29  PAGE 86


      00000020H.1 SYMBOL    BIT      BIT       specialCmd_IF
      02000008H   SYMBOL    XDATA    BYTE      datsTX_Len
      01002242H   BLOCK     CODE     NEAR LAB  LVL=3
      02000000H   SYMBOL    XDATA    BYTE      loop
      02000001H   SYMBOL    XDATA    ---       nightDatsTemp_CalibrateTab
      00000081H   SYMBOL    IDATA    BYTE      loop
      00000084H   SYMBOL    IDATA    WORD      datsFrom_addr
      00000086H   SYMBOL    IDATA    BYTE      srcPoint
      00000087H   SYMBOL    IDATA    BYTE      dstPoint
      ---         BLOCKEND  ---      ---       LVL=3
      010022BDH   BLOCK     CODE     NEAR LAB  LVL=3
      02000001H   SYMBOL    XDATA    ---       nightDatsTemp_CalibrateTab
      00000081H   SYMBOL    IDATA    BYTE      loop
      00000084H   SYMBOL    IDATA    WORD      datsFrom_addr
      00000086H   SYMBOL    IDATA    BYTE      srcPoint
      00000087H   SYMBOL    IDATA    BYTE      dstPoint
      ---         BLOCKEND  ---      ---       LVL=3
      ---         BLOCKEND  ---      ---       LVL=2
      0100250DH   BLOCK     CODE     NEAR LAB  LVL=2
      00000020H.0 SYMBOL    BIT      BIT       dataFromRemote_IF
      00000020H.1 SYMBOL    BIT      BIT       specialCmd_IF
      02000008H   SYMBOL    XDATA    BYTE      datsTX_Len
      ---         BLOCKEND  ---      ---       LVL=2
      01002559H   BLOCK     CODE     NEAR LAB  LVL=2
      00000081H   SYMBOL    IDATA    BYTE      loop
      00000084H   SYMBOL    IDATA    WORD      datsFrom_addr
      00000086H   SYMBOL    IDATA    BYTE      srcPoint
      00000087H   SYMBOL    IDATA    BYTE      dstPoint
      ---         BLOCKEND  ---      ---       LVL=2
      010026C2H   BLOCK     CODE     NEAR LAB  LVL=2
      00000084H   SYMBOL    IDATA    WORD      datsFrom_addr
      00000086H   SYMBOL    IDATA    BYTE      srcPoint
      00000087H   SYMBOL    IDATA    BYTE      dstPoint
      01002728H   BLOCK     CODE     NEAR LAB  LVL=3
      00000082H   SYMBOL    IDATA    BYTE      statusRelay_temp
      00000083H   SYMBOL    IDATA    BYTE      localActLoop
      ---         BLOCKEND  ---      ---       LVL=3
      ---         BLOCKEND  ---      ---       LVL=2
      ---         BLOCKEND  ---      ---       LVL=1
      01001F15H   LINE      CODE     ---       #2571
      01001F15H   LINE      CODE     ---       #2577
      01001F28H   LINE      CODE     ---       #2578
      01001F3BH   LINE      CODE     ---       #2583
      01001F41H   LINE      CODE     ---       #2585
      01001F44H   LINE      CODE     ---       #2586
      01001F47H   LINE      CODE     ---       #2587
      01001F47H   LINE      CODE     ---       #2590
      01001F6FH   LINE      CODE     ---       #2592
      01001F6FH   LINE      CODE     ---       #2594
      01001F77H   LINE      CODE     ---       #2596
      01001F77H   LINE      CODE     ---       #2597
      01001F77H   LINE      CODE     ---       #2599
      01001F7AH   LINE      CODE     ---       #2600
      01001F7AH   LINE      CODE     ---       #2602
      01001F7AH   LINE      CODE     ---       #2605
      01001F7DH   LINE      CODE     ---       #2607
      01001F7FH   LINE      CODE     ---       #2608
      01001F8CH   LINE      CODE     ---       #2610
      01001F93H   LINE      CODE     ---       #2612
      01001F93H   LINE      CODE     ---       #2614
      01001FA2H   LINE      CODE     ---       #2615
      01001FBAH   LINE      CODE     ---       #2616
      01001FC3H   LINE      CODE     ---       #2617
      01001FC3H   LINE      CODE     ---       #2619
      01001FC3H   LINE      CODE     ---       #2620
LX51 LINKER/LOCATER V4.66.41.0                                                        12/07/2018  17:31:29  PAGE 87


      01001FC3H   LINE      CODE     ---       #2622
      01001FCBH   LINE      CODE     ---       #2624
      01001FCBH   LINE      CODE     ---       #2626
      01001FD4H   LINE      CODE     ---       #2627
      01001FD4H   LINE      CODE     ---       #2630
      01001FD4H   LINE      CODE     ---       #2633
      01001FF9H   LINE      CODE     ---       #2635
      01001FFFH   LINE      CODE     ---       #2637
      0100200CH   LINE      CODE     ---       #2639
      01002021H   LINE      CODE     ---       #2642
      01002025H   LINE      CODE     ---       #2644
      01002032H   LINE      CODE     ---       #2647
      01002065H   LINE      CODE     ---       #2648
      0100206EH   LINE      CODE     ---       #2649
      0100206EH   LINE      CODE     ---       #2652
      0100208CH   LINE      CODE     ---       #2654
      01002092H   LINE      CODE     ---       #2655
      010020A7H   LINE      CODE     ---       #2656
      010020A9H   LINE      CODE     ---       #2658
      010020CCH   LINE      CODE     ---       #2660
      010020FDH   LINE      CODE     ---       #2661
      0100216BH   LINE      CODE     ---       #2663
      0100217CH   LINE      CODE     ---       #2664
      0100217CH   LINE      CODE     ---       #2665
      0100217CH   LINE      CODE     ---       #2666
      0100217CH   LINE      CODE     ---       #2669
      0100218BH   LINE      CODE     ---       #2671
      0100218FH   LINE      CODE     ---       #2673
      01002191H   LINE      CODE     ---       #2674
      01002193H   LINE      CODE     ---       #2676
      010021A0H   LINE      CODE     ---       #2697
      010021AFH   LINE      CODE     ---       #2698
      010021B6H   LINE      CODE     ---       #2700
      010021B9H   LINE      CODE     ---       #2701
      010021C1H   LINE      CODE     ---       #2702
      010021DFH   LINE      CODE     ---       #2703
      010021DFH   LINE      CODE     ---       #2704
      010021EFH   LINE      CODE     ---       #2705
      010021FEH   LINE      CODE     ---       #2706
      01002213H   LINE      CODE     ---       #2707
      01002222H   LINE      CODE     ---       #2708
      01002232H   LINE      CODE     ---       #2709
      01002242H   LINE      CODE     ---       #2712
      01002242H   LINE      CODE     ---       #2713
      01002247H   LINE      CODE     ---       #2714
      01002258H   LINE      CODE     ---       #2715
      01002267H   LINE      CODE     ---       #2717
      01002294H   LINE      CODE     ---       #2718
      0100229CH   LINE      CODE     ---       #2719
      0100229CH   LINE      CODE     ---       #2720
      010022B3H   LINE      CODE     ---       #2721
      010022B8H   LINE      CODE     ---       #2722
      010022BDH   LINE      CODE     ---       #2723
      010022BDH   LINE      CODE     ---       #2725
      010022D0H   LINE      CODE     ---       #2727
      010022D9H   LINE      CODE     ---       #2728
      010022F1H   LINE      CODE     ---       #2729
      01002308H   LINE      CODE     ---       #2730
      01002315H   LINE      CODE     ---       #2731
      0100231DH   LINE      CODE     ---       #2732
      0100232AH   LINE      CODE     ---       #2733
      01002332H   LINE      CODE     ---       #2758
      01002332H   LINE      CODE     ---       #2759
      01002345H   LINE      CODE     ---       #2760
      0100234AH   LINE      CODE     ---       #2761
LX51 LINKER/LOCATER V4.66.41.0                                                        12/07/2018  17:31:29  PAGE 88


      0100235BH   LINE      CODE     ---       #2764
      01002364H   LINE      CODE     ---       #2766
      01002364H   LINE      CODE     ---       #2768
      01002370H   LINE      CODE     ---       #2770
      01002372H   LINE      CODE     ---       #2772
      01002372H   LINE      CODE     ---       #2774
      01002385H   LINE      CODE     ---       #2776
      01002385H   LINE      CODE     ---       #2778
      01002385H   LINE      CODE     ---       #2779
      01002385H   LINE      CODE     ---       #2782
      0100238AH   LINE      CODE     ---       #2783
      0100239BH   LINE      CODE     ---       #2784
      010023AEH   LINE      CODE     ---       #2785
      010023CAH   LINE      CODE     ---       #2786
      010023D1H   LINE      CODE     ---       #2787
      010023E2H   LINE      CODE     ---       #2788
      010023F6H   LINE      CODE     ---       #2789
      0100240CH   LINE      CODE     ---       #2790
      01002420H   LINE      CODE     ---       #2791
      01002434H   LINE      CODE     ---       #2792
      0100244CH   LINE      CODE     ---       #2793
      01002464H   LINE      CODE     ---       #2794
      01002480H   LINE      CODE     ---       #2795
      01002487H   LINE      CODE     ---       #2796
      0100248AH   LINE      CODE     ---       #2797
      0100248FH   LINE      CODE     ---       #2798
      010024AAH   LINE      CODE     ---       #2810
      010024B1H   LINE      CODE     ---       #2811
      010024B7H   LINE      CODE     ---       #2812
      010024C6H   LINE      CODE     ---       #2813
      010024DCH   LINE      CODE     ---       #2814
      010024E4H   LINE      CODE     ---       #2815
      010024E9H   LINE      CODE     ---       #2816
      010024F0H   LINE      CODE     ---       #2817
      01002501H   LINE      CODE     ---       #2818
      01002505H   LINE      CODE     ---       #2821
      01002505H   LINE      CODE     ---       #2855
      0100250DH   LINE      CODE     ---       #2857
      0100250FH   LINE      CODE     ---       #2858
      01002511H   LINE      CODE     ---       #2860
      01002516H   LINE      CODE     ---       #2862
      0100251DH   LINE      CODE     ---       #2895
      01002532H   LINE      CODE     ---       #2896
      01002539H   LINE      CODE     ---       #2897
      0100253CH   LINE      CODE     ---       #2899
      01002542H   LINE      CODE     ---       #2900
      01002547H   LINE      CODE     ---       #2904
      01002547H   LINE      CODE     ---       #2907
      01002550H   LINE      CODE     ---       #2909
      01002559H   LINE      CODE     ---       #2913
      01002568H   LINE      CODE     ---       #2915
      01002586H   LINE      CODE     ---       #2917
      0100259BH   LINE      CODE     ---       #2919
      010025AFH   LINE      CODE     ---       #2921
      010025C7H   LINE      CODE     ---       #2923
      010025E9H   LINE      CODE     ---       #2924
      010025F8H   LINE      CODE     ---       #2925
      010025FEH   LINE      CODE     ---       #2928
      01002611H   LINE      CODE     ---       #2929
      01002627H   LINE      CODE     ---       #2930
      01002644H   LINE      CODE     ---       #2932
      0100265CH   LINE      CODE     ---       #2933
      0100266CH   LINE      CODE     ---       #2934
      0100267DH   LINE      CODE     ---       #2935
      01002691H   LINE      CODE     ---       #2953
LX51 LINKER/LOCATER V4.66.41.0                                                        12/07/2018  17:31:29  PAGE 89


      01002691H   LINE      CODE     ---       #2954
      01002691H   LINE      CODE     ---       #2955
      01002697H   LINE      CODE     ---       #2956
      01002697H   LINE      CODE     ---       #2957
      01002697H   LINE      CODE     ---       #3009
      0100269DH   LINE      CODE     ---       #3011
      0100269FH   LINE      CODE     ---       #3026
      010026C2H   LINE      CODE     ---       #3027
      010026C2H   LINE      CODE     ---       #3029
      010026D4H   LINE      CODE     ---       #3030
      010026D8H   LINE      CODE     ---       #3031
      010026DCH   LINE      CODE     ---       #3033
      010026E0H   LINE      CODE     ---       #3035
      010026E6H   LINE      CODE     ---       #3036
      010026EFH   LINE      CODE     ---       #3037
      010026EFH   LINE      CODE     ---       #3039
      010026FEH   LINE      CODE     ---       #3040
      01002714H   LINE      CODE     ---       #3042
      01002728H   LINE      CODE     ---       #3044
      0100272FH   LINE      CODE     ---       #3045
      01002732H   LINE      CODE     ---       #3047
      01002738H   LINE      CODE     ---       #3050
      01002738H   LINE      CODE     ---       #3051
      01002747H   LINE      CODE     ---       #3052
      01002771H   LINE      CODE     ---       #3053
      0100277AH   LINE      CODE     ---       #3054
      0100277AH   LINE      CODE     ---       #3057
      0100278AH   LINE      CODE     ---       #3059
      0100279EH   LINE      CODE     ---       #3061
      010027BBH   LINE      CODE     ---       #3063
      010027CCH   LINE      CODE     ---       #3064
      010027DFH   LINE      CODE     ---       #3065
      010027E3H   LINE      CODE     ---       #3066
      01002804H   LINE      CODE     ---       #3068
      01002819H   LINE      CODE     ---       #3070
      0100282AH   LINE      CODE     ---       #3071
      0100282AH   LINE      CODE     ---       #3073
      0100282CH   LINE      CODE     ---       #3074
      0100282CH   LINE      CODE     ---       #3075
      01002832H   LINE      CODE     ---       #3077
      01002839H   LINE      CODE     ---       #3079
      0100283AH   LINE      CODE     ---       #3081
      0100284BH   LINE      CODE     ---       #3084
      0100284BH   LINE      CODE     ---       #3086
      01002854H   LINE      CODE     ---       #3088
      01002854H   LINE      CODE     ---       #3091
      01002854H   LINE      CODE     ---       #3093
      0100285EH   LINE      CODE     ---       #3095
      0100286BH   LINE      CODE     ---       #3096
      0100286BH   LINE      CODE     ---       #3098
      0100286BH   LINE      CODE     ---       #3101
      0100286BH   LINE      CODE     ---       #3103
      01002874H   LINE      CODE     ---       #3105
      01002874H   LINE      CODE     ---       #3107
      01002874H   LINE      CODE     ---       #3111
      01002874H   LINE      CODE     ---       #3112
      01002874H   LINE      CODE     ---       #3113
      01002874H   LINE      CODE     ---       #3115
      01002874H   LINE      CODE     ---       #3116
      01002891H   LINE      CODE     ---       #3117
      01002891H   LINE      CODE     ---       #3119
      01002899H   LINE      CODE     ---       #3120
      01002899H   LINE      CODE     ---       #3121
      01002899H   LINE      CODE     ---       #3123
      01002899H   LINE      CODE     ---       #3125
LX51 LINKER/LOCATER V4.66.41.0                                                        12/07/2018  17:31:29  PAGE 90


      01002899H   LINE      CODE     ---       #3128
      0100289CH   LINE      CODE     ---       #3129
      0100289EH   LINE      CODE     ---       #3131
      010028A0H   LINE      CODE     ---       #3133
      010028A0H   LINE      CODE     ---       #3136
      010028A3H   LINE      CODE     ---       #3137
      010028A8H   LINE      CODE     ---       #3139
      010028A8H   LINE      CODE     ---       #3141
      010028A8H   LINE      CODE     ---       #3144
      010028ABH   LINE      CODE     ---       #3146
      010028ABH   LINE      CODE     ---       #3148
      010028ABH   LINE      CODE     ---       #3151
      010028AEH   LINE      CODE     ---       #3152
      010028B1H   LINE      CODE     ---       #3154
      010028B1H   LINE      CODE     ---       #3156
      010028B1H   LINE      CODE     ---       #3159
      010028B4H   LINE      CODE     ---       #3160
      010028BAH   LINE      CODE     ---       #3162
      010028C0H   LINE      CODE     ---       #3163
      010028C0H   LINE      CODE     ---       #3165
      010028C0H   LINE      CODE     ---       #3167
      010028C0H   LINE      CODE     ---       #3169
      010028C7H   LINE      CODE     ---       #3171
      010028CAH   LINE      CODE     ---       #3172
      010028CEH   LINE      CODE     ---       #3174
      010028CEH   LINE      CODE     ---       #3175
      010028CEH   LINE      CODE     ---       #3177
      010028CEH   LINE      CODE     ---       #3178
      010028CEH   LINE      CODE     ---       #3179
      ---         BLOCKEND  ---      ---       LVL=0

      ---         MODULE    ---      ---       USRKIN
      00000023H.1 PUBLIC    BIT      BIT       combinationFunTrigger_3S1L_standBy_FLG
      02000665H   PUBLIC    XDATA    WORD      touchPadActCounter
      02000664H   PUBLIC    XDATA    BYTE      touchKeepCnt_record
      02000662H   PUBLIC    XDATA    WORD      touchPadContinueCnt
      00000023H.0 PUBLIC    BIT      BIT       ledBackground_method
      0000001FH   PUBLIC    IDATA    BYTE      val_DcodeCfm
      0000007BH   PUBLIC    DATA     WORD      usrKeyCount
      00000022H.7 PUBLIC    BIT      BIT       usrKeyCount_EN
      010074FBH   PUBLIC    CODE     ---       usrKeyFun_zigbNwkRejoin
      010075D5H   PUBLIC    CODE     ---       fun_touchReset
      01006C0EH   PUBLIC    CODE     ---       _touchPad_functionTrigContinue
      01005883H   PUBLIC    CODE     ---       _touchPad_functionTrigNormal
      01005602H   PUBLIC    CODE     ---       touchPad_Scan
      00000027H   PUBLIC    DATA     BYTE      ?_UsrKEYScan?BYTE
      01006590H   PUBLIC    CODE     ---       _UsrKEYScan
      01006C82H   PUBLIC    CODE     ---       DcodeScan
      0100755EH   PUBLIC    CODE     ---       touchPadScan_oneShoot
      010075FAH   PUBLIC    CODE     ---       UsrKEYScan_oneShoot
      010070E3H   PUBLIC    CODE     ---       DcodeScan_oneShoot
      01007301H   PUBLIC    CODE     ---       usrKin_pinInit
      01007424H   PUBLIC    CODE     ---       _devTypeComfirm_byDcode
      01007053H   PUBLIC    CODE     ---       usrZigbNwkOpen
      000000D8H.2 SFRSYM    DATA     BIT       CCF2
      000000E0H.7 SFRSYM    DATA     BIT       ACC7
      00000093H   SFRSYM    DATA     BYTE      P0M1
      00000092H   SFRSYM    DATA     BYTE      P1M0
      00000096H   SFRSYM    DATA     BYTE      P2M0
      00000091H   SFRSYM    DATA     BYTE      P1M1
      00000080H   SFRSYM    DATA     BYTE      P0
      000000B2H   SFRSYM    DATA     BYTE      P3M0
      00000095H   SFRSYM    DATA     BYTE      P2M1
      00000090H   SFRSYM    DATA     BYTE      P1
      000000B4H   SFRSYM    DATA     BYTE      P4M0
LX51 LINKER/LOCATER V4.66.41.0                                                        12/07/2018  17:31:29  PAGE 91


      000000B1H   SFRSYM    DATA     BYTE      P3M1
      000000A0H   SFRSYM    DATA     BYTE      P2
      000000CAH   SFRSYM    DATA     BYTE      P5M0
      000000B3H   SFRSYM    DATA     BYTE      P4M1
      000000B0H   SFRSYM    DATA     BYTE      P3
      000000ABH   SFRSYM    DATA     BYTE      WKTCH
      000000B0H.4 SFRSYM    DATA     BIT       T0
      000000D0H.6 SFRSYM    DATA     BIT       AC
      000000CCH   SFRSYM    DATA     BYTE      P6M0
      000000C9H   SFRSYM    DATA     BYTE      P5M1
      000000C0H   SFRSYM    DATA     BYTE      P4
      000000B0H.5 SFRSYM    DATA     BIT       CLKOUT0
      000000B0H.5 SFRSYM    DATA     BIT       T1
      000000E2H   SFRSYM    DATA     BYTE      P7M0
      000000CBH   SFRSYM    DATA     BYTE      P6M1
      000000C8H   SFRSYM    DATA     BYTE      P5
      000000C6H   SFRSYM    DATA     BYTE      ISP_TRIG
      000000A8H.7 SFRSYM    DATA     BIT       EA
      000000B0H.4 SFRSYM    DATA     BIT       CLKOUT1
      000000A0H.4 SFRSYM    DATA     BIT       SPI_SS_2
      000000E8H   SFRSYM    DATA     BYTE      P6
      000000E1H   SFRSYM    DATA     BYTE      P7M1
      000000C8H.4 SFRSYM    DATA     BIT       SPI_SS_3
      00000090H.4 SFRSYM    DATA     BIT       SPI_MISO
      00000090H.3 SFRSYM    DATA     BIT       SPI_MOSI
      00000090H.1 SFRSYM    DATA     BIT       CCP0
      000000F8H   SFRSYM    DATA     BYTE      P7
      000000AAH   SFRSYM    DATA     BYTE      WKTCL
      00000090H   SFRSYM    DATA     BIT       CCP1
      000000CEH   SFRSYM    DATA     BYTE      SPCTL
      000000D8H.7 SFRSYM    DATA     BIT       CF
      000000B0H.7 SFRSYM    DATA     BIT       CCP2
      000000F9H   SFRSYM    DATA     BYTE      CH
      000000A2H   SFRSYM    DATA     BYTE      P_SW1
      000000BAH   SFRSYM    DATA     BYTE      P_SW2
      000000A8H.5 SFRSYM    DATA     BIT       EADC
      000000A0H.1 SFRSYM    DATA     BIT       SPI_SCLK_2
      000000A8H   SFRSYM    DATA     BYTE      IE
      000000C0H.3 SFRSYM    DATA     BIT       SPI_SCLK_3
      000000E9H   SFRSYM    DATA     BYTE      CL
      000000C5H   SFRSYM    DATA     BYTE      IAP_CMD
      000000FAH   SFRSYM    DATA     BYTE      CCAP0H
      00000090H   SFRSYM    DATA     BIT       Dcode0
      000000FBH   SFRSYM    DATA     BYTE      CCAP1H
      00000090H.1 SFRSYM    DATA     BIT       Dcode1
      000000FCH   SFRSYM    DATA     BYTE      CCAP2H
      00000090H.2 SFRSYM    DATA     BIT       Dcode2
      000000BDH   SFRSYM    DATA     BYTE      ADC_RES
      000000B6H   SFRSYM    DATA     BYTE      IPH2
      00000090H.3 SFRSYM    DATA     BIT       Dcode3
      000000D8H.6 SFRSYM    DATA     BIT       CR
      000000EAH   SFRSYM    DATA     BYTE      CCAP0L
      00000090H.4 SFRSYM    DATA     BIT       Dcode4
      000000B0H.7 SFRSYM    DATA     BIT       RD
      000000EBH   SFRSYM    DATA     BYTE      CCAP1L
      000000DAH   SFRSYM    DATA     BYTE      CCAPM0
      00000090H.3 SFRSYM    DATA     BIT       Dcode5
      000000ECH   SFRSYM    DATA     BYTE      CCAP2L
      000000DBH   SFRSYM    DATA     BYTE      CCAPM1
      000000A8H.4 SFRSYM    DATA     BIT       ES
      000000DCH   SFRSYM    DATA     BYTE      CCAPM2
      000000B8H.5 SFRSYM    DATA     BIT       PADC
      000000A0H.2 SFRSYM    DATA     BIT       SPI_MISO_2
      000000A0H.3 SFRSYM    DATA     BIT       SPI_MOSI_2
      000000B8H   SFRSYM    DATA     BYTE      IP
LX51 LINKER/LOCATER V4.66.41.0                                                        12/07/2018  17:31:29  PAGE 92


      000000C0H.1 SFRSYM    DATA     BIT       SPI_MISO_3
      000000C0H   SFRSYM    DATA     BIT       SPI_MOSI_3
      00000098H   SFRSYM    DATA     BIT       RI
      000000B0H.2 SFRSYM    DATA     BIT       INT0
      000000D0H.7 SFRSYM    DATA     BIT       CY
      00000098H.1 SFRSYM    DATA     BIT       TI
      000000B0H.3 SFRSYM    DATA     BIT       INT1
      00000097H   SFRSYM    DATA     BYTE      CLK_DIV
      000000C3H   SFRSYM    DATA     BYTE      IAP_ADDRH
      00000090H   SFRSYM    DATA     BIT       RXD2
      000000C5H   SFRSYM    DATA     BYTE      ISP_CMD
      000000B8H.4 SFRSYM    DATA     BIT       PS
      00000090H.1 SFRSYM    DATA     BIT       TXD2
      00000081H   SFRSYM    DATA     BYTE      SP
      000000D9H   SFRSYM    DATA     BYTE      CMOD
      000000D8H   SFRSYM    DATA     BYTE      CCON
      000000C4H   SFRSYM    DATA     BYTE      IAP_ADDRL
      000000B8H.7 SFRSYM    DATA     BIT       PPCA
      000000D0H.2 SFRSYM    DATA     BIT       OV
      000000B0H.6 SFRSYM    DATA     BIT       WR
      000000A8H.6 SFRSYM    DATA     BIT       ELVD
      00000080H   SFRSYM    DATA     BIT       P00
      00000090H   SFRSYM    DATA     BIT       P10
      00000080H.1 SFRSYM    DATA     BIT       P01
      000000BCH   SFRSYM    DATA     BYTE      ADC_CONTR
      00000099H   SFRSYM    DATA     BYTE      SBUF
      00000087H   SFRSYM    DATA     BYTE      PCON
      000000A0H   SFRSYM    DATA     BIT       P20
      00000090H.1 SFRSYM    DATA     BIT       P11
      00000080H.2 SFRSYM    DATA     BIT       P02
      000000C3H   SFRSYM    DATA     BYTE      ISP_ADDRH
      000000B0H   SFRSYM    DATA     BIT       P30
      000000A0H.1 SFRSYM    DATA     BIT       P21
      00000090H.2 SFRSYM    DATA     BIT       P12
      00000080H.3 SFRSYM    DATA     BIT       P03
      000000C0H   SFRSYM    DATA     BIT       P40
      000000B0H.1 SFRSYM    DATA     BIT       P31
      000000A0H.2 SFRSYM    DATA     BIT       P22
      00000090H.3 SFRSYM    DATA     BIT       P13
      00000080H.4 SFRSYM    DATA     BIT       P04
      00000098H   SFRSYM    DATA     BYTE      SCON
      0000008FH   SFRSYM    DATA     BYTE      WAKE_CLKO
      000000C8H   SFRSYM    DATA     BIT       P50
      000000C0H.1 SFRSYM    DATA     BIT       P41
      000000B0H.2 SFRSYM    DATA     BIT       P32
      000000A0H.3 SFRSYM    DATA     BIT       P23
      00000090H.4 SFRSYM    DATA     BIT       P14
      00000080H.5 SFRSYM    DATA     BIT       P05
      00000089H   SFRSYM    DATA     BYTE      TMOD
      00000088H   SFRSYM    DATA     BYTE      TCON
      000000C8H.1 SFRSYM    DATA     BIT       P51
      000000C0H.2 SFRSYM    DATA     BIT       P42
      000000B0H.3 SFRSYM    DATA     BIT       P33
      000000A0H.4 SFRSYM    DATA     BIT       P24
      00000090H.5 SFRSYM    DATA     BIT       P15
      00000080H.6 SFRSYM    DATA     BIT       P06
      000000C4H   SFRSYM    DATA     BYTE      ISP_ADDRL
      000000B8H.6 SFRSYM    DATA     BIT       PLVD
      000000C8H.2 SFRSYM    DATA     BIT       P52
      000000C0H.3 SFRSYM    DATA     BIT       P43
      000000B0H.4 SFRSYM    DATA     BIT       P34
      000000A0H.5 SFRSYM    DATA     BIT       P25
      00000090H.6 SFRSYM    DATA     BIT       P16
      00000080H.7 SFRSYM    DATA     BIT       P07
      000000C8H.3 SFRSYM    DATA     BIT       P53
LX51 LINKER/LOCATER V4.66.41.0                                                        12/07/2018  17:31:29  PAGE 93


      000000C0H.4 SFRSYM    DATA     BIT       P44
      000000B0H.5 SFRSYM    DATA     BIT       P35
      000000A0H.6 SFRSYM    DATA     BIT       P26
      00000090H.7 SFRSYM    DATA     BIT       P17
      000000C8H.4 SFRSYM    DATA     BIT       P54
      000000C0H.5 SFRSYM    DATA     BIT       P45
      000000B0H.6 SFRSYM    DATA     BIT       P36
      000000A0H.7 SFRSYM    DATA     BIT       P27
      000000C8H.5 SFRSYM    DATA     BIT       P55
      000000C0H.6 SFRSYM    DATA     BIT       P46
      000000B0H.7 SFRSYM    DATA     BIT       P37
      000000C8H.6 SFRSYM    DATA     BIT       P56
      000000C0H.7 SFRSYM    DATA     BIT       P47
      000000C8H.7 SFRSYM    DATA     BIT       P57
      00000088H.1 SFRSYM    DATA     BIT       IE0
      000000A1H   SFRSYM    DATA     BYTE      BUS_SPEED
      00000088H.3 SFRSYM    DATA     BIT       IE1
      000000AFH   SFRSYM    DATA     BYTE      IE2
      000000F0H   SFRSYM    DATA     BYTE      B
      0000008EH   SFRSYM    DATA     BYTE      AUXR
      000000C7H   SFRSYM    DATA     BYTE      IAP_CONTR
      000000E0H   SFRSYM    DATA     BYTE      ACC
      000000A8H.1 SFRSYM    DATA     BIT       ET0
      000000A8H.3 SFRSYM    DATA     BIT       ET1
      00000088H.5 SFRSYM    DATA     BIT       TF0
      00000088H.7 SFRSYM    DATA     BIT       TF1
      000000B5H   SFRSYM    DATA     BYTE      IP2
      0000008CH   SFRSYM    DATA     BYTE      RL_TH0
      00000098H.2 SFRSYM    DATA     BIT       RB8
      0000008DH   SFRSYM    DATA     BYTE      RL_TH1
      0000008CH   SFRSYM    DATA     BYTE      TH0
      000000A8H   SFRSYM    DATA     BIT       EX0
      00000088H   SFRSYM    DATA     BIT       IT0
      000000D6H   SFRSYM    DATA     BYTE      RL_T2H
      0000008DH   SFRSYM    DATA     BYTE      TH1
      00000090H.6 SFRSYM    DATA     BIT       touchPad_1
      000000A8H.2 SFRSYM    DATA     BIT       EX1
      00000098H.3 SFRSYM    DATA     BIT       TB8
      00000088H.2 SFRSYM    DATA     BIT       IT1
      000000D4H   SFRSYM    DATA     BYTE      RL_T3H
      000000D6H   SFRSYM    DATA     BYTE      TH2
      000000D6H   SFRSYM    DATA     BYTE      T2H
      00000090H.7 SFRSYM    DATA     BIT       touchPad_2
      000000D0H   SFRSYM    DATA     BIT       P
      000000D2H   SFRSYM    DATA     BYTE      RL_T4H
      000000D4H   SFRSYM    DATA     BYTE      TH3
      000000D4H   SFRSYM    DATA     BYTE      T3H
      0000008AH   SFRSYM    DATA     BYTE      RL_TL0
      00000090H.5 SFRSYM    DATA     BIT       touchPad_3
      00000098H.7 SFRSYM    DATA     BIT       SM0
      000000D2H   SFRSYM    DATA     BYTE      TH4
      000000D2H   SFRSYM    DATA     BYTE      T4H
      0000008BH   SFRSYM    DATA     BYTE      RL_TL1
      0000008AH   SFRSYM    DATA     BYTE      TL0
      00000098H.6 SFRSYM    DATA     BIT       SM1
      000000D7H   SFRSYM    DATA     BYTE      RL_T2L
      0000008BH   SFRSYM    DATA     BYTE      TL1
      00000098H.5 SFRSYM    DATA     BIT       SM2
      000000D5H   SFRSYM    DATA     BYTE      RL_T3L
      000000D7H   SFRSYM    DATA     BYTE      TL2
      000000D7H   SFRSYM    DATA     BYTE      T2L
      000000D3H   SFRSYM    DATA     BYTE      RL_T4L
      000000D5H   SFRSYM    DATA     BYTE      TL3
      000000D5H   SFRSYM    DATA     BYTE      T3L
      000000B8H.1 SFRSYM    DATA     BIT       PT0
LX51 LINKER/LOCATER V4.66.41.0                                                        12/07/2018  17:31:29  PAGE 94


      000000D3H   SFRSYM    DATA     BYTE      TL4
      000000D3H   SFRSYM    DATA     BYTE      T4L
      000000B8H.3 SFRSYM    DATA     BIT       PT1
      000000D0H.3 SFRSYM    DATA     BIT       RS0
      000000C7H   SFRSYM    DATA     BYTE      ISP_CONTR
      00000088H.4 SFRSYM    DATA     BIT       TR0
      000000D0H.4 SFRSYM    DATA     BIT       RS1
      000000C2H   SFRSYM    DATA     BYTE      IAP_DATA
      00000088H.6 SFRSYM    DATA     BIT       TR1
      000000B8H   SFRSYM    DATA     BIT       PX0
      000000C1H   SFRSYM    DATA     BYTE      WDT_CONTR
      000000B8H.2 SFRSYM    DATA     BIT       PX1
      000000F2H   SFRSYM    DATA     BYTE      PCA_PWM0
      000000F3H   SFRSYM    DATA     BYTE      PCA_PWM1
      000000F4H   SFRSYM    DATA     BYTE      PCA_PWM2
      0000009DH   SFRSYM    DATA     BYTE      P1ASF
      00000083H   SFRSYM    DATA     BYTE      DPH
      000000D1H   SFRSYM    DATA     BYTE      T4T3M
      000000BEH   SFRSYM    DATA     BYTE      ADC_RESL
      00000082H   SFRSYM    DATA     BYTE      DPL
      000000CDH   SFRSYM    DATA     BYTE      SPSTAT
      000000B7H   SFRSYM    DATA     BYTE      IPH
      0000009BH   SFRSYM    DATA     BYTE      S2BUF
      00000097H   SFRSYM    DATA     BYTE      PCON2
      000000ADH   SFRSYM    DATA     BYTE      S3BUF
      00000098H.4 SFRSYM    DATA     BIT       REN
      00000085H   SFRSYM    DATA     BYTE      S4BUF
      00000080H.2 SFRSYM    DATA     BIT       Usr_key
      0000009AH   SFRSYM    DATA     BYTE      S2CON
      000000ACH   SFRSYM    DATA     BYTE      S3CON
      000000C2H   SFRSYM    DATA     BYTE      ISP_DATA
      00000084H   SFRSYM    DATA     BYTE      S4CON
      000000B9H   SFRSYM    DATA     BYTE      SADEN
      000000B0H   SFRSYM    DATA     BIT       RXD
      000000A9H   SFRSYM    DATA     BYTE      SADDR
      000000B0H.1 SFRSYM    DATA     BIT       TXD
      000000F0H   SFRSYM    DATA     BIT       B0
      000000F0H.1 SFRSYM    DATA     BIT       B1
      000000C6H   SFRSYM    DATA     BYTE      IAP_TRIG
      000000A2H   SFRSYM    DATA     BYTE      AUXR1
      000000F0H.2 SFRSYM    DATA     BIT       B2
      00000090H.2 SFRSYM    DATA     BIT       SPI_SS
      0000008FH   SFRSYM    DATA     BYTE      AUXR2
      000000F0H.3 SFRSYM    DATA     BIT       B3
      000000F0H.4 SFRSYM    DATA     BIT       B4
      000000D0H.5 SFRSYM    DATA     BIT       F0
      000000F0H.5 SFRSYM    DATA     BIT       B5
      000000D0H.1 SFRSYM    DATA     BIT       F1
      0000008FH   SFRSYM    DATA     BYTE      INT_CLKO
      000000F0H.6 SFRSYM    DATA     BIT       B6
      000000E0H   SFRSYM    DATA     BIT       ACC0
      000000F0H.7 SFRSYM    DATA     BIT       B7
      000000E0H.1 SFRSYM    DATA     BIT       ACC1
      000000E0H.2 SFRSYM    DATA     BIT       ACC2
      000000E0H.3 SFRSYM    DATA     BIT       ACC3
      000000D0H   SFRSYM    DATA     BYTE      PSW
      000000E0H.4 SFRSYM    DATA     BIT       ACC4
      00000090H.5 SFRSYM    DATA     BIT       SPI_SCLK
      000000D8H   SFRSYM    DATA     BIT       CCF0
      000000E0H.5 SFRSYM    DATA     BIT       ACC5
      000000D8H.1 SFRSYM    DATA     BIT       CCF1
      000000E0H.6 SFRSYM    DATA     BIT       ACC6
      000000CFH   SFRSYM    DATA     BYTE      SPDAT
      00000094H   SFRSYM    DATA     BYTE      P0M0
      010059B4H   SYMBOL    CODE     ---       _normalBussiness_shortTouchTrig
LX51 LINKER/LOCATER V4.66.41.0                                                        12/07/2018  17:31:29  PAGE 95


      01005883H   SYMBOL    CODE     ---       _touchPad_functionTrigNormal
      01007478H   SYMBOL    CODE     ---       _normalBussiness_longA_touchKeepTrig
      01006C0EH   SYMBOL    CODE     ---       _touchPad_functionTrigContinue

      01007053H   BLOCK     CODE     ---       LVL=0
      01007053H   LINE      CODE     ---       #103
      01007053H   LINE      CODE     ---       #105
      0100705FH   LINE      CODE     ---       #107
      01007067H   LINE      CODE     ---       #108
      0100706CH   LINE      CODE     ---       #110
      0100706CH   LINE      CODE     ---       #111
      0100707BH   LINE      CODE     ---       #112
      01007093H   LINE      CODE     ---       #113
      0100709CH   LINE      CODE     ---       #114
      0100709CH   LINE      CODE     ---       #116
      0100709CH   LINE      CODE     ---       #117
      ---         BLOCKEND  ---      ---       LVL=0

      01007424H   BLOCK     CODE     ---       LVL=0
      00000007H   SYMBOL    DATA     BYTE      valDcode
      01007424H   LINE      CODE     ---       #119
      01007424H   LINE      CODE     ---       #128
      01007432H   LINE      CODE     ---       #130
      01007432H   LINE      CODE     ---       #132
      01007435H   LINE      CODE     ---       #134
      01007436H   LINE      CODE     ---       #136
      01007436H   LINE      CODE     ---       #138
      01007439H   LINE      CODE     ---       #140
      0100743AH   LINE      CODE     ---       #142
      0100743AH   LINE      CODE     ---       #144
      0100743DH   LINE      CODE     ---       #146
      0100743EH   LINE      CODE     ---       #148
      0100743EH   LINE      CODE     ---       #150
      01007441H   LINE      CODE     ---       #152
      01007441H   LINE      CODE     ---       #154
      01007441H   LINE      CODE     ---       #155
      01007441H   LINE      CODE     ---       #157
      ---         BLOCKEND  ---      ---       LVL=0

      01007301H   BLOCK     CODE     ---       LVL=0
      0100730DH   BLOCK     CODE     NEAR LAB  LVL=1
      00000027H   SYMBOL    DATA     BYTE      touchVal_temp
      ---         BLOCKEND  ---      ---       LVL=1
      01007301H   LINE      CODE     ---       #159
      01007301H   LINE      CODE     ---       #165
      01007304H   LINE      CODE     ---       #166
      01007307H   LINE      CODE     ---       #168
      0100730AH   LINE      CODE     ---       #169
      0100730DH   LINE      CODE     ---       #171
      0100730DH   LINE      CODE     ---       #173
      01007312H   LINE      CODE     ---       #175
      0100731DH   LINE      CODE     ---       #176
      ---         BLOCKEND  ---      ---       LVL=0

      010070E3H   BLOCK     CODE     ---       LVL=0
      010070E3H   BLOCK     CODE     NEAR LAB  LVL=1
      00000007H   SYMBOL    DATA     BYTE      val_Dcode
      ---         BLOCKEND  ---      ---       LVL=1
      010070E3H   LINE      CODE     ---       #181
      010070E3H   LINE      CODE     ---       #183
      010070E5H   LINE      CODE     ---       #185
      010070EBH   LINE      CODE     ---       #186
      010070EEH   LINE      CODE     ---       #188
      010070F6H   LINE      CODE     ---       #189
      010070F9H   LINE      CODE     ---       #191
LX51 LINKER/LOCATER V4.66.41.0                                                        12/07/2018  17:31:29  PAGE 96


      01007101H   LINE      CODE     ---       #192
      01007104H   LINE      CODE     ---       #194
      0100710CH   LINE      CODE     ---       #195
      0100710FH   LINE      CODE     ---       #197
      01007117H   LINE      CODE     ---       #198
      0100711AH   LINE      CODE     ---       #200
      01007122H   LINE      CODE     ---       #201
      01007125H   LINE      CODE     ---       #203
      01007125H   LINE      CODE     ---       #204
      ---         BLOCKEND  ---      ---       LVL=0

      010075FAH   BLOCK     CODE     ---       LVL=0
      010075FAH   LINE      CODE     ---       #206
      010075FAH   LINE      CODE     ---       #208
      010075FCH   LINE      CODE     ---       #209
      ---         BLOCKEND  ---      ---       LVL=0

      0100755EH   BLOCK     CODE     ---       LVL=0
      0100755EH   BLOCK     CODE     NEAR LAB  LVL=1
      00000007H   SYMBOL    DATA     BYTE      valKey_Temp
      ---         BLOCKEND  ---      ---       LVL=1
      0100755EH   LINE      CODE     ---       #211
      0100755EH   LINE      CODE     ---       #213
      01007560H   LINE      CODE     ---       #215
      01007564H   LINE      CODE     ---       #216
      0100756AH   LINE      CODE     ---       #217
      01007570H   LINE      CODE     ---       #219
      01007570H   LINE      CODE     ---       #220
      ---         BLOCKEND  ---      ---       LVL=0

      01006C82H   BLOCK     CODE     ---       LVL=0
      01006C82H   BLOCK     CODE     NEAR LAB  LVL=1
      00000077H   SYMBOL    DATA     BYTE      val_Dcode_Local
      00000078H   SYMBOL    DATA     BYTE      comfirm_Cnt
      00000027H   SYMBOL    DATA     BYTE      comfirm_Period
      00000028H   SYMBOL    DATA     BYTE      val_Dcode_differ
      00000020H.0 SYMBOL    BIT      BIT       val_CHG
      ---         BLOCKEND  ---      ---       LVL=1
      01006C82H   LINE      CODE     ---       #222
      01006C82H   LINE      CODE     ---       #226
      01006C85H   LINE      CODE     ---       #228
      01006C88H   LINE      CODE     ---       #230
      01006C8AH   LINE      CODE     ---       #232
      01006C91H   LINE      CODE     ---       #234
      01006C96H   LINE      CODE     ---       #236
      01006C9EH   LINE      CODE     ---       #238
      01006CA9H   LINE      CODE     ---       #239
      01006CA9H   LINE      CODE     ---       #241
      01006CACH   LINE      CODE     ---       #242
      01006CAEH   LINE      CODE     ---       #243
      01006CAEH   LINE      CODE     ---       #244
      01006CAEH   LINE      CODE     ---       #246
      01006CB1H   LINE      CODE     ---       #248
      01006CB3H   LINE      CODE     ---       #250
      01006CB8H   LINE      CODE     ---       #251
      01006CBAH   LINE      CODE     ---       #253
      01006CC3H   LINE      CODE     ---       #254
      01006CC6H   LINE      CODE     ---       #256
      01006CC6H   LINE      CODE     ---       #258
      01006CC6H   LINE      CODE     ---       #261
      01006CC6H   LINE      CODE     ---       #264
      01006CC6H   LINE      CODE     ---       #265
      01006CC6H   LINE      CODE     ---       #267
      01006CC6H   LINE      CODE     ---       #269
      01006CC6H   LINE      CODE     ---       #272
LX51 LINKER/LOCATER V4.66.41.0                                                        12/07/2018  17:31:29  PAGE 97


      01006CC6H   LINE      CODE     ---       #275
      01006CC6H   LINE      CODE     ---       #276
      01006CC6H   LINE      CODE     ---       #278
      01006CCBH   LINE      CODE     ---       #280
      01006CD3H   LINE      CODE     ---       #282
      01006CD6H   LINE      CODE     ---       #284
      01006CD8H   LINE      CODE     ---       #286
      01006CDBH   LINE      CODE     ---       #287
      01006CDBH   LINE      CODE     ---       #288
      01006CDBH   LINE      CODE     ---       #290
      01006CE1H   LINE      CODE     ---       #292
      01006CECH   LINE      CODE     ---       #293
      01006CECH   LINE      CODE     ---       #294
      01006CECH   LINE      CODE     ---       #295
      ---         BLOCKEND  ---      ---       LVL=0

      01006590H   BLOCK     CODE     ---       LVL=0
      00000027H   SYMBOL    DATA     ---       funCB_Short
      0000002AH   SYMBOL    DATA     ---       funCB_LongA
      0000002DH   SYMBOL    DATA     ---       funCB_LongB
      01006596H   BLOCK     CODE     NEAR LAB  LVL=1
      01006074H   SYMBOL    CODE     WORD      keyCfrmLoop_Short
      01006076H   SYMBOL    CODE     WORD      keyCfrmLoop_LongA
      01006078H   SYMBOL    CODE     WORD      keyCfrmLoop_LongB
      0100607AH   SYMBOL    CODE     WORD      keyCfrmLoop_MAX
      00000021H.7 SYMBOL    BIT      BIT       LongA_FLG
      00000022H.0 SYMBOL    BIT      BIT       LongB_FLG
      00000022H.1 SYMBOL    BIT      BIT       keyPress_FLG
      ---         BLOCKEND  ---      ---       LVL=1
      01006590H   LINE      CODE     ---       #297
      01006596H   LINE      CODE     ---       #309
      0100659BH   LINE      CODE     ---       #311
      0100659DH   LINE      CODE     ---       #315
      010065A2H   LINE      CODE     ---       #317
      010065C3H   LINE      CODE     ---       #319
      010065CAH   LINE      CODE     ---       #321
      010065CCH   LINE      CODE     ---       #322
      010065CCH   LINE      CODE     ---       #324
      010065EDH   LINE      CODE     ---       #326
      010065F4H   LINE      CODE     ---       #328
      010065F6H   LINE      CODE     ---       #329
      010065F6H   LINE      CODE     ---       #331
      010065F7H   LINE      CODE     ---       #333
      010065F9H   LINE      CODE     ---       #335
      010065FCH   LINE      CODE     ---       #337
      010065FEH   LINE      CODE     ---       #339
      0100661BH   LINE      CODE     ---       #346
      01006622H   LINE      CODE     ---       #347
      01006622H   LINE      CODE     ---       #349
      01006627H   LINE      CODE     ---       #350
      01006629H   LINE      CODE     ---       #351
      0100662BH   LINE      CODE     ---       #352
      0100662BH   LINE      CODE     ---       #353
      0100662BH   LINE      CODE     ---       #354
      ---         BLOCKEND  ---      ---       LVL=0

      01007478H   BLOCK     CODE     ---       LVL=0
      00000007H   SYMBOL    DATA     BYTE      statusPad
      01007478H   BLOCK     CODE     NEAR LAB  LVL=1
      02000661H   SYMBOL    XDATA    BYTE      trigCount_Loop
      0100607CH   SYMBOL    CODE     BYTE      trigCount_Period
      ---         BLOCKEND  ---      ---       LVL=1
      01007478H   LINE      CODE     ---       #356
      01007478H   LINE      CODE     ---       #361
      0100748AH   LINE      CODE     ---       #362
LX51 LINKER/LOCATER V4.66.41.0                                                        12/07/2018  17:31:29  PAGE 98


      0100748AH   LINE      CODE     ---       #364
      0100748FH   LINE      CODE     ---       #389
      0100748FH   LINE      CODE     ---       #391
      0100748FH   LINE      CODE     ---       #392
      ---         BLOCKEND  ---      ---       LVL=0

      01005602H   BLOCK     CODE     ---       LVL=0
      01005602H   BLOCK     CODE     NEAR LAB  LVL=1
      00000079H   SYMBOL    DATA     BYTE      touchPad_temp
      00000022H.2 SYMBOL    BIT      BIT       keyPress_FLG
      00000022H.3 SYMBOL    BIT      BIT       funTrigFLG_LongA
      00000022H.4 SYMBOL    BIT      BIT       funTrigFLG_LongB
      0100607DH   SYMBOL    CODE     WORD      touchCfrmLoop_Short
      0100607FH   SYMBOL    CODE     WORD      touchCfrmLoop_LongA
      01006081H   SYMBOL    CODE     WORD      touchCfrmLoop_LongB
      01006083H   SYMBOL    CODE     WORD      touchCfrmLoop_MAX
      0000007AH   SYMBOL    DATA     BYTE      pressContinueGet
      00000027H   SYMBOL    DATA     BYTE      pressContinueCfm
      00000028H   SYMBOL    DATA     WORD      conterTemp
      ---         BLOCKEND  ---      ---       LVL=1
      01005602H   LINE      CODE     ---       #394
      01005602H   LINE      CODE     ---       #408
      01005605H   LINE      CODE     ---       #410
      01005609H   LINE      CODE     ---       #412
      01005612H   LINE      CODE     ---       #414
      01005615H   LINE      CODE     ---       #416
      01005617H   LINE      CODE     ---       #417
      01005628H   LINE      CODE     ---       #418
      01005632H   LINE      CODE     ---       #419
      01005637H   LINE      CODE     ---       #420
      01005638H   LINE      CODE     ---       #421
      01005638H   LINE      CODE     ---       #423
      01005643H   LINE      CODE     ---       #425
      0100565AH   LINE      CODE     ---       #433
      01005678H   LINE      CODE     ---       #435
      0100567DH   LINE      CODE     ---       #437
      01005680H   LINE      CODE     ---       #439
      01005682H   LINE      CODE     ---       #440
      01005689H   LINE      CODE     ---       #441
      01005689H   LINE      CODE     ---       #442
      01005689H   LINE      CODE     ---       #443
      010056ADH   LINE      CODE     ---       #445
      010056B3H   LINE      CODE     ---       #447
      010056B5H   LINE      CODE     ---       #448
      010056BCH   LINE      CODE     ---       #449
      010056BCH   LINE      CODE     ---       #450
      010056BCH   LINE      CODE     ---       #451
      010056BCH   LINE      CODE     ---       #452
      010056BCH   LINE      CODE     ---       #454
      010056BCH   LINE      CODE     ---       #456
      010056BFH   LINE      CODE     ---       #458
      010056D6H   LINE      CODE     ---       #459
      010056F4H   LINE      CODE     ---       #461
      01005700H   LINE      CODE     ---       #462
      0100570BH   LINE      CODE     ---       #463
      01005712H   LINE      CODE     ---       #464
      01005712H   LINE      CODE     ---       #465
      01005712H   LINE      CODE     ---       #467
      01005720H   LINE      CODE     ---       #469
      01005722H   LINE      CODE     ---       #470
      01005725H   LINE      CODE     ---       #472
      0100572CH   LINE      CODE     ---       #481
      01005733H   LINE      CODE     ---       #482
      01005736H   LINE      CODE     ---       #483
      01005736H   LINE      CODE     ---       #485
LX51 LINKER/LOCATER V4.66.41.0                                                        12/07/2018  17:31:29  PAGE 99


      01005739H   LINE      CODE     ---       #486
      01005739H   LINE      CODE     ---       #488
      0100573CH   LINE      CODE     ---       #490
      0100573EH   LINE      CODE     ---       #500
      0100573EH   LINE      CODE     ---       #502
      01005743H   LINE      CODE     ---       #504
      0100574AH   LINE      CODE     ---       #505
      0100574CH   LINE      CODE     ---       #506
      0100574CH   LINE      CODE     ---       #507
      ---         BLOCKEND  ---      ---       LVL=0

      010059B4H   BLOCK     CODE     ---       LVL=0
      00000007H   SYMBOL    DATA     BYTE      statusPad
      010059B4H   BLOCK     CODE     NEAR LAB  LVL=1
      00000022H.5 SYMBOL    BIT      BIT       tipsBeep_IF
      ---         BLOCKEND  ---      ---       LVL=1
      010059B4H   LINE      CODE     ---       #509
      010059B4H   LINE      CODE     ---       #511
      010059B6H   LINE      CODE     ---       #595
      010059C9H   LINE      CODE     ---       #597
      010059C9H   LINE      CODE     ---       #599
      010059CEH   LINE      CODE     ---       #601
      010059D3H   LINE      CODE     ---       #602
      010059D5H   LINE      CODE     ---       #603
      010059DAH   LINE      CODE     ---       #605
      010059E0H   LINE      CODE     ---       #606
      010059E2H   LINE      CODE     ---       #607
      010059E7H   LINE      CODE     ---       #609
      010059F3H   LINE      CODE     ---       #610
      010059F5H   LINE      CODE     ---       #611
      010059F5H   LINE      CODE     ---       #613
      010059FAH   LINE      CODE     ---       #614
      010059FAH   LINE      CODE     ---       #616
      01005A04H   LINE      CODE     ---       #618
      01005A07H   LINE      CODE     ---       #620
      01005A07H   LINE      CODE     ---       #622
      01005A0CH   LINE      CODE     ---       #624
      01005A12H   LINE      CODE     ---       #625
      01005A14H   LINE      CODE     ---       #626
      01005A19H   LINE      CODE     ---       #628
      01005A19H   LINE      CODE     ---       #629
      01005A1BH   LINE      CODE     ---       #630
      01005A20H   LINE      CODE     ---       #632
      01005A26H   LINE      CODE     ---       #633
      01005A28H   LINE      CODE     ---       #634
      01005A2DH   LINE      CODE     ---       #636
      01005A40H   LINE      CODE     ---       #637
      01005A42H   LINE      CODE     ---       #638
      01005A42H   LINE      CODE     ---       #640
      01005A47H   LINE      CODE     ---       #641
      01005A47H   LINE      CODE     ---       #643
      01005A4EH   LINE      CODE     ---       #645
      01005A50H   LINE      CODE     ---       #647
      01005A50H   LINE      CODE     ---       #649
      01005A55H   LINE      CODE     ---       #651
      01005A5BH   LINE      CODE     ---       #652
      01005A5DH   LINE      CODE     ---       #653
      01005A62H   LINE      CODE     ---       #655
      01005A68H   LINE      CODE     ---       #656
      01005A6AH   LINE      CODE     ---       #657
      01005A6FH   LINE      CODE     ---       #659
      01005A7BH   LINE      CODE     ---       #660
      01005A7DH   LINE      CODE     ---       #661
      01005A7DH   LINE      CODE     ---       #663
      01005A82H   LINE      CODE     ---       #664
LX51 LINKER/LOCATER V4.66.41.0                                                        12/07/2018  17:31:29  PAGE 100


      01005A82H   LINE      CODE     ---       #666
      01005A89H   LINE      CODE     ---       #668
      01005A89H   LINE      CODE     ---       #670
      01005A89H   LINE      CODE     ---       #671
      01005A89H   LINE      CODE     ---       #673
      01005A9AH   LINE      CODE     ---       #675
      01005AA0H   LINE      CODE     ---       #676
      01005AA8H   LINE      CODE     ---       #678
      01005AAAH   LINE      CODE     ---       #680
      01005AB0H   LINE      CODE     ---       #681
      01005AB0H   LINE      CODE     ---       #683
      01005ABDH   LINE      CODE     ---       #684
      01005AC9H   LINE      CODE     ---       #686
      ---         BLOCKEND  ---      ---       LVL=0

      01005883H   BLOCK     CODE     ---       LVL=0
      0000002AH   SYMBOL    DATA     BYTE      statusPad
      0000002BH   SYMBOL    DATA     BYTE      statusCfm
      010058A0H   BLOCK     CODE     NEAR LAB  LVL=1
      00000022H.6 SYMBOL    BIT      BIT       tipsBeep_IF
      ---         BLOCKEND  ---      ---       LVL=1
      01005883H   LINE      CODE     ---       #688
      01005887H   LINE      CODE     ---       #690
      010058A0H   LINE      CODE     ---       #692
      010058A0H   LINE      CODE     ---       #694
      010058A2H   LINE      CODE     ---       #698
      010058B1H   LINE      CODE     ---       #699
      010058C9H   LINE      CODE     ---       #700
      010058D2H   LINE      CODE     ---       #701
      010058D2H   LINE      CODE     ---       #703
      010058D2H   LINE      CODE     ---       #705
      010058D4H   LINE      CODE     ---       #707
      010058D4H   LINE      CODE     ---       #710
      010058D4H   LINE      CODE     ---       #711
      010058E3H   LINE      CODE     ---       #712
      010058FBH   LINE      CODE     ---       #713
      01005904H   LINE      CODE     ---       #714
      01005904H   LINE      CODE     ---       #716
      0100590AH   LINE      CODE     ---       #718
      01005912H   LINE      CODE     ---       #719
      01005914H   LINE      CODE     ---       #721
      01005919H   LINE      CODE     ---       #723
      0100591CH   LINE      CODE     ---       #725
      0100591CH   LINE      CODE     ---       #727
      0100591FH   LINE      CODE     ---       #729
      01005921H   LINE      CODE     ---       #731
      01005924H   LINE      CODE     ---       #734
      01005924H   LINE      CODE     ---       #735
      01005933H   LINE      CODE     ---       #736
      0100593CH   LINE      CODE     ---       #737
      0100593CH   LINE      CODE     ---       #738
      0100593CH   LINE      CODE     ---       #740
      0100593EH   LINE      CODE     ---       #743
      0100593EH   LINE      CODE     ---       #744
      0100594DH   LINE      CODE     ---       #745
      01005965H   LINE      CODE     ---       #746
      0100596EH   LINE      CODE     ---       #747
      0100596EH   LINE      CODE     ---       #749
      01005970H   LINE      CODE     ---       #751
      01005970H   LINE      CODE     ---       #754
      01005970H   LINE      CODE     ---       #756
      01005970H   LINE      CODE     ---       #759
      01005970H   LINE      CODE     ---       #761
      01005970H   LINE      CODE     ---       #764
      01005970H   LINE      CODE     ---       #766
LX51 LINKER/LOCATER V4.66.41.0                                                        12/07/2018  17:31:29  PAGE 101


      01005970H   LINE      CODE     ---       #767
      01005970H   LINE      CODE     ---       #768
      01005970H   LINE      CODE     ---       #770
      01005970H   LINE      CODE     ---       #772
      01005970H   LINE      CODE     ---       #775
      01005970H   LINE      CODE     ---       #776
      0100597FH   LINE      CODE     ---       #777
      01005997H   LINE      CODE     ---       #778
      010059A0H   LINE      CODE     ---       #779
      010059A0H   LINE      CODE     ---       #781
      010059A5H   LINE      CODE     ---       #783
      010059A5H   LINE      CODE     ---       #785
      010059A5H   LINE      CODE     ---       #787
      010059A5H   LINE      CODE     ---       #789
      010059A5H   LINE      CODE     ---       #791
      010059A5H   LINE      CODE     ---       #792
      010059A5H   LINE      CODE     ---       #794
      010059A5H   LINE      CODE     ---       #796
      010059A5H   LINE      CODE     ---       #797
      010059A5H   LINE      CODE     ---       #799
      010059ABH   LINE      CODE     ---       #801
      010059B1H   LINE      CODE     ---       #802
      010059B3H   LINE      CODE     ---       #803
      010059B3H   LINE      CODE     ---       #804
      ---         BLOCKEND  ---      ---       LVL=0

      01006C0EH   BLOCK     CODE     ---       LVL=0
      0000002AH   SYMBOL    DATA     BYTE      statusPad
      0000002BH   SYMBOL    DATA     BYTE      loopCount
      01006C0EH   LINE      CODE     ---       #806
      01006C12H   LINE      CODE     ---       #808
      01006C18H   LINE      CODE     ---       #809
      01006C1FH   LINE      CODE     ---       #812
      01006C1FH   LINE      CODE     ---       #813
      01006C2EH   LINE      CODE     ---       #814
      01006C4CH   LINE      CODE     ---       #815
      01006C55H   LINE      CODE     ---       #816
      01006C55H   LINE      CODE     ---       #819
      01006C63H   LINE      CODE     ---       #821
      01006C63H   LINE      CODE     ---       #823
      01006C69H   LINE      CODE     ---       #825
      01006C69H   LINE      CODE     ---       #827
      01006C69H   LINE      CODE     ---       #829
      01006C69H   LINE      CODE     ---       #831
      01006C6CH   LINE      CODE     ---       #833
      01006C6EH   LINE      CODE     ---       #835
      01006C6EH   LINE      CODE     ---       #836
      01006C6EH   LINE      CODE     ---       #838
      01006C6EH   LINE      CODE     ---       #840
      01006C6EH   LINE      CODE     ---       #842
      01006C70H   LINE      CODE     ---       #844
      01006C70H   LINE      CODE     ---       #846
      01006C70H   LINE      CODE     ---       #847
      01006C70H   LINE      CODE     ---       #849
      01006C70H   LINE      CODE     ---       #851
      01006C70H   LINE      CODE     ---       #853
      01006C76H   LINE      CODE     ---       #855
      01006C76H   LINE      CODE     ---       #857
      01006C76H   LINE      CODE     ---       #859
      01006C79H   LINE      CODE     ---       #861
      01006C79H   LINE      CODE     ---       #863
      01006C79H   LINE      CODE     ---       #864
      01006C79H   LINE      CODE     ---       #866
      01006C79H   LINE      CODE     ---       #868
      01006C79H   LINE      CODE     ---       #869
LX51 LINKER/LOCATER V4.66.41.0                                                        12/07/2018  17:31:29  PAGE 102


      01006C79H   LINE      CODE     ---       #871
      01006C7FH   LINE      CODE     ---       #872
      01006C81H   LINE      CODE     ---       #873
      ---         BLOCKEND  ---      ---       LVL=0

      010075D5H   BLOCK     CODE     ---       LVL=0
      010075D5H   LINE      CODE     ---       #880
      010075D5H   LINE      CODE     ---       #882
      010075DAH   LINE      CODE     ---       #883
      ---         BLOCKEND  ---      ---       LVL=0

      010074FBH   BLOCK     CODE     ---       LVL=0
      010074FBH   LINE      CODE     ---       #886
      010074FBH   LINE      CODE     ---       #888
      01007500H   LINE      CODE     ---       #890
      01007506H   LINE      CODE     ---       #891
      0100750DH   LINE      CODE     ---       #893
      ---         BLOCKEND  ---      ---       LVL=0

      ---         MODULE    ---      ---       RELAY
      00000025H.7 PUBLIC    BIT      BIT       statusRelay_saveEn
      02000660H   PUBLIC    XDATA    BYTE      relayStatus_ifSave
      0200065DH   PUBLIC    XDATA    ---       curtainAct_Param
      0200065BH   PUBLIC    XDATA    ---       devActionPush_IF
      00000025H.6 PUBLIC    BIT      BIT       EACHCTRL_reportFLG
      0200065AH   PUBLIC    XDATA    BYTE      status_Relay
      02000659H   PUBLIC    XDATA    BYTE      EACHCTRL_realesFLG
      02000657H   PUBLIC    XDATA    ---       swCommand_fromUsr
      010071DBH   PUBLIC    CODE     ---       thread_Relay
      00000027H   PUBLIC    DATA     BYTE      ?relay_Act?BYTE
      01006085H   PUBLIC    CODE     ---       relay_Act
      0100719FH   PUBLIC    CODE     ---       relay_pinInit
      010062E3H   PUBLIC    CODE     ---       relay_statusReales
      000000D8H.2 SFRSYM    DATA     BIT       CCF2
      000000E0H.7 SFRSYM    DATA     BIT       ACC7
      00000093H   SFRSYM    DATA     BYTE      P0M1
      00000092H   SFRSYM    DATA     BYTE      P1M0
      00000096H   SFRSYM    DATA     BYTE      P2M0
      00000091H   SFRSYM    DATA     BYTE      P1M1
      00000080H   SFRSYM    DATA     BYTE      P0
      000000B2H   SFRSYM    DATA     BYTE      P3M0
      00000095H   SFRSYM    DATA     BYTE      P2M1
      00000090H   SFRSYM    DATA     BYTE      P1
      000000B4H   SFRSYM    DATA     BYTE      P4M0
      000000B1H   SFRSYM    DATA     BYTE      P3M1
      000000A0H   SFRSYM    DATA     BYTE      P2
      000000CAH   SFRSYM    DATA     BYTE      P5M0
      000000B3H   SFRSYM    DATA     BYTE      P4M1
      000000B0H   SFRSYM    DATA     BYTE      P3
      000000ABH   SFRSYM    DATA     BYTE      WKTCH
      000000B0H.4 SFRSYM    DATA     BIT       T0
      000000D0H.6 SFRSYM    DATA     BIT       AC
      000000CCH   SFRSYM    DATA     BYTE      P6M0
      000000C9H   SFRSYM    DATA     BYTE      P5M1
      000000C0H   SFRSYM    DATA     BYTE      P4
      000000B0H.5 SFRSYM    DATA     BIT       CLKOUT0
      000000B0H.5 SFRSYM    DATA     BIT       T1
      000000E2H   SFRSYM    DATA     BYTE      P7M0
      000000CBH   SFRSYM    DATA     BYTE      P6M1
      000000C8H   SFRSYM    DATA     BYTE      P5
      000000C6H   SFRSYM    DATA     BYTE      ISP_TRIG
      000000A8H.7 SFRSYM    DATA     BIT       EA
      000000B0H.4 SFRSYM    DATA     BIT       CLKOUT1
      000000A0H.4 SFRSYM    DATA     BIT       SPI_SS_2
      000000E8H   SFRSYM    DATA     BYTE      P6
LX51 LINKER/LOCATER V4.66.41.0                                                        12/07/2018  17:31:29  PAGE 103


      000000E1H   SFRSYM    DATA     BYTE      P7M1
      000000C8H.4 SFRSYM    DATA     BIT       SPI_SS_3
      00000090H.4 SFRSYM    DATA     BIT       SPI_MISO
      00000090H.3 SFRSYM    DATA     BIT       SPI_MOSI
      00000090H.1 SFRSYM    DATA     BIT       CCP0
      000000F8H   SFRSYM    DATA     BYTE      P7
      000000AAH   SFRSYM    DATA     BYTE      WKTCL
      00000090H   SFRSYM    DATA     BIT       CCP1
      000000CEH   SFRSYM    DATA     BYTE      SPCTL
      000000D8H.7 SFRSYM    DATA     BIT       CF
      000000B0H.7 SFRSYM    DATA     BIT       CCP2
      000000F9H   SFRSYM    DATA     BYTE      CH
      000000A2H   SFRSYM    DATA     BYTE      P_SW1
      000000BAH   SFRSYM    DATA     BYTE      P_SW2
      000000A8H.5 SFRSYM    DATA     BIT       EADC
      000000A0H.1 SFRSYM    DATA     BIT       SPI_SCLK_2
      000000A8H   SFRSYM    DATA     BYTE      IE
      000000C0H.3 SFRSYM    DATA     BIT       SPI_SCLK_3
      000000E9H   SFRSYM    DATA     BYTE      CL
      000000C5H   SFRSYM    DATA     BYTE      IAP_CMD
      000000FAH   SFRSYM    DATA     BYTE      CCAP0H
      000000FBH   SFRSYM    DATA     BYTE      CCAP1H
      000000FCH   SFRSYM    DATA     BYTE      CCAP2H
      000000BDH   SFRSYM    DATA     BYTE      ADC_RES
      000000B6H   SFRSYM    DATA     BYTE      IPH2
      000000D8H.6 SFRSYM    DATA     BIT       CR
      000000EAH   SFRSYM    DATA     BYTE      CCAP0L
      000000B0H.7 SFRSYM    DATA     BIT       RD
      000000EBH   SFRSYM    DATA     BYTE      CCAP1L
      000000DAH   SFRSYM    DATA     BYTE      CCAPM0
      000000ECH   SFRSYM    DATA     BYTE      CCAP2L
      000000DBH   SFRSYM    DATA     BYTE      CCAPM1
      000000A8H.4 SFRSYM    DATA     BIT       ES
      000000DCH   SFRSYM    DATA     BYTE      CCAPM2
      000000B8H.5 SFRSYM    DATA     BIT       PADC
      000000A0H.2 SFRSYM    DATA     BIT       SPI_MISO_2
      000000A0H.3 SFRSYM    DATA     BIT       SPI_MOSI_2
      000000B8H   SFRSYM    DATA     BYTE      IP
      000000C0H.1 SFRSYM    DATA     BIT       SPI_MISO_3
      000000C0H   SFRSYM    DATA     BIT       SPI_MOSI_3
      00000098H   SFRSYM    DATA     BIT       RI
      000000B0H.2 SFRSYM    DATA     BIT       INT0
      000000D0H.7 SFRSYM    DATA     BIT       CY
      00000098H.1 SFRSYM    DATA     BIT       TI
      000000B0H.3 SFRSYM    DATA     BIT       INT1
      00000097H   SFRSYM    DATA     BYTE      CLK_DIV
      000000C3H   SFRSYM    DATA     BYTE      IAP_ADDRH
      00000090H   SFRSYM    DATA     BIT       RXD2
      000000C5H   SFRSYM    DATA     BYTE      ISP_CMD
      000000B8H.4 SFRSYM    DATA     BIT       PS
      00000090H.1 SFRSYM    DATA     BIT       TXD2
      00000081H   SFRSYM    DATA     BYTE      SP
      000000D9H   SFRSYM    DATA     BYTE      CMOD
      000000D8H   SFRSYM    DATA     BYTE      CCON
      000000C4H   SFRSYM    DATA     BYTE      IAP_ADDRL
      000000B8H.7 SFRSYM    DATA     BIT       PPCA
      000000D0H.2 SFRSYM    DATA     BIT       OV
      000000B0H.6 SFRSYM    DATA     BIT       WR
      000000A8H.6 SFRSYM    DATA     BIT       ELVD
      00000080H   SFRSYM    DATA     BIT       P00
      00000090H   SFRSYM    DATA     BIT       P10
      00000080H.1 SFRSYM    DATA     BIT       P01
      000000BCH   SFRSYM    DATA     BYTE      ADC_CONTR
      00000099H   SFRSYM    DATA     BYTE      SBUF
      00000087H   SFRSYM    DATA     BYTE      PCON
LX51 LINKER/LOCATER V4.66.41.0                                                        12/07/2018  17:31:29  PAGE 104


      000000A0H   SFRSYM    DATA     BIT       P20
      00000090H.1 SFRSYM    DATA     BIT       P11
      00000080H.2 SFRSYM    DATA     BIT       P02
      000000C3H   SFRSYM    DATA     BYTE      ISP_ADDRH
      000000B0H   SFRSYM    DATA     BIT       P30
      000000A0H.1 SFRSYM    DATA     BIT       P21
      00000090H.2 SFRSYM    DATA     BIT       P12
      00000080H.3 SFRSYM    DATA     BIT       P03
      000000C0H   SFRSYM    DATA     BIT       P40
      000000B0H.1 SFRSYM    DATA     BIT       P31
      000000A0H.2 SFRSYM    DATA     BIT       P22
      00000090H.3 SFRSYM    DATA     BIT       P13
      00000080H.4 SFRSYM    DATA     BIT       P04
      00000098H   SFRSYM    DATA     BYTE      SCON
      0000008FH   SFRSYM    DATA     BYTE      WAKE_CLKO
      000000C8H   SFRSYM    DATA     BIT       P50
      000000C0H.1 SFRSYM    DATA     BIT       P41
      000000B0H.2 SFRSYM    DATA     BIT       P32
      000000A0H.3 SFRSYM    DATA     BIT       P23
      00000090H.4 SFRSYM    DATA     BIT       P14
      00000080H.5 SFRSYM    DATA     BIT       P05
      00000089H   SFRSYM    DATA     BYTE      TMOD
      00000088H   SFRSYM    DATA     BYTE      TCON
      000000C8H.1 SFRSYM    DATA     BIT       P51
      000000C0H.2 SFRSYM    DATA     BIT       P42
      000000B0H.3 SFRSYM    DATA     BIT       P33
      000000A0H.4 SFRSYM    DATA     BIT       P24
      00000090H.5 SFRSYM    DATA     BIT       P15
      00000080H.6 SFRSYM    DATA     BIT       P06
      000000C4H   SFRSYM    DATA     BYTE      ISP_ADDRL
      000000B8H.6 SFRSYM    DATA     BIT       PLVD
      000000C8H.2 SFRSYM    DATA     BIT       P52
      000000C0H.3 SFRSYM    DATA     BIT       P43
      000000B0H.4 SFRSYM    DATA     BIT       P34
      000000A0H.5 SFRSYM    DATA     BIT       P25
      00000090H.6 SFRSYM    DATA     BIT       P16
      00000080H.7 SFRSYM    DATA     BIT       P07
      000000C8H.3 SFRSYM    DATA     BIT       P53
      000000C0H.4 SFRSYM    DATA     BIT       P44
      000000B0H.5 SFRSYM    DATA     BIT       P35
      000000A0H.6 SFRSYM    DATA     BIT       P26
      00000090H.7 SFRSYM    DATA     BIT       P17
      000000C8H.4 SFRSYM    DATA     BIT       P54
      000000C0H.5 SFRSYM    DATA     BIT       P45
      000000B0H.6 SFRSYM    DATA     BIT       P36
      000000A0H.7 SFRSYM    DATA     BIT       P27
      000000C8H.5 SFRSYM    DATA     BIT       P55
      000000C0H.6 SFRSYM    DATA     BIT       P46
      000000B0H.7 SFRSYM    DATA     BIT       P37
      000000C8H.6 SFRSYM    DATA     BIT       P56
      000000C0H.7 SFRSYM    DATA     BIT       P47
      000000C8H.7 SFRSYM    DATA     BIT       P57
      00000088H.1 SFRSYM    DATA     BIT       IE0
      000000A1H   SFRSYM    DATA     BYTE      BUS_SPEED
      00000088H.3 SFRSYM    DATA     BIT       IE1
      000000AFH   SFRSYM    DATA     BYTE      IE2
      000000F0H   SFRSYM    DATA     BYTE      B
      0000008EH   SFRSYM    DATA     BYTE      AUXR
      000000C7H   SFRSYM    DATA     BYTE      IAP_CONTR
      000000E0H   SFRSYM    DATA     BYTE      ACC
      000000A8H.1 SFRSYM    DATA     BIT       ET0
      000000A8H.3 SFRSYM    DATA     BIT       ET1
      00000088H.5 SFRSYM    DATA     BIT       TF0
      00000088H.7 SFRSYM    DATA     BIT       TF1
      000000B5H   SFRSYM    DATA     BYTE      IP2
LX51 LINKER/LOCATER V4.66.41.0                                                        12/07/2018  17:31:29  PAGE 105


      0000008CH   SFRSYM    DATA     BYTE      RL_TH0
      00000098H.2 SFRSYM    DATA     BIT       RB8
      0000008DH   SFRSYM    DATA     BYTE      RL_TH1
      0000008CH   SFRSYM    DATA     BYTE      TH0
      000000A8H   SFRSYM    DATA     BIT       EX0
      00000088H   SFRSYM    DATA     BIT       IT0
      000000D6H   SFRSYM    DATA     BYTE      RL_T2H
      0000008DH   SFRSYM    DATA     BYTE      TH1
      000000A8H.2 SFRSYM    DATA     BIT       EX1
      00000098H.3 SFRSYM    DATA     BIT       TB8
      00000088H.2 SFRSYM    DATA     BIT       IT1
      000000D4H   SFRSYM    DATA     BYTE      RL_T3H
      000000D6H   SFRSYM    DATA     BYTE      TH2
      000000D6H   SFRSYM    DATA     BYTE      T2H
      000000D0H   SFRSYM    DATA     BIT       P
      000000D2H   SFRSYM    DATA     BYTE      RL_T4H
      000000D4H   SFRSYM    DATA     BYTE      TH3
      000000D4H   SFRSYM    DATA     BYTE      T3H
      0000008AH   SFRSYM    DATA     BYTE      RL_TL0
      00000098H.7 SFRSYM    DATA     BIT       SM0
      000000D2H   SFRSYM    DATA     BYTE      TH4
      000000D2H   SFRSYM    DATA     BYTE      T4H
      0000008BH   SFRSYM    DATA     BYTE      RL_TL1
      0000008AH   SFRSYM    DATA     BYTE      TL0
      00000098H.6 SFRSYM    DATA     BIT       SM1
      000000D7H   SFRSYM    DATA     BYTE      RL_T2L
      0000008BH   SFRSYM    DATA     BYTE      TL1
      00000098H.5 SFRSYM    DATA     BIT       SM2
      000000D5H   SFRSYM    DATA     BYTE      RL_T3L
      000000D7H   SFRSYM    DATA     BYTE      TL2
      000000D7H   SFRSYM    DATA     BYTE      T2L
      000000D3H   SFRSYM    DATA     BYTE      RL_T4L
      000000D5H   SFRSYM    DATA     BYTE      TL3
      000000D5H   SFRSYM    DATA     BYTE      T3L
      000000B8H.1 SFRSYM    DATA     BIT       PT0
      000000D3H   SFRSYM    DATA     BYTE      TL4
      000000D3H   SFRSYM    DATA     BYTE      T4L
      000000B8H.3 SFRSYM    DATA     BIT       PT1
      000000D0H.3 SFRSYM    DATA     BIT       RS0
      000000C7H   SFRSYM    DATA     BYTE      ISP_CONTR
      00000088H.4 SFRSYM    DATA     BIT       TR0
      000000D0H.4 SFRSYM    DATA     BIT       RS1
      000000C2H   SFRSYM    DATA     BYTE      IAP_DATA
      00000088H.6 SFRSYM    DATA     BIT       TR1
      000000B8H   SFRSYM    DATA     BIT       PX0
      000000C1H   SFRSYM    DATA     BYTE      WDT_CONTR
      000000B8H.2 SFRSYM    DATA     BIT       PX1
      000000F2H   SFRSYM    DATA     BYTE      PCA_PWM0
      000000F3H   SFRSYM    DATA     BYTE      PCA_PWM1
      000000F4H   SFRSYM    DATA     BYTE      PCA_PWM2
      0000009DH   SFRSYM    DATA     BYTE      P1ASF
      00000083H   SFRSYM    DATA     BYTE      DPH
      000000D1H   SFRSYM    DATA     BYTE      T4T3M
      000000BEH   SFRSYM    DATA     BYTE      ADC_RESL
      00000082H   SFRSYM    DATA     BYTE      DPL
      000000CDH   SFRSYM    DATA     BYTE      SPSTAT
      000000B7H   SFRSYM    DATA     BYTE      IPH
      0000009BH   SFRSYM    DATA     BYTE      S2BUF
      00000097H   SFRSYM    DATA     BYTE      PCON2
      000000ADH   SFRSYM    DATA     BYTE      S3BUF
      00000098H.4 SFRSYM    DATA     BIT       REN
      00000085H   SFRSYM    DATA     BYTE      S4BUF
      0000009AH   SFRSYM    DATA     BYTE      S2CON
      000000ACH   SFRSYM    DATA     BYTE      S3CON
      000000C2H   SFRSYM    DATA     BYTE      ISP_DATA
LX51 LINKER/LOCATER V4.66.41.0                                                        12/07/2018  17:31:29  PAGE 106


      00000084H   SFRSYM    DATA     BYTE      S4CON
      000000B9H   SFRSYM    DATA     BYTE      SADEN
      000000B0H   SFRSYM    DATA     BIT       RXD
      000000A9H   SFRSYM    DATA     BYTE      SADDR
      000000B0H.1 SFRSYM    DATA     BIT       TXD
      000000F0H   SFRSYM    DATA     BIT       B0
      000000F0H.1 SFRSYM    DATA     BIT       B1
      000000C6H   SFRSYM    DATA     BYTE      IAP_TRIG
      000000A2H   SFRSYM    DATA     BYTE      AUXR1
      000000F0H.2 SFRSYM    DATA     BIT       B2
      00000090H.2 SFRSYM    DATA     BIT       SPI_SS
      0000008FH   SFRSYM    DATA     BYTE      AUXR2
      000000F0H.3 SFRSYM    DATA     BIT       B3
      000000F0H.4 SFRSYM    DATA     BIT       B4
      000000D0H.5 SFRSYM    DATA     BIT       F0
      000000F0H.5 SFRSYM    DATA     BIT       B5
      000000D0H.1 SFRSYM    DATA     BIT       F1
      0000008FH   SFRSYM    DATA     BYTE      INT_CLKO
      000000F0H.6 SFRSYM    DATA     BIT       B6
      000000E0H   SFRSYM    DATA     BIT       ACC0
      000000F0H.7 SFRSYM    DATA     BIT       B7
      000000E0H.1 SFRSYM    DATA     BIT       ACC1
      000000E0H.2 SFRSYM    DATA     BIT       ACC2
      000000E0H.3 SFRSYM    DATA     BIT       ACC3
      000000D0H   SFRSYM    DATA     BYTE      PSW
      000000E0H.4 SFRSYM    DATA     BIT       ACC4
      00000090H.5 SFRSYM    DATA     BIT       SPI_SCLK
      000000D8H   SFRSYM    DATA     BIT       CCF0
      000000E0H.5 SFRSYM    DATA     BIT       ACC5
      000000D8H.1 SFRSYM    DATA     BIT       CCF1
      000000E0H.6 SFRSYM    DATA     BIT       ACC6
      000000CFH   SFRSYM    DATA     BYTE      SPDAT
      00000094H   SFRSYM    DATA     BYTE      P0M0

      010062E3H   BLOCK     CODE     ---       LVL=0
      010062E3H   LINE      CODE     ---       #33
      010062E3H   LINE      CODE     ---       #66
      010062F6H   LINE      CODE     ---       #68
      010062F6H   LINE      CODE     ---       #70
      01006302H   LINE      CODE     ---       #72
      01006302H   LINE      CODE     ---       #74
      01006304H   LINE      CODE     ---       #75
      01006308H   LINE      CODE     ---       #76
      0100630EH   LINE      CODE     ---       #78
      01006311H   LINE      CODE     ---       #80
      01006311H   LINE      CODE     ---       #82
      01006313H   LINE      CODE     ---       #83
      01006317H   LINE      CODE     ---       #84
      0100631DH   LINE      CODE     ---       #86
      0100631FH   LINE      CODE     ---       #88
      0100631FH   LINE      CODE     ---       #89
      0100631FH   LINE      CODE     ---       #91
      01006325H   LINE      CODE     ---       #92
      0100632AH   LINE      CODE     ---       #94
      0100632CH   LINE      CODE     ---       #95
      0100632CH   LINE      CODE     ---       #97
      0100632CH   LINE      CODE     ---       #99
      0100632CH   LINE      CODE     ---       #101
      0100633EH   LINE      CODE     ---       #103
      01006340H   LINE      CODE     ---       #105
      01006340H   LINE      CODE     ---       #107
      01006352H   LINE      CODE     ---       #108
      01006364H   LINE      CODE     ---       #110
      01006366H   LINE      CODE     ---       #112
      01006366H   LINE      CODE     ---       #114
LX51 LINKER/LOCATER V4.66.41.0                                                        12/07/2018  17:31:29  PAGE 107


      01006378H   LINE      CODE     ---       #115
      0100638AH   LINE      CODE     ---       #116
      0100639CH   LINE      CODE     ---       #118
      0100639CH   LINE      CODE     ---       #120
      0100639CH   LINE      CODE     ---       #121
      0100639CH   LINE      CODE     ---       #124
      ---         BLOCKEND  ---      ---       LVL=0

      0100719FH   BLOCK     CODE     ---       LVL=0
      0100719FH   BLOCK     CODE     NEAR LAB  LVL=1
      0000007DH   SYMBOL    IDATA    BYTE      statusTemp
      ---         BLOCKEND  ---      ---       LVL=1
      0100719FH   LINE      CODE     ---       #128
      0100719FH   LINE      CODE     ---       #130
      010071A3H   LINE      CODE     ---       #147
      010071A6H   LINE      CODE     ---       #148
      010071A9H   LINE      CODE     ---       #149
      010071AFH   LINE      CODE     ---       #153
      010071B6H   LINE      CODE     ---       #156
      010071BEH   LINE      CODE     ---       #161
      010071C2H   LINE      CODE     ---       #163
      010071C3H   LINE      CODE     ---       #165
      010071C7H   LINE      CODE     ---       #166
      010071D7H   LINE      CODE     ---       #167
      010071DAH   LINE      CODE     ---       #168
      010071DAH   LINE      CODE     ---       #169
      ---         BLOCKEND  ---      ---       LVL=0

      01006085H   BLOCK     CODE     ---       LVL=0
      00000027H   SYMBOL    DATA     ---       dats
      01006085H   BLOCK     CODE     NEAR LAB  LVL=1
      00000029H   SYMBOL    DATA     BYTE      statusTemp
      ---         BLOCKEND  ---      ---       LVL=1
      01006085H   LINE      CODE     ---       #182
      01006085H   LINE      CODE     ---       #184
      01006088H   LINE      CODE     ---       #192
      0100608FH   LINE      CODE     ---       #194
      01006094H   LINE      CODE     ---       #196
      0100609DH   LINE      CODE     ---       #198
      0100609DH   LINE      CODE     ---       #200
      010060A9H   LINE      CODE     ---       #201
      010060B5H   LINE      CODE     ---       #202
      010060C1H   LINE      CODE     ---       #204
      010060C3H   LINE      CODE     ---       #206
      010060C3H   LINE      CODE     ---       #208
      010060D5H   LINE      CODE     ---       #209
      010060E7H   LINE      CODE     ---       #210
      010060F9H   LINE      CODE     ---       #212
      010060F9H   LINE      CODE     ---       #214
      010060F9H   LINE      CODE     ---       #216
      010060FCH   LINE      CODE     ---       #218
      01006101H   LINE      CODE     ---       #219
      0100610CH   LINE      CODE     ---       #226
      0100611BH   LINE      CODE     ---       #227
      01006130H   LINE      CODE     ---       #228
      01006146H   LINE      CODE     ---       #230
      0100614FH   LINE      CODE     ---       #232
      01006156H   LINE      CODE     ---       #235
      0100615EH   LINE      CODE     ---       #240
      0100615EH   LINE      CODE     ---       #243
      ---         BLOCKEND  ---      ---       LVL=0

      010071DBH   BLOCK     CODE     ---       LVL=0
      01007207H   BLOCK     CODE     NEAR LAB  LVL=1
      0000007DH   SYMBOL    IDATA    BYTE      statusTemp
LX51 LINKER/LOCATER V4.66.41.0                                                        12/07/2018  17:31:29  PAGE 108


      ---         BLOCKEND  ---      ---       LVL=1
      010071DBH   LINE      CODE     ---       #246
      010071DBH   LINE      CODE     ---       #248
      010071E3H   LINE      CODE     ---       #250
      010071F9H   LINE      CODE     ---       #252
      010071FFH   LINE      CODE     ---       #253
      01007204H   LINE      CODE     ---       #254
      01007204H   LINE      CODE     ---       #256
      01007207H   LINE      CODE     ---       #258
      0100720BH   LINE      CODE     ---       #260
      0100720DH   LINE      CODE     ---       #272
      01007215H   LINE      CODE     ---       #277
      01007215H   LINE      CODE     ---       #278
      ---         BLOCKEND  ---      ---       LVL=0

      ---         MODULE    ---      ---       TIMERACT
      00000097H   PUBLIC    IDATA    BYTE      delayPeriod_onoff
      00000096H   PUBLIC    IDATA    BYTE      delayUp_act
      00000095H   PUBLIC    IDATA    BYTE      ifDelay_sw_running_FLAG
      00000093H   PUBLIC    IDATA    WORD      sysTimeKeep_counter
      00000091H   PUBLIC    IDATA    WORD      delayCnt_closeLoop
      00000090H   PUBLIC    IDATA    BYTE      swTim_oneShoot_FLAG
      0200060EH   PUBLIC    XDATA    BYTE      sysTimeZone_M
      0200060DH   PUBLIC    XDATA    BYTE      sysTimeZone_H
      0200060CH   PUBLIC    XDATA    BYTE      sysTimeReales_counter
      0000008EH   PUBLIC    IDATA    WORD      delayCnt_onoff
      00000025H.5 PUBLIC    BIT      BIT       ifTim_sw_running_FLAG
      02000605H   PUBLIC    XDATA    ---       systemTime_current
      0000008DH   PUBLIC    IDATA    BYTE      delayPeriod_closeLoop
      00000025H.4 PUBLIC    BIT      BIT       ifNightMode_sw_running_FLAG
      01003851H   PUBLIC    CODE     ---       thread_Timing
      00000028H   PUBLIC    DATA     BYTE      ?time_Logout?BYTE
      010066C6H   PUBLIC    CODE     ---       time_Logout
      010072AEH   PUBLIC    CODE     ---       _weekend_judge
      010075F1H   PUBLIC    CODE     ---       itrf_datsTimNight_read_eeprom
      01005DCFH   PUBLIC    CODE     ---       _datsTimNight_read_eeprom
      010075E8H   PUBLIC    CODE     ---       itrf_datsTiming_read_eeprom
      01005CE0H   PUBLIC    CODE     ---       _datsTiming_read_eeprom
      0100734FH   PUBLIC    CODE     ---       timeZone_Reales
      000000D8H.2 SFRSYM    DATA     BIT       CCF2
      000000E0H.7 SFRSYM    DATA     BIT       ACC7
      00000093H   SFRSYM    DATA     BYTE      P0M1
      00000092H   SFRSYM    DATA     BYTE      P1M0
      00000096H   SFRSYM    DATA     BYTE      P2M0
      00000091H   SFRSYM    DATA     BYTE      P1M1
      00000080H   SFRSYM    DATA     BYTE      P0
      000000B2H   SFRSYM    DATA     BYTE      P3M0
      00000095H   SFRSYM    DATA     BYTE      P2M1
      00000090H   SFRSYM    DATA     BYTE      P1
      000000B4H   SFRSYM    DATA     BYTE      P4M0
      000000B1H   SFRSYM    DATA     BYTE      P3M1
      000000A0H   SFRSYM    DATA     BYTE      P2
      000000CAH   SFRSYM    DATA     BYTE      P5M0
      000000B3H   SFRSYM    DATA     BYTE      P4M1
      000000B0H   SFRSYM    DATA     BYTE      P3
      000000ABH   SFRSYM    DATA     BYTE      WKTCH
      000000B0H.4 SFRSYM    DATA     BIT       T0
      000000D0H.6 SFRSYM    DATA     BIT       AC
      000000CCH   SFRSYM    DATA     BYTE      P6M0
      000000C9H   SFRSYM    DATA     BYTE      P5M1
      000000C0H   SFRSYM    DATA     BYTE      P4
      000000B0H.5 SFRSYM    DATA     BIT       CLKOUT0
      000000B0H.5 SFRSYM    DATA     BIT       T1
      000000E2H   SFRSYM    DATA     BYTE      P7M0
      000000CBH   SFRSYM    DATA     BYTE      P6M1
LX51 LINKER/LOCATER V4.66.41.0                                                        12/07/2018  17:31:29  PAGE 109


      000000C8H   SFRSYM    DATA     BYTE      P5
      000000C6H   SFRSYM    DATA     BYTE      ISP_TRIG
      000000A8H.7 SFRSYM    DATA     BIT       EA
      000000B0H.4 SFRSYM    DATA     BIT       CLKOUT1
      000000A0H.4 SFRSYM    DATA     BIT       SPI_SS_2
      000000E8H   SFRSYM    DATA     BYTE      P6
      000000E1H   SFRSYM    DATA     BYTE      P7M1
      000000C8H.4 SFRSYM    DATA     BIT       SPI_SS_3
      00000090H.4 SFRSYM    DATA     BIT       SPI_MISO
      00000090H.3 SFRSYM    DATA     BIT       SPI_MOSI
      00000090H.1 SFRSYM    DATA     BIT       CCP0
      000000F8H   SFRSYM    DATA     BYTE      P7
      000000AAH   SFRSYM    DATA     BYTE      WKTCL
      00000090H   SFRSYM    DATA     BIT       CCP1
      000000CEH   SFRSYM    DATA     BYTE      SPCTL
      000000D8H.7 SFRSYM    DATA     BIT       CF
      000000B0H.7 SFRSYM    DATA     BIT       CCP2
      000000F9H   SFRSYM    DATA     BYTE      CH
      000000A2H   SFRSYM    DATA     BYTE      P_SW1
      000000BAH   SFRSYM    DATA     BYTE      P_SW2
      000000A8H.5 SFRSYM    DATA     BIT       EADC
      000000A0H.1 SFRSYM    DATA     BIT       SPI_SCLK_2
      000000A8H   SFRSYM    DATA     BYTE      IE
      000000C0H.3 SFRSYM    DATA     BIT       SPI_SCLK_3
      000000E9H   SFRSYM    DATA     BYTE      CL
      000000C5H   SFRSYM    DATA     BYTE      IAP_CMD
      000000FAH   SFRSYM    DATA     BYTE      CCAP0H
      000000FBH   SFRSYM    DATA     BYTE      CCAP1H
      000000FCH   SFRSYM    DATA     BYTE      CCAP2H
      000000BDH   SFRSYM    DATA     BYTE      ADC_RES
      000000B6H   SFRSYM    DATA     BYTE      IPH2
      000000D8H.6 SFRSYM    DATA     BIT       CR
      000000EAH   SFRSYM    DATA     BYTE      CCAP0L
      000000B0H.7 SFRSYM    DATA     BIT       RD
      000000EBH   SFRSYM    DATA     BYTE      CCAP1L
      000000DAH   SFRSYM    DATA     BYTE      CCAPM0
      000000ECH   SFRSYM    DATA     BYTE      CCAP2L
      000000DBH   SFRSYM    DATA     BYTE      CCAPM1
      000000A8H.4 SFRSYM    DATA     BIT       ES
      000000DCH   SFRSYM    DATA     BYTE      CCAPM2
      000000B8H.5 SFRSYM    DATA     BIT       PADC
      000000A0H.2 SFRSYM    DATA     BIT       SPI_MISO_2
      000000A0H.3 SFRSYM    DATA     BIT       SPI_MOSI_2
      000000B8H   SFRSYM    DATA     BYTE      IP
      000000C0H.1 SFRSYM    DATA     BIT       SPI_MISO_3
      000000C0H   SFRSYM    DATA     BIT       SPI_MOSI_3
      00000098H   SFRSYM    DATA     BIT       RI
      000000B0H.2 SFRSYM    DATA     BIT       INT0
      000000D0H.7 SFRSYM    DATA     BIT       CY
      00000098H.1 SFRSYM    DATA     BIT       TI
      000000B0H.3 SFRSYM    DATA     BIT       INT1
      00000097H   SFRSYM    DATA     BYTE      CLK_DIV
      000000C3H   SFRSYM    DATA     BYTE      IAP_ADDRH
      00000090H   SFRSYM    DATA     BIT       RXD2
      000000C5H   SFRSYM    DATA     BYTE      ISP_CMD
      000000B8H.4 SFRSYM    DATA     BIT       PS
      00000090H.1 SFRSYM    DATA     BIT       TXD2
      00000081H   SFRSYM    DATA     BYTE      SP
      000000D9H   SFRSYM    DATA     BYTE      CMOD
      000000D8H   SFRSYM    DATA     BYTE      CCON
      000000C4H   SFRSYM    DATA     BYTE      IAP_ADDRL
      000000B8H.7 SFRSYM    DATA     BIT       PPCA
      000000D0H.2 SFRSYM    DATA     BIT       OV
      000000B0H.6 SFRSYM    DATA     BIT       WR
      000000A8H.6 SFRSYM    DATA     BIT       ELVD
LX51 LINKER/LOCATER V4.66.41.0                                                        12/07/2018  17:31:29  PAGE 110


      00000080H   SFRSYM    DATA     BIT       P00
      00000090H   SFRSYM    DATA     BIT       P10
      00000080H.1 SFRSYM    DATA     BIT       P01
      000000BCH   SFRSYM    DATA     BYTE      ADC_CONTR
      00000099H   SFRSYM    DATA     BYTE      SBUF
      00000087H   SFRSYM    DATA     BYTE      PCON
      000000A0H   SFRSYM    DATA     BIT       P20
      00000090H.1 SFRSYM    DATA     BIT       P11
      00000080H.2 SFRSYM    DATA     BIT       P02
      000000C3H   SFRSYM    DATA     BYTE      ISP_ADDRH
      000000B0H   SFRSYM    DATA     BIT       P30
      000000A0H.1 SFRSYM    DATA     BIT       P21
      00000090H.2 SFRSYM    DATA     BIT       P12
      00000080H.3 SFRSYM    DATA     BIT       P03
      000000C0H   SFRSYM    DATA     BIT       P40
      000000B0H.1 SFRSYM    DATA     BIT       P31
      000000A0H.2 SFRSYM    DATA     BIT       P22
      00000090H.3 SFRSYM    DATA     BIT       P13
      00000080H.4 SFRSYM    DATA     BIT       P04
      00000098H   SFRSYM    DATA     BYTE      SCON
      0000008FH   SFRSYM    DATA     BYTE      WAKE_CLKO
      000000C8H   SFRSYM    DATA     BIT       P50
      000000C0H.1 SFRSYM    DATA     BIT       P41
      000000B0H.2 SFRSYM    DATA     BIT       P32
      000000A0H.3 SFRSYM    DATA     BIT       P23
      00000090H.4 SFRSYM    DATA     BIT       P14
      00000080H.5 SFRSYM    DATA     BIT       P05
      00000089H   SFRSYM    DATA     BYTE      TMOD
      00000088H   SFRSYM    DATA     BYTE      TCON
      000000C8H.1 SFRSYM    DATA     BIT       P51
      000000C0H.2 SFRSYM    DATA     BIT       P42
      000000B0H.3 SFRSYM    DATA     BIT       P33
      000000A0H.4 SFRSYM    DATA     BIT       P24
      00000090H.5 SFRSYM    DATA     BIT       P15
      00000080H.6 SFRSYM    DATA     BIT       P06
      000000C4H   SFRSYM    DATA     BYTE      ISP_ADDRL
      000000B8H.6 SFRSYM    DATA     BIT       PLVD
      000000C8H.2 SFRSYM    DATA     BIT       P52
      000000C0H.3 SFRSYM    DATA     BIT       P43
      000000B0H.4 SFRSYM    DATA     BIT       P34
      000000A0H.5 SFRSYM    DATA     BIT       P25
      00000090H.6 SFRSYM    DATA     BIT       P16
      00000080H.7 SFRSYM    DATA     BIT       P07
      000000C8H.3 SFRSYM    DATA     BIT       P53
      000000C0H.4 SFRSYM    DATA     BIT       P44
      000000B0H.5 SFRSYM    DATA     BIT       P35
      000000A0H.6 SFRSYM    DATA     BIT       P26
      00000090H.7 SFRSYM    DATA     BIT       P17
      000000C8H.4 SFRSYM    DATA     BIT       P54
      000000C0H.5 SFRSYM    DATA     BIT       P45
      000000B0H.6 SFRSYM    DATA     BIT       P36
      000000A0H.7 SFRSYM    DATA     BIT       P27
      000000C8H.5 SFRSYM    DATA     BIT       P55
      000000C0H.6 SFRSYM    DATA     BIT       P46
      000000B0H.7 SFRSYM    DATA     BIT       P37
      000000C8H.6 SFRSYM    DATA     BIT       P56
      000000C0H.7 SFRSYM    DATA     BIT       P47
      000000C8H.7 SFRSYM    DATA     BIT       P57
      00000088H.1 SFRSYM    DATA     BIT       IE0
      000000A1H   SFRSYM    DATA     BYTE      BUS_SPEED
      00000088H.3 SFRSYM    DATA     BIT       IE1
      000000AFH   SFRSYM    DATA     BYTE      IE2
      000000F0H   SFRSYM    DATA     BYTE      B
      0000008EH   SFRSYM    DATA     BYTE      AUXR
      000000C7H   SFRSYM    DATA     BYTE      IAP_CONTR
LX51 LINKER/LOCATER V4.66.41.0                                                        12/07/2018  17:31:29  PAGE 111


      000000E0H   SFRSYM    DATA     BYTE      ACC
      000000A8H.1 SFRSYM    DATA     BIT       ET0
      000000A8H.3 SFRSYM    DATA     BIT       ET1
      00000088H.5 SFRSYM    DATA     BIT       TF0
      00000088H.7 SFRSYM    DATA     BIT       TF1
      000000B5H   SFRSYM    DATA     BYTE      IP2
      0000008CH   SFRSYM    DATA     BYTE      RL_TH0
      00000098H.2 SFRSYM    DATA     BIT       RB8
      0000008DH   SFRSYM    DATA     BYTE      RL_TH1
      0000008CH   SFRSYM    DATA     BYTE      TH0
      000000A8H   SFRSYM    DATA     BIT       EX0
      00000088H   SFRSYM    DATA     BIT       IT0
      000000D6H   SFRSYM    DATA     BYTE      RL_T2H
      0000008DH   SFRSYM    DATA     BYTE      TH1
      000000A8H.2 SFRSYM    DATA     BIT       EX1
      00000098H.3 SFRSYM    DATA     BIT       TB8
      00000088H.2 SFRSYM    DATA     BIT       IT1
      000000D4H   SFRSYM    DATA     BYTE      RL_T3H
      000000D6H   SFRSYM    DATA     BYTE      TH2
      000000D6H   SFRSYM    DATA     BYTE      T2H
      000000D0H   SFRSYM    DATA     BIT       P
      000000D2H   SFRSYM    DATA     BYTE      RL_T4H
      000000D4H   SFRSYM    DATA     BYTE      TH3
      000000D4H   SFRSYM    DATA     BYTE      T3H
      0000008AH   SFRSYM    DATA     BYTE      RL_TL0
      00000098H.7 SFRSYM    DATA     BIT       SM0
      000000D2H   SFRSYM    DATA     BYTE      TH4
      000000D2H   SFRSYM    DATA     BYTE      T4H
      0000008BH   SFRSYM    DATA     BYTE      RL_TL1
      0000008AH   SFRSYM    DATA     BYTE      TL0
      00000098H.6 SFRSYM    DATA     BIT       SM1
      000000D7H   SFRSYM    DATA     BYTE      RL_T2L
      0000008BH   SFRSYM    DATA     BYTE      TL1
      00000098H.5 SFRSYM    DATA     BIT       SM2
      000000D5H   SFRSYM    DATA     BYTE      RL_T3L
      000000D7H   SFRSYM    DATA     BYTE      TL2
      000000D7H   SFRSYM    DATA     BYTE      T2L
      000000D3H   SFRSYM    DATA     BYTE      RL_T4L
      000000D5H   SFRSYM    DATA     BYTE      TL3
      000000D5H   SFRSYM    DATA     BYTE      T3L
      000000B8H.1 SFRSYM    DATA     BIT       PT0
      000000D3H   SFRSYM    DATA     BYTE      TL4
      000000D3H   SFRSYM    DATA     BYTE      T4L
      000000B8H.3 SFRSYM    DATA     BIT       PT1
      000000D0H.3 SFRSYM    DATA     BIT       RS0
      000000C7H   SFRSYM    DATA     BYTE      ISP_CONTR
      00000088H.4 SFRSYM    DATA     BIT       TR0
      000000D0H.4 SFRSYM    DATA     BIT       RS1
      000000C2H   SFRSYM    DATA     BYTE      IAP_DATA
      00000088H.6 SFRSYM    DATA     BIT       TR1
      000000B8H   SFRSYM    DATA     BIT       PX0
      000000C1H   SFRSYM    DATA     BYTE      WDT_CONTR
      000000B8H.2 SFRSYM    DATA     BIT       PX1
      000000F2H   SFRSYM    DATA     BYTE      PCA_PWM0
      000000F3H   SFRSYM    DATA     BYTE      PCA_PWM1
      000000F4H   SFRSYM    DATA     BYTE      PCA_PWM2
      0000009DH   SFRSYM    DATA     BYTE      P1ASF
      00000083H   SFRSYM    DATA     BYTE      DPH
      000000D1H   SFRSYM    DATA     BYTE      T4T3M
      000000BEH   SFRSYM    DATA     BYTE      ADC_RESL
      00000082H   SFRSYM    DATA     BYTE      DPL
      000000CDH   SFRSYM    DATA     BYTE      SPSTAT
      000000B7H   SFRSYM    DATA     BYTE      IPH
      0000009BH   SFRSYM    DATA     BYTE      S2BUF
      00000097H   SFRSYM    DATA     BYTE      PCON2
LX51 LINKER/LOCATER V4.66.41.0                                                        12/07/2018  17:31:29  PAGE 112


      000000ADH   SFRSYM    DATA     BYTE      S3BUF
      00000098H.4 SFRSYM    DATA     BIT       REN
      00000085H   SFRSYM    DATA     BYTE      S4BUF
      0000009AH   SFRSYM    DATA     BYTE      S2CON
      000000ACH   SFRSYM    DATA     BYTE      S3CON
      000000C2H   SFRSYM    DATA     BYTE      ISP_DATA
      00000084H   SFRSYM    DATA     BYTE      S4CON
      000000B9H   SFRSYM    DATA     BYTE      SADEN
      000000B0H   SFRSYM    DATA     BIT       RXD
      000000A9H   SFRSYM    DATA     BYTE      SADDR
      000000B0H.1 SFRSYM    DATA     BIT       TXD
      000000F0H   SFRSYM    DATA     BIT       B0
      000000F0H.1 SFRSYM    DATA     BIT       B1
      000000C6H   SFRSYM    DATA     BYTE      IAP_TRIG
      000000A2H   SFRSYM    DATA     BYTE      AUXR1
      000000F0H.2 SFRSYM    DATA     BIT       B2
      00000090H.2 SFRSYM    DATA     BIT       SPI_SS
      0000008FH   SFRSYM    DATA     BYTE      AUXR2
      000000F0H.3 SFRSYM    DATA     BIT       B3
      000000F0H.4 SFRSYM    DATA     BIT       B4
      000000D0H.5 SFRSYM    DATA     BIT       F0
      000000F0H.5 SFRSYM    DATA     BIT       B5
      000000D0H.1 SFRSYM    DATA     BIT       F1
      0000008FH   SFRSYM    DATA     BYTE      INT_CLKO
      000000F0H.6 SFRSYM    DATA     BIT       B6
      000000E0H   SFRSYM    DATA     BIT       ACC0
      000000F0H.7 SFRSYM    DATA     BIT       B7
      000000E0H.1 SFRSYM    DATA     BIT       ACC1
      000000E0H.2 SFRSYM    DATA     BIT       ACC2
      000000E0H.3 SFRSYM    DATA     BIT       ACC3
      000000D0H   SFRSYM    DATA     BYTE      PSW
      000000E0H.4 SFRSYM    DATA     BIT       ACC4
      00000090H.5 SFRSYM    DATA     BIT       SPI_SCLK
      000000D8H   SFRSYM    DATA     BIT       CCF0
      000000E0H.5 SFRSYM    DATA     BIT       ACC5
      000000D8H.1 SFRSYM    DATA     BIT       CCF1
      000000E0H.6 SFRSYM    DATA     BIT       ACC6
      000000CFH   SFRSYM    DATA     BYTE      SPDAT
      00000094H   SFRSYM    DATA     BYTE      P0M0
      01005F31H   SYMBOL    CODE     ---       _?ix1000
      01005F49H   SYMBOL    CODE     ---       _?ix1001
      01005F4FH   SYMBOL    CODE     ---       _?ix1002
      0200060FH   SYMBOL    XDATA    ---       nightDatsTemp_CalibrateTab
      02000615H   SYMBOL    XDATA    ---       timDatsTemp_CalibrateTab

      0100734FH   BLOCK     CODE     ---       LVL=0
      0100734FH   LINE      CODE     ---       #36
      0100734FH   LINE      CODE     ---       #38
      01007362H   LINE      CODE     ---       #39
      ---         BLOCKEND  ---      ---       LVL=0

      01005CE0H   BLOCK     CODE     ---       LVL=0
      00000033H   SYMBOL    DATA     ---       timDats_tab
      01005CE6H   BLOCK     CODE     NEAR LAB  LVL=1
      00000036H   SYMBOL    DATA     ---       dats_Temp
      0000004EH   SYMBOL    DATA     BYTE      loop
      ---         BLOCKEND  ---      ---       LVL=1
      01005CE0H   LINE      CODE     ---       #42
      01005CE6H   LINE      CODE     ---       #44
      01005CF9H   LINE      CODE     ---       #45
      01005CFCH   LINE      CODE     ---       #47
      01005D0CH   LINE      CODE     ---       #49
      01005D0FH   LINE      CODE     ---       #51
      01005D36H   LINE      CODE     ---       #52
      01005D56H   LINE      CODE     ---       #53
LX51 LINKER/LOCATER V4.66.41.0                                                        12/07/2018  17:31:29  PAGE 113


      01005D88H   LINE      CODE     ---       #54
      01005DA1H   LINE      CODE     ---       #55
      01005DC3H   LINE      CODE     ---       #56
      01005DCEH   LINE      CODE     ---       #57
      ---         BLOCKEND  ---      ---       LVL=0

      010075E8H   BLOCK     CODE     ---       LVL=0
      010075E8H   LINE      CODE     ---       #59
      010075E8H   LINE      CODE     ---       #61
      ---         BLOCKEND  ---      ---       LVL=0

      01005DCFH   BLOCK     CODE     ---       LVL=0
      00000033H   SYMBOL    DATA     ---       timDats_tab
      01005DD5H   BLOCK     CODE     NEAR LAB  LVL=1
      00000036H   SYMBOL    DATA     ---       dats_Temp
      0000003CH   SYMBOL    DATA     BYTE      loop
      ---         BLOCKEND  ---      ---       LVL=1
      01005DCFH   LINE      CODE     ---       #64
      01005DD5H   LINE      CODE     ---       #66
      01005DE8H   LINE      CODE     ---       #67
      01005DEBH   LINE      CODE     ---       #69
      01005DFBH   LINE      CODE     ---       #71
      01005DFEH   LINE      CODE     ---       #73
      01005E25H   LINE      CODE     ---       #74
      01005E45H   LINE      CODE     ---       #75
      01005E77H   LINE      CODE     ---       #76
      01005E90H   LINE      CODE     ---       #77
      01005EB2H   LINE      CODE     ---       #78
      01005EBDH   LINE      CODE     ---       #79
      ---         BLOCKEND  ---      ---       LVL=0

      010075F1H   BLOCK     CODE     ---       LVL=0
      010075F1H   LINE      CODE     ---       #81
      010075F1H   LINE      CODE     ---       #83
      ---         BLOCKEND  ---      ---       LVL=0

      010072AEH   BLOCK     CODE     ---       LVL=0
      00000004H   SYMBOL    DATA     BYTE      weekNum
      00000001H   SYMBOL    DATA     BYTE      HoldNum
      010072B2H   BLOCK     CODE     NEAR LAB  LVL=1
      00000005H   SYMBOL    DATA     BYTE      loop
      ---         BLOCKEND  ---      ---       LVL=1
      010072AEH   LINE      CODE     ---       #87
      010072B2H   LINE      CODE     ---       #91
      010072B3H   LINE      CODE     ---       #92
      010072B5H   LINE      CODE     ---       #94
      010072CCH   LINE      CODE     ---       #96
      010072D2H   LINE      CODE     ---       #97
      010072D2H   LINE      CODE     ---       #98
      010072D6H   LINE      CODE     ---       #100
      010072D7H   LINE      CODE     ---       #101
      ---         BLOCKEND  ---      ---       LVL=0

      010066C6H   BLOCK     CODE     ---       LVL=0
      00000028H   SYMBOL    DATA     ---       timeDats
      010066C6H   BLOCK     CODE     NEAR LAB  LVL=1
      02000006H   SYMBOL    XDATA    ---       Log
      ---         BLOCKEND  ---      ---       LVL=1
      010066C6H   LINE      CODE     ---       #104
      010066C6H   LINE      CODE     ---       #106
      010066D9H   LINE      CODE     ---       #128
      01006703H   LINE      CODE     ---       #131
      0100670CH   LINE      CODE     ---       #137
      01006730H   LINE      CODE     ---       #140
      01006739H   LINE      CODE     ---       #144
LX51 LINKER/LOCATER V4.66.41.0                                                        12/07/2018  17:31:29  PAGE 114


      01006754H   LINE      CODE     ---       #146
      ---         BLOCKEND  ---      ---       LVL=0

      01003851H   BLOCK     CODE     ---       LVL=0
      01003851H   BLOCK     CODE     NEAR LAB  LVL=1
      00000027H   SYMBOL    DATA     BYTE      loop
      0000008BH   SYMBOL    IDATA    INT       timeUp_actionDone_flg
      01003854H   BLOCK     CODE     NEAR LAB  LVL=2
      01005F9FH   SYMBOL    CODE     WORD      log_period
      02000603H   SYMBOL    XDATA    WORD      log_Count
      00000025H.2 SYMBOL    BIT      BIT       read_FLG
      00000025H.3 SYMBOL    BIT      BIT       timeTab_reserveFLG
      02000000H   SYMBOL    XDATA    WORD      minutesTemp_CalibrateTab_A
      02000002H   SYMBOL    XDATA    WORD      minutesTemp_CalibrateTab_B
      02000004H   SYMBOL    XDATA    WORD      minutesTemp_CalibrateTab_cur
      ---         BLOCKEND  ---      ---       LVL=2
      01003893H   BLOCK     CODE     NEAR LAB  LVL=2
      00000025H.2 SYMBOL    BIT      BIT       read_FLG
      00000025H.3 SYMBOL    BIT      BIT       timeTab_reserveFLG
      02000000H   SYMBOL    XDATA    WORD      minutesTemp_CalibrateTab_A
      02000002H   SYMBOL    XDATA    WORD      minutesTemp_CalibrateTab_B
      02000004H   SYMBOL    XDATA    WORD      minutesTemp_CalibrateTab_cur
      ---         BLOCKEND  ---      ---       LVL=2
      0100393CH   BLOCK     CODE     NEAR LAB  LVL=2
      00000025H.3 SYMBOL    BIT      BIT       timeTab_reserveFLG
      02000000H   SYMBOL    XDATA    WORD      minutesTemp_CalibrateTab_A
      02000002H   SYMBOL    XDATA    WORD      minutesTemp_CalibrateTab_B
      02000004H   SYMBOL    XDATA    WORD      minutesTemp_CalibrateTab_cur
      ---         BLOCKEND  ---      ---       LVL=2
      01003BB1H   BLOCK     CODE     NEAR LAB  LVL=2
      01005FA1H   SYMBOL    CODE     BYTE      dats_Temp
      01005FA2H   SYMBOL    CODE     BYTE      dats_Temp
      ---         BLOCKEND  ---      ---       LVL=2
      01003C75H   BLOCK     CODE     NEAR LAB  LVL=2
      01005FA2H   SYMBOL    CODE     BYTE      dats_Temp
      ---         BLOCKEND  ---      ---       LVL=2
      ---         BLOCKEND  ---      ---       LVL=1
      01003851H   LINE      CODE     ---       #150
      01003851H   LINE      CODE     ---       #152
      01003854H   LINE      CODE     ---       #162
      01003878H   LINE      CODE     ---       #163
      01003878H   LINE      CODE     ---       #165
      0100387FH   LINE      CODE     ---       #167
      01003893H   LINE      CODE     ---       #168
      01003893H   LINE      CODE     ---       #169
      01003893H   LINE      CODE     ---       #173
      01003893H   LINE      CODE     ---       #177
      01003896H   LINE      CODE     ---       #179
      01003898H   LINE      CODE     ---       #181
      010038ABH   LINE      CODE     ---       #182
      010038BEH   LINE      CODE     ---       #184
      010038C7H   LINE      CODE     ---       #185
      010038D0H   LINE      CODE     ---       #186
      010038D0H   LINE      CODE     ---       #187
      010038D0H   LINE      CODE     ---       #190
      010038D0H   LINE      CODE     ---       #192
      010038E6H   LINE      CODE     ---       #193
      010038F4H   LINE      CODE     ---       #195
      01003900H   LINE      CODE     ---       #197
      01003900H   LINE      CODE     ---       #199
      01003906H   LINE      CODE     ---       #200
      01003919H   LINE      CODE     ---       #201
      0100392DH   LINE      CODE     ---       #202
      0100392DH   LINE      CODE     ---       #203
      0100392DH   LINE      CODE     ---       #206
LX51 LINKER/LOCATER V4.66.41.0                                                        12/07/2018  17:31:29  PAGE 115


      01003937H   LINE      CODE     ---       #208
      01003939H   LINE      CODE     ---       #210
      0100393CH   LINE      CODE     ---       #212
      0100393EH   LINE      CODE     ---       #213
      0100395EH   LINE      CODE     ---       #214
      0100397CH   LINE      CODE     ---       #215
      01003993H   LINE      CODE     ---       #217
      010039A6H   LINE      CODE     ---       #219
      010039ADH   LINE      CODE     ---       #221
      010039B0H   LINE      CODE     ---       #223
      010039DBH   LINE      CODE     ---       #227
      010039DDH   LINE      CODE     ---       #229
      01003A07H   LINE      CODE     ---       #232
      01003A07H   LINE      CODE     ---       #234
      01003A09H   LINE      CODE     ---       #236
      01003A0BH   LINE      CODE     ---       #237
      01003A0BH   LINE      CODE     ---       #238
      01003A0BH   LINE      CODE     ---       #240
      01003A0EH   LINE      CODE     ---       #242
      01003A27H   LINE      CODE     ---       #244
      01003A29H   LINE      CODE     ---       #245
      01003A2BH   LINE      CODE     ---       #247
      01003A2BH   LINE      CODE     ---       #249
      01003A2DH   LINE      CODE     ---       #250
      01003A2DH   LINE      CODE     ---       #251
      01003A34H   LINE      CODE     ---       #254
      01003A3AH   LINE      CODE     ---       #256
      01003A3DH   LINE      CODE     ---       #258
      01003A5DH   LINE      CODE     ---       #260
      01003A79H   LINE      CODE     ---       #283
      01003AE7H   LINE      CODE     ---       #285
      01003AE7H   LINE      CODE     ---       #287
      01003AF3H   LINE      CODE     ---       #288
      01003AF3H   LINE      CODE     ---       #290
      01003B60H   LINE      CODE     ---       #292
      01003B60H   LINE      CODE     ---       #294
      01003B60H   LINE      CODE     ---       #295
      01003B6DH   LINE      CODE     ---       #296
      01003B85H   LINE      CODE     ---       #297
      01003B8EH   LINE      CODE     ---       #298
      01003B8EH   LINE      CODE     ---       #300
      01003BA8H   LINE      CODE     ---       #303
      01003BB1H   LINE      CODE     ---       #307
      01003BC3H   LINE      CODE     ---       #308
      01003BDFH   LINE      CODE     ---       #309
      01003BE2H   LINE      CODE     ---       #310
      01003BE2H   LINE      CODE     ---       #313
      01003BE8H   LINE      CODE     ---       #314
      01003BFEH   LINE      CODE     ---       #315
      01003C05H   LINE      CODE     ---       #316
      01003C0CH   LINE      CODE     ---       #318
      01003C0FH   LINE      CODE     ---       #320
      01003C5BH   LINE      CODE     ---       #323
      01003C75H   LINE      CODE     ---       #327
      01003C87H   LINE      CODE     ---       #328
      01003CA3H   LINE      CODE     ---       #329
      01003CA3H   LINE      CODE     ---       #330
      01003CA3H   LINE      CODE     ---       #331
      01003CA3H   LINE      CODE     ---       #332
      01003CA3H   LINE      CODE     ---       #333
      01003CAFH   LINE      CODE     ---       #334
      01003CAFH   LINE      CODE     ---       #335
      ---         BLOCKEND  ---      ---       LVL=0

      ---         MODULE    ---      ---       TOUCHPAD
LX51 LINKER/LOCATER V4.66.41.0                                                        12/07/2018  17:31:29  PAGE 116


      0200066BH   PUBLIC    XDATA    BYTE      touchPad_resetTimeCount
      01000003H   PUBLIC    CODE     ---       _touchPad_resetOpreat
      010075BEH   PUBLIC    CODE     ---       touchPad_processThread
      000000D8H.2 SFRSYM    DATA     BIT       CCF2
      000000E0H.7 SFRSYM    DATA     BIT       ACC7
      00000093H   SFRSYM    DATA     BYTE      P0M1
      00000092H   SFRSYM    DATA     BYTE      P1M0
      00000096H   SFRSYM    DATA     BYTE      P2M0
      00000091H   SFRSYM    DATA     BYTE      P1M1
      00000080H   SFRSYM    DATA     BYTE      P0
      000000B2H   SFRSYM    DATA     BYTE      P3M0
      00000095H   SFRSYM    DATA     BYTE      P2M1
      00000090H   SFRSYM    DATA     BYTE      P1
      000000B4H   SFRSYM    DATA     BYTE      P4M0
      000000B1H   SFRSYM    DATA     BYTE      P3M1
      000000A0H   SFRSYM    DATA     BYTE      P2
      000000CAH   SFRSYM    DATA     BYTE      P5M0
      000000B3H   SFRSYM    DATA     BYTE      P4M1
      000000B0H   SFRSYM    DATA     BYTE      P3
      000000ABH   SFRSYM    DATA     BYTE      WKTCH
      000000B0H.4 SFRSYM    DATA     BIT       T0
      000000D0H.6 SFRSYM    DATA     BIT       AC
      000000CCH   SFRSYM    DATA     BYTE      P6M0
      000000C9H   SFRSYM    DATA     BYTE      P5M1
      000000C0H   SFRSYM    DATA     BYTE      P4
      000000B0H.5 SFRSYM    DATA     BIT       CLKOUT0
      000000B0H.5 SFRSYM    DATA     BIT       T1
      000000E2H   SFRSYM    DATA     BYTE      P7M0
      000000CBH   SFRSYM    DATA     BYTE      P6M1
      000000C8H   SFRSYM    DATA     BYTE      P5
      000000C6H   SFRSYM    DATA     BYTE      ISP_TRIG
      000000A8H.7 SFRSYM    DATA     BIT       EA
      000000B0H.4 SFRSYM    DATA     BIT       CLKOUT1
      000000A0H.4 SFRSYM    DATA     BIT       SPI_SS_2
      000000E8H   SFRSYM    DATA     BYTE      P6
      000000E1H   SFRSYM    DATA     BYTE      P7M1
      000000C8H.4 SFRSYM    DATA     BIT       SPI_SS_3
      00000090H.4 SFRSYM    DATA     BIT       SPI_MISO
      00000090H.3 SFRSYM    DATA     BIT       SPI_MOSI
      00000090H.1 SFRSYM    DATA     BIT       CCP0
      000000F8H   SFRSYM    DATA     BYTE      P7
      000000AAH   SFRSYM    DATA     BYTE      WKTCL
      00000090H   SFRSYM    DATA     BIT       CCP1
      000000CEH   SFRSYM    DATA     BYTE      SPCTL
      000000D8H.7 SFRSYM    DATA     BIT       CF
      000000B0H.7 SFRSYM    DATA     BIT       CCP2
      000000F9H   SFRSYM    DATA     BYTE      CH
      000000A2H   SFRSYM    DATA     BYTE      P_SW1
      000000BAH   SFRSYM    DATA     BYTE      P_SW2
      000000A8H.5 SFRSYM    DATA     BIT       EADC
      000000A0H.1 SFRSYM    DATA     BIT       SPI_SCLK_2
      000000A8H   SFRSYM    DATA     BYTE      IE
      000000C0H.3 SFRSYM    DATA     BIT       SPI_SCLK_3
      000000E9H   SFRSYM    DATA     BYTE      CL
      000000C5H   SFRSYM    DATA     BYTE      IAP_CMD
      000000FAH   SFRSYM    DATA     BYTE      CCAP0H
      000000FBH   SFRSYM    DATA     BYTE      CCAP1H
      000000FCH   SFRSYM    DATA     BYTE      CCAP2H
      000000BDH   SFRSYM    DATA     BYTE      ADC_RES
      000000B6H   SFRSYM    DATA     BYTE      IPH2
      000000D8H.6 SFRSYM    DATA     BIT       CR
      000000EAH   SFRSYM    DATA     BYTE      CCAP0L
      000000B0H.7 SFRSYM    DATA     BIT       RD
      000000EBH   SFRSYM    DATA     BYTE      CCAP1L
      000000DAH   SFRSYM    DATA     BYTE      CCAPM0
LX51 LINKER/LOCATER V4.66.41.0                                                        12/07/2018  17:31:29  PAGE 117


      000000ECH   SFRSYM    DATA     BYTE      CCAP2L
      000000DBH   SFRSYM    DATA     BYTE      CCAPM1
      000000A8H.4 SFRSYM    DATA     BIT       ES
      000000DCH   SFRSYM    DATA     BYTE      CCAPM2
      000000B8H.5 SFRSYM    DATA     BIT       PADC
      000000A0H.2 SFRSYM    DATA     BIT       SPI_MISO_2
      000000A0H.3 SFRSYM    DATA     BIT       SPI_MOSI_2
      000000B8H   SFRSYM    DATA     BYTE      IP
      000000C0H.1 SFRSYM    DATA     BIT       SPI_MISO_3
      000000C0H   SFRSYM    DATA     BIT       SPI_MOSI_3
      00000098H   SFRSYM    DATA     BIT       RI
      000000B0H.2 SFRSYM    DATA     BIT       INT0
      000000D0H.7 SFRSYM    DATA     BIT       CY
      00000098H.1 SFRSYM    DATA     BIT       TI
      000000B0H.3 SFRSYM    DATA     BIT       INT1
      00000097H   SFRSYM    DATA     BYTE      CLK_DIV
      000000C3H   SFRSYM    DATA     BYTE      IAP_ADDRH
      00000090H   SFRSYM    DATA     BIT       RXD2
      000000C5H   SFRSYM    DATA     BYTE      ISP_CMD
      000000B8H.4 SFRSYM    DATA     BIT       PS
      00000090H.1 SFRSYM    DATA     BIT       TXD2
      00000081H   SFRSYM    DATA     BYTE      SP
      000000D9H   SFRSYM    DATA     BYTE      CMOD
      000000D8H   SFRSYM    DATA     BYTE      CCON
      000000C4H   SFRSYM    DATA     BYTE      IAP_ADDRL
      000000B8H.7 SFRSYM    DATA     BIT       PPCA
      000000D0H.2 SFRSYM    DATA     BIT       OV
      000000B0H.6 SFRSYM    DATA     BIT       WR
      000000A8H.6 SFRSYM    DATA     BIT       ELVD
      00000080H   SFRSYM    DATA     BIT       P00
      00000090H   SFRSYM    DATA     BIT       P10
      00000080H.1 SFRSYM    DATA     BIT       P01
      000000BCH   SFRSYM    DATA     BYTE      ADC_CONTR
      00000099H   SFRSYM    DATA     BYTE      SBUF
      00000087H   SFRSYM    DATA     BYTE      PCON
      000000A0H   SFRSYM    DATA     BIT       P20
      00000090H.1 SFRSYM    DATA     BIT       P11
      00000080H.2 SFRSYM    DATA     BIT       P02
      000000C3H   SFRSYM    DATA     BYTE      ISP_ADDRH
      000000B0H   SFRSYM    DATA     BIT       P30
      000000A0H.1 SFRSYM    DATA     BIT       P21
      00000090H.2 SFRSYM    DATA     BIT       P12
      00000080H.3 SFRSYM    DATA     BIT       P03
      000000C0H   SFRSYM    DATA     BIT       P40
      000000B0H.1 SFRSYM    DATA     BIT       P31
      000000A0H.2 SFRSYM    DATA     BIT       P22
      00000090H.3 SFRSYM    DATA     BIT       P13
      00000080H.4 SFRSYM    DATA     BIT       P04
      00000098H   SFRSYM    DATA     BYTE      SCON
      0000008FH   SFRSYM    DATA     BYTE      WAKE_CLKO
      000000C8H   SFRSYM    DATA     BIT       P50
      000000C0H.1 SFRSYM    DATA     BIT       P41
      000000B0H.2 SFRSYM    DATA     BIT       P32
      000000A0H.3 SFRSYM    DATA     BIT       P23
      00000090H.4 SFRSYM    DATA     BIT       P14
      00000080H.5 SFRSYM    DATA     BIT       P05
      00000089H   SFRSYM    DATA     BYTE      TMOD
      00000088H   SFRSYM    DATA     BYTE      TCON
      000000C8H.1 SFRSYM    DATA     BIT       P51
      000000C0H.2 SFRSYM    DATA     BIT       P42
      000000B0H.3 SFRSYM    DATA     BIT       P33
      000000A0H.4 SFRSYM    DATA     BIT       P24
      00000090H.5 SFRSYM    DATA     BIT       P15
      00000080H.6 SFRSYM    DATA     BIT       P06
      000000C4H   SFRSYM    DATA     BYTE      ISP_ADDRL
LX51 LINKER/LOCATER V4.66.41.0                                                        12/07/2018  17:31:29  PAGE 118


      000000B8H.6 SFRSYM    DATA     BIT       PLVD
      000000C8H.2 SFRSYM    DATA     BIT       P52
      000000C0H.3 SFRSYM    DATA     BIT       P43
      000000B0H.4 SFRSYM    DATA     BIT       P34
      000000A0H.5 SFRSYM    DATA     BIT       P25
      00000090H.6 SFRSYM    DATA     BIT       P16
      00000080H.7 SFRSYM    DATA     BIT       P07
      000000C8H.3 SFRSYM    DATA     BIT       P53
      000000C0H.4 SFRSYM    DATA     BIT       P44
      000000B0H.5 SFRSYM    DATA     BIT       P35
      000000A0H.6 SFRSYM    DATA     BIT       P26
      00000090H.7 SFRSYM    DATA     BIT       P17
      000000C8H.4 SFRSYM    DATA     BIT       P54
      000000C0H.5 SFRSYM    DATA     BIT       P45
      000000B0H.6 SFRSYM    DATA     BIT       P36
      000000A0H.7 SFRSYM    DATA     BIT       P27
      000000C8H.5 SFRSYM    DATA     BIT       P55
      000000C0H.6 SFRSYM    DATA     BIT       P46
      000000B0H.7 SFRSYM    DATA     BIT       P37
      000000C8H.6 SFRSYM    DATA     BIT       P56
      000000C0H.7 SFRSYM    DATA     BIT       P47
      000000C8H.7 SFRSYM    DATA     BIT       P57
      00000088H.1 SFRSYM    DATA     BIT       IE0
      000000A1H   SFRSYM    DATA     BYTE      BUS_SPEED
      00000088H.3 SFRSYM    DATA     BIT       IE1
      000000AFH   SFRSYM    DATA     BYTE      IE2
      000000F0H   SFRSYM    DATA     BYTE      B
      0000008EH   SFRSYM    DATA     BYTE      AUXR
      000000C7H   SFRSYM    DATA     BYTE      IAP_CONTR
      000000E0H   SFRSYM    DATA     BYTE      ACC
      000000A8H.1 SFRSYM    DATA     BIT       ET0
      000000A8H.3 SFRSYM    DATA     BIT       ET1
      00000088H.5 SFRSYM    DATA     BIT       TF0
      00000088H.7 SFRSYM    DATA     BIT       TF1
      000000B5H   SFRSYM    DATA     BYTE      IP2
      0000008CH   SFRSYM    DATA     BYTE      RL_TH0
      00000098H.2 SFRSYM    DATA     BIT       RB8
      0000008DH   SFRSYM    DATA     BYTE      RL_TH1
      0000008CH   SFRSYM    DATA     BYTE      TH0
      000000A8H   SFRSYM    DATA     BIT       EX0
      00000088H   SFRSYM    DATA     BIT       IT0
      000000D6H   SFRSYM    DATA     BYTE      RL_T2H
      0000008DH   SFRSYM    DATA     BYTE      TH1
      000000A8H.2 SFRSYM    DATA     BIT       EX1
      00000098H.3 SFRSYM    DATA     BIT       TB8
      00000088H.2 SFRSYM    DATA     BIT       IT1
      000000D4H   SFRSYM    DATA     BYTE      RL_T3H
      000000D6H   SFRSYM    DATA     BYTE      TH2
      000000D6H   SFRSYM    DATA     BYTE      T2H
      000000D0H   SFRSYM    DATA     BIT       P
      000000D2H   SFRSYM    DATA     BYTE      RL_T4H
      000000D4H   SFRSYM    DATA     BYTE      TH3
      000000D4H   SFRSYM    DATA     BYTE      T3H
      0000008AH   SFRSYM    DATA     BYTE      RL_TL0
      00000098H.7 SFRSYM    DATA     BIT       SM0
      000000D2H   SFRSYM    DATA     BYTE      TH4
      000000D2H   SFRSYM    DATA     BYTE      T4H
      0000008BH   SFRSYM    DATA     BYTE      RL_TL1
      0000008AH   SFRSYM    DATA     BYTE      TL0
      00000098H.6 SFRSYM    DATA     BIT       SM1
      000000D7H   SFRSYM    DATA     BYTE      RL_T2L
      0000008BH   SFRSYM    DATA     BYTE      TL1
      00000098H.5 SFRSYM    DATA     BIT       SM2
      000000D5H   SFRSYM    DATA     BYTE      RL_T3L
      000000D7H   SFRSYM    DATA     BYTE      TL2
LX51 LINKER/LOCATER V4.66.41.0                                                        12/07/2018  17:31:29  PAGE 119


      000000D7H   SFRSYM    DATA     BYTE      T2L
      000000D3H   SFRSYM    DATA     BYTE      RL_T4L
      000000D5H   SFRSYM    DATA     BYTE      TL3
      000000D5H   SFRSYM    DATA     BYTE      T3L
      000000B8H.1 SFRSYM    DATA     BIT       PT0
      000000D3H   SFRSYM    DATA     BYTE      TL4
      000000D3H   SFRSYM    DATA     BYTE      T4L
      000000B8H.3 SFRSYM    DATA     BIT       PT1
      000000D0H.3 SFRSYM    DATA     BIT       RS0
      000000C7H   SFRSYM    DATA     BYTE      ISP_CONTR
      00000088H.4 SFRSYM    DATA     BIT       TR0
      000000D0H.4 SFRSYM    DATA     BIT       RS1
      000000C2H   SFRSYM    DATA     BYTE      IAP_DATA
      00000088H.6 SFRSYM    DATA     BIT       TR1
      000000B8H   SFRSYM    DATA     BIT       PX0
      000000C1H   SFRSYM    DATA     BYTE      WDT_CONTR
      000000B8H.2 SFRSYM    DATA     BIT       PX1
      000000F2H   SFRSYM    DATA     BYTE      PCA_PWM0
      000000F3H   SFRSYM    DATA     BYTE      PCA_PWM1
      000000F4H   SFRSYM    DATA     BYTE      PCA_PWM2
      0000009DH   SFRSYM    DATA     BYTE      P1ASF
      00000083H   SFRSYM    DATA     BYTE      DPH
      000000D1H   SFRSYM    DATA     BYTE      T4T3M
      000000BEH   SFRSYM    DATA     BYTE      ADC_RESL
      00000082H   SFRSYM    DATA     BYTE      DPL
      000000CDH   SFRSYM    DATA     BYTE      SPSTAT
      000000B7H   SFRSYM    DATA     BYTE      IPH
      0000009BH   SFRSYM    DATA     BYTE      S2BUF
      00000097H   SFRSYM    DATA     BYTE      PCON2
      000000ADH   SFRSYM    DATA     BYTE      S3BUF
      00000098H.4 SFRSYM    DATA     BIT       REN
      00000085H   SFRSYM    DATA     BYTE      S4BUF
      0000009AH   SFRSYM    DATA     BYTE      S2CON
      000000ACH   SFRSYM    DATA     BYTE      S3CON
      000000C2H   SFRSYM    DATA     BYTE      ISP_DATA
      00000084H   SFRSYM    DATA     BYTE      S4CON
      000000B9H   SFRSYM    DATA     BYTE      SADEN
      000000B0H   SFRSYM    DATA     BIT       RXD
      000000A9H   SFRSYM    DATA     BYTE      SADDR
      000000B0H.1 SFRSYM    DATA     BIT       TXD
      000000F0H   SFRSYM    DATA     BIT       B0
      000000F0H.1 SFRSYM    DATA     BIT       B1
      000000C6H   SFRSYM    DATA     BYTE      IAP_TRIG
      000000A2H   SFRSYM    DATA     BYTE      AUXR1
      000000F0H.2 SFRSYM    DATA     BIT       B2
      00000090H.2 SFRSYM    DATA     BIT       SPI_SS
      0000008FH   SFRSYM    DATA     BYTE      AUXR2
      000000F0H.3 SFRSYM    DATA     BIT       B3
      000000F0H.4 SFRSYM    DATA     BIT       B4
      000000D0H.5 SFRSYM    DATA     BIT       F0
      000000F0H.5 SFRSYM    DATA     BIT       B5
      000000D0H.1 SFRSYM    DATA     BIT       F1
      0000008FH   SFRSYM    DATA     BYTE      INT_CLKO
      000000F0H.6 SFRSYM    DATA     BIT       B6
      000000E0H   SFRSYM    DATA     BIT       ACC0
      000000F0H.7 SFRSYM    DATA     BIT       B7
      000000E0H.1 SFRSYM    DATA     BIT       ACC1
      000000E0H.2 SFRSYM    DATA     BIT       ACC2
      000000E0H.3 SFRSYM    DATA     BIT       ACC3
      000000D0H   SFRSYM    DATA     BYTE      PSW
      000000E0H.4 SFRSYM    DATA     BIT       ACC4
      00000090H.5 SFRSYM    DATA     BIT       SPI_SCLK
      000000D8H   SFRSYM    DATA     BIT       CCF0
      000000E0H.5 SFRSYM    DATA     BIT       ACC5
      000000D8H.1 SFRSYM    DATA     BIT       CCF1
LX51 LINKER/LOCATER V4.66.41.0                                                        12/07/2018  17:31:29  PAGE 120


      000000E0H.6 SFRSYM    DATA     BIT       ACC6
      000000CFH   SFRSYM    DATA     BYTE      SPDAT
      00000094H   SFRSYM    DATA     BYTE      P0M0

      010075BEH   BLOCK     CODE     ---       LVL=0
      010075BEH   LINE      CODE     ---       #10
      010075BEH   LINE      CODE     ---       #12
      010075C9H   LINE      CODE     ---       #13
      ---         BLOCKEND  ---      ---       LVL=0

      01000003H   BLOCK     CODE     ---       LVL=0
      00000007H   SYMBOL    DATA     BYTE      holdTime
      01000003H   LINE      CODE     ---       #15
      01000003H   LINE      CODE     ---       #17
      01000008H   LINE      CODE     ---       #18
      ---         BLOCKEND  ---      ---       LVL=0

      ---         MODULE    ---      ---       USART
      0200051DH   PUBLIC    XDATA    ---       TX1_Buffer
      02000484H   PUBLIC    XDATA    ---       RX1_Buffer
      00000070H   PUBLIC    DATA     ---       COM1
      01007375H   PUBLIC    CODE     ---       _uart1_datsSend
      0100724EH   PUBLIC    CODE     ---       _PrintString1_logOut
      01007571H   PUBLIC    CODE     ---       _PrintString1
      010073C0H   PUBLIC    CODE     ---       _TX1_write2buff
      000000D8H.2 SFRSYM    DATA     BIT       CCF2
      000000E0H.7 SFRSYM    DATA     BIT       ACC7
      00000093H   SFRSYM    DATA     BYTE      P0M1
      00000092H   SFRSYM    DATA     BYTE      P1M0
      00000096H   SFRSYM    DATA     BYTE      P2M0
      00000091H   SFRSYM    DATA     BYTE      P1M1
      00000080H   SFRSYM    DATA     BYTE      P0
      000000B2H   SFRSYM    DATA     BYTE      P3M0
      00000095H   SFRSYM    DATA     BYTE      P2M1
      00000090H   SFRSYM    DATA     BYTE      P1
      000000B4H   SFRSYM    DATA     BYTE      P4M0
      000000B1H   SFRSYM    DATA     BYTE      P3M1
      000000A0H   SFRSYM    DATA     BYTE      P2
      000000CAH   SFRSYM    DATA     BYTE      P5M0
      000000B3H   SFRSYM    DATA     BYTE      P4M1
      000000B0H   SFRSYM    DATA     BYTE      P3
      000000ABH   SFRSYM    DATA     BYTE      WKTCH
      000000B0H.4 SFRSYM    DATA     BIT       T0
      000000D0H.6 SFRSYM    DATA     BIT       AC
      000000CCH   SFRSYM    DATA     BYTE      P6M0
      000000C9H   SFRSYM    DATA     BYTE      P5M1
      000000C0H   SFRSYM    DATA     BYTE      P4
      000000B0H.5 SFRSYM    DATA     BIT       CLKOUT0
      000000B0H.5 SFRSYM    DATA     BIT       T1
      000000E2H   SFRSYM    DATA     BYTE      P7M0
      000000CBH   SFRSYM    DATA     BYTE      P6M1
      000000C8H   SFRSYM    DATA     BYTE      P5
      000000C6H   SFRSYM    DATA     BYTE      ISP_TRIG
      000000A8H.7 SFRSYM    DATA     BIT       EA
      000000B0H.4 SFRSYM    DATA     BIT       CLKOUT1
      000000A0H.4 SFRSYM    DATA     BIT       SPI_SS_2
      000000E8H   SFRSYM    DATA     BYTE      P6
      000000E1H   SFRSYM    DATA     BYTE      P7M1
      000000C8H.4 SFRSYM    DATA     BIT       SPI_SS_3
      00000090H.4 SFRSYM    DATA     BIT       SPI_MISO
      00000090H.3 SFRSYM    DATA     BIT       SPI_MOSI
      00000090H.1 SFRSYM    DATA     BIT       CCP0
      000000F8H   SFRSYM    DATA     BYTE      P7
      000000AAH   SFRSYM    DATA     BYTE      WKTCL
      00000090H   SFRSYM    DATA     BIT       CCP1
LX51 LINKER/LOCATER V4.66.41.0                                                        12/07/2018  17:31:29  PAGE 121


      000000CEH   SFRSYM    DATA     BYTE      SPCTL
      000000D8H.7 SFRSYM    DATA     BIT       CF
      000000B0H.7 SFRSYM    DATA     BIT       CCP2
      000000F9H   SFRSYM    DATA     BYTE      CH
      000000A2H   SFRSYM    DATA     BYTE      P_SW1
      000000BAH   SFRSYM    DATA     BYTE      P_SW2
      000000A8H.5 SFRSYM    DATA     BIT       EADC
      000000A0H.1 SFRSYM    DATA     BIT       SPI_SCLK_2
      000000A8H   SFRSYM    DATA     BYTE      IE
      000000C0H.3 SFRSYM    DATA     BIT       SPI_SCLK_3
      000000E9H   SFRSYM    DATA     BYTE      CL
      000000C5H   SFRSYM    DATA     BYTE      IAP_CMD
      000000FAH   SFRSYM    DATA     BYTE      CCAP0H
      000000FBH   SFRSYM    DATA     BYTE      CCAP1H
      000000FCH   SFRSYM    DATA     BYTE      CCAP2H
      000000BDH   SFRSYM    DATA     BYTE      ADC_RES
      000000B6H   SFRSYM    DATA     BYTE      IPH2
      000000D8H.6 SFRSYM    DATA     BIT       CR
      000000EAH   SFRSYM    DATA     BYTE      CCAP0L
      000000B0H.7 SFRSYM    DATA     BIT       RD
      000000EBH   SFRSYM    DATA     BYTE      CCAP1L
      000000DAH   SFRSYM    DATA     BYTE      CCAPM0
      000000ECH   SFRSYM    DATA     BYTE      CCAP2L
      000000DBH   SFRSYM    DATA     BYTE      CCAPM1
      000000A8H.4 SFRSYM    DATA     BIT       ES
      000000DCH   SFRSYM    DATA     BYTE      CCAPM2
      000000B8H.5 SFRSYM    DATA     BIT       PADC
      000000A0H.2 SFRSYM    DATA     BIT       SPI_MISO_2
      000000A0H.3 SFRSYM    DATA     BIT       SPI_MOSI_2
      000000B8H   SFRSYM    DATA     BYTE      IP
      000000C0H.1 SFRSYM    DATA     BIT       SPI_MISO_3
      000000C0H   SFRSYM    DATA     BIT       SPI_MOSI_3
      00000098H   SFRSYM    DATA     BIT       RI
      000000B0H.2 SFRSYM    DATA     BIT       INT0
      000000D0H.7 SFRSYM    DATA     BIT       CY
      00000098H.1 SFRSYM    DATA     BIT       TI
      000000B0H.3 SFRSYM    DATA     BIT       INT1
      00000097H   SFRSYM    DATA     BYTE      CLK_DIV
      000000C3H   SFRSYM    DATA     BYTE      IAP_ADDRH
      00000090H   SFRSYM    DATA     BIT       RXD2
      000000C5H   SFRSYM    DATA     BYTE      ISP_CMD
      000000B8H.4 SFRSYM    DATA     BIT       PS
      00000090H.1 SFRSYM    DATA     BIT       TXD2
      00000081H   SFRSYM    DATA     BYTE      SP
      000000D9H   SFRSYM    DATA     BYTE      CMOD
      000000D8H   SFRSYM    DATA     BYTE      CCON
      000000C4H   SFRSYM    DATA     BYTE      IAP_ADDRL
      000000B8H.7 SFRSYM    DATA     BIT       PPCA
      000000D0H.2 SFRSYM    DATA     BIT       OV
      000000B0H.6 SFRSYM    DATA     BIT       WR
      000000A8H.6 SFRSYM    DATA     BIT       ELVD
      00000080H   SFRSYM    DATA     BIT       P00
      00000090H   SFRSYM    DATA     BIT       P10
      00000080H.1 SFRSYM    DATA     BIT       P01
      000000BCH   SFRSYM    DATA     BYTE      ADC_CONTR
      00000099H   SFRSYM    DATA     BYTE      SBUF
      00000087H   SFRSYM    DATA     BYTE      PCON
      000000A0H   SFRSYM    DATA     BIT       P20
      00000090H.1 SFRSYM    DATA     BIT       P11
      00000080H.2 SFRSYM    DATA     BIT       P02
      000000C3H   SFRSYM    DATA     BYTE      ISP_ADDRH
      000000B0H   SFRSYM    DATA     BIT       P30
      000000A0H.1 SFRSYM    DATA     BIT       P21
      00000090H.2 SFRSYM    DATA     BIT       P12
      00000080H.3 SFRSYM    DATA     BIT       P03
LX51 LINKER/LOCATER V4.66.41.0                                                        12/07/2018  17:31:29  PAGE 122


      000000C0H   SFRSYM    DATA     BIT       P40
      000000B0H.1 SFRSYM    DATA     BIT       P31
      000000A0H.2 SFRSYM    DATA     BIT       P22
      00000090H.3 SFRSYM    DATA     BIT       P13
      00000080H.4 SFRSYM    DATA     BIT       P04
      00000098H   SFRSYM    DATA     BYTE      SCON
      0000008FH   SFRSYM    DATA     BYTE      WAKE_CLKO
      000000C8H   SFRSYM    DATA     BIT       P50
      000000C0H.1 SFRSYM    DATA     BIT       P41
      000000B0H.2 SFRSYM    DATA     BIT       P32
      000000A0H.3 SFRSYM    DATA     BIT       P23
      00000090H.4 SFRSYM    DATA     BIT       P14
      00000080H.5 SFRSYM    DATA     BIT       P05
      00000089H   SFRSYM    DATA     BYTE      TMOD
      00000088H   SFRSYM    DATA     BYTE      TCON
      000000C8H.1 SFRSYM    DATA     BIT       P51
      000000C0H.2 SFRSYM    DATA     BIT       P42
      000000B0H.3 SFRSYM    DATA     BIT       P33
      000000A0H.4 SFRSYM    DATA     BIT       P24
      00000090H.5 SFRSYM    DATA     BIT       P15
      00000080H.6 SFRSYM    DATA     BIT       P06
      000000C4H   SFRSYM    DATA     BYTE      ISP_ADDRL
      000000B8H.6 SFRSYM    DATA     BIT       PLVD
      000000C8H.2 SFRSYM    DATA     BIT       P52
      000000C0H.3 SFRSYM    DATA     BIT       P43
      000000B0H.4 SFRSYM    DATA     BIT       P34
      000000A0H.5 SFRSYM    DATA     BIT       P25
      00000090H.6 SFRSYM    DATA     BIT       P16
      00000080H.7 SFRSYM    DATA     BIT       P07
      000000C8H.3 SFRSYM    DATA     BIT       P53
      000000C0H.4 SFRSYM    DATA     BIT       P44
      000000B0H.5 SFRSYM    DATA     BIT       P35
      000000A0H.6 SFRSYM    DATA     BIT       P26
      00000090H.7 SFRSYM    DATA     BIT       P17
      000000C8H.4 SFRSYM    DATA     BIT       P54
      000000C0H.5 SFRSYM    DATA     BIT       P45
      000000B0H.6 SFRSYM    DATA     BIT       P36
      000000A0H.7 SFRSYM    DATA     BIT       P27
      000000C8H.5 SFRSYM    DATA     BIT       P55
      000000C0H.6 SFRSYM    DATA     BIT       P46
      000000B0H.7 SFRSYM    DATA     BIT       P37
      000000C8H.6 SFRSYM    DATA     BIT       P56
      000000C0H.7 SFRSYM    DATA     BIT       P47
      000000C8H.7 SFRSYM    DATA     BIT       P57
      00000088H.1 SFRSYM    DATA     BIT       IE0
      000000A1H   SFRSYM    DATA     BYTE      BUS_SPEED
      00000088H.3 SFRSYM    DATA     BIT       IE1
      000000AFH   SFRSYM    DATA     BYTE      IE2
      000000F0H   SFRSYM    DATA     BYTE      B
      0000008EH   SFRSYM    DATA     BYTE      AUXR
      000000C7H   SFRSYM    DATA     BYTE      IAP_CONTR
      000000E0H   SFRSYM    DATA     BYTE      ACC
      000000A8H.1 SFRSYM    DATA     BIT       ET0
      000000A8H.3 SFRSYM    DATA     BIT       ET1
      00000088H.5 SFRSYM    DATA     BIT       TF0
      00000088H.7 SFRSYM    DATA     BIT       TF1
      000000B5H   SFRSYM    DATA     BYTE      IP2
      0000008CH   SFRSYM    DATA     BYTE      RL_TH0
      00000098H.2 SFRSYM    DATA     BIT       RB8
      0000008DH   SFRSYM    DATA     BYTE      RL_TH1
      0000008CH   SFRSYM    DATA     BYTE      TH0
      000000A8H   SFRSYM    DATA     BIT       EX0
      00000088H   SFRSYM    DATA     BIT       IT0
      000000D6H   SFRSYM    DATA     BYTE      RL_T2H
      0000008DH   SFRSYM    DATA     BYTE      TH1
LX51 LINKER/LOCATER V4.66.41.0                                                        12/07/2018  17:31:29  PAGE 123


      000000A8H.2 SFRSYM    DATA     BIT       EX1
      00000098H.3 SFRSYM    DATA     BIT       TB8
      00000088H.2 SFRSYM    DATA     BIT       IT1
      000000D4H   SFRSYM    DATA     BYTE      RL_T3H
      000000D6H   SFRSYM    DATA     BYTE      TH2
      000000D6H   SFRSYM    DATA     BYTE      T2H
      000000D0H   SFRSYM    DATA     BIT       P
      000000D2H   SFRSYM    DATA     BYTE      RL_T4H
      000000D4H   SFRSYM    DATA     BYTE      TH3
      000000D4H   SFRSYM    DATA     BYTE      T3H
      0000008AH   SFRSYM    DATA     BYTE      RL_TL0
      00000098H.7 SFRSYM    DATA     BIT       SM0
      000000D2H   SFRSYM    DATA     BYTE      TH4
      000000D2H   SFRSYM    DATA     BYTE      T4H
      0000008BH   SFRSYM    DATA     BYTE      RL_TL1
      0000008AH   SFRSYM    DATA     BYTE      TL0
      00000098H.6 SFRSYM    DATA     BIT       SM1
      000000D7H   SFRSYM    DATA     BYTE      RL_T2L
      0000008BH   SFRSYM    DATA     BYTE      TL1
      00000098H.5 SFRSYM    DATA     BIT       SM2
      000000D5H   SFRSYM    DATA     BYTE      RL_T3L
      000000D7H   SFRSYM    DATA     BYTE      TL2
      000000D7H   SFRSYM    DATA     BYTE      T2L
      000000D3H   SFRSYM    DATA     BYTE      RL_T4L
      000000D5H   SFRSYM    DATA     BYTE      TL3
      000000D5H   SFRSYM    DATA     BYTE      T3L
      000000B8H.1 SFRSYM    DATA     BIT       PT0
      000000D3H   SFRSYM    DATA     BYTE      TL4
      000000D3H   SFRSYM    DATA     BYTE      T4L
      000000B8H.3 SFRSYM    DATA     BIT       PT1
      000000D0H.3 SFRSYM    DATA     BIT       RS0
      000000C7H   SFRSYM    DATA     BYTE      ISP_CONTR
      00000088H.4 SFRSYM    DATA     BIT       TR0
      000000D0H.4 SFRSYM    DATA     BIT       RS1
      000000C2H   SFRSYM    DATA     BYTE      IAP_DATA
      00000088H.6 SFRSYM    DATA     BIT       TR1
      000000B8H   SFRSYM    DATA     BIT       PX0
      000000C1H   SFRSYM    DATA     BYTE      WDT_CONTR
      000000B8H.2 SFRSYM    DATA     BIT       PX1
      000000F2H   SFRSYM    DATA     BYTE      PCA_PWM0
      000000F3H   SFRSYM    DATA     BYTE      PCA_PWM1
      000000F4H   SFRSYM    DATA     BYTE      PCA_PWM2
      0000009DH   SFRSYM    DATA     BYTE      P1ASF
      00000083H   SFRSYM    DATA     BYTE      DPH
      000000D1H   SFRSYM    DATA     BYTE      T4T3M
      000000BEH   SFRSYM    DATA     BYTE      ADC_RESL
      00000082H   SFRSYM    DATA     BYTE      DPL
      000000CDH   SFRSYM    DATA     BYTE      SPSTAT
      000000B7H   SFRSYM    DATA     BYTE      IPH
      0000009BH   SFRSYM    DATA     BYTE      S2BUF
      00000097H   SFRSYM    DATA     BYTE      PCON2
      000000ADH   SFRSYM    DATA     BYTE      S3BUF
      00000098H.4 SFRSYM    DATA     BIT       REN
      00000085H   SFRSYM    DATA     BYTE      S4BUF
      0000009AH   SFRSYM    DATA     BYTE      S2CON
      000000ACH   SFRSYM    DATA     BYTE      S3CON
      000000C2H   SFRSYM    DATA     BYTE      ISP_DATA
      00000084H   SFRSYM    DATA     BYTE      S4CON
      000000B9H   SFRSYM    DATA     BYTE      SADEN
      000000B0H   SFRSYM    DATA     BIT       RXD
      000000A9H   SFRSYM    DATA     BYTE      SADDR
      000000B0H.1 SFRSYM    DATA     BIT       TXD
      000000F0H   SFRSYM    DATA     BIT       B0
      000000F0H.1 SFRSYM    DATA     BIT       B1
      000000C6H   SFRSYM    DATA     BYTE      IAP_TRIG
LX51 LINKER/LOCATER V4.66.41.0                                                        12/07/2018  17:31:29  PAGE 124


      000000A2H   SFRSYM    DATA     BYTE      AUXR1
      000000F0H.2 SFRSYM    DATA     BIT       B2
      00000090H.2 SFRSYM    DATA     BIT       SPI_SS
      0000008FH   SFRSYM    DATA     BYTE      AUXR2
      000000F0H.3 SFRSYM    DATA     BIT       B3
      000000F0H.4 SFRSYM    DATA     BIT       B4
      000000D0H.5 SFRSYM    DATA     BIT       F0
      000000F0H.5 SFRSYM    DATA     BIT       B5
      000000D0H.1 SFRSYM    DATA     BIT       F1
      0000008FH   SFRSYM    DATA     BYTE      INT_CLKO
      000000F0H.6 SFRSYM    DATA     BIT       B6
      000000E0H   SFRSYM    DATA     BIT       ACC0
      000000F0H.7 SFRSYM    DATA     BIT       B7
      000000E0H.1 SFRSYM    DATA     BIT       ACC1
      000000E0H.2 SFRSYM    DATA     BIT       ACC2
      000000E0H.3 SFRSYM    DATA     BIT       ACC3
      000000D0H   SFRSYM    DATA     BYTE      PSW
      000000E0H.4 SFRSYM    DATA     BIT       ACC4
      00000090H.5 SFRSYM    DATA     BIT       SPI_SCLK
      000000D8H   SFRSYM    DATA     BIT       CCF0
      000000E0H.5 SFRSYM    DATA     BIT       ACC5
      000000D8H.1 SFRSYM    DATA     BIT       CCF1
      000000E0H.6 SFRSYM    DATA     BIT       ACC6
      000000CFH   SFRSYM    DATA     BYTE      SPDAT
      00000094H   SFRSYM    DATA     BYTE      P0M0

      010073C0H   BLOCK     CODE     ---       LVL=0
      00000007H   SYMBOL    DATA     BYTE      dat
      010073C0H   LINE      CODE     ---       #128
      010073C0H   LINE      CODE     ---       #129
      010073C0H   LINE      CODE     ---       #130
      010073CDH   LINE      CODE     ---       #131
      010073D9H   LINE      CODE     ---       #133
      010073DDH   LINE      CODE     ---       #134
      010073DDH   LINE      CODE     ---       #135
      010073E0H   LINE      CODE     ---       #136
      010073E2H   LINE      CODE     ---       #137
      010073E2H   LINE      CODE     ---       #138
      ---         BLOCKEND  ---      ---       LVL=0

      01007571H   BLOCK     CODE     ---       LVL=0
      00000001H   SYMBOL    DATA     ---       puts
      01007571H   LINE      CODE     ---       #152
      01007571H   LINE      CODE     ---       #153
      01007571H   LINE      CODE     ---       #154
      01007583H   LINE      CODE     ---       #155
      ---         BLOCKEND  ---      ---       LVL=0

      0100724EH   BLOCK     CODE     ---       LVL=0
      00000038H   SYMBOL    DATA     ---       puts
      0100724EH   LINE      CODE     ---       #157
      01007254H   LINE      CODE     ---       #159
      0100725BH   LINE      CODE     ---       #160
      01007263H   LINE      CODE     ---       #161
      0100726AH   LINE      CODE     ---       #162
      01007273H   LINE      CODE     ---       #163
      0100727AH   LINE      CODE     ---       #164
      0100727DH   LINE      CODE     ---       #165
      ---         BLOCKEND  ---      ---       LVL=0

      01007375H   BLOCK     CODE     ---       LVL=0
      0000004AH   SYMBOL    DATA     ---       dats
      00000005H   SYMBOL    DATA     BYTE      datsLen
      0100737BH   BLOCK     CODE     NEAR LAB  LVL=1
      00000006H   SYMBOL    DATA     BYTE      loop
LX51 LINKER/LOCATER V4.66.41.0                                                        12/07/2018  17:31:29  PAGE 125


      ---         BLOCKEND  ---      ---       LVL=1
      01007375H   LINE      CODE     ---       #173
      0100737BH   LINE      CODE     ---       #175
      0100737DH   LINE      CODE     ---       #177
      01007382H   LINE      CODE     ---       #179
      01007397H   LINE      CODE     ---       #180
      0100739AH   LINE      CODE     ---       #181
      ---         BLOCKEND  ---      ---       LVL=0

      ---         MODULE    ---      ---       DELAY
      01007510H   PUBLIC    CODE     ---       _delayMs
      01007594H   PUBLIC    CODE     ---       _delay_ms
      000000D8H.2 SFRSYM    DATA     BIT       CCF2
      000000E0H.7 SFRSYM    DATA     BIT       ACC7
      00000093H   SFRSYM    DATA     BYTE      P0M1
      00000092H   SFRSYM    DATA     BYTE      P1M0
      00000096H   SFRSYM    DATA     BYTE      P2M0
      00000091H   SFRSYM    DATA     BYTE      P1M1
      00000080H   SFRSYM    DATA     BYTE      P0
      000000B2H   SFRSYM    DATA     BYTE      P3M0
      00000095H   SFRSYM    DATA     BYTE      P2M1
      00000090H   SFRSYM    DATA     BYTE      P1
      000000B4H   SFRSYM    DATA     BYTE      P4M0
      000000B1H   SFRSYM    DATA     BYTE      P3M1
      000000A0H   SFRSYM    DATA     BYTE      P2
      000000CAH   SFRSYM    DATA     BYTE      P5M0
      000000B3H   SFRSYM    DATA     BYTE      P4M1
      000000B0H   SFRSYM    DATA     BYTE      P3
      000000ABH   SFRSYM    DATA     BYTE      WKTCH
      000000B0H.4 SFRSYM    DATA     BIT       T0
      000000D0H.6 SFRSYM    DATA     BIT       AC
      000000CCH   SFRSYM    DATA     BYTE      P6M0
      000000C9H   SFRSYM    DATA     BYTE      P5M1
      000000C0H   SFRSYM    DATA     BYTE      P4
      000000B0H.5 SFRSYM    DATA     BIT       CLKOUT0
      000000B0H.5 SFRSYM    DATA     BIT       T1
      000000E2H   SFRSYM    DATA     BYTE      P7M0
      000000CBH   SFRSYM    DATA     BYTE      P6M1
      000000C8H   SFRSYM    DATA     BYTE      P5
      000000C6H   SFRSYM    DATA     BYTE      ISP_TRIG
      000000A8H.7 SFRSYM    DATA     BIT       EA
      000000B0H.4 SFRSYM    DATA     BIT       CLKOUT1
      000000A0H.4 SFRSYM    DATA     BIT       SPI_SS_2
      000000E8H   SFRSYM    DATA     BYTE      P6
      000000E1H   SFRSYM    DATA     BYTE      P7M1
      000000C8H.4 SFRSYM    DATA     BIT       SPI_SS_3
      00000090H.4 SFRSYM    DATA     BIT       SPI_MISO
      00000090H.3 SFRSYM    DATA     BIT       SPI_MOSI
      00000090H.1 SFRSYM    DATA     BIT       CCP0
      000000F8H   SFRSYM    DATA     BYTE      P7
      000000AAH   SFRSYM    DATA     BYTE      WKTCL
      00000090H   SFRSYM    DATA     BIT       CCP1
      000000CEH   SFRSYM    DATA     BYTE      SPCTL
      000000D8H.7 SFRSYM    DATA     BIT       CF
      000000B0H.7 SFRSYM    DATA     BIT       CCP2
      000000F9H   SFRSYM    DATA     BYTE      CH
      000000A2H   SFRSYM    DATA     BYTE      P_SW1
      000000BAH   SFRSYM    DATA     BYTE      P_SW2
      000000A8H.5 SFRSYM    DATA     BIT       EADC
      000000A0H.1 SFRSYM    DATA     BIT       SPI_SCLK_2
      000000A8H   SFRSYM    DATA     BYTE      IE
      000000C0H.3 SFRSYM    DATA     BIT       SPI_SCLK_3
      000000E9H   SFRSYM    DATA     BYTE      CL
      000000C5H   SFRSYM    DATA     BYTE      IAP_CMD
      000000FAH   SFRSYM    DATA     BYTE      CCAP0H
LX51 LINKER/LOCATER V4.66.41.0                                                        12/07/2018  17:31:29  PAGE 126


      000000FBH   SFRSYM    DATA     BYTE      CCAP1H
      000000FCH   SFRSYM    DATA     BYTE      CCAP2H
      000000BDH   SFRSYM    DATA     BYTE      ADC_RES
      000000B6H   SFRSYM    DATA     BYTE      IPH2
      000000D8H.6 SFRSYM    DATA     BIT       CR
      000000EAH   SFRSYM    DATA     BYTE      CCAP0L
      000000B0H.7 SFRSYM    DATA     BIT       RD
      000000EBH   SFRSYM    DATA     BYTE      CCAP1L
      000000DAH   SFRSYM    DATA     BYTE      CCAPM0
      000000ECH   SFRSYM    DATA     BYTE      CCAP2L
      000000DBH   SFRSYM    DATA     BYTE      CCAPM1
      000000A8H.4 SFRSYM    DATA     BIT       ES
      000000DCH   SFRSYM    DATA     BYTE      CCAPM2
      000000B8H.5 SFRSYM    DATA     BIT       PADC
      000000A0H.2 SFRSYM    DATA     BIT       SPI_MISO_2
      000000A0H.3 SFRSYM    DATA     BIT       SPI_MOSI_2
      000000B8H   SFRSYM    DATA     BYTE      IP
      000000C0H.1 SFRSYM    DATA     BIT       SPI_MISO_3
      000000C0H   SFRSYM    DATA     BIT       SPI_MOSI_3
      00000098H   SFRSYM    DATA     BIT       RI
      000000B0H.2 SFRSYM    DATA     BIT       INT0
      000000D0H.7 SFRSYM    DATA     BIT       CY
      00000098H.1 SFRSYM    DATA     BIT       TI
      000000B0H.3 SFRSYM    DATA     BIT       INT1
      00000097H   SFRSYM    DATA     BYTE      CLK_DIV
      000000C3H   SFRSYM    DATA     BYTE      IAP_ADDRH
      00000090H   SFRSYM    DATA     BIT       RXD2
      000000C5H   SFRSYM    DATA     BYTE      ISP_CMD
      000000B8H.4 SFRSYM    DATA     BIT       PS
      00000090H.1 SFRSYM    DATA     BIT       TXD2
      00000081H   SFRSYM    DATA     BYTE      SP
      000000D9H   SFRSYM    DATA     BYTE      CMOD
      000000D8H   SFRSYM    DATA     BYTE      CCON
      000000C4H   SFRSYM    DATA     BYTE      IAP_ADDRL
      000000B8H.7 SFRSYM    DATA     BIT       PPCA
      000000D0H.2 SFRSYM    DATA     BIT       OV
      000000B0H.6 SFRSYM    DATA     BIT       WR
      000000A8H.6 SFRSYM    DATA     BIT       ELVD
      00000080H   SFRSYM    DATA     BIT       P00
      00000090H   SFRSYM    DATA     BIT       P10
      00000080H.1 SFRSYM    DATA     BIT       P01
      000000BCH   SFRSYM    DATA     BYTE      ADC_CONTR
      00000099H   SFRSYM    DATA     BYTE      SBUF
      00000087H   SFRSYM    DATA     BYTE      PCON
      000000A0H   SFRSYM    DATA     BIT       P20
      00000090H.1 SFRSYM    DATA     BIT       P11
      00000080H.2 SFRSYM    DATA     BIT       P02
      000000C3H   SFRSYM    DATA     BYTE      ISP_ADDRH
      000000B0H   SFRSYM    DATA     BIT       P30
      000000A0H.1 SFRSYM    DATA     BIT       P21
      00000090H.2 SFRSYM    DATA     BIT       P12
      00000080H.3 SFRSYM    DATA     BIT       P03
      000000C0H   SFRSYM    DATA     BIT       P40
      000000B0H.1 SFRSYM    DATA     BIT       P31
      000000A0H.2 SFRSYM    DATA     BIT       P22
      00000090H.3 SFRSYM    DATA     BIT       P13
      00000080H.4 SFRSYM    DATA     BIT       P04
      00000098H   SFRSYM    DATA     BYTE      SCON
      0000008FH   SFRSYM    DATA     BYTE      WAKE_CLKO
      000000C8H   SFRSYM    DATA     BIT       P50
      000000C0H.1 SFRSYM    DATA     BIT       P41
      000000B0H.2 SFRSYM    DATA     BIT       P32
      000000A0H.3 SFRSYM    DATA     BIT       P23
      00000090H.4 SFRSYM    DATA     BIT       P14
      00000080H.5 SFRSYM    DATA     BIT       P05
LX51 LINKER/LOCATER V4.66.41.0                                                        12/07/2018  17:31:29  PAGE 127


      00000089H   SFRSYM    DATA     BYTE      TMOD
      00000088H   SFRSYM    DATA     BYTE      TCON
      000000C8H.1 SFRSYM    DATA     BIT       P51
      000000C0H.2 SFRSYM    DATA     BIT       P42
      000000B0H.3 SFRSYM    DATA     BIT       P33
      000000A0H.4 SFRSYM    DATA     BIT       P24
      00000090H.5 SFRSYM    DATA     BIT       P15
      00000080H.6 SFRSYM    DATA     BIT       P06
      000000C4H   SFRSYM    DATA     BYTE      ISP_ADDRL
      000000B8H.6 SFRSYM    DATA     BIT       PLVD
      000000C8H.2 SFRSYM    DATA     BIT       P52
      000000C0H.3 SFRSYM    DATA     BIT       P43
      000000B0H.4 SFRSYM    DATA     BIT       P34
      000000A0H.5 SFRSYM    DATA     BIT       P25
      00000090H.6 SFRSYM    DATA     BIT       P16
      00000080H.7 SFRSYM    DATA     BIT       P07
      000000C8H.3 SFRSYM    DATA     BIT       P53
      000000C0H.4 SFRSYM    DATA     BIT       P44
      000000B0H.5 SFRSYM    DATA     BIT       P35
      000000A0H.6 SFRSYM    DATA     BIT       P26
      00000090H.7 SFRSYM    DATA     BIT       P17
      000000C8H.4 SFRSYM    DATA     BIT       P54
      000000C0H.5 SFRSYM    DATA     BIT       P45
      000000B0H.6 SFRSYM    DATA     BIT       P36
      000000A0H.7 SFRSYM    DATA     BIT       P27
      000000C8H.5 SFRSYM    DATA     BIT       P55
      000000C0H.6 SFRSYM    DATA     BIT       P46
      000000B0H.7 SFRSYM    DATA     BIT       P37
      000000C8H.6 SFRSYM    DATA     BIT       P56
      000000C0H.7 SFRSYM    DATA     BIT       P47
      000000C8H.7 SFRSYM    DATA     BIT       P57
      00000088H.1 SFRSYM    DATA     BIT       IE0
      000000A1H   SFRSYM    DATA     BYTE      BUS_SPEED
      00000088H.3 SFRSYM    DATA     BIT       IE1
      000000AFH   SFRSYM    DATA     BYTE      IE2
      000000F0H   SFRSYM    DATA     BYTE      B
      0000008EH   SFRSYM    DATA     BYTE      AUXR
      000000C7H   SFRSYM    DATA     BYTE      IAP_CONTR
      000000E0H   SFRSYM    DATA     BYTE      ACC
      000000A8H.1 SFRSYM    DATA     BIT       ET0
      000000A8H.3 SFRSYM    DATA     BIT       ET1
      00000088H.5 SFRSYM    DATA     BIT       TF0
      00000088H.7 SFRSYM    DATA     BIT       TF1
      000000B5H   SFRSYM    DATA     BYTE      IP2
      0000008CH   SFRSYM    DATA     BYTE      RL_TH0
      00000098H.2 SFRSYM    DATA     BIT       RB8
      0000008DH   SFRSYM    DATA     BYTE      RL_TH1
      0000008CH   SFRSYM    DATA     BYTE      TH0
      000000A8H   SFRSYM    DATA     BIT       EX0
      00000088H   SFRSYM    DATA     BIT       IT0
      000000D6H   SFRSYM    DATA     BYTE      RL_T2H
      0000008DH   SFRSYM    DATA     BYTE      TH1
      000000A8H.2 SFRSYM    DATA     BIT       EX1
      00000098H.3 SFRSYM    DATA     BIT       TB8
      00000088H.2 SFRSYM    DATA     BIT       IT1
      000000D4H   SFRSYM    DATA     BYTE      RL_T3H
      000000D6H   SFRSYM    DATA     BYTE      TH2
      000000D6H   SFRSYM    DATA     BYTE      T2H
      000000D0H   SFRSYM    DATA     BIT       P
      000000D2H   SFRSYM    DATA     BYTE      RL_T4H
      000000D4H   SFRSYM    DATA     BYTE      TH3
      000000D4H   SFRSYM    DATA     BYTE      T3H
      0000008AH   SFRSYM    DATA     BYTE      RL_TL0
      00000098H.7 SFRSYM    DATA     BIT       SM0
      000000D2H   SFRSYM    DATA     BYTE      TH4
LX51 LINKER/LOCATER V4.66.41.0                                                        12/07/2018  17:31:29  PAGE 128


      000000D2H   SFRSYM    DATA     BYTE      T4H
      0000008BH   SFRSYM    DATA     BYTE      RL_TL1
      0000008AH   SFRSYM    DATA     BYTE      TL0
      00000098H.6 SFRSYM    DATA     BIT       SM1
      000000D7H   SFRSYM    DATA     BYTE      RL_T2L
      0000008BH   SFRSYM    DATA     BYTE      TL1
      00000098H.5 SFRSYM    DATA     BIT       SM2
      000000D5H   SFRSYM    DATA     BYTE      RL_T3L
      000000D7H   SFRSYM    DATA     BYTE      TL2
      000000D7H   SFRSYM    DATA     BYTE      T2L
      000000D3H   SFRSYM    DATA     BYTE      RL_T4L
      000000D5H   SFRSYM    DATA     BYTE      TL3
      000000D5H   SFRSYM    DATA     BYTE      T3L
      000000B8H.1 SFRSYM    DATA     BIT       PT0
      000000D3H   SFRSYM    DATA     BYTE      TL4
      000000D3H   SFRSYM    DATA     BYTE      T4L
      000000B8H.3 SFRSYM    DATA     BIT       PT1
      000000D0H.3 SFRSYM    DATA     BIT       RS0
      000000C7H   SFRSYM    DATA     BYTE      ISP_CONTR
      00000088H.4 SFRSYM    DATA     BIT       TR0
      000000D0H.4 SFRSYM    DATA     BIT       RS1
      000000C2H   SFRSYM    DATA     BYTE      IAP_DATA
      00000088H.6 SFRSYM    DATA     BIT       TR1
      000000B8H   SFRSYM    DATA     BIT       PX0
      000000C1H   SFRSYM    DATA     BYTE      WDT_CONTR
      000000B8H.2 SFRSYM    DATA     BIT       PX1
      000000F2H   SFRSYM    DATA     BYTE      PCA_PWM0
      000000F3H   SFRSYM    DATA     BYTE      PCA_PWM1
      000000F4H   SFRSYM    DATA     BYTE      PCA_PWM2
      0000009DH   SFRSYM    DATA     BYTE      P1ASF
      00000083H   SFRSYM    DATA     BYTE      DPH
      000000D1H   SFRSYM    DATA     BYTE      T4T3M
      000000BEH   SFRSYM    DATA     BYTE      ADC_RESL
      00000082H   SFRSYM    DATA     BYTE      DPL
      000000CDH   SFRSYM    DATA     BYTE      SPSTAT
      000000B7H   SFRSYM    DATA     BYTE      IPH
      0000009BH   SFRSYM    DATA     BYTE      S2BUF
      00000097H   SFRSYM    DATA     BYTE      PCON2
      000000ADH   SFRSYM    DATA     BYTE      S3BUF
      00000098H.4 SFRSYM    DATA     BIT       REN
      00000085H   SFRSYM    DATA     BYTE      S4BUF
      0000009AH   SFRSYM    DATA     BYTE      S2CON
      000000ACH   SFRSYM    DATA     BYTE      S3CON
      000000C2H   SFRSYM    DATA     BYTE      ISP_DATA
      00000084H   SFRSYM    DATA     BYTE      S4CON
      000000B9H   SFRSYM    DATA     BYTE      SADEN
      000000B0H   SFRSYM    DATA     BIT       RXD
      000000A9H   SFRSYM    DATA     BYTE      SADDR
      000000B0H.1 SFRSYM    DATA     BIT       TXD
      000000F0H   SFRSYM    DATA     BIT       B0
      000000F0H.1 SFRSYM    DATA     BIT       B1
      000000C6H   SFRSYM    DATA     BYTE      IAP_TRIG
      000000A2H   SFRSYM    DATA     BYTE      AUXR1
      000000F0H.2 SFRSYM    DATA     BIT       B2
      00000090H.2 SFRSYM    DATA     BIT       SPI_SS
      0000008FH   SFRSYM    DATA     BYTE      AUXR2
      000000F0H.3 SFRSYM    DATA     BIT       B3
      000000F0H.4 SFRSYM    DATA     BIT       B4
      000000D0H.5 SFRSYM    DATA     BIT       F0
      000000F0H.5 SFRSYM    DATA     BIT       B5
      000000D0H.1 SFRSYM    DATA     BIT       F1
      0000008FH   SFRSYM    DATA     BYTE      INT_CLKO
      000000F0H.6 SFRSYM    DATA     BIT       B6
      000000E0H   SFRSYM    DATA     BIT       ACC0
      000000F0H.7 SFRSYM    DATA     BIT       B7
LX51 LINKER/LOCATER V4.66.41.0                                                        12/07/2018  17:31:29  PAGE 129


      000000E0H.1 SFRSYM    DATA     BIT       ACC1
      000000E0H.2 SFRSYM    DATA     BIT       ACC2
      000000E0H.3 SFRSYM    DATA     BIT       ACC3
      000000D0H   SFRSYM    DATA     BYTE      PSW
      000000E0H.4 SFRSYM    DATA     BIT       ACC4
      00000090H.5 SFRSYM    DATA     BIT       SPI_SCLK
      000000D8H   SFRSYM    DATA     BIT       CCF0
      000000E0H.5 SFRSYM    DATA     BIT       ACC5
      000000D8H.1 SFRSYM    DATA     BIT       CCF1
      000000E0H.6 SFRSYM    DATA     BIT       ACC6
      000000CFH   SFRSYM    DATA     BYTE      SPDAT
      00000094H   SFRSYM    DATA     BYTE      P0M0

      01007594H   BLOCK     CODE     ---       LVL=0
      00000007H   SYMBOL    DATA     BYTE      ms
      01007594H   BLOCK     CODE     NEAR LAB  LVL=1
      00000004H   SYMBOL    DATA     WORD      i
      ---         BLOCKEND  ---      ---       LVL=1
      01007594H   LINE      CODE     ---       #31
      01007594H   LINE      CODE     ---       #32
      01007594H   LINE      CODE     ---       #34
      01007594H   LINE      CODE     ---       #35
      01007598H   LINE      CODE     ---       #36
      010075A1H   LINE      CODE     ---       #37
      010075A3H   LINE      CODE     ---       #38
      ---         BLOCKEND  ---      ---       LVL=0

      01007510H   BLOCK     CODE     ---       LVL=0
      00000002H   SYMBOL    DATA     WORD      ms
      01007510H   LINE      CODE     ---       #40
      01007514H   LINE      CODE     ---       #42
      01007524H   LINE      CODE     ---       #43
      ---         BLOCKEND  ---      ---       LVL=0

      ---         MODULE    ---      ---       EEPROM
      00000033H   PUBLIC    DATA     BYTE      ?_coverEEPROM_write_n?BYTE
      01006DB2H   PUBLIC    CODE     ---       _coverEEPROM_write_n
      0000003AH   PUBLIC    DATA     BYTE      ?_EEPROM_write_n?BYTE
      01007126H   PUBLIC    CODE     ---       _EEPROM_write_n
      01007405H   PUBLIC    CODE     ---       _EEPROM_SectorErase
      0000004FH   PUBLIC    DATA     BYTE      ?_EEPROM_read_n?BYTE
      01007216H   PUBLIC    CODE     ---       _EEPROM_read_n
      010075A4H   PUBLIC    CODE     ---       DisableEEPROM
      000000D8H.2 SFRSYM    DATA     BIT       CCF2
      000000E0H.7 SFRSYM    DATA     BIT       ACC7
      00000093H   SFRSYM    DATA     BYTE      P0M1
      00000092H   SFRSYM    DATA     BYTE      P1M0
      00000096H   SFRSYM    DATA     BYTE      P2M0
      00000091H   SFRSYM    DATA     BYTE      P1M1
      00000080H   SFRSYM    DATA     BYTE      P0
      000000B2H   SFRSYM    DATA     BYTE      P3M0
      00000095H   SFRSYM    DATA     BYTE      P2M1
      00000090H   SFRSYM    DATA     BYTE      P1
      000000B4H   SFRSYM    DATA     BYTE      P4M0
      000000B1H   SFRSYM    DATA     BYTE      P3M1
      000000A0H   SFRSYM    DATA     BYTE      P2
      000000CAH   SFRSYM    DATA     BYTE      P5M0
      000000B3H   SFRSYM    DATA     BYTE      P4M1
      000000B0H   SFRSYM    DATA     BYTE      P3
      000000ABH   SFRSYM    DATA     BYTE      WKTCH
      000000B0H.4 SFRSYM    DATA     BIT       T0
      000000D0H.6 SFRSYM    DATA     BIT       AC
      000000CCH   SFRSYM    DATA     BYTE      P6M0
      000000C9H   SFRSYM    DATA     BYTE      P5M1
      000000C0H   SFRSYM    DATA     BYTE      P4
LX51 LINKER/LOCATER V4.66.41.0                                                        12/07/2018  17:31:29  PAGE 130


      000000B0H.5 SFRSYM    DATA     BIT       CLKOUT0
      000000B0H.5 SFRSYM    DATA     BIT       T1
      000000E2H   SFRSYM    DATA     BYTE      P7M0
      000000CBH   SFRSYM    DATA     BYTE      P6M1
      000000C8H   SFRSYM    DATA     BYTE      P5
      000000C6H   SFRSYM    DATA     BYTE      ISP_TRIG
      000000A8H.7 SFRSYM    DATA     BIT       EA
      000000B0H.4 SFRSYM    DATA     BIT       CLKOUT1
      000000A0H.4 SFRSYM    DATA     BIT       SPI_SS_2
      000000E8H   SFRSYM    DATA     BYTE      P6
      000000E1H   SFRSYM    DATA     BYTE      P7M1
      000000C8H.4 SFRSYM    DATA     BIT       SPI_SS_3
      00000090H.4 SFRSYM    DATA     BIT       SPI_MISO
      00000090H.3 SFRSYM    DATA     BIT       SPI_MOSI
      00000090H.1 SFRSYM    DATA     BIT       CCP0
      000000F8H   SFRSYM    DATA     BYTE      P7
      000000AAH   SFRSYM    DATA     BYTE      WKTCL
      00000090H   SFRSYM    DATA     BIT       CCP1
      000000CEH   SFRSYM    DATA     BYTE      SPCTL
      000000D8H.7 SFRSYM    DATA     BIT       CF
      000000B0H.7 SFRSYM    DATA     BIT       CCP2
      000000F9H   SFRSYM    DATA     BYTE      CH
      000000A2H   SFRSYM    DATA     BYTE      P_SW1
      000000BAH   SFRSYM    DATA     BYTE      P_SW2
      000000A8H.5 SFRSYM    DATA     BIT       EADC
      000000A0H.1 SFRSYM    DATA     BIT       SPI_SCLK_2
      000000A8H   SFRSYM    DATA     BYTE      IE
      000000C0H.3 SFRSYM    DATA     BIT       SPI_SCLK_3
      000000E9H   SFRSYM    DATA     BYTE      CL
      000000C5H   SFRSYM    DATA     BYTE      IAP_CMD
      000000FAH   SFRSYM    DATA     BYTE      CCAP0H
      000000FBH   SFRSYM    DATA     BYTE      CCAP1H
      000000FCH   SFRSYM    DATA     BYTE      CCAP2H
      000000BDH   SFRSYM    DATA     BYTE      ADC_RES
      000000B6H   SFRSYM    DATA     BYTE      IPH2
      000000D8H.6 SFRSYM    DATA     BIT       CR
      000000EAH   SFRSYM    DATA     BYTE      CCAP0L
      000000B0H.7 SFRSYM    DATA     BIT       RD
      000000EBH   SFRSYM    DATA     BYTE      CCAP1L
      000000DAH   SFRSYM    DATA     BYTE      CCAPM0
      000000ECH   SFRSYM    DATA     BYTE      CCAP2L
      000000DBH   SFRSYM    DATA     BYTE      CCAPM1
      000000A8H.4 SFRSYM    DATA     BIT       ES
      000000DCH   SFRSYM    DATA     BYTE      CCAPM2
      000000B8H.5 SFRSYM    DATA     BIT       PADC
      000000A0H.2 SFRSYM    DATA     BIT       SPI_MISO_2
      000000A0H.3 SFRSYM    DATA     BIT       SPI_MOSI_2
      000000B8H   SFRSYM    DATA     BYTE      IP
      000000C0H.1 SFRSYM    DATA     BIT       SPI_MISO_3
      000000C0H   SFRSYM    DATA     BIT       SPI_MOSI_3
      00000098H   SFRSYM    DATA     BIT       RI
      000000B0H.2 SFRSYM    DATA     BIT       INT0
      000000D0H.7 SFRSYM    DATA     BIT       CY
      00000098H.1 SFRSYM    DATA     BIT       TI
      000000B0H.3 SFRSYM    DATA     BIT       INT1
      00000097H   SFRSYM    DATA     BYTE      CLK_DIV
      000000C3H   SFRSYM    DATA     BYTE      IAP_ADDRH
      00000090H   SFRSYM    DATA     BIT       RXD2
      000000C5H   SFRSYM    DATA     BYTE      ISP_CMD
      000000B8H.4 SFRSYM    DATA     BIT       PS
      00000090H.1 SFRSYM    DATA     BIT       TXD2
      00000081H   SFRSYM    DATA     BYTE      SP
      000000D9H   SFRSYM    DATA     BYTE      CMOD
      000000D8H   SFRSYM    DATA     BYTE      CCON
      000000C4H   SFRSYM    DATA     BYTE      IAP_ADDRL
LX51 LINKER/LOCATER V4.66.41.0                                                        12/07/2018  17:31:29  PAGE 131


      000000B8H.7 SFRSYM    DATA     BIT       PPCA
      000000D0H.2 SFRSYM    DATA     BIT       OV
      000000B0H.6 SFRSYM    DATA     BIT       WR
      000000A8H.6 SFRSYM    DATA     BIT       ELVD
      00000080H   SFRSYM    DATA     BIT       P00
      00000090H   SFRSYM    DATA     BIT       P10
      00000080H.1 SFRSYM    DATA     BIT       P01
      000000BCH   SFRSYM    DATA     BYTE      ADC_CONTR
      00000099H   SFRSYM    DATA     BYTE      SBUF
      00000087H   SFRSYM    DATA     BYTE      PCON
      000000A0H   SFRSYM    DATA     BIT       P20
      00000090H.1 SFRSYM    DATA     BIT       P11
      00000080H.2 SFRSYM    DATA     BIT       P02
      000000C3H   SFRSYM    DATA     BYTE      ISP_ADDRH
      000000B0H   SFRSYM    DATA     BIT       P30
      000000A0H.1 SFRSYM    DATA     BIT       P21
      00000090H.2 SFRSYM    DATA     BIT       P12
      00000080H.3 SFRSYM    DATA     BIT       P03
      000000C0H   SFRSYM    DATA     BIT       P40
      000000B0H.1 SFRSYM    DATA     BIT       P31
      000000A0H.2 SFRSYM    DATA     BIT       P22
      00000090H.3 SFRSYM    DATA     BIT       P13
      00000080H.4 SFRSYM    DATA     BIT       P04
      00000098H   SFRSYM    DATA     BYTE      SCON
      0000008FH   SFRSYM    DATA     BYTE      WAKE_CLKO
      000000C8H   SFRSYM    DATA     BIT       P50
      000000C0H.1 SFRSYM    DATA     BIT       P41
      000000B0H.2 SFRSYM    DATA     BIT       P32
      000000A0H.3 SFRSYM    DATA     BIT       P23
      00000090H.4 SFRSYM    DATA     BIT       P14
      00000080H.5 SFRSYM    DATA     BIT       P05
      00000089H   SFRSYM    DATA     BYTE      TMOD
      00000088H   SFRSYM    DATA     BYTE      TCON
      000000C8H.1 SFRSYM    DATA     BIT       P51
      000000C0H.2 SFRSYM    DATA     BIT       P42
      000000B0H.3 SFRSYM    DATA     BIT       P33
      000000A0H.4 SFRSYM    DATA     BIT       P24
      00000090H.5 SFRSYM    DATA     BIT       P15
      00000080H.6 SFRSYM    DATA     BIT       P06
      000000C4H   SFRSYM    DATA     BYTE      ISP_ADDRL
      000000B8H.6 SFRSYM    DATA     BIT       PLVD
      000000C8H.2 SFRSYM    DATA     BIT       P52
      000000C0H.3 SFRSYM    DATA     BIT       P43
      000000B0H.4 SFRSYM    DATA     BIT       P34
      000000A0H.5 SFRSYM    DATA     BIT       P25
      00000090H.6 SFRSYM    DATA     BIT       P16
      00000080H.7 SFRSYM    DATA     BIT       P07
      000000C8H.3 SFRSYM    DATA     BIT       P53
      000000C0H.4 SFRSYM    DATA     BIT       P44
      000000B0H.5 SFRSYM    DATA     BIT       P35
      000000A0H.6 SFRSYM    DATA     BIT       P26
      00000090H.7 SFRSYM    DATA     BIT       P17
      000000C8H.4 SFRSYM    DATA     BIT       P54
      000000C0H.5 SFRSYM    DATA     BIT       P45
      000000B0H.6 SFRSYM    DATA     BIT       P36
      000000A0H.7 SFRSYM    DATA     BIT       P27
      000000C8H.5 SFRSYM    DATA     BIT       P55
      000000C0H.6 SFRSYM    DATA     BIT       P46
      000000B0H.7 SFRSYM    DATA     BIT       P37
      000000C8H.6 SFRSYM    DATA     BIT       P56
      000000C0H.7 SFRSYM    DATA     BIT       P47
      000000C8H.7 SFRSYM    DATA     BIT       P57
      00000088H.1 SFRSYM    DATA     BIT       IE0
      000000A1H   SFRSYM    DATA     BYTE      BUS_SPEED
      00000088H.3 SFRSYM    DATA     BIT       IE1
LX51 LINKER/LOCATER V4.66.41.0                                                        12/07/2018  17:31:29  PAGE 132


      000000AFH   SFRSYM    DATA     BYTE      IE2
      000000F0H   SFRSYM    DATA     BYTE      B
      0000008EH   SFRSYM    DATA     BYTE      AUXR
      000000C7H   SFRSYM    DATA     BYTE      IAP_CONTR
      000000E0H   SFRSYM    DATA     BYTE      ACC
      000000A8H.1 SFRSYM    DATA     BIT       ET0
      000000A8H.3 SFRSYM    DATA     BIT       ET1
      00000088H.5 SFRSYM    DATA     BIT       TF0
      00000088H.7 SFRSYM    DATA     BIT       TF1
      000000B5H   SFRSYM    DATA     BYTE      IP2
      0000008CH   SFRSYM    DATA     BYTE      RL_TH0
      00000098H.2 SFRSYM    DATA     BIT       RB8
      0000008DH   SFRSYM    DATA     BYTE      RL_TH1
      0000008CH   SFRSYM    DATA     BYTE      TH0
      000000A8H   SFRSYM    DATA     BIT       EX0
      00000088H   SFRSYM    DATA     BIT       IT0
      000000D6H   SFRSYM    DATA     BYTE      RL_T2H
      0000008DH   SFRSYM    DATA     BYTE      TH1
      000000A8H.2 SFRSYM    DATA     BIT       EX1
      00000098H.3 SFRSYM    DATA     BIT       TB8
      00000088H.2 SFRSYM    DATA     BIT       IT1
      000000D4H   SFRSYM    DATA     BYTE      RL_T3H
      000000D6H   SFRSYM    DATA     BYTE      TH2
      000000D6H   SFRSYM    DATA     BYTE      T2H
      000000D0H   SFRSYM    DATA     BIT       P
      000000D2H   SFRSYM    DATA     BYTE      RL_T4H
      000000D4H   SFRSYM    DATA     BYTE      TH3
      000000D4H   SFRSYM    DATA     BYTE      T3H
      0000008AH   SFRSYM    DATA     BYTE      RL_TL0
      00000098H.7 SFRSYM    DATA     BIT       SM0
      000000D2H   SFRSYM    DATA     BYTE      TH4
      000000D2H   SFRSYM    DATA     BYTE      T4H
      0000008BH   SFRSYM    DATA     BYTE      RL_TL1
      0000008AH   SFRSYM    DATA     BYTE      TL0
      00000098H.6 SFRSYM    DATA     BIT       SM1
      000000D7H   SFRSYM    DATA     BYTE      RL_T2L
      0000008BH   SFRSYM    DATA     BYTE      TL1
      00000098H.5 SFRSYM    DATA     BIT       SM2
      000000D5H   SFRSYM    DATA     BYTE      RL_T3L
      000000D7H   SFRSYM    DATA     BYTE      TL2
      000000D7H   SFRSYM    DATA     BYTE      T2L
      000000D3H   SFRSYM    DATA     BYTE      RL_T4L
      000000D5H   SFRSYM    DATA     BYTE      TL3
      000000D5H   SFRSYM    DATA     BYTE      T3L
      000000B8H.1 SFRSYM    DATA     BIT       PT0
      000000D3H   SFRSYM    DATA     BYTE      TL4
      000000D3H   SFRSYM    DATA     BYTE      T4L
      000000B8H.3 SFRSYM    DATA     BIT       PT1
      000000D0H.3 SFRSYM    DATA     BIT       RS0
      000000C7H   SFRSYM    DATA     BYTE      ISP_CONTR
      00000088H.4 SFRSYM    DATA     BIT       TR0
      000000D0H.4 SFRSYM    DATA     BIT       RS1
      000000C2H   SFRSYM    DATA     BYTE      IAP_DATA
      00000088H.6 SFRSYM    DATA     BIT       TR1
      000000B8H   SFRSYM    DATA     BIT       PX0
      000000C1H   SFRSYM    DATA     BYTE      WDT_CONTR
      000000B8H.2 SFRSYM    DATA     BIT       PX1
      000000F2H   SFRSYM    DATA     BYTE      PCA_PWM0
      000000F3H   SFRSYM    DATA     BYTE      PCA_PWM1
      000000F4H   SFRSYM    DATA     BYTE      PCA_PWM2
      0000009DH   SFRSYM    DATA     BYTE      P1ASF
      00000083H   SFRSYM    DATA     BYTE      DPH
      000000D1H   SFRSYM    DATA     BYTE      T4T3M
      000000BEH   SFRSYM    DATA     BYTE      ADC_RESL
      00000082H   SFRSYM    DATA     BYTE      DPL
LX51 LINKER/LOCATER V4.66.41.0                                                        12/07/2018  17:31:29  PAGE 133


      000000CDH   SFRSYM    DATA     BYTE      SPSTAT
      000000B7H   SFRSYM    DATA     BYTE      IPH
      0000009BH   SFRSYM    DATA     BYTE      S2BUF
      00000097H   SFRSYM    DATA     BYTE      PCON2
      000000ADH   SFRSYM    DATA     BYTE      S3BUF
      00000098H.4 SFRSYM    DATA     BIT       REN
      00000085H   SFRSYM    DATA     BYTE      S4BUF
      0000009AH   SFRSYM    DATA     BYTE      S2CON
      000000ACH   SFRSYM    DATA     BYTE      S3CON
      000000C2H   SFRSYM    DATA     BYTE      ISP_DATA
      00000084H   SFRSYM    DATA     BYTE      S4CON
      000000B9H   SFRSYM    DATA     BYTE      SADEN
      000000B0H   SFRSYM    DATA     BIT       RXD
      000000A9H   SFRSYM    DATA     BYTE      SADDR
      000000B0H.1 SFRSYM    DATA     BIT       TXD
      000000F0H   SFRSYM    DATA     BIT       B0
      000000F0H.1 SFRSYM    DATA     BIT       B1
      000000C6H   SFRSYM    DATA     BYTE      IAP_TRIG
      000000A2H   SFRSYM    DATA     BYTE      AUXR1
      000000F0H.2 SFRSYM    DATA     BIT       B2
      00000090H.2 SFRSYM    DATA     BIT       SPI_SS
      0000008FH   SFRSYM    DATA     BYTE      AUXR2
      000000F0H.3 SFRSYM    DATA     BIT       B3
      000000F0H.4 SFRSYM    DATA     BIT       B4
      000000D0H.5 SFRSYM    DATA     BIT       F0
      000000F0H.5 SFRSYM    DATA     BIT       B5
      000000D0H.1 SFRSYM    DATA     BIT       F1
      0000008FH   SFRSYM    DATA     BYTE      INT_CLKO
      000000F0H.6 SFRSYM    DATA     BIT       B6
      000000E0H   SFRSYM    DATA     BIT       ACC0
      000000F0H.7 SFRSYM    DATA     BIT       B7
      000000E0H.1 SFRSYM    DATA     BIT       ACC1
      000000E0H.2 SFRSYM    DATA     BIT       ACC2
      000000E0H.3 SFRSYM    DATA     BIT       ACC3
      000000D0H   SFRSYM    DATA     BYTE      PSW
      000000E0H.4 SFRSYM    DATA     BIT       ACC4
      00000090H.5 SFRSYM    DATA     BIT       SPI_SCLK
      000000D8H   SFRSYM    DATA     BIT       CCF0
      000000E0H.5 SFRSYM    DATA     BIT       ACC5
      000000D8H.1 SFRSYM    DATA     BIT       CCF1
      000000E0H.6 SFRSYM    DATA     BIT       ACC6
      000000CFH   SFRSYM    DATA     BYTE      SPDAT
      00000094H   SFRSYM    DATA     BYTE      P0M0
      010075FDH   SYMBOL    CONST    ---       _?ix1000

      010075A4H   BLOCK     CODE     ---       LVL=0
      010075A4H   LINE      CODE     ---       #17
      010075A4H   LINE      CODE     ---       #18
      010075A4H   LINE      CODE     ---       #19
      010075A7H   LINE      CODE     ---       #20
      010075A9H   LINE      CODE     ---       #21
      010075ABH   LINE      CODE     ---       #22
      010075AEH   LINE      CODE     ---       #23
      010075B1H   LINE      CODE     ---       #24
      ---         BLOCKEND  ---      ---       LVL=0

      01007216H   BLOCK     CODE     ---       LVL=0
      00000004H   SYMBOL    DATA     WORD      EE_address
      00000001H   SYMBOL    DATA     ---       DataAddress
      00000054H   SYMBOL    DATA     WORD      number
      01007216H   LINE      CODE     ---       #36
      0100721AH   LINE      CODE     ---       #37
      0100721AH   LINE      CODE     ---       #39
      0100721DH   LINE      CODE     ---       #40
      01007220H   LINE      CODE     ---       #42
LX51 LINKER/LOCATER V4.66.41.0                                                        12/07/2018  17:31:29  PAGE 134


      01007220H   LINE      CODE     ---       #43
      01007222H   LINE      CODE     ---       #44
      01007226H   LINE      CODE     ---       #45
      0100722CH   LINE      CODE     ---       #48
      0100722DH   LINE      CODE     ---       #49
      01007232H   LINE      CODE     ---       #50
      01007237H   LINE      CODE     ---       #51
      0100723EH   LINE      CODE     ---       #52
      0100724BH   LINE      CODE     ---       #54
      ---         BLOCKEND  ---      ---       LVL=0

      01007405H   BLOCK     CODE     ---       LVL=0
      00000004H   SYMBOL    DATA     WORD      EE_address
      01007405H   LINE      CODE     ---       #67
      01007409H   LINE      CODE     ---       #68
      01007409H   LINE      CODE     ---       #69
      0100740BH   LINE      CODE     ---       #72
      0100740DH   LINE      CODE     ---       #73
      01007411H   LINE      CODE     ---       #74
      01007414H   LINE      CODE     ---       #75
      01007417H   LINE      CODE     ---       #76
      0100741DH   LINE      CODE     ---       #77
      0100741EH   LINE      CODE     ---       #78
      01007421H   LINE      CODE     ---       #79
      01007423H   LINE      CODE     ---       #80
      ---         BLOCKEND  ---      ---       LVL=0

      01007126H   BLOCK     CODE     ---       LVL=0
      00000004H   SYMBOL    DATA     WORD      EE_address
      00000001H   SYMBOL    DATA     ---       DataAddress
      0000003FH   SYMBOL    DATA     WORD      number
      01007126H   LINE      CODE     ---       #91
      0100712AH   LINE      CODE     ---       #92
      0100712AH   LINE      CODE     ---       #93
      0100712CH   LINE      CODE     ---       #95
      0100712FH   LINE      CODE     ---       #96
      01007132H   LINE      CODE     ---       #98
      01007132H   LINE      CODE     ---       #99
      01007134H   LINE      CODE     ---       #100
      01007138H   LINE      CODE     ---       #101
      0100713DH   LINE      CODE     ---       #102
      01007143H   LINE      CODE     ---       #103
      01007144H   LINE      CODE     ---       #104
      01007149H   LINE      CODE     ---       #105
      01007150H   LINE      CODE     ---       #106
      0100715DH   LINE      CODE     ---       #108
      01007160H   LINE      CODE     ---       #109
      01007162H   LINE      CODE     ---       #110
      ---         BLOCKEND  ---      ---       LVL=0

      01006DB2H   BLOCK     CODE     ---       LVL=0
      00000033H   SYMBOL    DATA     WORD      EE_address
      00000035H   SYMBOL    DATA     ---       DataAddress
      00000038H   SYMBOL    DATA     WORD      number
      01006DBCH   BLOCK     CODE     NEAR LAB  LVL=1
      020001DBH   SYMBOL    XDATA    ---       datsTemp
      ---         BLOCKEND  ---      ---       LVL=1
      01006DB2H   LINE      CODE     ---       #122
      01006DBCH   LINE      CODE     ---       #124
      01006DCFH   LINE      CODE     ---       #126
      01006DE1H   LINE      CODE     ---       #127
      01006DE6H   LINE      CODE     ---       #129
      01006E01H   LINE      CODE     ---       #131
      ---         BLOCKEND  ---      ---       LVL=0

LX51 LINKER/LOCATER V4.66.41.0                                                        12/07/2018  17:31:29  PAGE 135


      ---         MODULE    ---      ---       PARS_METHOD
      00000046H   PUBLIC    DATA     BYTE      ?_memmem?BYTE
      01006A20H   PUBLIC    CODE     ---       _memmem

      01006A20H   BLOCK     CODE     ---       LVL=0
      00000046H   SYMBOL    DATA     ---       start
      00000049H   SYMBOL    DATA     BYTE      s_len
      0000004AH   SYMBOL    DATA     ---       find
      0000004DH   SYMBOL    DATA     BYTE      f_len
      01006A28H   BLOCK     CODE     NEAR LAB  LVL=1
      0000004EH   SYMBOL    DATA     BYTE      len
      0000004FH   SYMBOL    DATA     ---       p
      00000052H   SYMBOL    DATA     ---       q
      ---         BLOCKEND  ---      ---       LVL=1
      01006A20H   LINE      CODE     ---       #4
      01006A28H   LINE      CODE     ---       #6
      01006A2BH   LINE      CODE     ---       #7
      01006A31H   LINE      CODE     ---       #8
      01006A3AH   LINE      CODE     ---       #10
      01006A59H   LINE      CODE     ---       #12
      01006A7FH   LINE      CODE     ---       #14
      01006A81H   LINE      CODE     ---       #15
      01006A92H   LINE      CODE     ---       #16
      01006A92H   LINE      CODE     ---       #18
      01006A9BH   LINE      CODE     ---       #19
      01006A9EH   LINE      CODE     ---       #20
      01006AA0H   LINE      CODE     ---       #22
      01006AA6H   LINE      CODE     ---       #23
      ---         BLOCKEND  ---      ---       LVL=0

      ---         MODULE    ---      ---       ?C_STARTUP
      01000000H   PUBLIC    CODE     ---       ?C_STARTUP

      ---         MODULE    ---      ---       ?C?COPY
      010034A6H   PUBLIC    CODE     ---       ?C?COPY

      ---         MODULE    ---      ---       ?C?CLDPTR
      010034CCH   PUBLIC    CODE     ---       ?C?CLDPTR

      ---         MODULE    ---      ---       ?C?CLDOPTR
      010034E5H   PUBLIC    CODE     ---       ?C?CLDOPTR

      ---         MODULE    ---      ---       ?C?CSTPTR
      01003512H   PUBLIC    CODE     ---       ?C?CSTPTR

      ---         MODULE    ---      ---       ?C?CSTOPTR
      01003524H   PUBLIC    CODE     ---       ?C?CSTOPTR

      ---         MODULE    ---      ---       ?C?IMUL
      01003546H   PUBLIC    CODE     ---       ?C?IMUL

      ---         MODULE    ---      ---       ?C?UIDIV
      01003558H   PUBLIC    CODE     ---       ?C?UIDIV

      ---         MODULE    ---      ---       ?C?LMUL
      010035ADH   PUBLIC    CODE     ---       ?C?LMUL

      ---         MODULE    ---      ---       ?C?ULCMP
      010035FCH   PUBLIC    CODE     ---       ?C?ULCMP

      ---         MODULE    ---      ---       ?C?ULSHR
      0100360DH   PUBLIC    CODE     ---       ?C?ULSHR

      ---         MODULE    ---      ---       ?C?LSHL
      01003620H   PUBLIC    CODE     ---       ?C?LSHL
LX51 LINKER/LOCATER V4.66.41.0                                                        12/07/2018  17:31:29  PAGE 136



      ---         MODULE    ---      ---       ?C?OFFXADD
      01003633H   PUBLIC    CODE     ---       ?C?OFFXADD

      ---         MODULE    ---      ---       ?C?CCASE
      0100363FH   PUBLIC    CODE     ---       ?C?CCASE

      ---         MODULE    ---      ---       ?C?ICALL
      01003665H   PUBLIC    CODE     ---       ?C?ICALL
      01003669H   PUBLIC    CODE     ---       ?C?ICALL2

      ---         MODULE    ---      ---       PRINTF
      00000038H   PUBLIC    DATA     ---       ?_PRINTF517?BYTE
      00000038H   PUBLIC    DATA     ---       ?_PRINTF?BYTE
      00000038H   PUBLIC    DATA     ---       ?_SPRINTF517?BYTE
      00000038H   PUBLIC    DATA     ---       ?_SPRINTF?BYTE
      0100448BH   PUBLIC    CODE     ---       _PRINTF
      0100448BH   PUBLIC    CODE     ---       _PRINTF517
      01004485H   PUBLIC    CODE     ---       _SPRINTF
      01004485H   PUBLIC    CODE     ---       _SPRINTF517

      ---         MODULE    ---      ---       ?C?MEMCMP
      010037F1H   PUBLIC    CODE     ---       ?C?MEMCMP

      ---         MODULE    ---      ---       ?C?MEMSET
      01003815H   PUBLIC    CODE     ---       ?C?MEMSET

      ---         MODULE    ---      ---       ?C_INIT
      010068CAH   PUBLIC    CODE     ---       ?C_START

      ---         MODULE    ---      ---       ?C?PLDIIDATA
      01003841H   PUBLIC    CODE     ---       ?C?PLDIIDATA

      ---         MODULE    ---      ---       PUTCHAR
      01007328H   PUBLIC    CODE     ---       _PUTCHAR

Program Size: data=152.2 xdata=1644 const=135 code=30202
LX51 RUN COMPLETE.  0 WARNING(S),  0 ERROR(S)
