LX51 LINKER/LOCATER V4.66.41.0                                                          11/02/2018  15:47:42  PAGE 1


LX51 LINKER/LOCATER V4.66.41.0, INVOKED BY:
C:\KEIL_V5\C51\BIN\LX51.EXE .\Output\Usr_Main.obj, .\Output\appTimer.obj, .\Output\dataManage.obj, .\Output\Tips.obj, .\
>> Output\devlopeDebug.obj, .\Output\dataTrans.obj, .\Output\usrKin.obj, .\Output\Relay.obj, .\Output\timerAct.obj, .\Ou
>> tput\touchPad.obj, .\Output\USART.obj, .\Output\delay.obj, .\Output\EEPROM.obj, .\Output\pars_Method.obj TO .\Output\
>> swZigbNode_sw3bit PRINT (.\Listings\swZigbNode_sw3bit.map) REMOVEUNUSED


CPU MODE:     8051 MODE
MEMORY MODEL: SMALL


INPUT MODULES INCLUDED:
  .\Output\Usr_Main.obj (USR_MAIN)
         COMMENT TYPE 0: C51 V9.54
  .\Output\appTimer.obj (APPTIMER)
         COMMENT TYPE 0: C51 V9.54
  .\Output\dataManage.obj (DATAMANAGE)
         COMMENT TYPE 0: C51 V9.54
  .\Output\Tips.obj (TIPS)
         COMMENT TYPE 0: C51 V9.54
  .\Output\devlopeDebug.obj (DEVLOPEDEBUG)
         COMMENT TYPE 0: C51 V9.54
  .\Output\dataTrans.obj (DATATRANS)
         COMMENT TYPE 0: C51 V9.54
  .\Output\usrKin.obj (USRKIN)
         COMMENT TYPE 0: C51 V9.54
  .\Output\Relay.obj (RELAY)
         COMMENT TYPE 0: C51 V9.54
  .\Output\timerAct.obj (TIMERACT)
         COMMENT TYPE 0: C51 V9.54
  .\Output\touchPad.obj (TOUCHPAD)
         COMMENT TYPE 0: C51 V9.54
  .\Output\USART.obj (USART)
         COMMENT TYPE 0: C51 V9.54
  .\Output\delay.obj (DELAY)
         COMMENT TYPE 0: C51 V9.54
  .\Output\EEPROM.obj (EEPROM)
         COMMENT TYPE 0: C51 V9.54
  .\Output\pars_Method.obj (PARS_METHOD)
         COMMENT TYPE 0: C51 V9.54
  C:\KEIL_V5\C51\LIB\C51S.LIB (?C_STARTUP)
         COMMENT TYPE 1: A51 / ASM51 Assembler
  C:\KEIL_V5\C51\LIB\C51S.LIB (?C?COPY)
         COMMENT TYPE 1: A51 / ASM51 Assembler
  C:\KEIL_V5\C51\LIB\C51S.LIB (?C?CLDPTR)
         COMMENT TYPE 1: A51 / ASM51 Assembler
  C:\KEIL_V5\C51\LIB\C51S.LIB (?C?CLDOPTR)
         COMMENT TYPE 1: A51 / ASM51 Assembler
  C:\KEIL_V5\C51\LIB\C51S.LIB (?C?CSTPTR)
         COMMENT TYPE 1: A51 / ASM51 Assembler
  C:\KEIL_V5\C51\LIB\C51S.LIB (?C?CSTOPTR)
         COMMENT TYPE 1: A51 / ASM51 Assembler
  C:\KEIL_V5\C51\LIB\C51S.LIB (?C?IMUL)
         COMMENT TYPE 1: A51 / ASM51 Assembler
  C:\KEIL_V5\C51\LIB\C51S.LIB (?C?UIDIV)
         COMMENT TYPE 1: A51 / ASM51 Assembler
  C:\KEIL_V5\C51\LIB\C51S.LIB (?C?LMUL)
         COMMENT TYPE 1: A51 / ASM51 Assembler
  C:\KEIL_V5\C51\LIB\C51S.LIB (?C?ULCMP)
         COMMENT TYPE 1: A51 / ASM51 Assembler
  C:\KEIL_V5\C51\LIB\C51S.LIB (?C?ULSHR)
         COMMENT TYPE 1: A51 / ASM51 Assembler
  C:\KEIL_V5\C51\LIB\C51S.LIB (?C?LSHL)
         COMMENT TYPE 1: A51 / ASM51 Assembler
  C:\KEIL_V5\C51\LIB\C51S.LIB (?C?CCASE)
         COMMENT TYPE 1: A51 / ASM51 Assembler
LX51 LINKER/LOCATER V4.66.41.0                                                        11/02/2018  15:47:42  PAGE 2


  C:\KEIL_V5\C51\LIB\C51S.LIB (?C?ICALL)
         COMMENT TYPE 1: A51 / ASM51 Assembler
  C:\KEIL_V5\C51\LIB\C51S.LIB (PRINTF)
         COMMENT TYPE 1: A51 / ASM51 Assembler
  C:\KEIL_V5\C51\LIB\C51S.LIB (?C?MEMCMP)
         COMMENT TYPE 1: A51 / ASM51 Assembler
  C:\KEIL_V5\C51\LIB\C51S.LIB (?C?MEMSET)
         COMMENT TYPE 1: A51 / ASM51 Assembler
  C:\KEIL_V5\C51\LIB\C51S.LIB (?C_INIT)
         COMMENT TYPE 1: A51 / ASM51 Assembler
  C:\KEIL_V5\C51\LIB\C51S.LIB (?C?PLDIIDATA)
         COMMENT TYPE 1: A51 / ASM51 Assembler
  C:\KEIL_V5\C51\LIB\C51S.LIB (PUTCHAR)
         COMMENT TYPE 1: A51 / ASM51 Assembler


ACTIVE MEMORY CLASSES OF MODULE:  .\Output\swZigbNode_sw3bit (USR_MAIN)

BASE        START       END         USED      MEMORY CLASS
==========================================================
C:000000H   C:000000H   C:00FFFFH   006408H   CODE
X:000000H   X:000000H   X:00FFFFH   00054FH   XDATA
I:000020H.0 I:000020H.0 I:00002FH.7 000005H.4 BIT
I:000000H   I:000000H   I:00007FH   00006FH   DATA
C:000000H   C:000000H   C:00FFFFH   000084H   CONST
I:000000H   I:000000H   I:0000FFH   000016H   IDATA


MEMORY MAP OF MODULE:  .\Output\swZigbNode_sw3bit (USR_MAIN)


START     STOP      LENGTH    ALIGN  RELOC    MEMORY CLASS   SEGMENT NAME
=========================================================================

* * * * * * * * * * *   D A T A   M E M O R Y   * * * * * * * * * * * * *
000000H   000007H   000008H   ---    AT..     DATA           "REG BANK 0"
000008H   000010H   000009H   BYTE   UNIT     DATA           ?DT?DATATRANS
000011H   000017H   000007H   BYTE   UNIT     DATA           ?DT?USART
000018H   00001DH   000006H   BYTE   UNIT     DATA           ?DT?USRKIN
00001EH   00001EH   000001H   BYTE   UNIT     IDATA          ?ID?USRKIN
00001FH.0 00001FH.7 000001H.0 ---    ---      **GAP**
000020H.0 000021H.6 000001H.7 BIT    UNIT     BIT            _BIT_GROUP_
000021H.7 000022H.6 000001H.0 BIT    UNIT     BIT            ?BI?DATATRANS
000022H.7 000023H.6 000001H.0 BIT    UNIT     BIT            ?BI?USRKIN
000023H.7 000024H.2 000000H.4 BIT    UNIT     BIT            ?BI?TIPS
000024H.3 000024H.6 000000H.4 BIT    UNIT     BIT            ?BI?TIMERACT
000024H.7 000024H.7 000000H.1 BIT    UNIT     BIT            ?BI?APPTIMER
000025H.0 000025H.0 000000H.1 BIT    UNIT     BIT            ?BI?DATAMANAGE
000025H.1 000025H.1 000000H.1 BIT    UNIT     BIT            ?BI?DEVLOPEDEBUG
000025H.2 000025H.2 000000H.1 BIT    UNIT     BIT            ?BI?RELAY
000025H.3 000025H.3 000000H.1 BIT    UNIT     BIT            ?BI?TOUCHPAD
000025H.4 000025H   000000H.4 ---    ---      **GAP**
000026H   000053H   00002EH   BYTE   UNIT     DATA           _DATA_GROUP_
000054H   00006DH   00001AH   BYTE   UNIT     DATA           ?DT?TIPS
00006EH   000072H   000005H   BYTE   UNIT     DATA           ?DT?DATAMANAGE
000073H   000076H   000004H   BYTE   UNIT     DATA           ?DT?APPTIMER
000077H   000081H   00000BH   BYTE   UNIT     IDATA          ?ID?TIMERACT
000082H   00008AH   000009H   BYTE   UNIT     IDATA          _IDATA_GROUP_
00008BH   00008BH   000001H   BYTE   UNIT     IDATA          ?STACK

* * * * * * * * * * *   C O D E   M E M O R Y   * * * * * * * * * * * * *
000000H   000002H   000003H   ---    OFFS..   CODE           ?CO??C_STARTUP?0
000003H   00000AH   000008H   BYTE   UNIT     CODE           ?PR?TIPS_STATUSCHANGETOZIGBNWKFIND?TIPS
00000BH   00000DH   000003H   BYTE   OFFS..   CODE           ?APPTIMER?0000B
00000EH   000022H   000015H   BYTE   UNIT     CODE           ?PR?APPTIMER0_INIT?APPTIMER
LX51 LINKER/LOCATER V4.66.41.0                                                        11/02/2018  15:47:42  PAGE 3


000023H   000025H   000003H   BYTE   OFFS..   CODE           ?DATATRANS?00023
000026H   000E98H   000E73H   BYTE   UNIT     CODE           ?CO?DATATRANS
000E99H   001ADDH   000C45H   BYTE   UNIT     CODE           ?PR?_DATAPARING_NOMAL?DATATRANS
001ADEH   002135H   000658H   BYTE   UNIT     CODE           ?PR?THREAD_DATATRANS?DATATRANS
002136H   002665H   000530H   BYTE   UNIT     CODE           ?PR?TIMER0_ROUNTINE?APPTIMER
002666H   002AD4H   00046FH   BYTE   UNIT     CODE           ?C?LIB_CODE
002AD5H   002EA3H   0003CFH   BYTE   UNIT     CODE           ?PR?THREAD_TIMING?TIMERACT
002EA4H   003263H   0003C0H   BYTE   UNIT     CODE           ?PR?ZIGB_NWKJOINREQUEST?DATATRANS
003264H   0035EBH   000388H   BYTE   UNIT     CODE           ?C_INITSEG
0035ECH   003947H   00035CH   BYTE   UNIT     CODE           ?PR?PRINTF?PRINTF
003948H   003C6EH   000327H   BYTE   UNIT     CODE           ?PR?TIPS_SYSSTANDBY?TIPS
003C6FH   003F7CH   00030EH   BYTE   UNIT     CODE           ?PR?DATATRANSREQUEST_DATSSEND?DATATRANS
003F7DH   004233H   0002B7H   BYTE   UNIT     CODE           ?PR?THREAD_TIPS?TIPS
004234H   004457H   000224H   BYTE   UNIT     CODE           ?PR?_DATAPARING_ZIGBSYSCTRL?DATATRANS
004458H   004641H   0001EAH   BYTE   UNIT     CODE           ?PR?_TIPS_SPECIFIED?TIPS
004642H   0047F3H   0001B2H   BYTE   UNIT     CODE           ?PR?_ZIGB_SYSTIMESET?DATATRANS
0047F4H   00493CH   000149H   BYTE   UNIT     CODE           ?PR?TOUCHPAD_SCAN?USRKIN
00493DH   004A72H   000136H   BYTE   UNIT     CODE           ?PR?DTASTX_LOADBASIC_CUST?DATATRANS
004A73H   004B9EH   00012CH   BYTE   UNIT     CODE           ?PR?_TOUCHPAD_FUNCTIONTRIGNORMAL?USRKIN
004B9FH   004CA8H   00010AH   BYTE   UNIT     CODE           ?PR?GETSYSTEMTIME_REALES?DATATRANS
004CA9H   004DABH   000103H   BYTE   UNIT     CODE           ?CO?TIMERACT
004DACH   004E9AH   0000EFH   BYTE   UNIT     CODE           ?PR?_DATSTIMING_READ_EEPROM?TIMERACT
004E9BH   004F89H   0000EFH   BYTE   UNIT     CODE           ?PR?_DATSTIMNIGHT_READ_EEPROM?TIMERACT
004F8AH   005076H   0000EDH   BYTE   UNIT     CODE           ?PR?FUNCTION_DEVNWKHOLD?DATATRANS
005077H   00515DH   0000E7H   BYTE   UNIT     CODE           ?PR?RELAY_ACT?RELAY
00515EH   005227H   0000CAH   BYTE   UNIT     CODE           ?CO?USRKIN
005228H   0052E9H   0000C2H   BYTE   UNIT     CODE           ?PR?_ZIGB_TXFRAMELOAD?DATATRANS
0052EAH   005395H   0000ACH   BYTE   UNIT     CODE           ?CO?DATAMANAGE
005396H   005435H   0000A0H   BYTE   UNIT     CODE           ?PR?TIPS_WARNING?TIPS
005436H   0054D4H   00009FH   BYTE   UNIT     CODE           ?PR?FACTORY_RECOVER?DATAMANAGE
0054D5H   005570H   00009CH   BYTE   UNIT     CODE           ?PR?_USRKEYSCAN?USRKIN
005571H   00560AH   00009AH   BYTE   UNIT     CODE           ?PR?_ZIGB_VALIDA_INPUT?DATATRANS
00560BH   0056A1H   000097H   BYTE   UNIT     CODE           ?PR?TIME_LOGOUT?TIMERACT
0056A2H   005737H   000096H   BYTE   UNIT     CODE           ?PR?UART1_ROUNTINE?DATATRANS
005738H   0057C3H   00008CH   BYTE   UNIT     CODE           ?C_C51STARTUP
0057C4H   00584AH   000087H   BYTE   UNIT     CODE           ?PR?_ZIGB_DATSLOAD_DATSSEND?DATATRANS
00584BH   0058D1H   000087H   BYTE   UNIT     CODE           ?PR?_MEMMEM?PARS_METHOD
0058D2H   005952H   000081H   BYTE   UNIT     CODE           ?PR?MAC_ID_RELAES?DATAMANAGE
005953H   0059CDH   00007BH   BYTE   UNIT     CODE           ?PR?UARTOBJZIGB_INIT?DATATRANS
0059CEH   005A46H   000079H   BYTE   UNIT     CODE           ?PR?_ZIGB_DATSREQUEST?DATATRANS
005A47H   005ABBH   000075H   BYTE   UNIT     CODE           ?PR?_THREAD_TIPSGETDARK?TIPS
005ABCH   005B30H   000075H   BYTE   UNIT     CODE           ?PR?DCODESCAN?USRKIN
005B31H   005BA3H   000073H   BYTE   UNIT     CODE           ?PR?_TIPSLED_COLORSET?TIPS
005BA4H   005C0CH   000069H   BYTE   UNIT     CODE           ?PR?_TOUCHPAD_FUNCTIONTRIGCONTINUE?USRKIN
005C0DH   005C6EH   000062H   BYTE   UNIT     CODE           ?PR?THREAD_DEVLOPEDEBUG?DEVLOPEDEBUG
005C6FH   005CD0H   000062H   BYTE   UNIT     CODE           ?PR?ZIGB_NWKOPEN?DATATRANS
005CD1H   005D31H   000061H   BYTE   UNIT     CODE           ?PR?_COVEREEPROM_WRITE_N?EEPROM
005D32H   005D91H   000060H   BYTE   UNIT     CODE           ?PR?LEDBKGCOLORSW_REALES?TIPS
005D92H   005DE4H   000053H   BYTE   UNIT     CODE           ?PR?ZIGB_GETPANIDCURRENT?DATATRANS
005DE5H   005E33H   00004FH   BYTE   UNIT     CODE           ?PR?_DATAPARING_SCENARIOCTRL?DATATRANS
005E34H   005E7EH   00004BH   BYTE   UNIT     CODE           ?PR?MAIN?USR_MAIN
005E7FH   005EC9H   00004BH   BYTE   UNIT     CODE           ?PR?RELAY_PININIT?RELAY
005ECAH   005F13H   00004AH   BYTE   UNIT     CODE           ?PR?DEVSTATUSCHANGETO_DEVHOLD?DATATRANS
005F14H   005F59H   000046H   BYTE   UNIT     CODE           ?PR?_DATASENDREMOTE_STRAIGHTFORWARD?DATATRANS
005F5AH   005F9CH   000043H   BYTE   UNIT     CODE           ?PR?DCODESCAN_ONESHOOT?USRKIN
005F9DH   005FD9H   00003DH   BYTE   UNIT     CODE           ?PR?USRZIGBNWKOPEN?USRKIN
005FDAH   006016H   00003DH   BYTE   UNIT     CODE           ?PR?_EEPROM_READ_N?EEPROM
006017H   006053H   00003DH   BYTE   UNIT     CODE           ?PR?_EEPROM_WRITE_N?EEPROM
006054H   00608FH   00003CH   BYTE   UNIT     CODE           ?PR?TIPLED_PININIT?TIPS
006090H   0060CBH   00003CH   BYTE   UNIT     CODE           ?CO?TIPS
0060CCH   006104H   000039H   BYTE   UNIT     CODE           ?PR?RELAY_STATUSREALES?RELAY
006105H   00613AH   000036H   BYTE   UNIT     CODE           ?CO?DEVLOPEDEBUG
00613BH   006170H   000036H   BYTE   UNIT     CODE           ?PR?_PRINTSTRING1_LOGOUT?USART
006171H   00619AH   00002AH   BYTE   UNIT     CODE           ?PR?_FRAME_CHECK?DATATRANS
00619BH   0061C4H   00002AH   BYTE   UNIT     CODE           ?PR?THREAD_RELAY?RELAY
LX51 LINKER/LOCATER V4.66.41.0                                                        11/02/2018  15:47:42  PAGE 4


0061C5H   0061EEH   00002AH   BYTE   UNIT     CODE           ?PR?_WEEKEND_JUDGE?TIMERACT
0061EFH   006215H   000027H   BYTE   UNIT     CODE           ?PR?PUTCHAR?PUTCHAR
006216H   00623BH   000026H   BYTE   UNIT     CODE           ?PR?TIMEZONE_REALES?TIMERACT
00623CH   006261H   000026H   BYTE   UNIT     CODE           ?PR?_UART1_DATSSEND?USART
006262H   006284H   000023H   BYTE   UNIT     CODE           ?PR?_BEEPS_USRACTIVE?TIPS
006285H   0062A7H   000023H   BYTE   UNIT     CODE           ?PR?_TX1_WRITE2BUFF?USART
0062A8H   0062C9H   000022H   BYTE   UNIT     CODE           ?PR?BIRTHDAY_JUDGE?DATAMANAGE
0062CAH   0062E8H   00001FH   BYTE   UNIT     CODE           ?PR?_EEPROM_SECTORERASE?EEPROM
0062E9H   006302H   00001AH   BYTE   UNIT     CODE           ?PR?SWITCHTYPERESERVE_GET?DATAMANAGE
006303H   006318H   000016H   BYTE   UNIT     CODE           ?PR?USRKIN_PININIT?USRKIN
006319H   00632DH   000015H   BYTE   UNIT     CODE           ?PR?_PERIODDATATRANS_MOMENTHANG?DATATRANS
00632EH   006342H   000015H   BYTE   UNIT     CODE           ?PR?_DELAYMS?DELAY
006343H   006355H   000013H   BYTE   UNIT     CODE           ?PR?PORTCTRLEACHOTHER_REALES?DATAMANAGE
006356H   006368H   000013H   BYTE   UNIT     CODE           ?PR?ZIGBUART_PININIT?DATATRANS
006369H   00637BH   000013H   BYTE   UNIT     CODE           ?PR?TOUCHPADSCAN_ONESHOOT?USRKIN
00637CH   00638EH   000013H   BYTE   UNIT     CODE           ?PR?_PRINTSTRING1?USART
00638FH   0063A0H   000012H   BYTE   UNIT     CODE           ?PR?BSP_INIT?USR_MAIN
0063A1H   0063B0H   000010H   BYTE   UNIT     CODE           ?PR?USRKEYFUN_ZIGBNWKREJOIN?USRKIN
0063B1H   0063C0H   000010H   BYTE   UNIT     CODE           ?PR?_DELAY_MS?DELAY
0063C1H   0063CEH   00000EH   BYTE   UNIT     CODE           ?PR?DISABLEEEPROM?EEPROM
0063CFH   0063DBH   00000DH   BYTE   UNIT     CODE           ?PR?_TIPS_STATUSCHANGETOZIGBNWKOPEN?TIPS
0063DCH   0063E7H   00000CH   BYTE   UNIT     CODE           ?PR?BSP_DATSREALES?USR_MAIN
0063E8H   0063F1H   00000AH   BYTE   UNIT     CODE           ?PR?TIPS_STATUSCHANGETONORMAL?TIPS
0063F2H   0063FAH   000009H   BYTE   UNIT     CODE           ?PR?DEVHOLDSTOP_MAKEINADVANCE?DATATRANS
0063FBH   006403H   000009H   BYTE   UNIT     CODE           ?PR?TOUCHPAD_PROCESSTHREAD?TOUCHPAD
006404H   006406H   000003H   BYTE   UNIT     CODE           ?PR?USRKEYSCAN_ONESHOOT?USRKIN
006407H   006407H   000001H   BYTE   UNIT     CODE           ?PR?FUN_TEST?USRKIN
006408H   006487H   000080H   BYTE   UNIT     CONST          ?CO?EEPROM
006488H   00648BH   000004H   BYTE   UNIT     CONST          ?CO?APPTIMER

* * * * * * * * * * *  X D A T A   M E M O R Y  * * * * * * * * * * * * *
000000H   000257H   000258H   BYTE   UNIT     XDATA          _XDATA_GROUP_
000258H   0003C0H   000169H   BYTE   UNIT     XDATA          ?XD?DATATRANS
0003C1H   0004C0H   000100H   BYTE   UNIT     XDATA          ?XD?USART
0004C1H   00050CH   00004CH   BYTE   UNIT     XDATA          ?XD?DATAMANAGE
00050DH   000521H   000015H   BYTE   UNIT     XDATA          ?XD?TIPS
000522H   000534H   000013H   BYTE   UNIT     XDATA          ?XD?APPTIMER
000535H   000540H   00000CH   BYTE   UNIT     XDATA          ?XD?TIMERACT
000541H   000547H   000007H   BYTE   UNIT     XDATA          ?XD?RELAY
000548H   00054BH   000004H   BYTE   UNIT     XDATA          ?XD?USRKIN
00054CH   00054EH   000003H   BYTE   UNIT     XDATA          ?XD?DEVLOPEDEBUG

* * * * * * * * *   R E M O V E D     S E G M E N T S   * * * * * * * *
   *DEL*:           000022H   BYTE   UNIT     CODE           ?PR?DEVLOCKINFO_REALES?DATAMANAGE
   *DEL*:           000001H   BYTE   UNIT     XDATA          ?XD?DEVLOCKINFO_REALES?DATAMANAGE
   *DEL*:           000007H   BYTE   UNIT     CODE           ?PR?PINBEEP_INIT?TIPS
   *DEL*:           00007BH   BYTE   UNIT     CODE           ?PR?TIPS_BREATH?TIPS
   *DEL*:           00028EH   BYTE   UNIT     CODE           ?PR?TIPS_FADEOUT?TIPS
   *DEL*:           000028H   BYTE   UNIT     CODE           ?PR?_XORNUM_CHECK?DATATRANS
   *DEL*:           000003H   BYTE   UNIT     DATA           ?DT?_XORNUM_CHECK?DATATRANS
   *DEL*:           000001H   BYTE   UNIT     CODE           ?PR?TOUCHPAD_PININIT?TOUCHPAD
   *DEL*:           000005H   BYTE   UNIT     CODE           ?PR?TOUCHPAD_FUNSET?TOUCHPAD
   *DEL*:           000000H.1 BIT    UNIT     BIT            ?BI?TOUCHPAD_FUNSET?TOUCHPAD
   *DEL*:           00002DH   BYTE   UNIT     CODE           ?PR?_UART1_LOGOUT?USART
   *DEL*:           000004H   BYTE   UNIT     DATA           ?DT?_UART1_LOGOUT?USART



OVERLAY MAP OF MODULE:   .\Output\swZigbNode_sw3bit (USR_MAIN)


FUNCTION/MODULE                                BIT_GROUP   DATA_GROUP   IDATA_GROUP  XDATA_GROUP
--> CALLED FUNCTION/MODULE                    START  STOP  START  STOP  START  STOP  START  STOP
================================================================================================
TIMER0_ROUNTINE/APPTIMER                      ----- -----  ----- -----  ----- -----  ----- -----
LX51 LINKER/LOCATER V4.66.41.0                                                        11/02/2018  15:47:42  PAGE 5


  +--> ?CO?APPTIMER

?CO?APPTIMER                                  ----- -----  ----- -----  ----- -----  ----- -----

*** NEW ROOT ********************************

UART1_ROUNTINE/DATATRANS                      ----- -----  ----- -----  ----- -----  ----- -----

*** NEW ROOT ********************************

?C_C51STARTUP                                 ----- -----  ----- -----  ----- -----  ----- -----
  +--> MAIN/USR_MAIN
  +--> ?C_INITSEG

MAIN/USR_MAIN                                 ----- -----  ----- -----  ----- -----  ----- -----
  +--> BSP_INIT/USR_MAIN
  +--> BSP_DATSREALES/USR_MAIN
  +--> BIRTHDAY_JUDGE/DATAMANAGE
  +--> TOUCHPAD_SCAN/USRKIN
  +--> FUN_TEST/USRKIN
  +--> USRKEYFUN_ZIGBNWKREJOIN/USRKIN
  +--> _USRKEYSCAN/USRKIN
  +--> DCODESCAN/USRKIN
  +--> THREAD_TIMING/TIMERACT
  +--> THREAD_RELAY/RELAY
  +--> THREAD_DATATRANS/DATATRANS
  +--> THREAD_TIPS/TIPS
  +--> TOUCHPAD_PROCESSTHREAD/TOUCHPAD
  +--> THREAD_DEVLOPEDEBUG/DEVLOPEDEBUG

BSP_INIT/USR_MAIN                             ----- -----  ----- -----  ----- -----  ----- -----
  +--> APPTIMER0_INIT/APPTIMER
  +--> ZIGBUART_PININIT/DATATRANS
  +--> UARTOBJZIGB_INIT/DATATRANS
  +--> TIPLED_PININIT/TIPS
  +--> USRKIN_PININIT/USRKIN
  +--> RELAY_PININIT/RELAY

APPTIMER0_INIT/APPTIMER                       ----- -----  ----- -----  ----- -----  ----- -----

ZIGBUART_PININIT/DATATRANS                    ----- -----  ----- -----  ----- -----  ----- -----

UARTOBJZIGB_INIT/DATATRANS                    ----- -----  0026H 0029H  ----- -----  ----- -----
  +--> ?CO?DATATRANS
  +--> _PRINTSTRING1/USART
  +--> _PRINTSTRING1_LOGOUT/USART

?CO?DATATRANS                                 ----- -----  ----- -----  ----- -----  ----- -----

_PRINTSTRING1/USART                           ----- -----  ----- -----  ----- -----  ----- -----
  +--> _TX1_WRITE2BUFF/USART

_TX1_WRITE2BUFF/USART                         ----- -----  ----- -----  ----- -----  ----- -----

_PRINTSTRING1_LOGOUT/USART                    ----- -----  0037H 0039H  ----- -----  ----- -----
  +--> _DELAYMS/DELAY
  +--> _PRINTSTRING1/USART

_DELAYMS/DELAY                                ----- -----  ----- -----  ----- -----  ----- -----
  +--> _DELAY_MS/DELAY

_DELAY_MS/DELAY                               ----- -----  ----- -----  ----- -----  ----- -----

TIPLED_PININIT/TIPS                           ----- -----  ----- -----  ----- -----  ----- -----
  +--> _TIPSLED_COLORSET/TIPS
LX51 LINKER/LOCATER V4.66.41.0                                                        11/02/2018  15:47:42  PAGE 6



_TIPSLED_COLORSET/TIPS                        ----- -----  0026H 0029H  ----- -----  ----- -----
  +--> ?CO?TIPS

?CO?TIPS                                      ----- -----  ----- -----  ----- -----  ----- -----

USRKIN_PININIT/USRKIN                         ----- -----  ----- -----  ----- -----  ----- -----

RELAY_PININIT/RELAY                           ----- -----  ----- -----  0082H 0082H  ----- -----
  +--> _EEPROM_READ_N/EEPROM
  +--> _COVEREEPROM_WRITE_N/EEPROM
  +--> RELAY_STATUSREALES/RELAY

_EEPROM_READ_N/EEPROM                         ----- -----  0043H 0049H  ----- -----  ----- -----
  +--> DISABLEEEPROM/EEPROM

DISABLEEEPROM/EEPROM                          ----- -----  ----- -----  ----- -----  ----- -----

_COVEREEPROM_WRITE_N/EEPROM                   ----- -----  0032H 0038H  ----- -----  01D8H 0257H
  +--> ?CO?EEPROM
  +--> _EEPROM_READ_N/EEPROM
  +--> _EEPROM_SECTORERASE/EEPROM
  +--> _EEPROM_WRITE_N/EEPROM

?CO?EEPROM                                    ----- -----  ----- -----  ----- -----  ----- -----

_EEPROM_SECTORERASE/EEPROM                    ----- -----  ----- -----  ----- -----  ----- -----
  +--> DISABLEEEPROM/EEPROM

_EEPROM_WRITE_N/EEPROM                        ----- -----  0039H 003FH  ----- -----  ----- -----
  +--> DISABLEEEPROM/EEPROM

RELAY_STATUSREALES/RELAY                      ----- -----  ----- -----  ----- -----  ----- -----
  +--> TIPS_STATUSCHANGETONORMAL/TIPS

TIPS_STATUSCHANGETONORMAL/TIPS                ----- -----  ----- -----  ----- -----  ----- -----

BSP_DATSREALES/USR_MAIN                       ----- -----  ----- -----  ----- -----  ----- -----
  +--> MAC_ID_RELAES/DATAMANAGE
  +--> PORTCTRLEACHOTHER_REALES/DATAMANAGE
  +--> LEDBKGCOLORSW_REALES/TIPS
  +--> TIMEZONE_REALES/TIMERACT

MAC_ID_RELAES/DATAMANAGE                      ----- -----  ----- -----  ----- -----  0000H 003FH
  +--> ?CO?DATAMANAGE
  +--> PRINTF/PRINTF
  +--> _PRINTSTRING1_LOGOUT/USART

?CO?DATAMANAGE                                ----- -----  ----- -----  ----- -----  ----- -----

PRINTF/PRINTF                                 20H.6 21H.6  0037H 004AH  ----- -----  ----- -----
  +--> PUTCHAR/PUTCHAR

PUTCHAR/PUTCHAR                               ----- -----  ----- -----  ----- -----  ----- -----

PORTCTRLEACHOTHER_REALES/DATAMANAGE           ----- -----  ----- -----  ----- -----  ----- -----
  +--> _EEPROM_READ_N/EEPROM

LEDBKGCOLORSW_REALES/TIPS                     ----- -----  ----- -----  ----- -----  ----- -----
  +--> _EEPROM_READ_N/EEPROM
  +--> _COVEREEPROM_WRITE_N/EEPROM

TIMEZONE_REALES/TIMERACT                      ----- -----  ----- -----  ----- -----  ----- -----
  +--> _EEPROM_READ_N/EEPROM

LX51 LINKER/LOCATER V4.66.41.0                                                        11/02/2018  15:47:42  PAGE 7


BIRTHDAY_JUDGE/DATAMANAGE                     ----- -----  ----- -----  ----- -----  0000H 0000H
  +--> _EEPROM_READ_N/EEPROM
  +--> FACTORY_RECOVER/DATAMANAGE

FACTORY_RECOVER/DATAMANAGE                    ----- -----  ----- -----  ----- -----  0158H 01D7H
  +--> ?CO?DATAMANAGE
  +--> _COVEREEPROM_WRITE_N/EEPROM
  +--> _DELAYMS/DELAY

TOUCHPAD_SCAN/USRKIN                          ----- -----  0026H 0028H  ----- -----  ----- -----
  +--> TOUCHPADSCAN_ONESHOOT/USRKIN
  +--> ?CO?USRKIN
  +--> _TOUCHPAD_FUNCTIONTRIGNORMAL/USRKIN
  +--> _BEEPS_USRACTIVE/TIPS
  +--> _TOUCHPAD_FUNCTIONTRIGCONTINUE/USRKIN

TOUCHPADSCAN_ONESHOOT/USRKIN                  ----- -----  ----- -----  ----- -----  ----- -----

?CO?USRKIN                                    ----- -----  ----- -----  ----- -----  ----- -----

_TOUCHPAD_FUNCTIONTRIGNORMAL/USRKIN           ----- -----  0029H 0029H  ----- -----  ----- -----
  +--> ?CO?USRKIN
  +--> PRINTF/PRINTF
  +--> _PRINTSTRING1_LOGOUT/USART
  +--> DEVSTATUSCHANGETO_DEVHOLD/DATATRANS

DEVSTATUSCHANGETO_DEVHOLD/DATATRANS           20H.4 20H.4  ----- -----  ----- -----  ----- -----
  +--> ?CO?DATATRANS
  +--> PRINTF/PRINTF
  +--> _PRINTSTRING1_LOGOUT/USART

_BEEPS_USRACTIVE/TIPS                         ----- -----  ----- -----  ----- -----  ----- -----

_TOUCHPAD_FUNCTIONTRIGCONTINUE/USRKIN         ----- -----  0029H 002AH  ----- -----  ----- -----
  +--> ?CO?USRKIN
  +--> PRINTF/PRINTF
  +--> _PRINTSTRING1_LOGOUT/USART
  +--> USRZIGBNWKOPEN/USRKIN
  +--> DEVHOLDSTOP_MAKEINADVANCE/DATATRANS

USRZIGBNWKOPEN/USRKIN                         ----- -----  ----- -----  ----- -----  ----- -----
  +--> ZIGB_NWKOPEN/DATATRANS
  +--> _TIPS_STATUSCHANGETOZIGBNWKOPEN/TIPS
  +--> ?CO?USRKIN
  +--> PRINTF/PRINTF
  +--> _PRINTSTRING1_LOGOUT/USART

ZIGB_NWKOPEN/DATATRANS                        20H.4 20H.5  002DH 002EH  ----- -----  012AH 012CH
  +--> ?CO?DATATRANS
  +--> _ZIGB_VALIDA_INPUT/DATATRANS

_ZIGB_VALIDA_INPUT/DATATRANS                  ----- -----  0035H 0044H  ----- -----  0135H 0194H
  +--> ?CO?DATATRANS
  +--> _ZIGB_TXFRAMELOAD/DATATRANS
  +--> _UART1_DATSSEND/USART
  +--> _MEMMEM/PARS_METHOD
  +--> _DELAYMS/DELAY

_ZIGB_TXFRAMELOAD/DATATRANS                   ----- -----  0045H 0051H  ----- -----  ----- -----

_UART1_DATSSEND/USART                         ----- -----  0045H 0047H  ----- -----  ----- -----
  +--> _TX1_WRITE2BUFF/USART

_MEMMEM/PARS_METHOD                           ----- -----  0045H 0053H  ----- -----  ----- -----

LX51 LINKER/LOCATER V4.66.41.0                                                        11/02/2018  15:47:42  PAGE 8


_TIPS_STATUSCHANGETOZIGBNWKOPEN/TIPS          ----- -----  ----- -----  ----- -----  ----- -----
  +--> _THREAD_TIPSGETDARK/TIPS

_THREAD_TIPSGETDARK/TIPS                      ----- -----  ----- -----  ----- -----  ----- -----

DEVHOLDSTOP_MAKEINADVANCE/DATATRANS           ----- -----  ----- -----  ----- -----  ----- -----

FUN_TEST/USRKIN                               ----- -----  ----- -----  ----- -----  ----- -----

USRKEYFUN_ZIGBNWKREJOIN/USRKIN                ----- -----  ----- -----  ----- -----  ----- -----
  +--> TIPS_STATUSCHANGETOZIGBNWKFIND/TIPS

TIPS_STATUSCHANGETOZIGBNWKFIND/TIPS           ----- -----  ----- -----  ----- -----  ----- -----
  +--> _THREAD_TIPSGETDARK/TIPS

_USRKEYSCAN/USRKIN                            ----- -----  0026H 002EH  ----- -----  ----- -----
  +--> USRKEYSCAN_ONESHOOT/USRKIN
  +--> ?CO?USRKIN

USRKEYSCAN_ONESHOOT/USRKIN                    ----- -----  ----- -----  ----- -----  ----- -----

DCODESCAN/USRKIN                              20H.0 20H.0  0026H 0027H  ----- -----  ----- -----
  +--> DCODESCAN_ONESHOOT/USRKIN
  +--> SWITCHTYPERESERVE_GET/DATAMANAGE

DCODESCAN_ONESHOOT/USRKIN                     ----- -----  ----- -----  ----- -----  ----- -----

SWITCHTYPERESERVE_GET/DATAMANAGE              ----- -----  ----- -----  ----- -----  ----- -----

THREAD_TIMING/TIMERACT                        ----- -----  0026H 0026H  ----- -----  0000H 005DH
  +--> ?CO?TIMERACT
  +--> TIME_LOGOUT/TIMERACT
  +--> _EEPROM_READ_N/EEPROM
  +--> _DATSTIMNIGHT_READ_EEPROM/TIMERACT
  +--> _DATSTIMING_READ_EEPROM/TIMERACT
  +--> _WEEKEND_JUDGE/TIMERACT
  +--> PRINTF/PRINTF
  +--> _PRINTSTRING1_LOGOUT/USART
  +--> _COVEREEPROM_WRITE_N/EEPROM

?CO?TIMERACT                                  ----- -----  ----- -----  ----- -----  ----- -----

TIME_LOGOUT/TIMERACT                          ----- -----  0027H 002DH  ----- -----  005EH 00ADH
  +--> ?CO?TIMERACT
  +--> PRINTF/PRINTF
  +--> _PRINTSTRING1_LOGOUT/USART

_DATSTIMNIGHT_READ_EEPROM/TIMERACT            ----- -----  0027H 0030H  ----- -----  ----- -----
  +--> ?CO?TIMERACT
  +--> _EEPROM_READ_N/EEPROM

_DATSTIMING_READ_EEPROM/TIMERACT              ----- -----  0027H 0042H  ----- -----  ----- -----
  +--> ?CO?TIMERACT
  +--> _EEPROM_READ_N/EEPROM

_WEEKEND_JUDGE/TIMERACT                       ----- -----  ----- -----  ----- -----  ----- -----

THREAD_RELAY/RELAY                            ----- -----  ----- -----  ----- -----  ----- -----
  +--> RELAY_ACT/RELAY

RELAY_ACT/RELAY                               ----- -----  0026H 0028H  ----- -----  ----- -----
  +--> RELAY_STATUSREALES/RELAY
  +--> _COVEREEPROM_WRITE_N/EEPROM

THREAD_DATATRANS/DATATRANS                    20H.0 20H.1  ----- -----  0082H 0087H  0000H 00C7H
LX51 LINKER/LOCATER V4.66.41.0                                                        11/02/2018  15:47:42  PAGE 9


  +--> ?CO?DATATRANS
  +--> GETSYSTEMTIME_REALES/DATATRANS
  +--> _ZIGB_SYSTIMESET/DATATRANS
  +--> TIPS_STATUSCHANGETONORMAL/TIPS
  +--> _EEPROM_READ_N/EEPROM
  +--> _DATSTIMNIGHT_READ_EEPROM/TIMERACT
  +--> _FRAME_CHECK/DATATRANS
  +--> PRINTF/PRINTF
  +--> _PRINTSTRING1_LOGOUT/USART
  +--> _DATAPARING_SCENARIOCTRL/DATATRANS
  +--> _DATAPARING_NOMAL/DATATRANS
  +--> _DATAPARING_ZIGBSYSCTRL/DATATRANS
  +--> ZIGB_NWKJOINREQUEST/DATATRANS
  +--> DATATRANSREQUEST_DATSSEND/DATATRANS
  +--> FUNCTION_DEVNWKHOLD/DATATRANS

GETSYSTEMTIME_REALES/DATATRANS                20H.2 20H.2  0026H 002DH  ----- -----  00C8H 00E7H
  +--> ?CO?DATATRANS
  +--> _ZIGB_DATSREQUEST/DATATRANS

_ZIGB_DATSREQUEST/DATATRANS                   ----- -----  0034H 0043H  ----- -----  ----- -----
  +--> _UART1_DATSSEND/USART

_ZIGB_SYSTIMESET/DATATRANS                    20H.4 20H.5  002DH 0034H  ----- -----  012AH 0134H
  +--> ?CO?DATATRANS
  +--> _ZIGB_VALIDA_INPUT/DATATRANS

_FRAME_CHECK/DATATRANS                        ----- -----  0038H 003AH  ----- -----  ----- -----

_DATAPARING_SCENARIOCTRL/DATATRANS            ----- -----  0026H 0028H  ----- -----  ----- -----
  +--> ?CO?DATATRANS
  +--> PRINTF/PRINTF
  +--> _PRINTSTRING1_LOGOUT/USART

_DATAPARING_NOMAL/DATATRANS                   20H.2 20H.5  0026H 0031H  ----- -----  00C8H 0157H
  +--> ?CO?DATATRANS
  +--> _FRAME_CHECK/DATATRANS
  +--> PRINTF/PRINTF
  +--> _PRINTSTRING1_LOGOUT/USART
  +--> ZIGB_GETPANIDCURRENT/DATATRANS
  +--> _COVEREEPROM_WRITE_N/EEPROM
  +--> _PERIODDATATRANS_MOMENTHANG/DATATRANS
  +--> _EEPROM_READ_N/EEPROM
  +--> FACTORY_RECOVER/DATAMANAGE
  +--> DTASTX_LOADBASIC_CUST/DATATRANS

ZIGB_GETPANIDCURRENT/DATATRANS                ----- -----  0032H 0033H  ----- -----  0158H 0177H
  +--> ?CO?DATATRANS
  +--> _ZIGB_DATSREQUEST/DATATRANS

_PERIODDATATRANS_MOMENTHANG/DATATRANS         ----- -----  ----- -----  ----- -----  ----- -----

DTASTX_LOADBASIC_CUST/DATATRANS               20H.6 20H.7  0032H 0037H  ----- -----  0158H 0197H
  +--> _FRAME_CHECK/DATATRANS
  +--> ?CO?DATATRANS

_DATAPARING_ZIGBSYSCTRL/DATATRANS             20H.2 20H.3  0026H 002CH  ----- -----  00C8H 0129H
  +--> ?CO?DATATRANS
  +--> ZIGB_NWKOPEN/DATATRANS
  +--> _TIPS_STATUSCHANGETOZIGBNWKOPEN/TIPS
  +--> PRINTF/PRINTF
  +--> _COVEREEPROM_WRITE_N/EEPROM
  +--> _ZIGB_SYSTIMESET/DATATRANS
  +--> _PRINTSTRING1_LOGOUT/USART
  +--> DEVSTATUSCHANGETO_DEVHOLD/DATATRANS
LX51 LINKER/LOCATER V4.66.41.0                                                        11/02/2018  15:47:42  PAGE 10



ZIGB_NWKJOINREQUEST/DATATRANS                 20H.2 20H.2  0026H 0036H  ----- -----  00C8H 0108H
  +--> ?CO?DATATRANS
  +--> PRINTF/PRINTF
  +--> _PRINTSTRING1_LOGOUT/USART
  +--> _MEMMEM/PARS_METHOD
  +--> _ZIGB_TXFRAMELOAD/DATATRANS
  +--> _UART1_DATSSEND/USART

DATATRANSREQUEST_DATSSEND/DATATRANS           ----- -----  0026H 002AH  0088H 008AH  00C8H 0158H
  +--> ?CO?DATATRANS
  +--> _ZIGB_TXFRAMELOAD/DATATRANS
  +--> _ZIGB_DATSLOAD_DATSSEND/DATATRANS
  +--> _UART1_DATSSEND/USART
  +--> _MEMMEM/PARS_METHOD
  +--> PRINTF/PRINTF
  +--> _PRINTSTRING1_LOGOUT/USART

_ZIGB_DATSLOAD_DATSSEND/DATATRANS             ----- -----  002DH 0037H  ----- -----  0159H 01A0H
  +--> ?CO?DATATRANS
  +--> _ZIGB_TXFRAMELOAD/DATATRANS

FUNCTION_DEVNWKHOLD/DATATRANS                 ----- -----  ----- -----  ----- -----  00C8H 00CAH
  +--> ?CO?DATATRANS
  +--> _DATASENDREMOTE_STRAIGHTFORWARD/DATATRANS
  +--> _DELAYMS/DELAY
  +--> PRINTF/PRINTF
  +--> _PRINTSTRING1_LOGOUT/USART

_DATASENDREMOTE_STRAIGHTFORWARD/DATATRAN+     ----- -----  0026H 002CH  ----- -----  00CBH 011AH
... S
  +--> ?CO?DATATRANS
  +--> _ZIGB_DATSLOAD_DATSSEND/DATATRANS
  +--> _UART1_DATSSEND/USART

THREAD_TIPS/TIPS                              ----- -----  ----- -----  ----- -----  ----- -----
  +--> TIPS_STATUSCHANGETONORMAL/TIPS
  +--> _THREAD_TIPSGETDARK/TIPS
  +--> TIPS_SYSSTANDBY/TIPS
  +--> ?CO?TIPS
  +--> _TIPSLED_COLORSET/TIPS
  +--> PRINTF/PRINTF
  +--> _PRINTSTRING1_LOGOUT/USART
  +--> _TIPS_SPECIFIED/TIPS
  +--> TIPS_WARNING/TIPS

TIPS_SYSSTANDBY/TIPS                          ----- -----  ----- -----  ----- -----  ----- -----
  +--> ?CO?TIPS

_TIPS_SPECIFIED/TIPS                          ----- -----  ----- -----  ----- -----  ----- -----
  +--> ?CO?TIPS

TIPS_WARNING/TIPS                             ----- -----  ----- -----  ----- -----  ----- -----
  +--> _THREAD_TIPSGETDARK/TIPS

TOUCHPAD_PROCESSTHREAD/TOUCHPAD               ----- -----  ----- -----  ----- -----  ----- -----

THREAD_DEVLOPEDEBUG/DEVLOPEDEBUG              ----- -----  ----- -----  ----- -----  ----- -----
  +--> ?CO?DEVLOPEDEBUG
  +--> PRINTF/PRINTF
  +--> _PRINTSTRING1_LOGOUT/USART

?CO?DEVLOPEDEBUG                              ----- -----  ----- -----  ----- -----  ----- -----

?C_INITSEG                                    ----- -----  ----- -----  ----- -----  ----- -----
LX51 LINKER/LOCATER V4.66.41.0                                                        11/02/2018  15:47:42  PAGE 11





PUBLIC SYMBOLS OF MODULE:  .\Output\swZigbNode_sw3bit (USR_MAIN)


      VALUE       CLASS    TYPE      PUBLIC SYMBOL NAME
      =================================================
      00000032H   DATA     BYTE      ?_coverEEPROM_write_n?BYTE
      00000043H   DATA     BYTE      ?_EEPROM_read_n?BYTE
      00000039H   DATA     BYTE      ?_EEPROM_write_n?BYTE
      00000045H   DATA     BYTE      ?_memmem?BYTE
      00000037H   DATA     ---       ?_PRINTF517?BYTE
      00000037H   DATA     ---       ?_PRINTF?BYTE
      00000037H   DATA     ---       ?_SPRINTF517?BYTE
      00000037H   DATA     ---       ?_SPRINTF?BYTE
      00000026H   DATA     BYTE      ?_tipsLED_colorSet?BYTE
      00000026H   DATA     BYTE      ?_UsrKEYScan?BYTE
      00000035H   DATA     BYTE      ?_zigb_VALIDA_INPUT?BYTE
      010028C3H   CODE     ---       ?C?CCASE
      01002775H   CODE     ---       ?C?CLDOPTR
      0100275CH   CODE     ---       ?C?CLDPTR
      00000000H   NUMBER   ---       ?C?CODESEG
      01002736H   CODE     ---       ?C?COPY
      010027B4H   CODE     ---       ?C?CSTOPTR
      010027A2H   CODE     ---       ?C?CSTPTR
      010028E9H   CODE     ---       ?C?ICALL
      010028EDH   CODE     ---       ?C?ICALL2
      010027D6H   CODE     ---       ?C?IMUL
      0100283DH   CODE     ---       ?C?LMUL
      010028B0H   CODE     ---       ?C?LSHL
      01002A75H   CODE     ---       ?C?MEMCMP
      01002A99H   CODE     ---       ?C?MEMSET
      01002AC5H   CODE     ---       ?C?PLDIIDATA
      010027E8H   CODE     ---       ?C?UIDIV
      0100288CH   CODE     ---       ?C?ULCMP
      0100289DH   CODE     ---       ?C?ULSHR
      00000000H   NUMBER   ---       ?C?XDATASEG
      0100577FH   CODE     ---       ?C_START
      01000000H   CODE     ---       ?C_STARTUP
      00000020H.4 BIT      BIT       ?devStatusChangeTo_devHold?BIT
      00000026H   DATA     BYTE      ?relay_Act?BYTE
      00000027H   DATA     BYTE      ?time_Logout?BYTE
*DEL*:00000000H.0 BIT      BIT       ?touchPad_funSet?BIT
      00000020H.4 BIT      BIT       ?ZigB_nwkOpen?BIT
      0000002DH   DATA     BYTE      ?ZigB_nwkOpen?BYTE
      01006262H   CODE     ---       _beeps_usrActive
      01005CD1H   CODE     ---       _coverEEPROM_write_n
      01004DACH   CODE     ---       _datsTiming_read_eeprom
      01004E9BH   CODE     ---       _datsTimNight_read_eeprom
      010063B1H   CODE     ---       _delay_ms
      0100632EH   CODE     ---       _delayMs
      01005FDAH   CODE     ---       _EEPROM_read_n
      010062CAH   CODE     ---       _EEPROM_SectorErase
      01006017H   CODE     ---       _EEPROM_write_n
      0100584BH   CODE     ---       _memmem
      01006319H   CODE     ---       _periodDataTrans_momentHang
      0100364EH   CODE     ---       _PRINTF
      0100364EH   CODE     ---       _PRINTF517
      0100637CH   CODE     ---       _PrintString1
      0100613BH   CODE     ---       _PrintString1_logOut
      010061EFH   CODE     ---       _PUTCHAR
      01003648H   CODE     ---       _SPRINTF
      01003648H   CODE     ---       _SPRINTF517
      01005A47H   CODE     ---       _thread_tipsGetDark
LX51 LINKER/LOCATER V4.66.41.0                                                        11/02/2018  15:47:42  PAGE 12


      01004458H   CODE     ---       _tips_specified
      010063CFH   CODE     ---       _tips_statusChangeToZigbNwkOpen
      01005B31H   CODE     ---       _tipsLED_colorSet
      01005BA4H   CODE     ---       _touchPad_functionTrigContinue
      01004A73H   CODE     ---       _touchPad_functionTrigNormal
      01006285H   CODE     ---       _TX1_write2buff
      0100623CH   CODE     ---       _uart1_datsSend
*DEL*:00000000H   CODE     ---       _uart1_logOut
      010054D5H   CODE     ---       _UsrKEYScan
      010061C5H   CODE     ---       _weekend_judge
      01005571H   CODE     ---       _zigb_VALIDA_INPUT
*SFR* 000000D0H.6 DATA     BIT       AC
*SFR* 000000E0H   DATA     BYTE      ACC
*SFR* 000000E0H   DATA     BIT       ACC0
*SFR* 000000E0H.1 DATA     BIT       ACC1
*SFR* 000000E0H.2 DATA     BIT       ACC2
*SFR* 000000E0H.3 DATA     BIT       ACC3
*SFR* 000000E0H.4 DATA     BIT       ACC4
*SFR* 000000E0H.5 DATA     BIT       ACC5
*SFR* 000000E0H.6 DATA     BIT       ACC6
*SFR* 000000E0H.7 DATA     BIT       ACC7
*SFR* 000000BCH   DATA     BYTE      ADC_CONTR
*SFR* 000000BDH   DATA     BYTE      ADC_RES
*SFR* 000000BEH   DATA     BYTE      ADC_RESL
      0100000EH   CODE     ---       appTimer0_Init
*SFR* 0000008EH   DATA     BYTE      AUXR
*SFR* 000000A2H   DATA     BYTE      AUXR1
*SFR* 0000008FH   DATA     BYTE      AUXR2
*SFR* 000000F0H   DATA     BYTE      B
*SFR* 000000F0H   DATA     BIT       B0
*SFR* 000000F0H.1 DATA     BIT       B1
*SFR* 000000F0H.2 DATA     BIT       B2
*SFR* 000000F0H.3 DATA     BIT       B3
*SFR* 000000F0H.4 DATA     BIT       B4
*SFR* 000000F0H.5 DATA     BIT       B5
*SFR* 000000F0H.6 DATA     BIT       B6
*SFR* 000000F0H.7 DATA     BIT       B7
      010062A8H   CODE     ---       birthDay_Judge
      010063DCH   CODE     ---       bsp_datsReales
      0100638FH   CODE     ---       bsp_Init
*SFR* 000000A1H   DATA     BYTE      BUS_SPEED
*SFR* 000000FAH   DATA     BYTE      CCAP0H
*SFR* 000000EAH   DATA     BYTE      CCAP0L
*SFR* 000000FBH   DATA     BYTE      CCAP1H
*SFR* 000000EBH   DATA     BYTE      CCAP1L
*SFR* 000000FCH   DATA     BYTE      CCAP2H
*SFR* 000000ECH   DATA     BYTE      CCAP2L
*SFR* 000000DAH   DATA     BYTE      CCAPM0
*SFR* 000000DBH   DATA     BYTE      CCAPM1
*SFR* 000000DCH   DATA     BYTE      CCAPM2
*SFR* 000000D8H   DATA     BIT       CCF0
*SFR* 000000D8H.1 DATA     BIT       CCF1
*SFR* 000000D8H.2 DATA     BIT       CCF2
*SFR* 000000D8H   DATA     BYTE      CCON
*SFR* 00000090H.1 DATA     BIT       CCP0
*SFR* 00000090H   DATA     BIT       CCP1
*SFR* 000000B0H.7 DATA     BIT       CCP2
*SFR* 000000D8H.7 DATA     BIT       CF
*SFR* 000000F9H   DATA     BYTE      CH
*SFR* 000000E9H   DATA     BYTE      CL
*SFR* 00000097H   DATA     BYTE      CLK_DIV
*SFR* 000000B0H.5 DATA     BIT       CLKOUT0
*SFR* 000000B0H.4 DATA     BIT       CLKOUT1
*SFR* 000000D9H   DATA     BYTE      CMOD
      0200033CH   XDATA    BYTE      colonyCtrlGet_queryCounter
LX51 LINKER/LOCATER V4.66.41.0                                                        11/02/2018  15:47:42  PAGE 13


      0200025DH   XDATA    ---       colonyCtrlGet_statusLocalEaCtrl
      020002E4H   XDATA    BYTE      colonyCtrlGet_statusLocalScene
      02000260H   XDATA    BYTE      colonyCtrlGetHang_timeCnt
      010060A3H   CODE     ---       color_Tab
      00000011H   DATA     ---       COM1
      00000022H.2 BIT      BIT       coordinatorOnline_IF
      0200051BH   XDATA    BYTE      counter_ifTipsFree
      02000510H   XDATA    WORD      counter_tipsAct
*SFR* 000000D8H.6 DATA     BIT       CR
      0000006EH   DATA     ---       CTRLEATHER_PORT
*SFR* 000000D0H.7 DATA     BIT       CY
      0000000FH   DATA     BYTE      datsRcv_length
      020002E5H   XDATA    ---       datsRcv_respond
      0200033FH   XDATA    ---       datsRcv_ZIGB
      0200026AH   XDATA    ---       datsSend_request
*SFR* 00000090H   DATA     BIT       Dcode0
*SFR* 00000090H.1 DATA     BIT       Dcode1
*SFR* 00000090H.2 DATA     BIT       Dcode2
*SFR* 00000090H.3 DATA     BIT       Dcode3
*SFR* 00000090H.3 DATA     BIT       Dcode4
*SFR* 00000090H.4 DATA     BIT       Dcode5
      01005ABCH   CODE     ---       DcodeScan
      01005F5AH   CODE     ---       DcodeScan_oneShoot
      0000007AH   IDATA    WORD      delayCnt_closeLoop
      00000078H   IDATA    WORD      delayCnt_onoff
      00000077H   IDATA    BYTE      delayPeriod_closeLoop
      00000081H   IDATA    BYTE      delayPeriod_onoff
      00000080H   IDATA    BYTE      delayUp_act
      00000071H   DATA     BYTE      DEV_actReserve
      02000335H   XDATA    ---       dev_agingCmd_rcvPassive
      02000261H   XDATA    ---       dev_agingCmd_sndInitative
      020002B6H   XDATA    ---       dev_currentDataPoint
      0200050FH   XDATA    BYTE      dev_statusBeeps
      02000545H   XDATA    ---       devActionPush_IF
      010063F2H   CODE     ---       devHoldStop_makeInAdvance
      00000025H.0 BIT      BIT       deviceLock_flag
*DEL*:00000000H   CODE     ---       devLockInfo_Reales
      0200033DH   XDATA    ---       devNwkHoldTime_Param
      02000331H   XDATA    ---       devRemoteDataReqMethod
      0000000DH   DATA     BYTE      devRunning_Status
      02000333H   XDATA    ---       devStatus_switch
      01005ECAH   CODE     ---       devStatusChangeTo_devHold
      0200051CH   XDATA    ---       devTips_beep
      0000006AH   DATA     BYTE      devTips_nwkZigb
      0000006CH   DATA     BYTE      devTips_status
      010063C1H   CODE     ---       DisableEEPROM
*SFR* 00000083H   DATA     BYTE      DPH
*SFR* 00000082H   DATA     BYTE      DPL
      00000010H   DATA     BYTE      dtModeKeepAcess_currentCmd
*SFR* 000000A8H.7 DATA     BIT       EA
      02000543H   XDATA    BYTE      EACHCTRL_realesFLG
      00000025H.2 BIT      BIT       EACHCTRL_reportFLG
*SFR* 000000A8H.5 DATA     BIT       EADC
*SFR* 000000A8H.6 DATA     BIT       ELVD
*SFR* 000000A8H.4 DATA     BIT       ES
*SFR* 000000A8H.1 DATA     BIT       ET0
*SFR* 000000A8H.3 DATA     BIT       ET1
*SFR* 000000A8H   DATA     BIT       EX0
*SFR* 000000A8H.2 DATA     BIT       EX1
*SFR* 000000D0H.5 DATA     BIT       F0
*SFR* 000000D0H.1 DATA     BIT       F1
      01005436H   CODE     ---       Factory_recover
      00000025H.1 BIT      BIT       frame_illegalFLG
      0200054CH   XDATA    ---       frameDebug_data
      01006407H   CODE     ---       fun_Test
LX51 LINKER/LOCATER V4.66.41.0                                                        11/02/2018  15:47:42  PAGE 14


      02000267H   XDATA    BYTE      heartBeatCount
      00000022H.4 BIT      BIT       heartBeatCycle_FLG
      0200033BH   XDATA    BYTE      heartBeatHang_timeCnt
      020003C0H   XDATA    BYTE      heartBeatPeriod
*SFR* 000000C3H   DATA     BYTE      IAP_ADDRH
*SFR* 000000C4H   DATA     BYTE      IAP_ADDRL
*SFR* 000000C5H   DATA     BYTE      IAP_CMD
*SFR* 000000C7H   DATA     BYTE      IAP_CONTR
*SFR* 000000C2H   DATA     BYTE      IAP_DATA
*SFR* 000000C6H   DATA     BYTE      IAP_TRIG
*SFR* 000000A8H   DATA     BYTE      IE
*SFR* 00000088H.1 DATA     BIT       IE0
*SFR* 00000088H.3 DATA     BIT       IE1
*SFR* 000000AFH   DATA     BYTE      IE2
      0000007FH   IDATA    BYTE      ifDelay_sw_running_FLAG
      00000024H.5 BIT      BIT       ifNightMode_sw_running_FLAG
      00000024H.6 BIT      BIT       ifTim_sw_running_FLAG
*SFR* 000000B0H.2 DATA     BIT       INT0
*SFR* 000000B0H.3 DATA     BIT       INT1
*SFR* 0000008FH   DATA     BYTE      INT_CLKO
*SFR* 000000B8H   DATA     BYTE      IP
*SFR* 000000B5H   DATA     BYTE      IP2
*SFR* 000000B7H   DATA     BYTE      IPH
*SFR* 000000B6H   DATA     BYTE      IPH2
*SFR* 000000C3H   DATA     BYTE      ISP_ADDRH
*SFR* 000000C4H   DATA     BYTE      ISP_ADDRL
*SFR* 000000C5H   DATA     BYTE      ISP_CMD
*SFR* 000000C7H   DATA     BYTE      ISP_CONTR
*SFR* 000000C2H   DATA     BYTE      ISP_DATA
*SFR* 000000C6H   DATA     BYTE      ISP_TRIG
*SFR* 00000088H   DATA     BIT       IT0
*SFR* 00000088H.2 DATA     BIT       IT1
      00000023H.6 BIT      BIT       ledBackground_method
      01005D32H   CODE     ---       ledBKGColorSw_Reales
      020004CDH   XDATA    ---       log_buf
      020004C7H   XDATA    ---       MAC_ID
      020004C1H   XDATA    ---       MAC_ID_DST
      010058D2H   CODE     ---       MAC_ID_Relaes
      01005E34H   CODE     ---       main
*SFR* 000000D0H.2 DATA     BIT       OV
*SFR* 000000D0H   DATA     BIT       P
*SFR* 00000080H   DATA     BYTE      P0
*SFR* 00000080H   DATA     BIT       P00
*SFR* 00000080H.1 DATA     BIT       P01
*SFR* 00000080H.2 DATA     BIT       P02
*SFR* 00000080H.3 DATA     BIT       P03
*SFR* 00000080H.4 DATA     BIT       P04
*SFR* 00000080H.5 DATA     BIT       P05
*SFR* 00000080H.6 DATA     BIT       P06
*SFR* 00000080H.7 DATA     BIT       P07
*SFR* 00000094H   DATA     BYTE      P0M0
*SFR* 00000093H   DATA     BYTE      P0M1
*SFR* 00000090H   DATA     BYTE      P1
*SFR* 00000090H   DATA     BIT       P10
*SFR* 00000090H.1 DATA     BIT       P11
*SFR* 00000090H.2 DATA     BIT       P12
*SFR* 00000090H.3 DATA     BIT       P13
*SFR* 00000090H.4 DATA     BIT       P14
*SFR* 00000090H.5 DATA     BIT       P15
*SFR* 00000090H.6 DATA     BIT       P16
*SFR* 00000090H.7 DATA     BIT       P17
*SFR* 0000009DH   DATA     BYTE      P1ASF
*SFR* 00000092H   DATA     BYTE      P1M0
*SFR* 00000091H   DATA     BYTE      P1M1
*SFR* 000000A0H   DATA     BYTE      P2
LX51 LINKER/LOCATER V4.66.41.0                                                        11/02/2018  15:47:42  PAGE 15


*SFR* 000000A0H   DATA     BIT       P20
*SFR* 000000A0H.1 DATA     BIT       P21
*SFR* 000000A0H.2 DATA     BIT       P22
*SFR* 000000A0H.3 DATA     BIT       P23
*SFR* 000000A0H.4 DATA     BIT       P24
*SFR* 000000A0H.5 DATA     BIT       P25
*SFR* 000000A0H.6 DATA     BIT       P26
*SFR* 000000A0H.7 DATA     BIT       P27
*SFR* 00000096H   DATA     BYTE      P2M0
*SFR* 00000095H   DATA     BYTE      P2M1
*SFR* 000000B0H   DATA     BYTE      P3
*SFR* 000000B0H   DATA     BIT       P30
*SFR* 000000B0H.1 DATA     BIT       P31
*SFR* 000000B0H.2 DATA     BIT       P32
*SFR* 000000B0H.3 DATA     BIT       P33
*SFR* 000000B0H.4 DATA     BIT       P34
*SFR* 000000B0H.5 DATA     BIT       P35
*SFR* 000000B0H.6 DATA     BIT       P36
*SFR* 000000B0H.7 DATA     BIT       P37
*SFR* 000000B2H   DATA     BYTE      P3M0
*SFR* 000000B1H   DATA     BYTE      P3M1
*SFR* 000000C0H   DATA     BYTE      P4
*SFR* 000000C0H   DATA     BIT       P40
*SFR* 000000C0H.1 DATA     BIT       P41
*SFR* 000000C0H.2 DATA     BIT       P42
*SFR* 000000C0H.3 DATA     BIT       P43
*SFR* 000000C0H.4 DATA     BIT       P44
*SFR* 000000C0H.5 DATA     BIT       P45
*SFR* 000000C0H.6 DATA     BIT       P46
*SFR* 000000C0H.7 DATA     BIT       P47
*SFR* 000000B4H   DATA     BYTE      P4M0
*SFR* 000000B3H   DATA     BYTE      P4M1
*SFR* 000000C8H   DATA     BYTE      P5
*SFR* 000000C8H   DATA     BIT       P50
*SFR* 000000C8H.1 DATA     BIT       P51
*SFR* 000000C8H.2 DATA     BIT       P52
*SFR* 000000C8H.3 DATA     BIT       P53
*SFR* 000000C8H.4 DATA     BIT       P54
*SFR* 000000C8H.5 DATA     BIT       P55
*SFR* 000000C8H.6 DATA     BIT       P56
*SFR* 000000C8H.7 DATA     BIT       P57
*SFR* 000000CAH   DATA     BYTE      P5M0
*SFR* 000000C9H   DATA     BYTE      P5M1
*SFR* 000000E8H   DATA     BYTE      P6
*SFR* 000000CCH   DATA     BYTE      P6M0
*SFR* 000000CBH   DATA     BYTE      P6M1
*SFR* 000000F8H   DATA     BYTE      P7
*SFR* 000000E2H   DATA     BYTE      P7M0
*SFR* 000000E1H   DATA     BYTE      P7M1
*SFR* 000000A2H   DATA     BYTE      P_SW1
*SFR* 000000BAH   DATA     BYTE      P_SW2
*SFR* 000000B8H.5 DATA     BIT       PADC
*SFR* 000000F2H   DATA     BYTE      PCA_PWM0
*SFR* 000000F3H   DATA     BYTE      PCA_PWM1
*SFR* 000000F4H   DATA     BYTE      PCA_PWM2
*SFR* 00000087H   DATA     BYTE      PCON
*SFR* 00000097H   DATA     BYTE      PCON2
*DEL*:00000000H   CODE     ---       pinBeep_Init
*SFR* 000000B8H.6 DATA     BIT       PLVD
      01006343H   CODE     ---       portCtrlEachOther_Reales
*SFR* 000000B8H.7 DATA     BIT       PPCA
*SFR* 000000B8H.4 DATA     BIT       PS
*SFR* 000000D0H   DATA     BYTE      PSW
*SFR* 000000B8H.1 DATA     BIT       PT0
*SFR* 000000B8H.3 DATA     BIT       PT1
LX51 LINKER/LOCATER V4.66.41.0                                                        11/02/2018  15:47:42  PAGE 16


*SFR* 000000B8H   DATA     BIT       PX0
*SFR* 000000B8H.2 DATA     BIT       PX1
*SFR* 00000098H.2 DATA     BIT       RB8
*SFR* 000000B0H.7 DATA     BIT       RD
      00000022H.5 BIT      BIT       reConnectAfterDatsReq_IF
      02000512H   XDATA    ---       relay1_Tips
      02000515H   XDATA    ---       relay2_Tips
      02000518H   XDATA    ---       relay3_Tips
      01005077H   CODE     ---       relay_Act
      01005E7FH   CODE     ---       relay_pinInit
      010060CCH   CODE     ---       relay_statusReales
      02000547H   XDATA    BYTE      relayStatus_ifSave
*SFR* 00000098H.4 DATA     BIT       REN
*SFR* 00000098H   DATA     BIT       RI
*SFR* 000000D6H   DATA     BYTE      RL_T2H
*SFR* 000000D7H   DATA     BYTE      RL_T2L
*SFR* 000000D4H   DATA     BYTE      RL_T3H
*SFR* 000000D5H   DATA     BYTE      RL_T3L
*SFR* 000000D2H   DATA     BYTE      RL_T4H
*SFR* 000000D3H   DATA     BYTE      RL_T4L
*SFR* 0000008CH   DATA     BYTE      RL_TH0
*SFR* 0000008DH   DATA     BYTE      RL_TH1
*SFR* 0000008AH   DATA     BYTE      RL_TL0
*SFR* 0000008BH   DATA     BYTE      RL_TL1
*SFR* 000000D0H.3 DATA     BIT       RS0
*SFR* 000000D0H.4 DATA     BIT       RS1
      020003C1H   XDATA    ---       RX1_Buffer
*SFR* 000000B0H   DATA     BIT       RXD
*SFR* 00000090H   DATA     BIT       RXD2
      0000000EH   DATA     BYTE      rxTout_count
      00000022H.3 BIT      BIT       rxTout_count_EN
*SFR* 0000009BH   DATA     BYTE      S2BUF
*SFR* 0000009AH   DATA     BYTE      S2CON
*SFR* 000000ADH   DATA     BYTE      S3BUF
*SFR* 000000ACH   DATA     BYTE      S3CON
*SFR* 00000085H   DATA     BYTE      S4BUF
*SFR* 00000084H   DATA     BYTE      S4CON
*SFR* 000000A9H   DATA     BYTE      SADDR
*SFR* 000000B9H   DATA     BYTE      SADEN
*SFR* 00000099H   DATA     BYTE      SBUF
*SFR* 00000098H   DATA     BYTE      SCON
*SFR* 00000098H.7 DATA     BIT       SM0
*SFR* 00000098H.6 DATA     BIT       SM1
*SFR* 00000098H.5 DATA     BIT       SM2
*SFR* 00000081H   DATA     BYTE      SP
*SFR* 000000CEH   DATA     BYTE      SPCTL
*SFR* 000000CFH   DATA     BYTE      SPDAT
*SFR* 00000090H.4 DATA     BIT       SPI_MISO
*SFR* 000000A0H.2 DATA     BIT       SPI_MISO_2
*SFR* 000000C0H.1 DATA     BIT       SPI_MISO_3
*SFR* 00000090H.3 DATA     BIT       SPI_MOSI
*SFR* 000000A0H.3 DATA     BIT       SPI_MOSI_2
*SFR* 000000C0H   DATA     BIT       SPI_MOSI_3
*SFR* 00000090H.5 DATA     BIT       SPI_SCLK
*SFR* 000000A0H.1 DATA     BIT       SPI_SCLK_2
*SFR* 000000C0H.3 DATA     BIT       SPI_SCLK_3
*SFR* 00000090H.2 DATA     BIT       SPI_SS
*SFR* 000000A0H.4 DATA     BIT       SPI_SS_2
*SFR* 000000C8H.4 DATA     BIT       SPI_SS_3
*SFR* 000000CDH   DATA     BYTE      SPSTAT
      02000544H   XDATA    BYTE      status_Relay
      02000541H   XDATA    ---       swCommand_fromUsr
      00000072H   DATA     BYTE      SWITCH_TYPE
      010062E9H   CODE     ---       switchTypeReserve_GET
      0000007EH   IDATA    BYTE      swTim_onShoot_FLAG
LX51 LINKER/LOCATER V4.66.41.0                                                        11/02/2018  15:47:42  PAGE 17


      02000537H   XDATA    ---       systemTime_current
      0000007CH   IDATA    WORD      sysTimeKeep_counter
      0200053EH   XDATA    BYTE      sysTimeReales_counter
      0200053FH   XDATA    BYTE      sysTimeZone_H
      02000540H   XDATA    BYTE      sysTimeZone_M
*SFR* 000000B0H.4 DATA     BIT       T0
*SFR* 000000B0H.5 DATA     BIT       T1
*SFR* 000000D6H   DATA     BYTE      T2H
*SFR* 000000D7H   DATA     BYTE      T2L
*SFR* 000000D4H   DATA     BYTE      T3H
*SFR* 000000D5H   DATA     BYTE      T3L
*SFR* 000000D2H   DATA     BYTE      T4H
*SFR* 000000D3H   DATA     BYTE      T4L
*SFR* 000000D1H   DATA     BYTE      T4T3M
*SFR* 00000098H.3 DATA     BIT       TB8
*SFR* 00000088H   DATA     BYTE      TCON
*SFR* 00000088H.5 DATA     BIT       TF0
*SFR* 00000088H.7 DATA     BIT       TF1
*SFR* 0000008CH   DATA     BYTE      TH0
*SFR* 0000008DH   DATA     BYTE      TH1
*SFR* 000000D6H   DATA     BYTE      TH2
*SFR* 000000D4H   DATA     BYTE      TH3
*SFR* 000000D2H   DATA     BYTE      TH4
      01001ADEH   CODE     ---       thread_dataTrans
      01005C0DH   CODE     ---       thread_devlopeDebug
      0100619BH   CODE     ---       thread_Relay
      01002AD5H   CODE     ---       thread_Timing
      01003F7DH   CODE     ---       thread_Tips
*SFR* 00000098H.1 DATA     BIT       TI
      0100560BH   CODE     ---       time_Logout
      0200050EH   XDATA    BYTE      timeCount_zigNwkOpen
      01002136H   CODE     ---       timer0_Rountine
      01006216H   CODE     ---       timeZone_Reales
      01006054H   CODE     ---       tipLED_pinInit
*DEL*:00000000H   CODE     ---       tips_breath
*DEL*:00000000H   CODE     ---       tips_fadeOut
      010060A0H   CODE     ---       tips_relayUnused
      010063E8H   CODE     ---       tips_statusChangeToNormal
      01000003H   CODE     ---       tips_statusChangeToZigbNwkFind
      01003948H   CODE     ---       tips_sysStandBy
      01005396H   CODE     ---       tips_warning
      0000006BH   DATA     BYTE      tipsInsert_swLedBKG_OFF
      0000006DH   DATA     BYTE      tipsInsert_swLedBKG_ON
*SFR* 0000008AH   DATA     BYTE      TL0
*SFR* 0000008BH   DATA     BYTE      TL1
*SFR* 000000D7H   DATA     BYTE      TL2
*SFR* 000000D5H   DATA     BYTE      TL3
*SFR* 000000D3H   DATA     BYTE      TL4
*SFR* 00000089H   DATA     BYTE      TMOD
*SFR* 00000090H.6 DATA     BIT       touchPad_1
*SFR* 00000090H.7 DATA     BIT       touchPad_2
*SFR* 00000090H.5 DATA     BIT       touchPad_3
*DEL*:00000000H   CODE     ---       touchPad_funSet
*DEL*:00000000H   CODE     ---       touchPad_pinInit
      010063FBH   CODE     ---       touchPad_processThread
      010047F4H   CODE     ---       touchPad_Scan
      0200054AH   XDATA    WORD      touchPadActCounter
      02000548H   XDATA    WORD      touchPadContinueCnt
      01006369H   CODE     ---       touchPadScan_oneShoot
*SFR* 00000088H.4 DATA     BIT       TR0
*SFR* 00000088H.6 DATA     BIT       TR1
      02000441H   XDATA    ---       TX1_Buffer
*SFR* 000000B0H.1 DATA     BIT       TXD
*SFR* 00000090H.1 DATA     BIT       TXD2
      010056A2H   CODE     ---       UART1_Rountine
LX51 LINKER/LOCATER V4.66.41.0                                                        11/02/2018  15:47:42  PAGE 18


      01005953H   CODE     ---       uartObjZigb_Init
      00000022H.6 BIT      BIT       uartRX_toutFLG
*SFR* 00000080H.2 DATA     BIT       Usr_key
      0000001CH   DATA     WORD      usrKeyCount
      00000023H.5 BIT      BIT       usrKeyCount_EN
      010063A1H   CODE     ---       usrKeyFun_zigbNwkRejoin
      01006404H   CODE     ---       UsrKEYScan_oneShoot
      01006303H   CODE     ---       usrKin_pinInit
      01005F9DH   CODE     ---       usrZigbNwkOpen
      0000001EH   IDATA    BYTE      val_DcodeCfm
*SFR* 0000008FH   DATA     BYTE      WAKE_CLKO
*SFR* 000000C1H   DATA     BYTE      WDT_CONTR
*SFR* 000000ABH   DATA     BYTE      WKTCH
*SFR* 000000AAH   DATA     BYTE      WKTCL
*SFR* 000000B0H.6 DATA     BIT       WR
      01005C6FH   CODE     ---       ZigB_nwkOpen
      0200051FH   XDATA    ---       zigbNwk_Tips
      02000268H   XDATA    WORD      zigbNwkAction_counter
      01006356H   CODE     ---       zigbUart_pinInit



SYMBOL TABLE OF MODULE:  .\Output\swZigbNode_sw3bit (USR_MAIN)

      VALUE       REP       CLASS    TYPE      SYMBOL NAME
      ====================================================
      ---         MODULE    ---      ---       USR_MAIN
      01005E34H   PUBLIC    CODE     ---       main
      010063DCH   PUBLIC    CODE     ---       bsp_datsReales
      0100638FH   PUBLIC    CODE     ---       bsp_Init
      000000D8H.2 SFRSYM    DATA     BIT       CCF2
      000000E0H.7 SFRSYM    DATA     BIT       ACC7
      00000093H   SFRSYM    DATA     BYTE      P0M1
      00000092H   SFRSYM    DATA     BYTE      P1M0
      00000096H   SFRSYM    DATA     BYTE      P2M0
      00000091H   SFRSYM    DATA     BYTE      P1M1
      00000080H   SFRSYM    DATA     BYTE      P0
      000000B2H   SFRSYM    DATA     BYTE      P3M0
      00000095H   SFRSYM    DATA     BYTE      P2M1
      00000090H   SFRSYM    DATA     BYTE      P1
      000000B4H   SFRSYM    DATA     BYTE      P4M0
      000000B1H   SFRSYM    DATA     BYTE      P3M1
      000000A0H   SFRSYM    DATA     BYTE      P2
      000000CAH   SFRSYM    DATA     BYTE      P5M0
      000000B3H   SFRSYM    DATA     BYTE      P4M1
      000000B0H   SFRSYM    DATA     BYTE      P3
      000000ABH   SFRSYM    DATA     BYTE      WKTCH
      000000B0H.4 SFRSYM    DATA     BIT       T0
      000000D0H.6 SFRSYM    DATA     BIT       AC
      000000CCH   SFRSYM    DATA     BYTE      P6M0
      000000C9H   SFRSYM    DATA     BYTE      P5M1
      000000C0H   SFRSYM    DATA     BYTE      P4
      000000B0H.5 SFRSYM    DATA     BIT       CLKOUT0
      000000B0H.5 SFRSYM    DATA     BIT       T1
      000000E2H   SFRSYM    DATA     BYTE      P7M0
      000000CBH   SFRSYM    DATA     BYTE      P6M1
      000000C8H   SFRSYM    DATA     BYTE      P5
      000000C6H   SFRSYM    DATA     BYTE      ISP_TRIG
      000000A8H.7 SFRSYM    DATA     BIT       EA
      000000B0H.4 SFRSYM    DATA     BIT       CLKOUT1
      000000A0H.4 SFRSYM    DATA     BIT       SPI_SS_2
      000000E8H   SFRSYM    DATA     BYTE      P6
      000000E1H   SFRSYM    DATA     BYTE      P7M1
      000000C8H.4 SFRSYM    DATA     BIT       SPI_SS_3
      00000090H.4 SFRSYM    DATA     BIT       SPI_MISO
LX51 LINKER/LOCATER V4.66.41.0                                                        11/02/2018  15:47:42  PAGE 19


      00000090H.3 SFRSYM    DATA     BIT       SPI_MOSI
      00000090H.1 SFRSYM    DATA     BIT       CCP0
      000000F8H   SFRSYM    DATA     BYTE      P7
      000000AAH   SFRSYM    DATA     BYTE      WKTCL
      00000090H   SFRSYM    DATA     BIT       CCP1
      000000CEH   SFRSYM    DATA     BYTE      SPCTL
      000000D8H.7 SFRSYM    DATA     BIT       CF
      000000B0H.7 SFRSYM    DATA     BIT       CCP2
      000000F9H   SFRSYM    DATA     BYTE      CH
      000000A2H   SFRSYM    DATA     BYTE      P_SW1
      000000BAH   SFRSYM    DATA     BYTE      P_SW2
      000000A8H.5 SFRSYM    DATA     BIT       EADC
      000000A0H.1 SFRSYM    DATA     BIT       SPI_SCLK_2
      000000A8H   SFRSYM    DATA     BYTE      IE
      000000C0H.3 SFRSYM    DATA     BIT       SPI_SCLK_3
      000000E9H   SFRSYM    DATA     BYTE      CL
      000000C5H   SFRSYM    DATA     BYTE      IAP_CMD
      000000FAH   SFRSYM    DATA     BYTE      CCAP0H
      00000090H   SFRSYM    DATA     BIT       Dcode0
      000000FBH   SFRSYM    DATA     BYTE      CCAP1H
      00000090H.1 SFRSYM    DATA     BIT       Dcode1
      000000FCH   SFRSYM    DATA     BYTE      CCAP2H
      00000090H.2 SFRSYM    DATA     BIT       Dcode2
      000000BDH   SFRSYM    DATA     BYTE      ADC_RES
      000000B6H   SFRSYM    DATA     BYTE      IPH2
      00000090H.3 SFRSYM    DATA     BIT       Dcode3
      000000D8H.6 SFRSYM    DATA     BIT       CR
      000000EAH   SFRSYM    DATA     BYTE      CCAP0L
      00000090H.3 SFRSYM    DATA     BIT       Dcode4
      000000B0H.7 SFRSYM    DATA     BIT       RD
      000000EBH   SFRSYM    DATA     BYTE      CCAP1L
      000000DAH   SFRSYM    DATA     BYTE      CCAPM0
      00000090H.4 SFRSYM    DATA     BIT       Dcode5
      000000ECH   SFRSYM    DATA     BYTE      CCAP2L
      000000DBH   SFRSYM    DATA     BYTE      CCAPM1
      000000A8H.4 SFRSYM    DATA     BIT       ES
      000000DCH   SFRSYM    DATA     BYTE      CCAPM2
      000000B8H.5 SFRSYM    DATA     BIT       PADC
      000000A0H.2 SFRSYM    DATA     BIT       SPI_MISO_2
      000000A0H.3 SFRSYM    DATA     BIT       SPI_MOSI_2
      000000B8H   SFRSYM    DATA     BYTE      IP
      000000C0H.1 SFRSYM    DATA     BIT       SPI_MISO_3
      000000C0H   SFRSYM    DATA     BIT       SPI_MOSI_3
      00000098H   SFRSYM    DATA     BIT       RI
      000000B0H.2 SFRSYM    DATA     BIT       INT0
      000000D0H.7 SFRSYM    DATA     BIT       CY
      00000098H.1 SFRSYM    DATA     BIT       TI
      000000B0H.3 SFRSYM    DATA     BIT       INT1
      00000097H   SFRSYM    DATA     BYTE      CLK_DIV
      000000C3H   SFRSYM    DATA     BYTE      IAP_ADDRH
      00000090H   SFRSYM    DATA     BIT       RXD2
      000000C5H   SFRSYM    DATA     BYTE      ISP_CMD
      000000B8H.4 SFRSYM    DATA     BIT       PS
      00000090H.1 SFRSYM    DATA     BIT       TXD2
      00000081H   SFRSYM    DATA     BYTE      SP
      000000D9H   SFRSYM    DATA     BYTE      CMOD
      000000D8H   SFRSYM    DATA     BYTE      CCON
      000000C4H   SFRSYM    DATA     BYTE      IAP_ADDRL
      000000B8H.7 SFRSYM    DATA     BIT       PPCA
      000000D0H.2 SFRSYM    DATA     BIT       OV
      000000B0H.6 SFRSYM    DATA     BIT       WR
      000000A8H.6 SFRSYM    DATA     BIT       ELVD
      00000080H   SFRSYM    DATA     BIT       P00
      00000090H   SFRSYM    DATA     BIT       P10
      00000080H.1 SFRSYM    DATA     BIT       P01
LX51 LINKER/LOCATER V4.66.41.0                                                        11/02/2018  15:47:42  PAGE 20


      000000BCH   SFRSYM    DATA     BYTE      ADC_CONTR
      00000099H   SFRSYM    DATA     BYTE      SBUF
      00000087H   SFRSYM    DATA     BYTE      PCON
      000000A0H   SFRSYM    DATA     BIT       P20
      00000090H.1 SFRSYM    DATA     BIT       P11
      00000080H.2 SFRSYM    DATA     BIT       P02
      000000C3H   SFRSYM    DATA     BYTE      ISP_ADDRH
      000000B0H   SFRSYM    DATA     BIT       P30
      000000A0H.1 SFRSYM    DATA     BIT       P21
      00000090H.2 SFRSYM    DATA     BIT       P12
      00000080H.3 SFRSYM    DATA     BIT       P03
      000000C0H   SFRSYM    DATA     BIT       P40
      000000B0H.1 SFRSYM    DATA     BIT       P31
      000000A0H.2 SFRSYM    DATA     BIT       P22
      00000090H.3 SFRSYM    DATA     BIT       P13
      00000080H.4 SFRSYM    DATA     BIT       P04
      00000098H   SFRSYM    DATA     BYTE      SCON
      0000008FH   SFRSYM    DATA     BYTE      WAKE_CLKO
      000000C8H   SFRSYM    DATA     BIT       P50
      000000C0H.1 SFRSYM    DATA     BIT       P41
      000000B0H.2 SFRSYM    DATA     BIT       P32
      000000A0H.3 SFRSYM    DATA     BIT       P23
      00000090H.4 SFRSYM    DATA     BIT       P14
      00000080H.5 SFRSYM    DATA     BIT       P05
      00000089H   SFRSYM    DATA     BYTE      TMOD
      00000088H   SFRSYM    DATA     BYTE      TCON
      000000C8H.1 SFRSYM    DATA     BIT       P51
      000000C0H.2 SFRSYM    DATA     BIT       P42
      000000B0H.3 SFRSYM    DATA     BIT       P33
      000000A0H.4 SFRSYM    DATA     BIT       P24
      00000090H.5 SFRSYM    DATA     BIT       P15
      00000080H.6 SFRSYM    DATA     BIT       P06
      000000C4H   SFRSYM    DATA     BYTE      ISP_ADDRL
      000000B8H.6 SFRSYM    DATA     BIT       PLVD
      000000C8H.2 SFRSYM    DATA     BIT       P52
      000000C0H.3 SFRSYM    DATA     BIT       P43
      000000B0H.4 SFRSYM    DATA     BIT       P34
      000000A0H.5 SFRSYM    DATA     BIT       P25
      00000090H.6 SFRSYM    DATA     BIT       P16
      00000080H.7 SFRSYM    DATA     BIT       P07
      000000C8H.3 SFRSYM    DATA     BIT       P53
      000000C0H.4 SFRSYM    DATA     BIT       P44
      000000B0H.5 SFRSYM    DATA     BIT       P35
      000000A0H.6 SFRSYM    DATA     BIT       P26
      00000090H.7 SFRSYM    DATA     BIT       P17
      000000C8H.4 SFRSYM    DATA     BIT       P54
      000000C0H.5 SFRSYM    DATA     BIT       P45
      000000B0H.6 SFRSYM    DATA     BIT       P36
      000000A0H.7 SFRSYM    DATA     BIT       P27
      000000C8H.5 SFRSYM    DATA     BIT       P55
      000000C0H.6 SFRSYM    DATA     BIT       P46
      000000B0H.7 SFRSYM    DATA     BIT       P37
      000000C8H.6 SFRSYM    DATA     BIT       P56
      000000C0H.7 SFRSYM    DATA     BIT       P47
      000000C8H.7 SFRSYM    DATA     BIT       P57
      00000088H.1 SFRSYM    DATA     BIT       IE0
      000000A1H   SFRSYM    DATA     BYTE      BUS_SPEED
      00000088H.3 SFRSYM    DATA     BIT       IE1
      000000AFH   SFRSYM    DATA     BYTE      IE2
      000000F0H   SFRSYM    DATA     BYTE      B
      0000008EH   SFRSYM    DATA     BYTE      AUXR
      000000C7H   SFRSYM    DATA     BYTE      IAP_CONTR
      000000E0H   SFRSYM    DATA     BYTE      ACC
      000000A8H.1 SFRSYM    DATA     BIT       ET0
      000000A8H.3 SFRSYM    DATA     BIT       ET1
LX51 LINKER/LOCATER V4.66.41.0                                                        11/02/2018  15:47:42  PAGE 21


      00000088H.5 SFRSYM    DATA     BIT       TF0
      00000088H.7 SFRSYM    DATA     BIT       TF1
      000000B5H   SFRSYM    DATA     BYTE      IP2
      0000008CH   SFRSYM    DATA     BYTE      RL_TH0
      00000098H.2 SFRSYM    DATA     BIT       RB8
      0000008DH   SFRSYM    DATA     BYTE      RL_TH1
      0000008CH   SFRSYM    DATA     BYTE      TH0
      000000A8H   SFRSYM    DATA     BIT       EX0
      00000088H   SFRSYM    DATA     BIT       IT0
      000000D6H   SFRSYM    DATA     BYTE      RL_T2H
      0000008DH   SFRSYM    DATA     BYTE      TH1
      00000090H.6 SFRSYM    DATA     BIT       touchPad_1
      000000A8H.2 SFRSYM    DATA     BIT       EX1
      00000098H.3 SFRSYM    DATA     BIT       TB8
      00000088H.2 SFRSYM    DATA     BIT       IT1
      000000D4H   SFRSYM    DATA     BYTE      RL_T3H
      000000D6H   SFRSYM    DATA     BYTE      TH2
      000000D6H   SFRSYM    DATA     BYTE      T2H
      00000090H.7 SFRSYM    DATA     BIT       touchPad_2
      000000D0H   SFRSYM    DATA     BIT       P
      000000D2H   SFRSYM    DATA     BYTE      RL_T4H
      000000D4H   SFRSYM    DATA     BYTE      TH3
      000000D4H   SFRSYM    DATA     BYTE      T3H
      0000008AH   SFRSYM    DATA     BYTE      RL_TL0
      00000090H.5 SFRSYM    DATA     BIT       touchPad_3
      00000098H.7 SFRSYM    DATA     BIT       SM0
      000000D2H   SFRSYM    DATA     BYTE      TH4
      000000D2H   SFRSYM    DATA     BYTE      T4H
      0000008BH   SFRSYM    DATA     BYTE      RL_TL1
      0000008AH   SFRSYM    DATA     BYTE      TL0
      00000098H.6 SFRSYM    DATA     BIT       SM1
      000000D7H   SFRSYM    DATA     BYTE      RL_T2L
      0000008BH   SFRSYM    DATA     BYTE      TL1
      00000098H.5 SFRSYM    DATA     BIT       SM2
      000000D5H   SFRSYM    DATA     BYTE      RL_T3L
      000000D7H   SFRSYM    DATA     BYTE      TL2
      000000D7H   SFRSYM    DATA     BYTE      T2L
      000000D3H   SFRSYM    DATA     BYTE      RL_T4L
      000000D5H   SFRSYM    DATA     BYTE      TL3
      000000D5H   SFRSYM    DATA     BYTE      T3L
      000000B8H.1 SFRSYM    DATA     BIT       PT0
      000000D3H   SFRSYM    DATA     BYTE      TL4
      000000D3H   SFRSYM    DATA     BYTE      T4L
      000000B8H.3 SFRSYM    DATA     BIT       PT1
      000000D0H.3 SFRSYM    DATA     BIT       RS0
      000000C7H   SFRSYM    DATA     BYTE      ISP_CONTR
      00000088H.4 SFRSYM    DATA     BIT       TR0
      000000D0H.4 SFRSYM    DATA     BIT       RS1
      000000C2H   SFRSYM    DATA     BYTE      IAP_DATA
      00000088H.6 SFRSYM    DATA     BIT       TR1
      000000B8H   SFRSYM    DATA     BIT       PX0
      000000C1H   SFRSYM    DATA     BYTE      WDT_CONTR
      000000B8H.2 SFRSYM    DATA     BIT       PX1
      000000F2H   SFRSYM    DATA     BYTE      PCA_PWM0
      000000F3H   SFRSYM    DATA     BYTE      PCA_PWM1
      000000F4H   SFRSYM    DATA     BYTE      PCA_PWM2
      0000009DH   SFRSYM    DATA     BYTE      P1ASF
      00000083H   SFRSYM    DATA     BYTE      DPH
      000000D1H   SFRSYM    DATA     BYTE      T4T3M
      000000BEH   SFRSYM    DATA     BYTE      ADC_RESL
      00000082H   SFRSYM    DATA     BYTE      DPL
      000000CDH   SFRSYM    DATA     BYTE      SPSTAT
      000000B7H   SFRSYM    DATA     BYTE      IPH
      0000009BH   SFRSYM    DATA     BYTE      S2BUF
      00000097H   SFRSYM    DATA     BYTE      PCON2
LX51 LINKER/LOCATER V4.66.41.0                                                        11/02/2018  15:47:42  PAGE 22


      000000ADH   SFRSYM    DATA     BYTE      S3BUF
      00000098H.4 SFRSYM    DATA     BIT       REN
      00000085H   SFRSYM    DATA     BYTE      S4BUF
      00000080H.2 SFRSYM    DATA     BIT       Usr_key
      0000009AH   SFRSYM    DATA     BYTE      S2CON
      000000ACH   SFRSYM    DATA     BYTE      S3CON
      000000C2H   SFRSYM    DATA     BYTE      ISP_DATA
      00000084H   SFRSYM    DATA     BYTE      S4CON
      000000B9H   SFRSYM    DATA     BYTE      SADEN
      000000B0H   SFRSYM    DATA     BIT       RXD
      000000A9H   SFRSYM    DATA     BYTE      SADDR
      000000B0H.1 SFRSYM    DATA     BIT       TXD
      000000F0H   SFRSYM    DATA     BIT       B0
      000000F0H.1 SFRSYM    DATA     BIT       B1
      000000C6H   SFRSYM    DATA     BYTE      IAP_TRIG
      000000A2H   SFRSYM    DATA     BYTE      AUXR1
      000000F0H.2 SFRSYM    DATA     BIT       B2
      00000090H.2 SFRSYM    DATA     BIT       SPI_SS
      0000008FH   SFRSYM    DATA     BYTE      AUXR2
      000000F0H.3 SFRSYM    DATA     BIT       B3
      000000F0H.4 SFRSYM    DATA     BIT       B4
      000000D0H.5 SFRSYM    DATA     BIT       F0
      000000F0H.5 SFRSYM    DATA     BIT       B5
      000000D0H.1 SFRSYM    DATA     BIT       F1
      0000008FH   SFRSYM    DATA     BYTE      INT_CLKO
      000000F0H.6 SFRSYM    DATA     BIT       B6
      000000E0H   SFRSYM    DATA     BIT       ACC0
      000000F0H.7 SFRSYM    DATA     BIT       B7
      000000E0H.1 SFRSYM    DATA     BIT       ACC1
      000000E0H.2 SFRSYM    DATA     BIT       ACC2
      000000E0H.3 SFRSYM    DATA     BIT       ACC3
      000000D0H   SFRSYM    DATA     BYTE      PSW
      000000E0H.4 SFRSYM    DATA     BIT       ACC4
      00000090H.5 SFRSYM    DATA     BIT       SPI_SCLK
      000000D8H   SFRSYM    DATA     BIT       CCF0
      000000E0H.5 SFRSYM    DATA     BIT       ACC5
      000000D8H.1 SFRSYM    DATA     BIT       CCF1
      000000E0H.6 SFRSYM    DATA     BIT       ACC6
      000000CFH   SFRSYM    DATA     BYTE      SPDAT
      00000094H   SFRSYM    DATA     BYTE      P0M0

      0100638FH   BLOCK     CODE     ---       LVL=0
      0100638FH   LINE      CODE     ---       #17
      0100638FH   LINE      CODE     ---       #19
      01006392H   LINE      CODE     ---       #20
      01006395H   LINE      CODE     ---       #21
      01006398H   LINE      CODE     ---       #22
      0100639BH   LINE      CODE     ---       #23
      0100639EH   LINE      CODE     ---       #24
      ---         BLOCKEND  ---      ---       LVL=0

      010063DCH   BLOCK     CODE     ---       LVL=0
      010063DCH   LINE      CODE     ---       #27
      010063DCH   LINE      CODE     ---       #29
      010063DFH   LINE      CODE     ---       #30
      010063E2H   LINE      CODE     ---       #31
      010063E5H   LINE      CODE     ---       #32
      ---         BLOCKEND  ---      ---       LVL=0

      01005E34H   BLOCK     CODE     ---       LVL=0
      01005E34H   LINE      CODE     ---       #35
      01005E34H   LINE      CODE     ---       #37
      01005E37H   LINE      CODE     ---       #38
      01005E3AH   LINE      CODE     ---       #39
      01005E3DH   LINE      CODE     ---       #43
LX51 LINKER/LOCATER V4.66.41.0                                                        11/02/2018  15:47:42  PAGE 23


      01005E43H   LINE      CODE     ---       #44
      01005E4AH   LINE      CODE     ---       #48
      01005E4AH   LINE      CODE     ---       #50
      01005E4DH   LINE      CODE     ---       #51
      01005E68H   LINE      CODE     ---       #52
      01005E6BH   LINE      CODE     ---       #54
      01005E6EH   LINE      CODE     ---       #56
      01005E71H   LINE      CODE     ---       #58
      01005E74H   LINE      CODE     ---       #60
      01005E77H   LINE      CODE     ---       #62
      01005E7AH   LINE      CODE     ---       #64
      01005E7DH   LINE      CODE     ---       #65
      ---         BLOCKEND  ---      ---       LVL=0

      ---         MODULE    ---      ---       APPTIMER
      01002136H   PUBLIC    CODE     ---       timer0_Rountine
      0100000EH   PUBLIC    CODE     ---       appTimer0_Init
      000000D8H.2 SFRSYM    DATA     BIT       CCF2
      000000E0H.7 SFRSYM    DATA     BIT       ACC7
      00000093H   SFRSYM    DATA     BYTE      P0M1
      00000092H   SFRSYM    DATA     BYTE      P1M0
      00000096H   SFRSYM    DATA     BYTE      P2M0
      00000091H   SFRSYM    DATA     BYTE      P1M1
      00000080H   SFRSYM    DATA     BYTE      P0
      000000B2H   SFRSYM    DATA     BYTE      P3M0
      00000095H   SFRSYM    DATA     BYTE      P2M1
      00000090H   SFRSYM    DATA     BYTE      P1
      000000B4H   SFRSYM    DATA     BYTE      P4M0
      000000B1H   SFRSYM    DATA     BYTE      P3M1
      000000A0H   SFRSYM    DATA     BYTE      P2
      000000CAH   SFRSYM    DATA     BYTE      P5M0
      000000B3H   SFRSYM    DATA     BYTE      P4M1
      000000B0H   SFRSYM    DATA     BYTE      P3
      000000ABH   SFRSYM    DATA     BYTE      WKTCH
      000000B0H.4 SFRSYM    DATA     BIT       T0
      000000D0H.6 SFRSYM    DATA     BIT       AC
      000000CCH   SFRSYM    DATA     BYTE      P6M0
      000000C9H   SFRSYM    DATA     BYTE      P5M1
      000000C0H   SFRSYM    DATA     BYTE      P4
      000000B0H.5 SFRSYM    DATA     BIT       CLKOUT0
      000000B0H.5 SFRSYM    DATA     BIT       T1
      000000E2H   SFRSYM    DATA     BYTE      P7M0
      000000CBH   SFRSYM    DATA     BYTE      P6M1
      000000C8H   SFRSYM    DATA     BYTE      P5
      000000C6H   SFRSYM    DATA     BYTE      ISP_TRIG
      000000A8H.7 SFRSYM    DATA     BIT       EA
      000000B0H.4 SFRSYM    DATA     BIT       CLKOUT1
      000000A0H.4 SFRSYM    DATA     BIT       SPI_SS_2
      000000E8H   SFRSYM    DATA     BYTE      P6
      000000E1H   SFRSYM    DATA     BYTE      P7M1
      000000C8H.4 SFRSYM    DATA     BIT       SPI_SS_3
      00000090H.4 SFRSYM    DATA     BIT       SPI_MISO
      00000090H.3 SFRSYM    DATA     BIT       SPI_MOSI
      00000090H.1 SFRSYM    DATA     BIT       CCP0
      000000F8H   SFRSYM    DATA     BYTE      P7
      000000AAH   SFRSYM    DATA     BYTE      WKTCL
      00000090H   SFRSYM    DATA     BIT       CCP1
      000000CEH   SFRSYM    DATA     BYTE      SPCTL
      000000D8H.7 SFRSYM    DATA     BIT       CF
      000000B0H.7 SFRSYM    DATA     BIT       CCP2
      000000F9H   SFRSYM    DATA     BYTE      CH
      000000A2H   SFRSYM    DATA     BYTE      P_SW1
      000000BAH   SFRSYM    DATA     BYTE      P_SW2
      000000A8H.5 SFRSYM    DATA     BIT       EADC
      000000A0H.1 SFRSYM    DATA     BIT       SPI_SCLK_2
LX51 LINKER/LOCATER V4.66.41.0                                                        11/02/2018  15:47:42  PAGE 24


      000000A8H   SFRSYM    DATA     BYTE      IE
      000000C0H.3 SFRSYM    DATA     BIT       SPI_SCLK_3
      000000E9H   SFRSYM    DATA     BYTE      CL
      000000C5H   SFRSYM    DATA     BYTE      IAP_CMD
      000000FAH   SFRSYM    DATA     BYTE      CCAP0H
      000000FBH   SFRSYM    DATA     BYTE      CCAP1H
      000000FCH   SFRSYM    DATA     BYTE      CCAP2H
      000000BDH   SFRSYM    DATA     BYTE      ADC_RES
      000000B6H   SFRSYM    DATA     BYTE      IPH2
      000000D8H.6 SFRSYM    DATA     BIT       CR
      000000EAH   SFRSYM    DATA     BYTE      CCAP0L
      000000B0H.7 SFRSYM    DATA     BIT       RD
      000000EBH   SFRSYM    DATA     BYTE      CCAP1L
      000000DAH   SFRSYM    DATA     BYTE      CCAPM0
      000000ECH   SFRSYM    DATA     BYTE      CCAP2L
      000000DBH   SFRSYM    DATA     BYTE      CCAPM1
      000000A8H.4 SFRSYM    DATA     BIT       ES
      000000DCH   SFRSYM    DATA     BYTE      CCAPM2
      000000B8H.5 SFRSYM    DATA     BIT       PADC
      000000A0H.2 SFRSYM    DATA     BIT       SPI_MISO_2
      000000A0H.3 SFRSYM    DATA     BIT       SPI_MOSI_2
      000000B8H   SFRSYM    DATA     BYTE      IP
      000000C0H.1 SFRSYM    DATA     BIT       SPI_MISO_3
      000000C0H   SFRSYM    DATA     BIT       SPI_MOSI_3
      00000098H   SFRSYM    DATA     BIT       RI
      000000B0H.2 SFRSYM    DATA     BIT       INT0
      000000D0H.7 SFRSYM    DATA     BIT       CY
      00000098H.1 SFRSYM    DATA     BIT       TI
      000000B0H.3 SFRSYM    DATA     BIT       INT1
      00000097H   SFRSYM    DATA     BYTE      CLK_DIV
      000000C3H   SFRSYM    DATA     BYTE      IAP_ADDRH
      00000090H   SFRSYM    DATA     BIT       RXD2
      000000C5H   SFRSYM    DATA     BYTE      ISP_CMD
      000000B8H.4 SFRSYM    DATA     BIT       PS
      00000090H.1 SFRSYM    DATA     BIT       TXD2
      00000081H   SFRSYM    DATA     BYTE      SP
      000000D9H   SFRSYM    DATA     BYTE      CMOD
      000000D8H   SFRSYM    DATA     BYTE      CCON
      000000C4H   SFRSYM    DATA     BYTE      IAP_ADDRL
      000000B8H.7 SFRSYM    DATA     BIT       PPCA
      000000D0H.2 SFRSYM    DATA     BIT       OV
      000000B0H.6 SFRSYM    DATA     BIT       WR
      000000A8H.6 SFRSYM    DATA     BIT       ELVD
      00000080H   SFRSYM    DATA     BIT       P00
      00000090H   SFRSYM    DATA     BIT       P10
      00000080H.1 SFRSYM    DATA     BIT       P01
      000000BCH   SFRSYM    DATA     BYTE      ADC_CONTR
      00000099H   SFRSYM    DATA     BYTE      SBUF
      00000087H   SFRSYM    DATA     BYTE      PCON
      000000A0H   SFRSYM    DATA     BIT       P20
      00000090H.1 SFRSYM    DATA     BIT       P11
      00000080H.2 SFRSYM    DATA     BIT       P02
      000000C3H   SFRSYM    DATA     BYTE      ISP_ADDRH
      000000B0H   SFRSYM    DATA     BIT       P30
      000000A0H.1 SFRSYM    DATA     BIT       P21
      00000090H.2 SFRSYM    DATA     BIT       P12
      00000080H.3 SFRSYM    DATA     BIT       P03
      000000C0H   SFRSYM    DATA     BIT       P40
      000000B0H.1 SFRSYM    DATA     BIT       P31
      000000A0H.2 SFRSYM    DATA     BIT       P22
      00000090H.3 SFRSYM    DATA     BIT       P13
      00000080H.4 SFRSYM    DATA     BIT       P04
      00000098H   SFRSYM    DATA     BYTE      SCON
      0000008FH   SFRSYM    DATA     BYTE      WAKE_CLKO
      000000C8H   SFRSYM    DATA     BIT       P50
LX51 LINKER/LOCATER V4.66.41.0                                                        11/02/2018  15:47:42  PAGE 25


      000000C0H.1 SFRSYM    DATA     BIT       P41
      000000B0H.2 SFRSYM    DATA     BIT       P32
      000000A0H.3 SFRSYM    DATA     BIT       P23
      00000090H.4 SFRSYM    DATA     BIT       P14
      00000080H.5 SFRSYM    DATA     BIT       P05
      00000089H   SFRSYM    DATA     BYTE      TMOD
      00000088H   SFRSYM    DATA     BYTE      TCON
      000000C8H.1 SFRSYM    DATA     BIT       P51
      000000C0H.2 SFRSYM    DATA     BIT       P42
      000000B0H.3 SFRSYM    DATA     BIT       P33
      000000A0H.4 SFRSYM    DATA     BIT       P24
      00000090H.5 SFRSYM    DATA     BIT       P15
      00000080H.6 SFRSYM    DATA     BIT       P06
      000000C4H   SFRSYM    DATA     BYTE      ISP_ADDRL
      000000B8H.6 SFRSYM    DATA     BIT       PLVD
      000000C8H.2 SFRSYM    DATA     BIT       P52
      000000C0H.3 SFRSYM    DATA     BIT       P43
      000000B0H.4 SFRSYM    DATA     BIT       P34
      000000A0H.5 SFRSYM    DATA     BIT       P25
      00000090H.6 SFRSYM    DATA     BIT       P16
      00000080H.7 SFRSYM    DATA     BIT       P07
      000000C8H.3 SFRSYM    DATA     BIT       P53
      000000C0H.4 SFRSYM    DATA     BIT       P44
      000000B0H.5 SFRSYM    DATA     BIT       P35
      000000A0H.6 SFRSYM    DATA     BIT       P26
      00000090H.7 SFRSYM    DATA     BIT       P17
      000000C8H.4 SFRSYM    DATA     BIT       P54
      000000C0H.5 SFRSYM    DATA     BIT       P45
      000000B0H.6 SFRSYM    DATA     BIT       P36
      000000A0H.7 SFRSYM    DATA     BIT       P27
      000000C8H.5 SFRSYM    DATA     BIT       P55
      000000C0H.6 SFRSYM    DATA     BIT       P46
      000000B0H.7 SFRSYM    DATA     BIT       P37
      000000C8H.6 SFRSYM    DATA     BIT       P56
      000000C0H.7 SFRSYM    DATA     BIT       P47
      000000C8H.7 SFRSYM    DATA     BIT       P57
      00000088H.1 SFRSYM    DATA     BIT       IE0
      000000A1H   SFRSYM    DATA     BYTE      BUS_SPEED
      00000088H.3 SFRSYM    DATA     BIT       IE1
      000000AFH   SFRSYM    DATA     BYTE      IE2
      000000F0H   SFRSYM    DATA     BYTE      B
      0000008EH   SFRSYM    DATA     BYTE      AUXR
      000000C7H   SFRSYM    DATA     BYTE      IAP_CONTR
      000000E0H   SFRSYM    DATA     BYTE      ACC
      000000A8H.1 SFRSYM    DATA     BIT       ET0
      000000A8H.3 SFRSYM    DATA     BIT       ET1
      00000088H.5 SFRSYM    DATA     BIT       TF0
      00000088H.7 SFRSYM    DATA     BIT       TF1
      000000B5H   SFRSYM    DATA     BYTE      IP2
      0000008CH   SFRSYM    DATA     BYTE      RL_TH0
      00000098H.2 SFRSYM    DATA     BIT       RB8
      0000008DH   SFRSYM    DATA     BYTE      RL_TH1
      0000008CH   SFRSYM    DATA     BYTE      TH0
      000000A8H   SFRSYM    DATA     BIT       EX0
      00000088H   SFRSYM    DATA     BIT       IT0
      000000D6H   SFRSYM    DATA     BYTE      RL_T2H
      0000008DH   SFRSYM    DATA     BYTE      TH1
      000000A8H.2 SFRSYM    DATA     BIT       EX1
      00000098H.3 SFRSYM    DATA     BIT       TB8
      00000088H.2 SFRSYM    DATA     BIT       IT1
      000000D4H   SFRSYM    DATA     BYTE      RL_T3H
      000000D6H   SFRSYM    DATA     BYTE      TH2
      000000D6H   SFRSYM    DATA     BYTE      T2H
      000000D0H   SFRSYM    DATA     BIT       P
      000000D2H   SFRSYM    DATA     BYTE      RL_T4H
LX51 LINKER/LOCATER V4.66.41.0                                                        11/02/2018  15:47:42  PAGE 26


      000000D4H   SFRSYM    DATA     BYTE      TH3
      000000D4H   SFRSYM    DATA     BYTE      T3H
      0000008AH   SFRSYM    DATA     BYTE      RL_TL0
      00000098H.7 SFRSYM    DATA     BIT       SM0
      000000D2H   SFRSYM    DATA     BYTE      TH4
      000000D2H   SFRSYM    DATA     BYTE      T4H
      0000008BH   SFRSYM    DATA     BYTE      RL_TL1
      0000008AH   SFRSYM    DATA     BYTE      TL0
      00000098H.6 SFRSYM    DATA     BIT       SM1
      000000D7H   SFRSYM    DATA     BYTE      RL_T2L
      0000008BH   SFRSYM    DATA     BYTE      TL1
      00000098H.5 SFRSYM    DATA     BIT       SM2
      000000D5H   SFRSYM    DATA     BYTE      RL_T3L
      000000D7H   SFRSYM    DATA     BYTE      TL2
      000000D7H   SFRSYM    DATA     BYTE      T2L
      000000D3H   SFRSYM    DATA     BYTE      RL_T4L
      000000D5H   SFRSYM    DATA     BYTE      TL3
      000000D5H   SFRSYM    DATA     BYTE      T3L
      000000B8H.1 SFRSYM    DATA     BIT       PT0
      000000D3H   SFRSYM    DATA     BYTE      TL4
      000000D3H   SFRSYM    DATA     BYTE      T4L
      000000B8H.3 SFRSYM    DATA     BIT       PT1
      000000D0H.3 SFRSYM    DATA     BIT       RS0
      000000C7H   SFRSYM    DATA     BYTE      ISP_CONTR
      00000088H.4 SFRSYM    DATA     BIT       TR0
      000000D0H.4 SFRSYM    DATA     BIT       RS1
      000000C2H   SFRSYM    DATA     BYTE      IAP_DATA
      00000088H.6 SFRSYM    DATA     BIT       TR1
      000000B8H   SFRSYM    DATA     BIT       PX0
      000000C1H   SFRSYM    DATA     BYTE      WDT_CONTR
      000000B8H.2 SFRSYM    DATA     BIT       PX1
      000000F2H   SFRSYM    DATA     BYTE      PCA_PWM0
      000000F3H   SFRSYM    DATA     BYTE      PCA_PWM1
      000000F4H   SFRSYM    DATA     BYTE      PCA_PWM2
      0000009DH   SFRSYM    DATA     BYTE      P1ASF
      00000083H   SFRSYM    DATA     BYTE      DPH
      000000D1H   SFRSYM    DATA     BYTE      T4T3M
      000000BEH   SFRSYM    DATA     BYTE      ADC_RESL
      00000082H   SFRSYM    DATA     BYTE      DPL
      000000CDH   SFRSYM    DATA     BYTE      SPSTAT
      000000B7H   SFRSYM    DATA     BYTE      IPH
      0000009BH   SFRSYM    DATA     BYTE      S2BUF
      00000097H   SFRSYM    DATA     BYTE      PCON2
      000000ADH   SFRSYM    DATA     BYTE      S3BUF
      00000098H.4 SFRSYM    DATA     BIT       REN
      00000085H   SFRSYM    DATA     BYTE      S4BUF
      0000009AH   SFRSYM    DATA     BYTE      S2CON
      000000ACH   SFRSYM    DATA     BYTE      S3CON
      000000C2H   SFRSYM    DATA     BYTE      ISP_DATA
      00000084H   SFRSYM    DATA     BYTE      S4CON
      000000B9H   SFRSYM    DATA     BYTE      SADEN
      000000B0H   SFRSYM    DATA     BIT       RXD
      000000A9H   SFRSYM    DATA     BYTE      SADDR
      000000B0H.1 SFRSYM    DATA     BIT       TXD
      000000F0H   SFRSYM    DATA     BIT       B0
      000000F0H.1 SFRSYM    DATA     BIT       B1
      000000C6H   SFRSYM    DATA     BYTE      IAP_TRIG
      000000A2H   SFRSYM    DATA     BYTE      AUXR1
      000000F0H.2 SFRSYM    DATA     BIT       B2
      00000090H.2 SFRSYM    DATA     BIT       SPI_SS
      0000008FH   SFRSYM    DATA     BYTE      AUXR2
      000000F0H.3 SFRSYM    DATA     BIT       B3
      000000F0H.4 SFRSYM    DATA     BIT       B4
      000000D0H.5 SFRSYM    DATA     BIT       F0
      000000F0H.5 SFRSYM    DATA     BIT       B5
LX51 LINKER/LOCATER V4.66.41.0                                                        11/02/2018  15:47:42  PAGE 27


      000000D0H.1 SFRSYM    DATA     BIT       F1
      0000008FH   SFRSYM    DATA     BYTE      INT_CLKO
      000000F0H.6 SFRSYM    DATA     BIT       B6
      000000E0H   SFRSYM    DATA     BIT       ACC0
      000000F0H.7 SFRSYM    DATA     BIT       B7
      000000E0H.1 SFRSYM    DATA     BIT       ACC1
      000000E0H.2 SFRSYM    DATA     BIT       ACC2
      000000E0H.3 SFRSYM    DATA     BIT       ACC3
      000000D0H   SFRSYM    DATA     BYTE      PSW
      000000E0H.4 SFRSYM    DATA     BIT       ACC4
      00000090H.5 SFRSYM    DATA     BIT       SPI_SCLK
      000000D8H   SFRSYM    DATA     BIT       CCF0
      000000E0H.5 SFRSYM    DATA     BIT       ACC5
      000000D8H.1 SFRSYM    DATA     BIT       CCF1
      000000E0H.6 SFRSYM    DATA     BIT       ACC6
      000000CFH   SFRSYM    DATA     BYTE      SPDAT
      00000094H   SFRSYM    DATA     BYTE      P0M0

      0100000EH   BLOCK     CODE     ---       LVL=0
      0100000EH   LINE      CODE     ---       #45
      0100000EH   LINE      CODE     ---       #47
      01000011H   LINE      CODE     ---       #48
      01000014H   LINE      CODE     ---       #49
      01000017H   LINE      CODE     ---       #50
      0100001AH   LINE      CODE     ---       #51
      0100001CH   LINE      CODE     ---       #52
      0100001EH   LINE      CODE     ---       #53
      01000020H   LINE      CODE     ---       #55
      01000022H   LINE      CODE     ---       #56
      ---         BLOCKEND  ---      ---       LVL=0

      01002136H   BLOCK     CODE     ---       LVL=0
      01002153H   BLOCK     CODE     NEAR LAB  LVL=1
      01006488H   SYMBOL    CONST    WORD      period_1second
      00000073H   SYMBOL    DATA     WORD      counter_1second
      0100648AH   SYMBOL    CONST    BYTE      period_1ms
      00000075H   SYMBOL    DATA     BYTE      counter_1ms
      0100648BH   SYMBOL    CONST    BYTE      period_tipsColor
      00000076H   SYMBOL    DATA     BYTE      counter_tipsColor
      02000527H   SYMBOL    XDATA    ---       cnt_relay1_Tips
      0200052AH   SYMBOL    XDATA    ---       cnt_relay2_Tips
      0200052DH   SYMBOL    XDATA    ---       cnt_relay3_Tips
      02000530H   SYMBOL    XDATA    ---       cnt_zigbNwk_Tips
      02000533H   SYMBOL    XDATA    BYTE      period_beep
      02000534H   SYMBOL    XDATA    BYTE      count_beep
      0100236EH   BLOCK     CODE     NEAR LAB  LVL=2
      02000522H   SYMBOL    XDATA    WORD      tips_Period
      02000524H   SYMBOL    XDATA    WORD      tips_Count
      02000526H   SYMBOL    XDATA    BYTE      tips_Loop
      00000024H.7 SYMBOL    BIT      BIT       beeps_en
      ---         BLOCKEND  ---      ---       LVL=2
      ---         BLOCKEND  ---      ---       LVL=1
      01002136H   LINE      CODE     ---       #58
      01002153H   LINE      CODE     ---       #77
      01002163H   LINE      CODE     ---       #78
      01002163H   LINE      CODE     ---       #80
      01002166H   LINE      CODE     ---       #83
      0100217EH   LINE      CODE     ---       #86
      0100218BH   LINE      CODE     ---       #87
      01002191H   LINE      CODE     ---       #90
      010021A9H   LINE      CODE     ---       #93
      010021C1H   LINE      CODE     ---       #96
      010021D9H   LINE      CODE     ---       #97
      010021D9H   LINE      CODE     ---       #100
      010021F3H   LINE      CODE     ---       #101
LX51 LINKER/LOCATER V4.66.41.0                                                        11/02/2018  15:47:42  PAGE 28


      010021F3H   LINE      CODE     ---       #103
      010021F9H   LINE      CODE     ---       #106
      010021FCH   LINE      CODE     ---       #108
      0100220EH   LINE      CODE     ---       #109
      0100220EH   LINE      CODE     ---       #111
      01002213H   LINE      CODE     ---       #112
      01002215H   LINE      CODE     ---       #113
      01002215H   LINE      CODE     ---       #114
      01002215H   LINE      CODE     ---       #117
      0100221CH   LINE      CODE     ---       #119
      0100223CH   LINE      CODE     ---       #120
      0100223CH   LINE      CODE     ---       #122
      01002247H   LINE      CODE     ---       #124
      0100224DH   LINE      CODE     ---       #126
      01002253H   LINE      CODE     ---       #127
      0100225AH   LINE      CODE     ---       #128
      01002261H   LINE      CODE     ---       #129
      01002268H   LINE      CODE     ---       #130
      01002268H   LINE      CODE     ---       #131
      01002268H   LINE      CODE     ---       #134
      01002274H   LINE      CODE     ---       #136
      01002294H   LINE      CODE     ---       #137
      01002294H   LINE      CODE     ---       #139
      0100229BH   LINE      CODE     ---       #141
      010022A1H   LINE      CODE     ---       #142
      010022A6H   LINE      CODE     ---       #143
      010022ADH   LINE      CODE     ---       #144
      010022B4H   LINE      CODE     ---       #145
      010022B4H   LINE      CODE     ---       #146
      010022B4H   LINE      CODE     ---       #149
      010022BCH   LINE      CODE     ---       #152
      010022C4H   LINE      CODE     ---       #155
      010022CCH   LINE      CODE     ---       #158
      010022D4H   LINE      CODE     ---       #161
      010022DCH   LINE      CODE     ---       #164
      010022E4H   LINE      CODE     ---       #167
      010022ECH   LINE      CODE     ---       #170
      010022F4H   LINE      CODE     ---       #171
      010022F4H   LINE      CODE     ---       #174
      010022F7H   LINE      CODE     ---       #176
      01002302H   LINE      CODE     ---       #177
      01002302H   LINE      CODE     ---       #179
      0100230CH   LINE      CODE     ---       #181
      0100230EH   LINE      CODE     ---       #183
      0100231DH   LINE      CODE     ---       #184
      01002330H   LINE      CODE     ---       #185
      01002336H   LINE      CODE     ---       #188
      01002348H   LINE      CODE     ---       #191
      0100234FH   LINE      CODE     ---       #192
      01002357H   LINE      CODE     ---       #193
      0100235BH   LINE      CODE     ---       #195
      0100235BH   LINE      CODE     ---       #198
      0100235BH   LINE      CODE     ---       #199
      0100235BH   LINE      CODE     ---       #200
      0100235DH   LINE      CODE     ---       #201
      0100235DH   LINE      CODE     ---       #202
      0100235DH   LINE      CODE     ---       #205
      0100236EH   LINE      CODE     ---       #206
      0100236EH   LINE      CODE     ---       #213
      01002373H   LINE      CODE     ---       #215
      01002388H   LINE      CODE     ---       #217
      01002388H   LINE      CODE     ---       #219
      01002393H   LINE      CODE     ---       #220
      010023ABH   LINE      CODE     ---       #221
      010023B7H   LINE      CODE     ---       #222
LX51 LINKER/LOCATER V4.66.41.0                                                        11/02/2018  15:47:42  PAGE 29


      010023BEH   LINE      CODE     ---       #223
      010023C0H   LINE      CODE     ---       #224
      010023C6H   LINE      CODE     ---       #226
      010023C8H   LINE      CODE     ---       #228
      010023C8H   LINE      CODE     ---       #230
      010023CEH   LINE      CODE     ---       #232
      010023E3H   LINE      CODE     ---       #234
      010023EFH   LINE      CODE     ---       #235
      010023F8H   LINE      CODE     ---       #237
      010023FAH   LINE      CODE     ---       #239
      01002401H   LINE      CODE     ---       #240
      01002403H   LINE      CODE     ---       #241
      01002407H   LINE      CODE     ---       #242
      01002407H   LINE      CODE     ---       #244
      01002409H   LINE      CODE     ---       #246
      0100240FH   LINE      CODE     ---       #247
      0100240FH   LINE      CODE     ---       #249
      01002411H   LINE      CODE     ---       #251
      01002411H   LINE      CODE     ---       #253
      01002418H   LINE      CODE     ---       #254
      0100241AH   LINE      CODE     ---       #255
      0100241CH   LINE      CODE     ---       #256
      01002420H   LINE      CODE     ---       #258
      01002422H   LINE      CODE     ---       #260
      01002422H   LINE      CODE     ---       #262
      01002424H   LINE      CODE     ---       #264
      01002424H   LINE      CODE     ---       #265
      01002424H   LINE      CODE     ---       #266
      01002424H   LINE      CODE     ---       #269
      01002433H   LINE      CODE     ---       #271
      01002436H   LINE      CODE     ---       #273
      01002445H   LINE      CODE     ---       #274
      01002454H   LINE      CODE     ---       #275
      01002463H   LINE      CODE     ---       #277
      01002472H   LINE      CODE     ---       #278
      01002481H   LINE      CODE     ---       #279
      01002490H   LINE      CODE     ---       #281
      0100249FH   LINE      CODE     ---       #282
      010024AEH   LINE      CODE     ---       #283
      010024BDH   LINE      CODE     ---       #285
      010024CCH   LINE      CODE     ---       #286
      010024DBH   LINE      CODE     ---       #287
      010024EAH   LINE      CODE     ---       #288
      010024EDH   LINE      CODE     ---       #289
      010024EDH   LINE      CODE     ---       #291
      010024EFH   LINE      CODE     ---       #293
      010024FDH   LINE      CODE     ---       #295
      01002514H   LINE      CODE     ---       #296
      01002516H   LINE      CODE     ---       #297
      0100252DH   LINE      CODE     ---       #298
      0100252FH   LINE      CODE     ---       #299
      01002546H   LINE      CODE     ---       #300
      01002548H   LINE      CODE     ---       #301
      01002560H   LINE      CODE     ---       #302
      01002562H   LINE      CODE     ---       #304
      01002565H   LINE      CODE     ---       #305
      01002573H   LINE      CODE     ---       #307
      0100258AH   LINE      CODE     ---       #308
      0100258CH   LINE      CODE     ---       #309
      010025A3H   LINE      CODE     ---       #310
      010025A5H   LINE      CODE     ---       #311
      010025BCH   LINE      CODE     ---       #312
      010025BEH   LINE      CODE     ---       #313
      010025D5H   LINE      CODE     ---       #314
      010025D7H   LINE      CODE     ---       #316
LX51 LINKER/LOCATER V4.66.41.0                                                        11/02/2018  15:47:42  PAGE 30


      010025D9H   LINE      CODE     ---       #317
      010025E7H   LINE      CODE     ---       #319
      010025FEH   LINE      CODE     ---       #320
      01002600H   LINE      CODE     ---       #321
      01002617H   LINE      CODE     ---       #322
      01002619H   LINE      CODE     ---       #323
      01002630H   LINE      CODE     ---       #324
      01002632H   LINE      CODE     ---       #325
      01002649H   LINE      CODE     ---       #326
      0100264BH   LINE      CODE     ---       #327
      0100264BH   LINE      CODE     ---       #328
      0100264BH   LINE      CODE     ---       #329
      ---         BLOCKEND  ---      ---       LVL=0

      ---         MODULE    ---      ---       DATAMANAGE
      00000025H.0 PUBLIC    BIT      BIT       deviceLock_flag
      00000072H   PUBLIC    DATA     BYTE      SWITCH_TYPE
      020004CDH   PUBLIC    XDATA    ---       log_buf
      00000071H   PUBLIC    DATA     BYTE      DEV_actReserve
      020004C7H   PUBLIC    XDATA    ---       MAC_ID
      0000006EH   PUBLIC    DATA     ---       CTRLEATHER_PORT
      020004C1H   PUBLIC    XDATA    ---       MAC_ID_DST
      010062A8H   PUBLIC    CODE     ---       birthDay_Judge
      01005436H   PUBLIC    CODE     ---       Factory_recover
      010062E9H   PUBLIC    CODE     ---       switchTypeReserve_GET
      01006343H   PUBLIC    CODE     ---       portCtrlEachOther_Reales
      010058D2H   PUBLIC    CODE     ---       MAC_ID_Relaes
      000000D8H.2 SFRSYM    DATA     BIT       CCF2
      000000E0H.7 SFRSYM    DATA     BIT       ACC7
      00000093H   SFRSYM    DATA     BYTE      P0M1
      00000092H   SFRSYM    DATA     BYTE      P1M0
      00000096H   SFRSYM    DATA     BYTE      P2M0
      00000091H   SFRSYM    DATA     BYTE      P1M1
      00000080H   SFRSYM    DATA     BYTE      P0
      000000B2H   SFRSYM    DATA     BYTE      P3M0
      00000095H   SFRSYM    DATA     BYTE      P2M1
      00000090H   SFRSYM    DATA     BYTE      P1
      000000B4H   SFRSYM    DATA     BYTE      P4M0
      000000B1H   SFRSYM    DATA     BYTE      P3M1
      000000A0H   SFRSYM    DATA     BYTE      P2
      000000CAH   SFRSYM    DATA     BYTE      P5M0
      000000B3H   SFRSYM    DATA     BYTE      P4M1
      000000B0H   SFRSYM    DATA     BYTE      P3
      000000ABH   SFRSYM    DATA     BYTE      WKTCH
      000000B0H.4 SFRSYM    DATA     BIT       T0
      000000D0H.6 SFRSYM    DATA     BIT       AC
      000000CCH   SFRSYM    DATA     BYTE      P6M0
      000000C9H   SFRSYM    DATA     BYTE      P5M1
      000000C0H   SFRSYM    DATA     BYTE      P4
      000000B0H.5 SFRSYM    DATA     BIT       CLKOUT0
      000000B0H.5 SFRSYM    DATA     BIT       T1
      000000E2H   SFRSYM    DATA     BYTE      P7M0
      000000CBH   SFRSYM    DATA     BYTE      P6M1
      000000C8H   SFRSYM    DATA     BYTE      P5
      000000C6H   SFRSYM    DATA     BYTE      ISP_TRIG
      000000A8H.7 SFRSYM    DATA     BIT       EA
      000000B0H.4 SFRSYM    DATA     BIT       CLKOUT1
      000000A0H.4 SFRSYM    DATA     BIT       SPI_SS_2
      000000E8H   SFRSYM    DATA     BYTE      P6
      000000E1H   SFRSYM    DATA     BYTE      P7M1
      000000C8H.4 SFRSYM    DATA     BIT       SPI_SS_3
      00000090H.4 SFRSYM    DATA     BIT       SPI_MISO
      00000090H.3 SFRSYM    DATA     BIT       SPI_MOSI
      00000090H.1 SFRSYM    DATA     BIT       CCP0
      000000F8H   SFRSYM    DATA     BYTE      P7
LX51 LINKER/LOCATER V4.66.41.0                                                        11/02/2018  15:47:42  PAGE 31


      000000AAH   SFRSYM    DATA     BYTE      WKTCL
      00000090H   SFRSYM    DATA     BIT       CCP1
      000000CEH   SFRSYM    DATA     BYTE      SPCTL
      000000D8H.7 SFRSYM    DATA     BIT       CF
      000000B0H.7 SFRSYM    DATA     BIT       CCP2
      000000F9H   SFRSYM    DATA     BYTE      CH
      000000A2H   SFRSYM    DATA     BYTE      P_SW1
      000000BAH   SFRSYM    DATA     BYTE      P_SW2
      000000A8H.5 SFRSYM    DATA     BIT       EADC
      000000A0H.1 SFRSYM    DATA     BIT       SPI_SCLK_2
      000000A8H   SFRSYM    DATA     BYTE      IE
      000000C0H.3 SFRSYM    DATA     BIT       SPI_SCLK_3
      000000E9H   SFRSYM    DATA     BYTE      CL
      000000C5H   SFRSYM    DATA     BYTE      IAP_CMD
      000000FAH   SFRSYM    DATA     BYTE      CCAP0H
      000000FBH   SFRSYM    DATA     BYTE      CCAP1H
      000000FCH   SFRSYM    DATA     BYTE      CCAP2H
      000000BDH   SFRSYM    DATA     BYTE      ADC_RES
      000000B6H   SFRSYM    DATA     BYTE      IPH2
      000000D8H.6 SFRSYM    DATA     BIT       CR
      000000EAH   SFRSYM    DATA     BYTE      CCAP0L
      000000B0H.7 SFRSYM    DATA     BIT       RD
      000000EBH   SFRSYM    DATA     BYTE      CCAP1L
      000000DAH   SFRSYM    DATA     BYTE      CCAPM0
      000000ECH   SFRSYM    DATA     BYTE      CCAP2L
      000000DBH   SFRSYM    DATA     BYTE      CCAPM1
      000000A8H.4 SFRSYM    DATA     BIT       ES
      000000DCH   SFRSYM    DATA     BYTE      CCAPM2
      000000B8H.5 SFRSYM    DATA     BIT       PADC
      000000A0H.2 SFRSYM    DATA     BIT       SPI_MISO_2
      000000A0H.3 SFRSYM    DATA     BIT       SPI_MOSI_2
      000000B8H   SFRSYM    DATA     BYTE      IP
      000000C0H.1 SFRSYM    DATA     BIT       SPI_MISO_3
      000000C0H   SFRSYM    DATA     BIT       SPI_MOSI_3
      00000098H   SFRSYM    DATA     BIT       RI
      000000B0H.2 SFRSYM    DATA     BIT       INT0
      000000D0H.7 SFRSYM    DATA     BIT       CY
      00000098H.1 SFRSYM    DATA     BIT       TI
      000000B0H.3 SFRSYM    DATA     BIT       INT1
      00000097H   SFRSYM    DATA     BYTE      CLK_DIV
      000000C3H   SFRSYM    DATA     BYTE      IAP_ADDRH
      00000090H   SFRSYM    DATA     BIT       RXD2
      000000C5H   SFRSYM    DATA     BYTE      ISP_CMD
      000000B8H.4 SFRSYM    DATA     BIT       PS
      00000090H.1 SFRSYM    DATA     BIT       TXD2
      00000081H   SFRSYM    DATA     BYTE      SP
      000000D9H   SFRSYM    DATA     BYTE      CMOD
      000000D8H   SFRSYM    DATA     BYTE      CCON
      000000C4H   SFRSYM    DATA     BYTE      IAP_ADDRL
      000000B8H.7 SFRSYM    DATA     BIT       PPCA
      000000D0H.2 SFRSYM    DATA     BIT       OV
      000000B0H.6 SFRSYM    DATA     BIT       WR
      000000A8H.6 SFRSYM    DATA     BIT       ELVD
      00000080H   SFRSYM    DATA     BIT       P00
      00000090H   SFRSYM    DATA     BIT       P10
      00000080H.1 SFRSYM    DATA     BIT       P01
      000000BCH   SFRSYM    DATA     BYTE      ADC_CONTR
      00000099H   SFRSYM    DATA     BYTE      SBUF
      00000087H   SFRSYM    DATA     BYTE      PCON
      000000A0H   SFRSYM    DATA     BIT       P20
      00000090H.1 SFRSYM    DATA     BIT       P11
      00000080H.2 SFRSYM    DATA     BIT       P02
      000000C3H   SFRSYM    DATA     BYTE      ISP_ADDRH
      000000B0H   SFRSYM    DATA     BIT       P30
      000000A0H.1 SFRSYM    DATA     BIT       P21
LX51 LINKER/LOCATER V4.66.41.0                                                        11/02/2018  15:47:42  PAGE 32


      00000090H.2 SFRSYM    DATA     BIT       P12
      00000080H.3 SFRSYM    DATA     BIT       P03
      000000C0H   SFRSYM    DATA     BIT       P40
      000000B0H.1 SFRSYM    DATA     BIT       P31
      000000A0H.2 SFRSYM    DATA     BIT       P22
      00000090H.3 SFRSYM    DATA     BIT       P13
      00000080H.4 SFRSYM    DATA     BIT       P04
      00000098H   SFRSYM    DATA     BYTE      SCON
      0000008FH   SFRSYM    DATA     BYTE      WAKE_CLKO
      000000C8H   SFRSYM    DATA     BIT       P50
      000000C0H.1 SFRSYM    DATA     BIT       P41
      000000B0H.2 SFRSYM    DATA     BIT       P32
      000000A0H.3 SFRSYM    DATA     BIT       P23
      00000090H.4 SFRSYM    DATA     BIT       P14
      00000080H.5 SFRSYM    DATA     BIT       P05
      00000089H   SFRSYM    DATA     BYTE      TMOD
      00000088H   SFRSYM    DATA     BYTE      TCON
      000000C8H.1 SFRSYM    DATA     BIT       P51
      000000C0H.2 SFRSYM    DATA     BIT       P42
      000000B0H.3 SFRSYM    DATA     BIT       P33
      000000A0H.4 SFRSYM    DATA     BIT       P24
      00000090H.5 SFRSYM    DATA     BIT       P15
      00000080H.6 SFRSYM    DATA     BIT       P06
      000000C4H   SFRSYM    DATA     BYTE      ISP_ADDRL
      000000B8H.6 SFRSYM    DATA     BIT       PLVD
      000000C8H.2 SFRSYM    DATA     BIT       P52
      000000C0H.3 SFRSYM    DATA     BIT       P43
      000000B0H.4 SFRSYM    DATA     BIT       P34
      000000A0H.5 SFRSYM    DATA     BIT       P25
      00000090H.6 SFRSYM    DATA     BIT       P16
      00000080H.7 SFRSYM    DATA     BIT       P07
      000000C8H.3 SFRSYM    DATA     BIT       P53
      000000C0H.4 SFRSYM    DATA     BIT       P44
      000000B0H.5 SFRSYM    DATA     BIT       P35
      000000A0H.6 SFRSYM    DATA     BIT       P26
      00000090H.7 SFRSYM    DATA     BIT       P17
      000000C8H.4 SFRSYM    DATA     BIT       P54
      000000C0H.5 SFRSYM    DATA     BIT       P45
      000000B0H.6 SFRSYM    DATA     BIT       P36
      000000A0H.7 SFRSYM    DATA     BIT       P27
      000000C8H.5 SFRSYM    DATA     BIT       P55
      000000C0H.6 SFRSYM    DATA     BIT       P46
      000000B0H.7 SFRSYM    DATA     BIT       P37
      000000C8H.6 SFRSYM    DATA     BIT       P56
      000000C0H.7 SFRSYM    DATA     BIT       P47
      000000C8H.7 SFRSYM    DATA     BIT       P57
      00000088H.1 SFRSYM    DATA     BIT       IE0
      000000A1H   SFRSYM    DATA     BYTE      BUS_SPEED
      00000088H.3 SFRSYM    DATA     BIT       IE1
      000000AFH   SFRSYM    DATA     BYTE      IE2
      000000F0H   SFRSYM    DATA     BYTE      B
      0000008EH   SFRSYM    DATA     BYTE      AUXR
      000000C7H   SFRSYM    DATA     BYTE      IAP_CONTR
      000000E0H   SFRSYM    DATA     BYTE      ACC
      000000A8H.1 SFRSYM    DATA     BIT       ET0
      000000A8H.3 SFRSYM    DATA     BIT       ET1
      00000088H.5 SFRSYM    DATA     BIT       TF0
      00000088H.7 SFRSYM    DATA     BIT       TF1
      000000B5H   SFRSYM    DATA     BYTE      IP2
      0000008CH   SFRSYM    DATA     BYTE      RL_TH0
      00000098H.2 SFRSYM    DATA     BIT       RB8
      0000008DH   SFRSYM    DATA     BYTE      RL_TH1
      0000008CH   SFRSYM    DATA     BYTE      TH0
      000000A8H   SFRSYM    DATA     BIT       EX0
      00000088H   SFRSYM    DATA     BIT       IT0
LX51 LINKER/LOCATER V4.66.41.0                                                        11/02/2018  15:47:42  PAGE 33


      000000D6H   SFRSYM    DATA     BYTE      RL_T2H
      0000008DH   SFRSYM    DATA     BYTE      TH1
      000000A8H.2 SFRSYM    DATA     BIT       EX1
      00000098H.3 SFRSYM    DATA     BIT       TB8
      00000088H.2 SFRSYM    DATA     BIT       IT1
      000000D4H   SFRSYM    DATA     BYTE      RL_T3H
      000000D6H   SFRSYM    DATA     BYTE      TH2
      000000D6H   SFRSYM    DATA     BYTE      T2H
      000000D0H   SFRSYM    DATA     BIT       P
      000000D2H   SFRSYM    DATA     BYTE      RL_T4H
      000000D4H   SFRSYM    DATA     BYTE      TH3
      000000D4H   SFRSYM    DATA     BYTE      T3H
      0000008AH   SFRSYM    DATA     BYTE      RL_TL0
      00000098H.7 SFRSYM    DATA     BIT       SM0
      000000D2H   SFRSYM    DATA     BYTE      TH4
      000000D2H   SFRSYM    DATA     BYTE      T4H
      0000008BH   SFRSYM    DATA     BYTE      RL_TL1
      0000008AH   SFRSYM    DATA     BYTE      TL0
      00000098H.6 SFRSYM    DATA     BIT       SM1
      000000D7H   SFRSYM    DATA     BYTE      RL_T2L
      0000008BH   SFRSYM    DATA     BYTE      TL1
      00000098H.5 SFRSYM    DATA     BIT       SM2
      000000D5H   SFRSYM    DATA     BYTE      RL_T3L
      000000D7H   SFRSYM    DATA     BYTE      TL2
      000000D7H   SFRSYM    DATA     BYTE      T2L
      000000D3H   SFRSYM    DATA     BYTE      RL_T4L
      000000D5H   SFRSYM    DATA     BYTE      TL3
      000000D5H   SFRSYM    DATA     BYTE      T3L
      000000B8H.1 SFRSYM    DATA     BIT       PT0
      000000D3H   SFRSYM    DATA     BYTE      TL4
      000000D3H   SFRSYM    DATA     BYTE      T4L
      000000B8H.3 SFRSYM    DATA     BIT       PT1
      000000D0H.3 SFRSYM    DATA     BIT       RS0
      000000C7H   SFRSYM    DATA     BYTE      ISP_CONTR
      00000088H.4 SFRSYM    DATA     BIT       TR0
      000000D0H.4 SFRSYM    DATA     BIT       RS1
      000000C2H   SFRSYM    DATA     BYTE      IAP_DATA
      00000088H.6 SFRSYM    DATA     BIT       TR1
      000000B8H   SFRSYM    DATA     BIT       PX0
      000000C1H   SFRSYM    DATA     BYTE      WDT_CONTR
      000000B8H.2 SFRSYM    DATA     BIT       PX1
      000000F2H   SFRSYM    DATA     BYTE      PCA_PWM0
      000000F3H   SFRSYM    DATA     BYTE      PCA_PWM1
      000000F4H   SFRSYM    DATA     BYTE      PCA_PWM2
      0000009DH   SFRSYM    DATA     BYTE      P1ASF
      00000083H   SFRSYM    DATA     BYTE      DPH
      000000D1H   SFRSYM    DATA     BYTE      T4T3M
      000000BEH   SFRSYM    DATA     BYTE      ADC_RESL
      00000082H   SFRSYM    DATA     BYTE      DPL
      000000CDH   SFRSYM    DATA     BYTE      SPSTAT
      000000B7H   SFRSYM    DATA     BYTE      IPH
      0000009BH   SFRSYM    DATA     BYTE      S2BUF
      00000097H   SFRSYM    DATA     BYTE      PCON2
      000000ADH   SFRSYM    DATA     BYTE      S3BUF
      00000098H.4 SFRSYM    DATA     BIT       REN
      00000085H   SFRSYM    DATA     BYTE      S4BUF
      0000009AH   SFRSYM    DATA     BYTE      S2CON
      000000ACH   SFRSYM    DATA     BYTE      S3CON
      000000C2H   SFRSYM    DATA     BYTE      ISP_DATA
      00000084H   SFRSYM    DATA     BYTE      S4CON
      000000B9H   SFRSYM    DATA     BYTE      SADEN
      000000B0H   SFRSYM    DATA     BIT       RXD
      000000A9H   SFRSYM    DATA     BYTE      SADDR
      000000B0H.1 SFRSYM    DATA     BIT       TXD
      000000F0H   SFRSYM    DATA     BIT       B0
LX51 LINKER/LOCATER V4.66.41.0                                                        11/02/2018  15:47:42  PAGE 34


      000000F0H.1 SFRSYM    DATA     BIT       B1
      000000C6H   SFRSYM    DATA     BYTE      IAP_TRIG
      000000A2H   SFRSYM    DATA     BYTE      AUXR1
      000000F0H.2 SFRSYM    DATA     BIT       B2
      00000090H.2 SFRSYM    DATA     BIT       SPI_SS
      0000008FH   SFRSYM    DATA     BYTE      AUXR2
      000000F0H.3 SFRSYM    DATA     BIT       B3
      000000F0H.4 SFRSYM    DATA     BIT       B4
      000000D0H.5 SFRSYM    DATA     BIT       F0
      000000F0H.5 SFRSYM    DATA     BIT       B5
      000000D0H.1 SFRSYM    DATA     BIT       F1
      0000008FH   SFRSYM    DATA     BYTE      INT_CLKO
      000000F0H.6 SFRSYM    DATA     BIT       B6
      000000E0H   SFRSYM    DATA     BIT       ACC0
      000000F0H.7 SFRSYM    DATA     BIT       B7
      000000E0H.1 SFRSYM    DATA     BIT       ACC1
      000000E0H.2 SFRSYM    DATA     BIT       ACC2
      000000E0H.3 SFRSYM    DATA     BIT       ACC3
      000000D0H   SFRSYM    DATA     BYTE      PSW
      000000E0H.4 SFRSYM    DATA     BIT       ACC4
      00000090H.5 SFRSYM    DATA     BIT       SPI_SCLK
      000000D8H   SFRSYM    DATA     BIT       CCF0
      000000E0H.5 SFRSYM    DATA     BIT       ACC5
      000000D8H.1 SFRSYM    DATA     BIT       CCF1
      000000E0H.6 SFRSYM    DATA     BIT       ACC6
      000000CFH   SFRSYM    DATA     BYTE      SPDAT
      00000094H   SFRSYM    DATA     BYTE      P0M0
      01005316H   SYMBOL    CODE     ---       _?ix1000

      010058D2H   BLOCK     CODE     ---       LVL=0
      010058D2H   BLOCK     CODE     NEAR LAB  LVL=1
      00000006H   SYMBOL    DATA     ---       id_ptr
      010058EFH   BLOCK     CODE     NEAR LAB  LVL=2
      02000000H   SYMBOL    XDATA    ---       log_buf
      ---         BLOCKEND  ---      ---       LVL=2
      ---         BLOCKEND  ---      ---       LVL=1
      010058D2H   LINE      CODE     ---       #32
      010058D2H   LINE      CODE     ---       #34
      010058D6H   LINE      CODE     ---       #36
      010058EFH   LINE      CODE     ---       #39
      010058EFH   LINE      CODE     ---       #42
      01005918H   LINE      CODE     ---       #43
      01005921H   LINE      CODE     ---       #44
      0100594AH   LINE      CODE     ---       #45
      ---         BLOCKEND  ---      ---       LVL=0

      01006343H   BLOCK     CODE     ---       LVL=0
      01006343H   LINE      CODE     ---       #53
      01006343H   LINE      CODE     ---       #55
      ---         BLOCKEND  ---      ---       LVL=0

      010062E9H   BLOCK     CODE     ---       LVL=0
      010062E9H   BLOCK     CODE     NEAR LAB  LVL=1
      00000007H   SYMBOL    DATA     BYTE      act_Reserve
      ---         BLOCKEND  ---      ---       LVL=1
      010062E9H   LINE      CODE     ---       #68
      010062E9H   LINE      CODE     ---       #70
      010062EBH   LINE      CODE     ---       #72
      010062F0H   LINE      CODE     ---       #74
      010062F0H   LINE      CODE     ---       #76
      010062F2H   LINE      CODE     ---       #77
      010062F7H   LINE      CODE     ---       #79
      010062F9H   LINE      CODE     ---       #81
      010062FBH   LINE      CODE     ---       #82
      01006300H   LINE      CODE     ---       #84
LX51 LINKER/LOCATER V4.66.41.0                                                        11/02/2018  15:47:42  PAGE 35


      01006302H   LINE      CODE     ---       #85
      01006302H   LINE      CODE     ---       #87
      01006302H   LINE      CODE     ---       #88
      ---         BLOCKEND  ---      ---       LVL=0

      01005436H   BLOCK     CODE     ---       LVL=0
      01005436H   BLOCK     CODE     NEAR LAB  LVL=1
      02000158H   SYMBOL    XDATA    ---       datsTemp
      ---         BLOCKEND  ---      ---       LVL=1
      01005436H   LINE      CODE     ---       #190
      01005436H   LINE      CODE     ---       #192
      01005449H   LINE      CODE     ---       #194
      0100545BH   LINE      CODE     ---       #195
      01005461H   LINE      CODE     ---       #196
      01005474H   LINE      CODE     ---       #198
      0100547AH   LINE      CODE     ---       #199
      0100548DH   LINE      CODE     ---       #200
      01005493H   LINE      CODE     ---       #201
      010054A6H   LINE      CODE     ---       #203
      010054ABH   LINE      CODE     ---       #204
      010054BCH   LINE      CODE     ---       #206
      010054CBH   LINE      CODE     ---       #208
      010054D2H   LINE      CODE     ---       #210
      ---         BLOCKEND  ---      ---       LVL=0

      010062A8H   BLOCK     CODE     ---       LVL=0
      010062A8H   BLOCK     CODE     NEAR LAB  LVL=1
      02000000H   SYMBOL    XDATA    BYTE      datsTemp
      ---         BLOCKEND  ---      ---       LVL=1
      010062A8H   LINE      CODE     ---       #213
      010062A8H   LINE      CODE     ---       #215
      010062ADH   LINE      CODE     ---       #217
      010062BEH   LINE      CODE     ---       #218
      010062C6H   LINE      CODE     ---       #220
      010062C9H   LINE      CODE     ---       #221
      010062C9H   LINE      CODE     ---       #222
      ---         BLOCKEND  ---      ---       LVL=0

      ---         MODULE    ---      ---       TIPS
      0000006DH   PUBLIC    DATA     BYTE      tipsInsert_swLedBKG_ON
      0000006CH   PUBLIC    DATA     BYTE      devTips_status
      0200051FH   PUBLIC    XDATA    ---       zigbNwk_Tips
      0200051CH   PUBLIC    XDATA    ---       devTips_beep
      0200051BH   PUBLIC    XDATA    BYTE      counter_ifTipsFree
      02000518H   PUBLIC    XDATA    ---       relay3_Tips
      02000515H   PUBLIC    XDATA    ---       relay2_Tips
      02000512H   PUBLIC    XDATA    ---       relay1_Tips
      02000510H   PUBLIC    XDATA    WORD      counter_tipsAct
      0200050FH   PUBLIC    XDATA    BYTE      dev_statusBeeps
      0200050EH   PUBLIC    XDATA    BYTE      timeCount_zigNwkOpen
      0000006BH   PUBLIC    DATA     BYTE      tipsInsert_swLedBKG_OFF
      0000006AH   PUBLIC    DATA     BYTE      devTips_nwkZigb
      010060A3H   PUBLIC    CODE     ---       color_Tab
      010060A0H   PUBLIC    CODE     ---       tips_relayUnused
      01003948H   PUBLIC    CODE     ---       tips_sysStandBy
      01004458H   PUBLIC    CODE     ---       _tips_specified
      01005396H   PUBLIC    CODE     ---       tips_warning
      00000026H   PUBLIC    DATA     BYTE      ?_tipsLED_colorSet?BYTE
      01005B31H   PUBLIC    CODE     ---       _tipsLED_colorSet
      01003F7DH   PUBLIC    CODE     ---       thread_Tips
      01000003H   PUBLIC    CODE     ---       tips_statusChangeToZigbNwkFind
      010063CFH   PUBLIC    CODE     ---       _tips_statusChangeToZigbNwkOpen
      010063E8H   PUBLIC    CODE     ---       tips_statusChangeToNormal
      01005A47H   PUBLIC    CODE     ---       _thread_tipsGetDark
      01006262H   PUBLIC    CODE     ---       _beeps_usrActive
LX51 LINKER/LOCATER V4.66.41.0                                                        11/02/2018  15:47:42  PAGE 36


      01005D32H   PUBLIC    CODE     ---       ledBKGColorSw_Reales
      01006054H   PUBLIC    CODE     ---       tipLED_pinInit
      000000D8H.2 SFRSYM    DATA     BIT       CCF2
      000000E0H.7 SFRSYM    DATA     BIT       ACC7
      00000093H   SFRSYM    DATA     BYTE      P0M1
      00000092H   SFRSYM    DATA     BYTE      P1M0
      00000096H   SFRSYM    DATA     BYTE      P2M0
      00000091H   SFRSYM    DATA     BYTE      P1M1
      00000080H   SFRSYM    DATA     BYTE      P0
      000000B2H   SFRSYM    DATA     BYTE      P3M0
      00000095H   SFRSYM    DATA     BYTE      P2M1
      00000090H   SFRSYM    DATA     BYTE      P1
      000000B4H   SFRSYM    DATA     BYTE      P4M0
      000000B1H   SFRSYM    DATA     BYTE      P3M1
      000000A0H   SFRSYM    DATA     BYTE      P2
      000000CAH   SFRSYM    DATA     BYTE      P5M0
      000000B3H   SFRSYM    DATA     BYTE      P4M1
      000000B0H   SFRSYM    DATA     BYTE      P3
      000000ABH   SFRSYM    DATA     BYTE      WKTCH
      000000B0H.4 SFRSYM    DATA     BIT       T0
      000000D0H.6 SFRSYM    DATA     BIT       AC
      000000CCH   SFRSYM    DATA     BYTE      P6M0
      000000C9H   SFRSYM    DATA     BYTE      P5M1
      000000C0H   SFRSYM    DATA     BYTE      P4
      000000B0H.5 SFRSYM    DATA     BIT       CLKOUT0
      000000B0H.5 SFRSYM    DATA     BIT       T1
      000000E2H   SFRSYM    DATA     BYTE      P7M0
      000000CBH   SFRSYM    DATA     BYTE      P6M1
      000000C8H   SFRSYM    DATA     BYTE      P5
      000000C6H   SFRSYM    DATA     BYTE      ISP_TRIG
      000000A8H.7 SFRSYM    DATA     BIT       EA
      000000B0H.4 SFRSYM    DATA     BIT       CLKOUT1
      000000A0H.4 SFRSYM    DATA     BIT       SPI_SS_2
      000000E8H   SFRSYM    DATA     BYTE      P6
      000000E1H   SFRSYM    DATA     BYTE      P7M1
      000000C8H.4 SFRSYM    DATA     BIT       SPI_SS_3
      00000090H.4 SFRSYM    DATA     BIT       SPI_MISO
      00000090H.3 SFRSYM    DATA     BIT       SPI_MOSI
      00000090H.1 SFRSYM    DATA     BIT       CCP0
      000000F8H   SFRSYM    DATA     BYTE      P7
      000000AAH   SFRSYM    DATA     BYTE      WKTCL
      00000090H   SFRSYM    DATA     BIT       CCP1
      000000CEH   SFRSYM    DATA     BYTE      SPCTL
      000000D8H.7 SFRSYM    DATA     BIT       CF
      000000B0H.7 SFRSYM    DATA     BIT       CCP2
      000000F9H   SFRSYM    DATA     BYTE      CH
      000000A2H   SFRSYM    DATA     BYTE      P_SW1
      000000BAH   SFRSYM    DATA     BYTE      P_SW2
      000000A8H.5 SFRSYM    DATA     BIT       EADC
      000000A0H.1 SFRSYM    DATA     BIT       SPI_SCLK_2
      000000A8H   SFRSYM    DATA     BYTE      IE
      000000C0H.3 SFRSYM    DATA     BIT       SPI_SCLK_3
      000000E9H   SFRSYM    DATA     BYTE      CL
      000000C5H   SFRSYM    DATA     BYTE      IAP_CMD
      000000FAH   SFRSYM    DATA     BYTE      CCAP0H
      000000FBH   SFRSYM    DATA     BYTE      CCAP1H
      000000FCH   SFRSYM    DATA     BYTE      CCAP2H
      000000BDH   SFRSYM    DATA     BYTE      ADC_RES
      000000B6H   SFRSYM    DATA     BYTE      IPH2
      000000D8H.6 SFRSYM    DATA     BIT       CR
      000000EAH   SFRSYM    DATA     BYTE      CCAP0L
      000000B0H.7 SFRSYM    DATA     BIT       RD
      000000EBH   SFRSYM    DATA     BYTE      CCAP1L
      000000DAH   SFRSYM    DATA     BYTE      CCAPM0
      000000ECH   SFRSYM    DATA     BYTE      CCAP2L
LX51 LINKER/LOCATER V4.66.41.0                                                        11/02/2018  15:47:42  PAGE 37


      000000DBH   SFRSYM    DATA     BYTE      CCAPM1
      000000A8H.4 SFRSYM    DATA     BIT       ES
      000000DCH   SFRSYM    DATA     BYTE      CCAPM2
      000000B8H.5 SFRSYM    DATA     BIT       PADC
      000000A0H.2 SFRSYM    DATA     BIT       SPI_MISO_2
      000000A0H.3 SFRSYM    DATA     BIT       SPI_MOSI_2
      000000B8H   SFRSYM    DATA     BYTE      IP
      000000C0H.1 SFRSYM    DATA     BIT       SPI_MISO_3
      000000C0H   SFRSYM    DATA     BIT       SPI_MOSI_3
      00000098H   SFRSYM    DATA     BIT       RI
      000000B0H.2 SFRSYM    DATA     BIT       INT0
      000000D0H.7 SFRSYM    DATA     BIT       CY
      00000098H.1 SFRSYM    DATA     BIT       TI
      000000B0H.3 SFRSYM    DATA     BIT       INT1
      00000097H   SFRSYM    DATA     BYTE      CLK_DIV
      000000C3H   SFRSYM    DATA     BYTE      IAP_ADDRH
      00000090H   SFRSYM    DATA     BIT       RXD2
      000000C5H   SFRSYM    DATA     BYTE      ISP_CMD
      000000B8H.4 SFRSYM    DATA     BIT       PS
      00000090H.1 SFRSYM    DATA     BIT       TXD2
      00000081H   SFRSYM    DATA     BYTE      SP
      000000D9H   SFRSYM    DATA     BYTE      CMOD
      000000D8H   SFRSYM    DATA     BYTE      CCON
      000000C4H   SFRSYM    DATA     BYTE      IAP_ADDRL
      000000B8H.7 SFRSYM    DATA     BIT       PPCA
      000000D0H.2 SFRSYM    DATA     BIT       OV
      000000B0H.6 SFRSYM    DATA     BIT       WR
      000000A8H.6 SFRSYM    DATA     BIT       ELVD
      00000080H   SFRSYM    DATA     BIT       P00
      00000090H   SFRSYM    DATA     BIT       P10
      00000080H.1 SFRSYM    DATA     BIT       P01
      000000BCH   SFRSYM    DATA     BYTE      ADC_CONTR
      00000099H   SFRSYM    DATA     BYTE      SBUF
      00000087H   SFRSYM    DATA     BYTE      PCON
      000000A0H   SFRSYM    DATA     BIT       P20
      00000090H.1 SFRSYM    DATA     BIT       P11
      00000080H.2 SFRSYM    DATA     BIT       P02
      000000C3H   SFRSYM    DATA     BYTE      ISP_ADDRH
      000000B0H   SFRSYM    DATA     BIT       P30
      000000A0H.1 SFRSYM    DATA     BIT       P21
      00000090H.2 SFRSYM    DATA     BIT       P12
      00000080H.3 SFRSYM    DATA     BIT       P03
      000000C0H   SFRSYM    DATA     BIT       P40
      000000B0H.1 SFRSYM    DATA     BIT       P31
      000000A0H.2 SFRSYM    DATA     BIT       P22
      00000090H.3 SFRSYM    DATA     BIT       P13
      00000080H.4 SFRSYM    DATA     BIT       P04
      00000098H   SFRSYM    DATA     BYTE      SCON
      0000008FH   SFRSYM    DATA     BYTE      WAKE_CLKO
      000000C8H   SFRSYM    DATA     BIT       P50
      000000C0H.1 SFRSYM    DATA     BIT       P41
      000000B0H.2 SFRSYM    DATA     BIT       P32
      000000A0H.3 SFRSYM    DATA     BIT       P23
      00000090H.4 SFRSYM    DATA     BIT       P14
      00000080H.5 SFRSYM    DATA     BIT       P05
      00000089H   SFRSYM    DATA     BYTE      TMOD
      00000088H   SFRSYM    DATA     BYTE      TCON
      000000C8H.1 SFRSYM    DATA     BIT       P51
      000000C0H.2 SFRSYM    DATA     BIT       P42
      000000B0H.3 SFRSYM    DATA     BIT       P33
      000000A0H.4 SFRSYM    DATA     BIT       P24
      00000090H.5 SFRSYM    DATA     BIT       P15
      00000080H.6 SFRSYM    DATA     BIT       P06
      000000C4H   SFRSYM    DATA     BYTE      ISP_ADDRL
      000000B8H.6 SFRSYM    DATA     BIT       PLVD
LX51 LINKER/LOCATER V4.66.41.0                                                        11/02/2018  15:47:42  PAGE 38


      000000C8H.2 SFRSYM    DATA     BIT       P52
      000000C0H.3 SFRSYM    DATA     BIT       P43
      000000B0H.4 SFRSYM    DATA     BIT       P34
      000000A0H.5 SFRSYM    DATA     BIT       P25
      00000090H.6 SFRSYM    DATA     BIT       P16
      00000080H.7 SFRSYM    DATA     BIT       P07
      000000C8H.3 SFRSYM    DATA     BIT       P53
      000000C0H.4 SFRSYM    DATA     BIT       P44
      000000B0H.5 SFRSYM    DATA     BIT       P35
      000000A0H.6 SFRSYM    DATA     BIT       P26
      00000090H.7 SFRSYM    DATA     BIT       P17
      000000C8H.4 SFRSYM    DATA     BIT       P54
      000000C0H.5 SFRSYM    DATA     BIT       P45
      000000B0H.6 SFRSYM    DATA     BIT       P36
      000000A0H.7 SFRSYM    DATA     BIT       P27
      000000C8H.5 SFRSYM    DATA     BIT       P55
      000000C0H.6 SFRSYM    DATA     BIT       P46
      000000B0H.7 SFRSYM    DATA     BIT       P37
      000000C8H.6 SFRSYM    DATA     BIT       P56
      000000C0H.7 SFRSYM    DATA     BIT       P47
      000000C8H.7 SFRSYM    DATA     BIT       P57
      00000088H.1 SFRSYM    DATA     BIT       IE0
      000000A1H   SFRSYM    DATA     BYTE      BUS_SPEED
      00000088H.3 SFRSYM    DATA     BIT       IE1
      000000AFH   SFRSYM    DATA     BYTE      IE2
      000000F0H   SFRSYM    DATA     BYTE      B
      0000008EH   SFRSYM    DATA     BYTE      AUXR
      000000C7H   SFRSYM    DATA     BYTE      IAP_CONTR
      000000E0H   SFRSYM    DATA     BYTE      ACC
      000000A8H.1 SFRSYM    DATA     BIT       ET0
      000000A8H.3 SFRSYM    DATA     BIT       ET1
      00000088H.5 SFRSYM    DATA     BIT       TF0
      00000088H.7 SFRSYM    DATA     BIT       TF1
      000000B5H   SFRSYM    DATA     BYTE      IP2
      0000008CH   SFRSYM    DATA     BYTE      RL_TH0
      00000098H.2 SFRSYM    DATA     BIT       RB8
      0000008DH   SFRSYM    DATA     BYTE      RL_TH1
      0000008CH   SFRSYM    DATA     BYTE      TH0
      000000A8H   SFRSYM    DATA     BIT       EX0
      00000088H   SFRSYM    DATA     BIT       IT0
      000000D6H   SFRSYM    DATA     BYTE      RL_T2H
      0000008DH   SFRSYM    DATA     BYTE      TH1
      000000A8H.2 SFRSYM    DATA     BIT       EX1
      00000098H.3 SFRSYM    DATA     BIT       TB8
      00000088H.2 SFRSYM    DATA     BIT       IT1
      000000D4H   SFRSYM    DATA     BYTE      RL_T3H
      000000D6H   SFRSYM    DATA     BYTE      TH2
      000000D6H   SFRSYM    DATA     BYTE      T2H
      000000D0H   SFRSYM    DATA     BIT       P
      000000D2H   SFRSYM    DATA     BYTE      RL_T4H
      000000D4H   SFRSYM    DATA     BYTE      TH3
      000000D4H   SFRSYM    DATA     BYTE      T3H
      0000008AH   SFRSYM    DATA     BYTE      RL_TL0
      00000098H.7 SFRSYM    DATA     BIT       SM0
      000000D2H   SFRSYM    DATA     BYTE      TH4
      000000D2H   SFRSYM    DATA     BYTE      T4H
      0000008BH   SFRSYM    DATA     BYTE      RL_TL1
      0000008AH   SFRSYM    DATA     BYTE      TL0
      00000098H.6 SFRSYM    DATA     BIT       SM1
      000000D7H   SFRSYM    DATA     BYTE      RL_T2L
      0000008BH   SFRSYM    DATA     BYTE      TL1
      00000098H.5 SFRSYM    DATA     BIT       SM2
      000000D5H   SFRSYM    DATA     BYTE      RL_T3L
      000000D7H   SFRSYM    DATA     BYTE      TL2
      000000D7H   SFRSYM    DATA     BYTE      T2L
LX51 LINKER/LOCATER V4.66.41.0                                                        11/02/2018  15:47:42  PAGE 39


      000000D3H   SFRSYM    DATA     BYTE      RL_T4L
      000000D5H   SFRSYM    DATA     BYTE      TL3
      000000D5H   SFRSYM    DATA     BYTE      T3L
      000000B8H.1 SFRSYM    DATA     BIT       PT0
      000000D3H   SFRSYM    DATA     BYTE      TL4
      000000D3H   SFRSYM    DATA     BYTE      T4L
      000000B8H.3 SFRSYM    DATA     BIT       PT1
      000000D0H.3 SFRSYM    DATA     BIT       RS0
      000000C7H   SFRSYM    DATA     BYTE      ISP_CONTR
      00000088H.4 SFRSYM    DATA     BIT       TR0
      000000D0H.4 SFRSYM    DATA     BIT       RS1
      000000C2H   SFRSYM    DATA     BYTE      IAP_DATA
      00000088H.6 SFRSYM    DATA     BIT       TR1
      000000B8H   SFRSYM    DATA     BIT       PX0
      000000C1H   SFRSYM    DATA     BYTE      WDT_CONTR
      000000B8H.2 SFRSYM    DATA     BIT       PX1
      000000F2H   SFRSYM    DATA     BYTE      PCA_PWM0
      000000F3H   SFRSYM    DATA     BYTE      PCA_PWM1
      000000F4H   SFRSYM    DATA     BYTE      PCA_PWM2
      0000009DH   SFRSYM    DATA     BYTE      P1ASF
      00000083H   SFRSYM    DATA     BYTE      DPH
      000000D1H   SFRSYM    DATA     BYTE      T4T3M
      000000BEH   SFRSYM    DATA     BYTE      ADC_RESL
      00000082H   SFRSYM    DATA     BYTE      DPL
      000000CDH   SFRSYM    DATA     BYTE      SPSTAT
      000000B7H   SFRSYM    DATA     BYTE      IPH
      0000009BH   SFRSYM    DATA     BYTE      S2BUF
      00000097H   SFRSYM    DATA     BYTE      PCON2
      000000ADH   SFRSYM    DATA     BYTE      S3BUF
      00000098H.4 SFRSYM    DATA     BIT       REN
      00000085H   SFRSYM    DATA     BYTE      S4BUF
      0000009AH   SFRSYM    DATA     BYTE      S2CON
      000000ACH   SFRSYM    DATA     BYTE      S3CON
      000000C2H   SFRSYM    DATA     BYTE      ISP_DATA
      00000084H   SFRSYM    DATA     BYTE      S4CON
      000000B9H   SFRSYM    DATA     BYTE      SADEN
      000000B0H   SFRSYM    DATA     BIT       RXD
      000000A9H   SFRSYM    DATA     BYTE      SADDR
      000000B0H.1 SFRSYM    DATA     BIT       TXD
      000000F0H   SFRSYM    DATA     BIT       B0
      000000F0H.1 SFRSYM    DATA     BIT       B1
      000000C6H   SFRSYM    DATA     BYTE      IAP_TRIG
      000000A2H   SFRSYM    DATA     BYTE      AUXR1
      000000F0H.2 SFRSYM    DATA     BIT       B2
      00000090H.2 SFRSYM    DATA     BIT       SPI_SS
      0000008FH   SFRSYM    DATA     BYTE      AUXR2
      000000F0H.3 SFRSYM    DATA     BIT       B3
      000000F0H.4 SFRSYM    DATA     BIT       B4
      000000D0H.5 SFRSYM    DATA     BIT       F0
      000000F0H.5 SFRSYM    DATA     BIT       B5
      000000D0H.1 SFRSYM    DATA     BIT       F1
      0000008FH   SFRSYM    DATA     BYTE      INT_CLKO
      000000F0H.6 SFRSYM    DATA     BIT       B6
      000000E0H   SFRSYM    DATA     BIT       ACC0
      000000F0H.7 SFRSYM    DATA     BIT       B7
      000000E0H.1 SFRSYM    DATA     BIT       ACC1
      000000E0H.2 SFRSYM    DATA     BIT       ACC2
      000000E0H.3 SFRSYM    DATA     BIT       ACC3
      000000D0H   SFRSYM    DATA     BYTE      PSW
      000000E0H.4 SFRSYM    DATA     BIT       ACC4
      00000090H.5 SFRSYM    DATA     BIT       SPI_SCLK
      000000D8H   SFRSYM    DATA     BIT       CCF0
      000000E0H.5 SFRSYM    DATA     BIT       ACC5
      000000D8H.1 SFRSYM    DATA     BIT       CCF1
      000000E0H.6 SFRSYM    DATA     BIT       ACC6
LX51 LINKER/LOCATER V4.66.41.0                                                        11/02/2018  15:47:42  PAGE 40


      000000CFH   SFRSYM    DATA     BYTE      SPDAT
      00000094H   SFRSYM    DATA     BYTE      P0M0

      01006054H   BLOCK     CODE     ---       LVL=0
      01006054H   LINE      CODE     ---       #42
      01006054H   LINE      CODE     ---       #44
      01006057H   LINE      CODE     ---       #45
      0100605AH   LINE      CODE     ---       #47
      0100605DH   LINE      CODE     ---       #48
      01006060H   LINE      CODE     ---       #50
      01006063H   LINE      CODE     ---       #51
      01006066H   LINE      CODE     ---       #53
      01006069H   LINE      CODE     ---       #55
      01006072H   LINE      CODE     ---       #56
      0100607CH   LINE      CODE     ---       #57
      01006086H   LINE      CODE     ---       #58
      ---         BLOCKEND  ---      ---       LVL=0

      01005D32H   BLOCK     CODE     ---       LVL=0
      01005D32H   LINE      CODE     ---       #73
      01005D32H   LINE      CODE     ---       #75
      01005D45H   LINE      CODE     ---       #76
      01005D58H   LINE      CODE     ---       #78
      01005D62H   LINE      CODE     ---       #79
      01005D6CH   LINE      CODE     ---       #81
      01005D7FH   LINE      CODE     ---       #82
      ---         BLOCKEND  ---      ---       LVL=0

      01006262H   BLOCK     CODE     ---       LVL=0
      00000007H   SYMBOL    DATA     BYTE      tons
      00000005H   SYMBOL    DATA     BYTE      time
      00000003H   SYMBOL    DATA     BYTE      loop
      01006262H   LINE      CODE     ---       #86
      01006262H   LINE      CODE     ---       #88
      01006265H   LINE      CODE     ---       #90
      01006271H   LINE      CODE     ---       #91
      01006274H   LINE      CODE     ---       #92
      0100627EH   LINE      CODE     ---       #93
      01006284H   LINE      CODE     ---       #94
      01006284H   LINE      CODE     ---       #95
      ---         BLOCKEND  ---      ---       LVL=0

      01005A47H   BLOCK     CODE     ---       LVL=0
      00000005H   SYMBOL    DATA     BYTE      funSet
      01005A47H   LINE      CODE     ---       #97
      01005A49H   LINE      CODE     ---       #99
      01005A62H   LINE      CODE     ---       #100
      01005A7EH   LINE      CODE     ---       #101
      01005A9CH   LINE      CODE     ---       #102
      01005ABBH   LINE      CODE     ---       #103
      ---         BLOCKEND  ---      ---       LVL=0

      010063E8H   BLOCK     CODE     ---       LVL=0
      010063E8H   LINE      CODE     ---       #106
      010063E8H   LINE      CODE     ---       #108
      010063EEH   LINE      CODE     ---       #109
      010063F1H   LINE      CODE     ---       #110
      ---         BLOCKEND  ---      ---       LVL=0

      010063CFH   BLOCK     CODE     ---       LVL=0
      00000007H   SYMBOL    DATA     BYTE      timeopen
      010063CFH   LINE      CODE     ---       #113
      010063CFH   LINE      CODE     ---       #115
      010063D4H   LINE      CODE     ---       #116
      010063D7H   LINE      CODE     ---       #117
LX51 LINKER/LOCATER V4.66.41.0                                                        11/02/2018  15:47:42  PAGE 41


      ---         BLOCKEND  ---      ---       LVL=0

      01000003H   BLOCK     CODE     ---       LVL=0
      01000003H   LINE      CODE     ---       #121
      01000003H   LINE      CODE     ---       #123
      01000006H   LINE      CODE     ---       #124
      ---         BLOCKEND  ---      ---       LVL=0

      01003F7DH   BLOCK     CODE     ---       LVL=0
      01003FDCH   BLOCK     CODE     NEAR LAB  LVL=1
      00000054H   SYMBOL    DATA     WORD      tips_Counter
      010060C1H   SYMBOL    CODE     WORD      tips_Period
      0100417DH   BLOCK     CODE     NEAR LAB  LVL=2
      00000023H.7 SYMBOL    BIT      BIT       tips_Type
      ---         BLOCKEND  ---      ---       LVL=2
      ---         BLOCKEND  ---      ---       LVL=1
      01003F7DH   LINE      CODE     ---       #128
      01003F7DH   LINE      CODE     ---       #130
      01003F80H   LINE      CODE     ---       #132
      01003F8BH   LINE      CODE     ---       #133
      01003F8BH   LINE      CODE     ---       #135
      01003F8EH   LINE      CODE     ---       #136
      01003F8EH   LINE      CODE     ---       #138
      01003F90H   LINE      CODE     ---       #140
      01003F98H   LINE      CODE     ---       #142
      01003FA3H   LINE      CODE     ---       #143
      01003FA3H   LINE      CODE     ---       #145
      01003FA8H   LINE      CODE     ---       #146
      01003FABH   LINE      CODE     ---       #147
      01003FABH   LINE      CODE     ---       #148
      01003FABH   LINE      CODE     ---       #150
      01003FD9H   LINE      CODE     ---       #152
      01003FD9H   LINE      CODE     ---       #156
      01003FD9H   LINE      CODE     ---       #158
      01003FD9H   LINE      CODE     ---       #160
      01003FDCH   LINE      CODE     ---       #162
      01003FDCH   LINE      CODE     ---       #164
      01003FDCH   LINE      CODE     ---       #165
      01003FDCH   LINE      CODE     ---       #171
      01004067H   LINE      CODE     ---       #172
      010040F2H   LINE      CODE     ---       #173
      0100417DH   LINE      CODE     ---       #176
      0100417DH   LINE      CODE     ---       #179
      01004195H   LINE      CODE     ---       #180
      01004195H   LINE      CODE     ---       #182
      01004197H   LINE      CODE     ---       #183
      0100419CH   LINE      CODE     ---       #185
      010041AEH   LINE      CODE     ---       #187
      010041AEH   LINE      CODE     ---       #189
      010041B4H   LINE      CODE     ---       #191
      010041B6H   LINE      CODE     ---       #193
      010041B6H   LINE      CODE     ---       #195
      010041BCH   LINE      CODE     ---       #197
      010041BEH   LINE      CODE     ---       #199
      010041BEH   LINE      CODE     ---       #201
      010041C5H   LINE      CODE     ---       #203
      010041C7H   LINE      CODE     ---       #205
      010041C7H   LINE      CODE     ---       #207
      010041D7H   LINE      CODE     ---       #209
      010041D9H   LINE      CODE     ---       #211
      010041D9H   LINE      CODE     ---       #213
      010041EDH   LINE      CODE     ---       #215
      010041EDH   LINE      CODE     ---       #217
      010041EDH   LINE      CODE     ---       #219
      010041F0H   LINE      CODE     ---       #221
LX51 LINKER/LOCATER V4.66.41.0                                                        11/02/2018  15:47:42  PAGE 42


      010041F1H   LINE      CODE     ---       #222
      010041F1H   LINE      CODE     ---       #223
      010041F1H   LINE      CODE     ---       #224
      010041F1H   LINE      CODE     ---       #226
      010041F1H   LINE      CODE     ---       #228
      010041F1H   LINE      CODE     ---       #230
      010041FBH   LINE      CODE     ---       #231
      010041FBH   LINE      CODE     ---       #233
      010041FEH   LINE      CODE     ---       #235
      010041FEH   LINE      CODE     ---       #236
      0100420DH   LINE      CODE     ---       #237
      0100421FH   LINE      CODE     ---       #238
      01004228H   LINE      CODE     ---       #239
      01004228H   LINE      CODE     ---       #241
      01004228H   LINE      CODE     ---       #243
      01004228H   LINE      CODE     ---       #245
      01004228H   LINE      CODE     ---       #247
      0100422DH   LINE      CODE     ---       #249
      0100422DH   LINE      CODE     ---       #251
      0100422DH   LINE      CODE     ---       #253
      01004230H   LINE      CODE     ---       #255
      01004230H   LINE      CODE     ---       #257
      01004230H   LINE      CODE     ---       #259
      01004233H   LINE      CODE     ---       #261
      01004233H   LINE      CODE     ---       #262
      01004233H   LINE      CODE     ---       #263
      ---         BLOCKEND  ---      ---       LVL=0

      01005B31H   BLOCK     CODE     ---       LVL=0
      00000007H   SYMBOL    DATA     BYTE      obj
      00000005H   SYMBOL    DATA     BYTE      gray_R
      00000003H   SYMBOL    DATA     BYTE      gray_G
      00000029H   SYMBOL    DATA     BYTE      gray_B
      01005B42H   BLOCK     CODE     NEAR LAB  LVL=1
      010060C3H   SYMBOL    CODE     BYTE      bright_coef
      ---         BLOCKEND  ---      ---       LVL=1
      01005B31H   LINE      CODE     ---       #265
      01005B31H   LINE      CODE     ---       #267
      01005B3DH   LINE      CODE     ---       #268
      01005B3DH   LINE      CODE     ---       #270
      01005B42H   LINE      CODE     ---       #274
      01005B4DH   LINE      CODE     ---       #275
      01005B52H   LINE      CODE     ---       #276
      01005B59H   LINE      CODE     ---       #277
      01005B59H   LINE      CODE     ---       #279
      01005B67H   LINE      CODE     ---       #281
      01005B67H   LINE      CODE     ---       #283
      01005B6EH   LINE      CODE     ---       #284
      01005B6EH   LINE      CODE     ---       #285
      01005B6EH   LINE      CODE     ---       #287
      01005B70H   LINE      CODE     ---       #289
      01005B70H   LINE      CODE     ---       #291
      01005B77H   LINE      CODE     ---       #292
      01005B77H   LINE      CODE     ---       #293
      01005B77H   LINE      CODE     ---       #295
      01005B79H   LINE      CODE     ---       #297
      01005B79H   LINE      CODE     ---       #299
      01005B80H   LINE      CODE     ---       #300
      01005B80H   LINE      CODE     ---       #301
      01005B80H   LINE      CODE     ---       #303
      01005B82H   LINE      CODE     ---       #305
      01005B82H   LINE      CODE     ---       #307
      01005B8EH   LINE      CODE     ---       #308
      01005B98H   LINE      CODE     ---       #309
      01005BA3H   LINE      CODE     ---       #311
LX51 LINKER/LOCATER V4.66.41.0                                                        11/02/2018  15:47:42  PAGE 43


      01005BA3H   LINE      CODE     ---       #313
      01005BA3H   LINE      CODE     ---       #314
      01005BA3H   LINE      CODE     ---       #315
      01005BA3H   LINE      CODE     ---       #316
      ---         BLOCKEND  ---      ---       LVL=0

      01005396H   BLOCK     CODE     ---       LVL=0
      01005396H   BLOCK     CODE     NEAR LAB  LVL=1
      0200050DH   SYMBOL    XDATA    BYTE      tipsStep
      ---         BLOCKEND  ---      ---       LVL=1
      01005396H   LINE      CODE     ---       #318
      01005396H   LINE      CODE     ---       #322
      010053AAH   LINE      CODE     ---       #324
      010053AAH   LINE      CODE     ---       #326
      010053B4H   LINE      CODE     ---       #327
      010053BAH   LINE      CODE     ---       #329
      010053BBH   LINE      CODE     ---       #331
      010053BBH   LINE      CODE     ---       #333
      010053C6H   LINE      CODE     ---       #335
      010053D6H   LINE      CODE     ---       #337
      010053F0H   LINE      CODE     ---       #342
      010053F1H   LINE      CODE     ---       #344
      0100540DH   LINE      CODE     ---       #348
      0100540DH   LINE      CODE     ---       #350
      0100540EH   LINE      CODE     ---       #352
      01005418H   LINE      CODE     ---       #353
      0100541DH   LINE      CODE     ---       #354
      01005423H   LINE      CODE     ---       #355
      01005423H   LINE      CODE     ---       #357
      01005424H   LINE      CODE     ---       #360
      01005424H   LINE      CODE     ---       #362
      0100542EH   LINE      CODE     ---       #364
      01005430H   LINE      CODE     ---       #366
      01005430H   LINE      CODE     ---       #368
      01005435H   LINE      CODE     ---       #370
      01005435H   LINE      CODE     ---       #371
      01005435H   LINE      CODE     ---       #372
      ---         BLOCKEND  ---      ---       LVL=0
      00000056H   SYMBOL    DATA     BYTE      localTips_Count
      00000024H.0 SYMBOL    BIT      BIT       count_FLG
      00000057H   SYMBOL    DATA     BYTE      tipsStep
      010060C4H   SYMBOL    CODE     BYTE      speed
      010060C5H   SYMBOL    CODE     BYTE      step_period
      00000058H   SYMBOL    DATA     BYTE      localTips_Count
      00000024H.1 SYMBOL    BIT      BIT       count_FLG
      00000059H   SYMBOL    DATA     BYTE      tipsStep
      0000005AH   SYMBOL    DATA     BYTE      pwmType_A
      0000005BH   SYMBOL    DATA     BYTE      pwmType_B
      0000005CH   SYMBOL    DATA     BYTE      pwmType_C
      0000005DH   SYMBOL    DATA     BYTE      pwmType_D
      010060C6H   SYMBOL    CODE     BYTE      speed
      010060C7H   SYMBOL    CODE     BYTE      step_period

      01004458H   BLOCK     CODE     ---       LVL=0
      00000005H   SYMBOL    DATA     BYTE      tips_Type
      0100445AH   BLOCK     CODE     NEAR LAB  LVL=1
      0000005EH   SYMBOL    DATA     BYTE      localTips_Count
      00000024H.2 SYMBOL    BIT      BIT       count_FLG
      0000005FH   SYMBOL    DATA     BYTE      tipsStep
      00000060H   SYMBOL    DATA     BYTE      pwmType_A
      00000061H   SYMBOL    DATA     BYTE      pwmType_B
      00000062H   SYMBOL    DATA     BYTE      pwmType_C
      00000063H   SYMBOL    DATA     BYTE      pwmType_D
      010060C8H   SYMBOL    CODE     BYTE      speed_Mol
      010060C9H   SYMBOL    CODE     BYTE      speed_Den
LX51 LINKER/LOCATER V4.66.41.0                                                        11/02/2018  15:47:42  PAGE 44


      010060CAH   SYMBOL    CODE     BYTE      step_period
      ---         BLOCKEND  ---      ---       LVL=1
      01004458H   LINE      CODE     ---       #515
      0100445AH   LINE      CODE     ---       #529
      01004461H   LINE      CODE     ---       #531
      01004470H   LINE      CODE     ---       #532
      01004470H   LINE      CODE     ---       #534
      01004473H   LINE      CODE     ---       #536
      0100447BH   LINE      CODE     ---       #537
      0100447BH   LINE      CODE     ---       #538
      0100447BH   LINE      CODE     ---       #539
      01004483H   LINE      CODE     ---       #541
      0100448AH   LINE      CODE     ---       #543
      0100448CH   LINE      CODE     ---       #547
      0100448CH   LINE      CODE     ---       #549
      01004496H   LINE      CODE     ---       #551
      010044C2H   LINE      CODE     ---       #553
      010044D2H   LINE      CODE     ---       #554
      010044E5H   LINE      CODE     ---       #555
      010044F8H   LINE      CODE     ---       #556
      0100450BH   LINE      CODE     ---       #557
      0100450BH   LINE      CODE     ---       #559
      01004518H   LINE      CODE     ---       #561
      01004518H   LINE      CODE     ---       #563
      0100451FH   LINE      CODE     ---       #565
      0100451FH   LINE      CODE     ---       #567
      01004522H   LINE      CODE     ---       #569
      01004529H   LINE      CODE     ---       #571
      01004540H   LINE      CODE     ---       #575
      0100454EH   LINE      CODE     ---       #576
      0100455CH   LINE      CODE     ---       #577
      0100456AH   LINE      CODE     ---       #578
      01004577H   LINE      CODE     ---       #579
      01004577H   LINE      CODE     ---       #581
      0100457AH   LINE      CODE     ---       #583
      01004587H   LINE      CODE     ---       #584
      01004594H   LINE      CODE     ---       #585
      010045A1H   LINE      CODE     ---       #586
      010045A9H   LINE      CODE     ---       #587
      010045A9H   LINE      CODE     ---       #589
      010045ACH   LINE      CODE     ---       #591
      010045ACH   LINE      CODE     ---       #592
      010045ACH   LINE      CODE     ---       #594
      010045ACH   LINE      CODE     ---       #596
      010045ACH   LINE      CODE     ---       #598
      010045B3H   LINE      CODE     ---       #600
      010045B3H   LINE      CODE     ---       #602
      010045B6H   LINE      CODE     ---       #604
      010045BDH   LINE      CODE     ---       #607
      010045D3H   LINE      CODE     ---       #609
      010045D4H   LINE      CODE     ---       #616
      010045E2H   LINE      CODE     ---       #617
      010045F0H   LINE      CODE     ---       #618
      010045FEH   LINE      CODE     ---       #619
      0100460CH   LINE      CODE     ---       #620
      0100460CH   LINE      CODE     ---       #622
      0100460DH   LINE      CODE     ---       #629
      0100461AH   LINE      CODE     ---       #630
      01004627H   LINE      CODE     ---       #631
      01004634H   LINE      CODE     ---       #632
      01004641H   LINE      CODE     ---       #633
      01004641H   LINE      CODE     ---       #635
      01004641H   LINE      CODE     ---       #637
      01004641H   LINE      CODE     ---       #638
      01004641H   LINE      CODE     ---       #640
LX51 LINKER/LOCATER V4.66.41.0                                                        11/02/2018  15:47:42  PAGE 45


      01004641H   LINE      CODE     ---       #642
      01004641H   LINE      CODE     ---       #643
      01004641H   LINE      CODE     ---       #644
      ---         BLOCKEND  ---      ---       LVL=0

      01003948H   BLOCK     CODE     ---       LVL=0
      01003948H   BLOCK     CODE     NEAR LAB  LVL=1
      00000064H   SYMBOL    DATA     BYTE      localTips_Count
      010060CBH   SYMBOL    CODE     BYTE      localTips_Period
      00000065H   SYMBOL    DATA     BYTE      tipsStep
      00000066H   SYMBOL    DATA     BYTE      pwmType_A
      00000067H   SYMBOL    DATA     BYTE      pwmType_B
      00000068H   SYMBOL    DATA     BYTE      pwmType_C
      00000069H   SYMBOL    DATA     BYTE      pwmType_D
      ---         BLOCKEND  ---      ---       LVL=1
      01003948H   LINE      CODE     ---       #646
      01003948H   LINE      CODE     ---       #659
      01003952H   LINE      CODE     ---       #661
      0100395AH   LINE      CODE     ---       #663
      01003966H   LINE      CODE     ---       #665
      01003969H   LINE      CODE     ---       #666
      01003977H   LINE      CODE     ---       #667
      01003980H   LINE      CODE     ---       #668
      01003982H   LINE      CODE     ---       #669
      01003982H   LINE      CODE     ---       #671
      01003984H   LINE      CODE     ---       #673
      01003994H   LINE      CODE     ---       #674
      010039A7H   LINE      CODE     ---       #675
      010039BAH   LINE      CODE     ---       #676
      010039CDH   LINE      CODE     ---       #677
      010039CDH   LINE      CODE     ---       #678
      010039CDH   LINE      CODE     ---       #680
      010039F3H   LINE      CODE     ---       #799
      010039F3H   LINE      CODE     ---       #801
      01003A04H   LINE      CODE     ---       #802
      01003A15H   LINE      CODE     ---       #803
      01003A26H   LINE      CODE     ---       #804
      01003A2CH   LINE      CODE     ---       #806
      01003A2EH   LINE      CODE     ---       #808
      01003A2EH   LINE      CODE     ---       #810
      01003A3BH   LINE      CODE     ---       #811
      01003A48H   LINE      CODE     ---       #812
      01003A55H   LINE      CODE     ---       #813
      01003A57H   LINE      CODE     ---       #815
      01003A5AH   LINE      CODE     ---       #817
      01003A5AH   LINE      CODE     ---       #819
      01003A70H   LINE      CODE     ---       #820
      01003A86H   LINE      CODE     ---       #821
      01003A9CH   LINE      CODE     ---       #822
      01003AADH   LINE      CODE     ---       #824
      01003AB0H   LINE      CODE     ---       #826
      01003AB0H   LINE      CODE     ---       #828
      01003ABFH   LINE      CODE     ---       #829
      01003ACEH   LINE      CODE     ---       #830
      01003ADDH   LINE      CODE     ---       #831
      01003AE7H   LINE      CODE     ---       #833
      01003AEAH   LINE      CODE     ---       #835
      01003AEAH   LINE      CODE     ---       #837
      01003AFAH   LINE      CODE     ---       #838
      01003B0AH   LINE      CODE     ---       #839
      01003B1AH   LINE      CODE     ---       #840
      01003B25H   LINE      CODE     ---       #842
      01003B28H   LINE      CODE     ---       #844
      01003B28H   LINE      CODE     ---       #846
      01003B39H   LINE      CODE     ---       #847
LX51 LINKER/LOCATER V4.66.41.0                                                        11/02/2018  15:47:42  PAGE 46


      01003B4AH   LINE      CODE     ---       #848
      01003B5BH   LINE      CODE     ---       #849
      01003B6CH   LINE      CODE     ---       #851
      01003B7BH   LINE      CODE     ---       #852
      01003B8AH   LINE      CODE     ---       #853
      01003B99H   LINE      CODE     ---       #854
      01003BA3H   LINE      CODE     ---       #856
      01003BA6H   LINE      CODE     ---       #858
      01003BA6H   LINE      CODE     ---       #860
      01003BBAH   LINE      CODE     ---       #861
      01003BCEH   LINE      CODE     ---       #862
      01003BE2H   LINE      CODE     ---       #863
      01003BF6H   LINE      CODE     ---       #865
      01003C0CH   LINE      CODE     ---       #866
      01003C22H   LINE      CODE     ---       #867
      01003C38H   LINE      CODE     ---       #868
      01003C4EH   LINE      CODE     ---       #870
      01003C56H   LINE      CODE     ---       #871
      01003C5EH   LINE      CODE     ---       #872
      01003C66H   LINE      CODE     ---       #873
      01003C6EH   LINE      CODE     ---       #875
      01003C6EH   LINE      CODE     ---       #877
      01003C6EH   LINE      CODE     ---       #878
      01003C6EH   LINE      CODE     ---       #879
      ---         BLOCKEND  ---      ---       LVL=0

      ---         MODULE    ---      ---       DEVLOPEDEBUG
      0200054CH   PUBLIC    XDATA    ---       frameDebug_data
      00000025H.1 PUBLIC    BIT      BIT       frame_illegalFLG
      01005C0DH   PUBLIC    CODE     ---       thread_devlopeDebug
      000000D8H.2 SFRSYM    DATA     BIT       CCF2
      000000E0H.7 SFRSYM    DATA     BIT       ACC7
      00000093H   SFRSYM    DATA     BYTE      P0M1
      00000092H   SFRSYM    DATA     BYTE      P1M0
      00000096H   SFRSYM    DATA     BYTE      P2M0
      00000091H   SFRSYM    DATA     BYTE      P1M1
      00000080H   SFRSYM    DATA     BYTE      P0
      000000B2H   SFRSYM    DATA     BYTE      P3M0
      00000095H   SFRSYM    DATA     BYTE      P2M1
      00000090H   SFRSYM    DATA     BYTE      P1
      000000B4H   SFRSYM    DATA     BYTE      P4M0
      000000B1H   SFRSYM    DATA     BYTE      P3M1
      000000A0H   SFRSYM    DATA     BYTE      P2
      000000CAH   SFRSYM    DATA     BYTE      P5M0
      000000B3H   SFRSYM    DATA     BYTE      P4M1
      000000B0H   SFRSYM    DATA     BYTE      P3
      000000ABH   SFRSYM    DATA     BYTE      WKTCH
      000000B0H.4 SFRSYM    DATA     BIT       T0
      000000D0H.6 SFRSYM    DATA     BIT       AC
      000000CCH   SFRSYM    DATA     BYTE      P6M0
      000000C9H   SFRSYM    DATA     BYTE      P5M1
      000000C0H   SFRSYM    DATA     BYTE      P4
      000000B0H.5 SFRSYM    DATA     BIT       CLKOUT0
      000000B0H.5 SFRSYM    DATA     BIT       T1
      000000E2H   SFRSYM    DATA     BYTE      P7M0
      000000CBH   SFRSYM    DATA     BYTE      P6M1
      000000C8H   SFRSYM    DATA     BYTE      P5
      000000C6H   SFRSYM    DATA     BYTE      ISP_TRIG
      000000A8H.7 SFRSYM    DATA     BIT       EA
      000000B0H.4 SFRSYM    DATA     BIT       CLKOUT1
      000000A0H.4 SFRSYM    DATA     BIT       SPI_SS_2
      000000E8H   SFRSYM    DATA     BYTE      P6
      000000E1H   SFRSYM    DATA     BYTE      P7M1
      000000C8H.4 SFRSYM    DATA     BIT       SPI_SS_3
      00000090H.4 SFRSYM    DATA     BIT       SPI_MISO
LX51 LINKER/LOCATER V4.66.41.0                                                        11/02/2018  15:47:42  PAGE 47


      00000090H.3 SFRSYM    DATA     BIT       SPI_MOSI
      00000090H.1 SFRSYM    DATA     BIT       CCP0
      000000F8H   SFRSYM    DATA     BYTE      P7
      000000AAH   SFRSYM    DATA     BYTE      WKTCL
      00000090H   SFRSYM    DATA     BIT       CCP1
      000000CEH   SFRSYM    DATA     BYTE      SPCTL
      000000D8H.7 SFRSYM    DATA     BIT       CF
      000000B0H.7 SFRSYM    DATA     BIT       CCP2
      000000F9H   SFRSYM    DATA     BYTE      CH
      000000A2H   SFRSYM    DATA     BYTE      P_SW1
      000000BAH   SFRSYM    DATA     BYTE      P_SW2
      000000A8H.5 SFRSYM    DATA     BIT       EADC
      000000A0H.1 SFRSYM    DATA     BIT       SPI_SCLK_2
      000000A8H   SFRSYM    DATA     BYTE      IE
      000000C0H.3 SFRSYM    DATA     BIT       SPI_SCLK_3
      000000E9H   SFRSYM    DATA     BYTE      CL
      000000C5H   SFRSYM    DATA     BYTE      IAP_CMD
      000000FAH   SFRSYM    DATA     BYTE      CCAP0H
      000000FBH   SFRSYM    DATA     BYTE      CCAP1H
      000000FCH   SFRSYM    DATA     BYTE      CCAP2H
      000000BDH   SFRSYM    DATA     BYTE      ADC_RES
      000000B6H   SFRSYM    DATA     BYTE      IPH2
      000000D8H.6 SFRSYM    DATA     BIT       CR
      000000EAH   SFRSYM    DATA     BYTE      CCAP0L
      000000B0H.7 SFRSYM    DATA     BIT       RD
      000000EBH   SFRSYM    DATA     BYTE      CCAP1L
      000000DAH   SFRSYM    DATA     BYTE      CCAPM0
      000000ECH   SFRSYM    DATA     BYTE      CCAP2L
      000000DBH   SFRSYM    DATA     BYTE      CCAPM1
      000000A8H.4 SFRSYM    DATA     BIT       ES
      000000DCH   SFRSYM    DATA     BYTE      CCAPM2
      000000B8H.5 SFRSYM    DATA     BIT       PADC
      000000A0H.2 SFRSYM    DATA     BIT       SPI_MISO_2
      000000A0H.3 SFRSYM    DATA     BIT       SPI_MOSI_2
      000000B8H   SFRSYM    DATA     BYTE      IP
      000000C0H.1 SFRSYM    DATA     BIT       SPI_MISO_3
      000000C0H   SFRSYM    DATA     BIT       SPI_MOSI_3
      00000098H   SFRSYM    DATA     BIT       RI
      000000B0H.2 SFRSYM    DATA     BIT       INT0
      000000D0H.7 SFRSYM    DATA     BIT       CY
      00000098H.1 SFRSYM    DATA     BIT       TI
      000000B0H.3 SFRSYM    DATA     BIT       INT1
      00000097H   SFRSYM    DATA     BYTE      CLK_DIV
      000000C3H   SFRSYM    DATA     BYTE      IAP_ADDRH
      00000090H   SFRSYM    DATA     BIT       RXD2
      000000C5H   SFRSYM    DATA     BYTE      ISP_CMD
      000000B8H.4 SFRSYM    DATA     BIT       PS
      00000090H.1 SFRSYM    DATA     BIT       TXD2
      00000081H   SFRSYM    DATA     BYTE      SP
      000000D9H   SFRSYM    DATA     BYTE      CMOD
      000000D8H   SFRSYM    DATA     BYTE      CCON
      000000C4H   SFRSYM    DATA     BYTE      IAP_ADDRL
      000000B8H.7 SFRSYM    DATA     BIT       PPCA
      000000D0H.2 SFRSYM    DATA     BIT       OV
      000000B0H.6 SFRSYM    DATA     BIT       WR
      000000A8H.6 SFRSYM    DATA     BIT       ELVD
      00000080H   SFRSYM    DATA     BIT       P00
      00000090H   SFRSYM    DATA     BIT       P10
      00000080H.1 SFRSYM    DATA     BIT       P01
      000000BCH   SFRSYM    DATA     BYTE      ADC_CONTR
      00000099H   SFRSYM    DATA     BYTE      SBUF
      00000087H   SFRSYM    DATA     BYTE      PCON
      000000A0H   SFRSYM    DATA     BIT       P20
      00000090H.1 SFRSYM    DATA     BIT       P11
      00000080H.2 SFRSYM    DATA     BIT       P02
LX51 LINKER/LOCATER V4.66.41.0                                                        11/02/2018  15:47:42  PAGE 48


      000000C3H   SFRSYM    DATA     BYTE      ISP_ADDRH
      000000B0H   SFRSYM    DATA     BIT       P30
      000000A0H.1 SFRSYM    DATA     BIT       P21
      00000090H.2 SFRSYM    DATA     BIT       P12
      00000080H.3 SFRSYM    DATA     BIT       P03
      000000C0H   SFRSYM    DATA     BIT       P40
      000000B0H.1 SFRSYM    DATA     BIT       P31
      000000A0H.2 SFRSYM    DATA     BIT       P22
      00000090H.3 SFRSYM    DATA     BIT       P13
      00000080H.4 SFRSYM    DATA     BIT       P04
      00000098H   SFRSYM    DATA     BYTE      SCON
      0000008FH   SFRSYM    DATA     BYTE      WAKE_CLKO
      000000C8H   SFRSYM    DATA     BIT       P50
      000000C0H.1 SFRSYM    DATA     BIT       P41
      000000B0H.2 SFRSYM    DATA     BIT       P32
      000000A0H.3 SFRSYM    DATA     BIT       P23
      00000090H.4 SFRSYM    DATA     BIT       P14
      00000080H.5 SFRSYM    DATA     BIT       P05
      00000089H   SFRSYM    DATA     BYTE      TMOD
      00000088H   SFRSYM    DATA     BYTE      TCON
      000000C8H.1 SFRSYM    DATA     BIT       P51
      000000C0H.2 SFRSYM    DATA     BIT       P42
      000000B0H.3 SFRSYM    DATA     BIT       P33
      000000A0H.4 SFRSYM    DATA     BIT       P24
      00000090H.5 SFRSYM    DATA     BIT       P15
      00000080H.6 SFRSYM    DATA     BIT       P06
      000000C4H   SFRSYM    DATA     BYTE      ISP_ADDRL
      000000B8H.6 SFRSYM    DATA     BIT       PLVD
      000000C8H.2 SFRSYM    DATA     BIT       P52
      000000C0H.3 SFRSYM    DATA     BIT       P43
      000000B0H.4 SFRSYM    DATA     BIT       P34
      000000A0H.5 SFRSYM    DATA     BIT       P25
      00000090H.6 SFRSYM    DATA     BIT       P16
      00000080H.7 SFRSYM    DATA     BIT       P07
      000000C8H.3 SFRSYM    DATA     BIT       P53
      000000C0H.4 SFRSYM    DATA     BIT       P44
      000000B0H.5 SFRSYM    DATA     BIT       P35
      000000A0H.6 SFRSYM    DATA     BIT       P26
      00000090H.7 SFRSYM    DATA     BIT       P17
      000000C8H.4 SFRSYM    DATA     BIT       P54
      000000C0H.5 SFRSYM    DATA     BIT       P45
      000000B0H.6 SFRSYM    DATA     BIT       P36
      000000A0H.7 SFRSYM    DATA     BIT       P27
      000000C8H.5 SFRSYM    DATA     BIT       P55
      000000C0H.6 SFRSYM    DATA     BIT       P46
      000000B0H.7 SFRSYM    DATA     BIT       P37
      000000C8H.6 SFRSYM    DATA     BIT       P56
      000000C0H.7 SFRSYM    DATA     BIT       P47
      000000C8H.7 SFRSYM    DATA     BIT       P57
      00000088H.1 SFRSYM    DATA     BIT       IE0
      000000A1H   SFRSYM    DATA     BYTE      BUS_SPEED
      00000088H.3 SFRSYM    DATA     BIT       IE1
      000000AFH   SFRSYM    DATA     BYTE      IE2
      000000F0H   SFRSYM    DATA     BYTE      B
      0000008EH   SFRSYM    DATA     BYTE      AUXR
      000000C7H   SFRSYM    DATA     BYTE      IAP_CONTR
      000000E0H   SFRSYM    DATA     BYTE      ACC
      000000A8H.1 SFRSYM    DATA     BIT       ET0
      000000A8H.3 SFRSYM    DATA     BIT       ET1
      00000088H.5 SFRSYM    DATA     BIT       TF0
      00000088H.7 SFRSYM    DATA     BIT       TF1
      000000B5H   SFRSYM    DATA     BYTE      IP2
      0000008CH   SFRSYM    DATA     BYTE      RL_TH0
      00000098H.2 SFRSYM    DATA     BIT       RB8
      0000008DH   SFRSYM    DATA     BYTE      RL_TH1
LX51 LINKER/LOCATER V4.66.41.0                                                        11/02/2018  15:47:42  PAGE 49


      0000008CH   SFRSYM    DATA     BYTE      TH0
      000000A8H   SFRSYM    DATA     BIT       EX0
      00000088H   SFRSYM    DATA     BIT       IT0
      000000D6H   SFRSYM    DATA     BYTE      RL_T2H
      0000008DH   SFRSYM    DATA     BYTE      TH1
      000000A8H.2 SFRSYM    DATA     BIT       EX1
      00000098H.3 SFRSYM    DATA     BIT       TB8
      00000088H.2 SFRSYM    DATA     BIT       IT1
      000000D4H   SFRSYM    DATA     BYTE      RL_T3H
      000000D6H   SFRSYM    DATA     BYTE      TH2
      000000D6H   SFRSYM    DATA     BYTE      T2H
      000000D0H   SFRSYM    DATA     BIT       P
      000000D2H   SFRSYM    DATA     BYTE      RL_T4H
      000000D4H   SFRSYM    DATA     BYTE      TH3
      000000D4H   SFRSYM    DATA     BYTE      T3H
      0000008AH   SFRSYM    DATA     BYTE      RL_TL0
      00000098H.7 SFRSYM    DATA     BIT       SM0
      000000D2H   SFRSYM    DATA     BYTE      TH4
      000000D2H   SFRSYM    DATA     BYTE      T4H
      0000008BH   SFRSYM    DATA     BYTE      RL_TL1
      0000008AH   SFRSYM    DATA     BYTE      TL0
      00000098H.6 SFRSYM    DATA     BIT       SM1
      000000D7H   SFRSYM    DATA     BYTE      RL_T2L
      0000008BH   SFRSYM    DATA     BYTE      TL1
      00000098H.5 SFRSYM    DATA     BIT       SM2
      000000D5H   SFRSYM    DATA     BYTE      RL_T3L
      000000D7H   SFRSYM    DATA     BYTE      TL2
      000000D7H   SFRSYM    DATA     BYTE      T2L
      000000D3H   SFRSYM    DATA     BYTE      RL_T4L
      000000D5H   SFRSYM    DATA     BYTE      TL3
      000000D5H   SFRSYM    DATA     BYTE      T3L
      000000B8H.1 SFRSYM    DATA     BIT       PT0
      000000D3H   SFRSYM    DATA     BYTE      TL4
      000000D3H   SFRSYM    DATA     BYTE      T4L
      000000B8H.3 SFRSYM    DATA     BIT       PT1
      000000D0H.3 SFRSYM    DATA     BIT       RS0
      000000C7H   SFRSYM    DATA     BYTE      ISP_CONTR
      00000088H.4 SFRSYM    DATA     BIT       TR0
      000000D0H.4 SFRSYM    DATA     BIT       RS1
      000000C2H   SFRSYM    DATA     BYTE      IAP_DATA
      00000088H.6 SFRSYM    DATA     BIT       TR1
      000000B8H   SFRSYM    DATA     BIT       PX0
      000000C1H   SFRSYM    DATA     BYTE      WDT_CONTR
      000000B8H.2 SFRSYM    DATA     BIT       PX1
      000000F2H   SFRSYM    DATA     BYTE      PCA_PWM0
      000000F3H   SFRSYM    DATA     BYTE      PCA_PWM1
      000000F4H   SFRSYM    DATA     BYTE      PCA_PWM2
      0000009DH   SFRSYM    DATA     BYTE      P1ASF
      00000083H   SFRSYM    DATA     BYTE      DPH
      000000D1H   SFRSYM    DATA     BYTE      T4T3M
      000000BEH   SFRSYM    DATA     BYTE      ADC_RESL
      00000082H   SFRSYM    DATA     BYTE      DPL
      000000CDH   SFRSYM    DATA     BYTE      SPSTAT
      000000B7H   SFRSYM    DATA     BYTE      IPH
      0000009BH   SFRSYM    DATA     BYTE      S2BUF
      00000097H   SFRSYM    DATA     BYTE      PCON2
      000000ADH   SFRSYM    DATA     BYTE      S3BUF
      00000098H.4 SFRSYM    DATA     BIT       REN
      00000085H   SFRSYM    DATA     BYTE      S4BUF
      0000009AH   SFRSYM    DATA     BYTE      S2CON
      000000ACH   SFRSYM    DATA     BYTE      S3CON
      000000C2H   SFRSYM    DATA     BYTE      ISP_DATA
      00000084H   SFRSYM    DATA     BYTE      S4CON
      000000B9H   SFRSYM    DATA     BYTE      SADEN
      000000B0H   SFRSYM    DATA     BIT       RXD
LX51 LINKER/LOCATER V4.66.41.0                                                        11/02/2018  15:47:42  PAGE 50


      000000A9H   SFRSYM    DATA     BYTE      SADDR
      000000B0H.1 SFRSYM    DATA     BIT       TXD
      000000F0H   SFRSYM    DATA     BIT       B0
      000000F0H.1 SFRSYM    DATA     BIT       B1
      000000C6H   SFRSYM    DATA     BYTE      IAP_TRIG
      000000A2H   SFRSYM    DATA     BYTE      AUXR1
      000000F0H.2 SFRSYM    DATA     BIT       B2
      00000090H.2 SFRSYM    DATA     BIT       SPI_SS
      0000008FH   SFRSYM    DATA     BYTE      AUXR2
      000000F0H.3 SFRSYM    DATA     BIT       B3
      000000F0H.4 SFRSYM    DATA     BIT       B4
      000000D0H.5 SFRSYM    DATA     BIT       F0
      000000F0H.5 SFRSYM    DATA     BIT       B5
      000000D0H.1 SFRSYM    DATA     BIT       F1
      0000008FH   SFRSYM    DATA     BYTE      INT_CLKO
      000000F0H.6 SFRSYM    DATA     BIT       B6
      000000E0H   SFRSYM    DATA     BIT       ACC0
      000000F0H.7 SFRSYM    DATA     BIT       B7
      000000E0H.1 SFRSYM    DATA     BIT       ACC1
      000000E0H.2 SFRSYM    DATA     BIT       ACC2
      000000E0H.3 SFRSYM    DATA     BIT       ACC3
      000000D0H   SFRSYM    DATA     BYTE      PSW
      000000E0H.4 SFRSYM    DATA     BIT       ACC4
      00000090H.5 SFRSYM    DATA     BIT       SPI_SCLK
      000000D8H   SFRSYM    DATA     BIT       CCF0
      000000E0H.5 SFRSYM    DATA     BIT       ACC5
      000000D8H.1 SFRSYM    DATA     BIT       CCF1
      000000E0H.6 SFRSYM    DATA     BIT       ACC6
      000000CFH   SFRSYM    DATA     BYTE      SPDAT
      00000094H   SFRSYM    DATA     BYTE      P0M0

      01005C0DH   BLOCK     CODE     ---       LVL=0
      01005C0DH   LINE      CODE     ---       #17
      01005C0DH   LINE      CODE     ---       #19
      01005C13H   LINE      CODE     ---       #22
      01005C13H   LINE      CODE     ---       #24
      01005C1AH   LINE      CODE     ---       #26
      01005C1DH   LINE      CODE     ---       #28
      01005C2CH   LINE      CODE     ---       #32
      01005C65H   LINE      CODE     ---       #33
      01005C6EH   LINE      CODE     ---       #34
      01005C6EH   LINE      CODE     ---       #35
      01005C6EH   LINE      CODE     ---       #37
      ---         BLOCKEND  ---      ---       LVL=0

      ---         MODULE    ---      ---       DATATRANS
      020003C0H   PUBLIC    XDATA    BYTE      heartBeatPeriod
      00000022H.6 PUBLIC    BIT      BIT       uartRX_toutFLG
      0200033FH   PUBLIC    XDATA    ---       datsRcv_ZIGB
      0200033DH   PUBLIC    XDATA    ---       devNwkHoldTime_Param
      00000010H   PUBLIC    DATA     BYTE      dtModeKeepAcess_currentCmd
      0200033CH   PUBLIC    XDATA    BYTE      colonyCtrlGet_queryCounter
      0200033BH   PUBLIC    XDATA    BYTE      heartBeatHang_timeCnt
      02000335H   PUBLIC    XDATA    ---       dev_agingCmd_rcvPassive
      00000022H.5 PUBLIC    BIT      BIT       reConnectAfterDatsReq_IF
      00000022H.4 PUBLIC    BIT      BIT       heartBeatCycle_FLG
      0000000FH   PUBLIC    DATA     BYTE      datsRcv_length
      02000333H   PUBLIC    XDATA    ---       devStatus_switch
      02000331H   PUBLIC    XDATA    ---       devRemoteDataReqMethod
      020002E5H   PUBLIC    XDATA    ---       datsRcv_respond
      020002E4H   PUBLIC    XDATA    BYTE      colonyCtrlGet_statusLocalScene
      020002B6H   PUBLIC    XDATA    ---       dev_currentDataPoint
      0200026AH   PUBLIC    XDATA    ---       datsSend_request
      02000268H   PUBLIC    XDATA    WORD      zigbNwkAction_counter
      0000000EH   PUBLIC    DATA     BYTE      rxTout_count
LX51 LINKER/LOCATER V4.66.41.0                                                        11/02/2018  15:47:42  PAGE 51


      02000267H   PUBLIC    XDATA    BYTE      heartBeatCount
      02000261H   PUBLIC    XDATA    ---       dev_agingCmd_sndInitative
      00000022H.3 PUBLIC    BIT      BIT       rxTout_count_EN
      0000000DH   PUBLIC    DATA     BYTE      devRunning_Status
      02000260H   PUBLIC    XDATA    BYTE      colonyCtrlGetHang_timeCnt
      0200025DH   PUBLIC    XDATA    ---       colonyCtrlGet_statusLocalEaCtrl
      00000022H.2 PUBLIC    BIT      BIT       coordinatorOnline_IF
      01001ADEH   PUBLIC    CODE     ---       thread_dataTrans
      010063F2H   PUBLIC    CODE     ---       devHoldStop_makeInAdvance
      00000020H.4 PUBLIC    BIT      BIT       ?devStatusChangeTo_devHold?BIT
      01005ECAH   PUBLIC    CODE     ---       devStatusChangeTo_devHold
      00000020H.4 PUBLIC    BIT      BIT       ?ZigB_nwkOpen?BIT
      0000002DH   PUBLIC    DATA     BYTE      ?ZigB_nwkOpen?BYTE
      01005C6FH   PUBLIC    CODE     ---       ZigB_nwkOpen
      00000035H   PUBLIC    DATA     BYTE      ?_zigb_VALIDA_INPUT?BYTE
      01005571H   PUBLIC    CODE     ---       _zigb_VALIDA_INPUT
      01006319H   PUBLIC    CODE     ---       _periodDataTrans_momentHang
      010056A2H   PUBLIC    CODE     ---       UART1_Rountine
      01005953H   PUBLIC    CODE     ---       uartObjZigb_Init
      01006356H   PUBLIC    CODE     ---       zigbUart_pinInit
      000000D8H.2 SFRSYM    DATA     BIT       CCF2
      000000E0H.7 SFRSYM    DATA     BIT       ACC7
      00000093H   SFRSYM    DATA     BYTE      P0M1
      00000092H   SFRSYM    DATA     BYTE      P1M0
      00000096H   SFRSYM    DATA     BYTE      P2M0
      00000091H   SFRSYM    DATA     BYTE      P1M1
      00000080H   SFRSYM    DATA     BYTE      P0
      000000B2H   SFRSYM    DATA     BYTE      P3M0
      00000095H   SFRSYM    DATA     BYTE      P2M1
      00000090H   SFRSYM    DATA     BYTE      P1
      000000B4H   SFRSYM    DATA     BYTE      P4M0
      000000B1H   SFRSYM    DATA     BYTE      P3M1
      000000A0H   SFRSYM    DATA     BYTE      P2
      000000CAH   SFRSYM    DATA     BYTE      P5M0
      000000B3H   SFRSYM    DATA     BYTE      P4M1
      000000B0H   SFRSYM    DATA     BYTE      P3
      000000ABH   SFRSYM    DATA     BYTE      WKTCH
      000000B0H.4 SFRSYM    DATA     BIT       T0
      000000D0H.6 SFRSYM    DATA     BIT       AC
      000000CCH   SFRSYM    DATA     BYTE      P6M0
      000000C9H   SFRSYM    DATA     BYTE      P5M1
      000000C0H   SFRSYM    DATA     BYTE      P4
      000000B0H.5 SFRSYM    DATA     BIT       CLKOUT0
      000000B0H.5 SFRSYM    DATA     BIT       T1
      000000E2H   SFRSYM    DATA     BYTE      P7M0
      000000CBH   SFRSYM    DATA     BYTE      P6M1
      000000C8H   SFRSYM    DATA     BYTE      P5
      000000C6H   SFRSYM    DATA     BYTE      ISP_TRIG
      000000A8H.7 SFRSYM    DATA     BIT       EA
      000000B0H.4 SFRSYM    DATA     BIT       CLKOUT1
      000000A0H.4 SFRSYM    DATA     BIT       SPI_SS_2
      000000E8H   SFRSYM    DATA     BYTE      P6
      000000E1H   SFRSYM    DATA     BYTE      P7M1
      000000C8H.4 SFRSYM    DATA     BIT       SPI_SS_3
      00000090H.4 SFRSYM    DATA     BIT       SPI_MISO
      00000090H.3 SFRSYM    DATA     BIT       SPI_MOSI
      00000090H.1 SFRSYM    DATA     BIT       CCP0
      000000F8H   SFRSYM    DATA     BYTE      P7
      000000AAH   SFRSYM    DATA     BYTE      WKTCL
      00000090H   SFRSYM    DATA     BIT       CCP1
      000000CEH   SFRSYM    DATA     BYTE      SPCTL
      000000D8H.7 SFRSYM    DATA     BIT       CF
      000000B0H.7 SFRSYM    DATA     BIT       CCP2
      000000F9H   SFRSYM    DATA     BYTE      CH
      000000A2H   SFRSYM    DATA     BYTE      P_SW1
LX51 LINKER/LOCATER V4.66.41.0                                                        11/02/2018  15:47:42  PAGE 52


      000000BAH   SFRSYM    DATA     BYTE      P_SW2
      000000A8H.5 SFRSYM    DATA     BIT       EADC
      000000A0H.1 SFRSYM    DATA     BIT       SPI_SCLK_2
      000000A8H   SFRSYM    DATA     BYTE      IE
      000000C0H.3 SFRSYM    DATA     BIT       SPI_SCLK_3
      000000E9H   SFRSYM    DATA     BYTE      CL
      000000C5H   SFRSYM    DATA     BYTE      IAP_CMD
      000000FAH   SFRSYM    DATA     BYTE      CCAP0H
      000000FBH   SFRSYM    DATA     BYTE      CCAP1H
      000000FCH   SFRSYM    DATA     BYTE      CCAP2H
      000000BDH   SFRSYM    DATA     BYTE      ADC_RES
      000000B6H   SFRSYM    DATA     BYTE      IPH2
      000000D8H.6 SFRSYM    DATA     BIT       CR
      000000EAH   SFRSYM    DATA     BYTE      CCAP0L
      000000B0H.7 SFRSYM    DATA     BIT       RD
      000000EBH   SFRSYM    DATA     BYTE      CCAP1L
      000000DAH   SFRSYM    DATA     BYTE      CCAPM0
      000000ECH   SFRSYM    DATA     BYTE      CCAP2L
      000000DBH   SFRSYM    DATA     BYTE      CCAPM1
      000000A8H.4 SFRSYM    DATA     BIT       ES
      000000DCH   SFRSYM    DATA     BYTE      CCAPM2
      000000B8H.5 SFRSYM    DATA     BIT       PADC
      000000A0H.2 SFRSYM    DATA     BIT       SPI_MISO_2
      000000A0H.3 SFRSYM    DATA     BIT       SPI_MOSI_2
      000000B8H   SFRSYM    DATA     BYTE      IP
      000000C0H.1 SFRSYM    DATA     BIT       SPI_MISO_3
      000000C0H   SFRSYM    DATA     BIT       SPI_MOSI_3
      00000098H   SFRSYM    DATA     BIT       RI
      000000B0H.2 SFRSYM    DATA     BIT       INT0
      000000D0H.7 SFRSYM    DATA     BIT       CY
      00000098H.1 SFRSYM    DATA     BIT       TI
      000000B0H.3 SFRSYM    DATA     BIT       INT1
      00000097H   SFRSYM    DATA     BYTE      CLK_DIV
      000000C3H   SFRSYM    DATA     BYTE      IAP_ADDRH
      00000090H   SFRSYM    DATA     BIT       RXD2
      000000C5H   SFRSYM    DATA     BYTE      ISP_CMD
      000000B8H.4 SFRSYM    DATA     BIT       PS
      00000090H.1 SFRSYM    DATA     BIT       TXD2
      00000081H   SFRSYM    DATA     BYTE      SP
      000000D9H   SFRSYM    DATA     BYTE      CMOD
      000000D8H   SFRSYM    DATA     BYTE      CCON
      000000C4H   SFRSYM    DATA     BYTE      IAP_ADDRL
      000000B8H.7 SFRSYM    DATA     BIT       PPCA
      000000D0H.2 SFRSYM    DATA     BIT       OV
      000000B0H.6 SFRSYM    DATA     BIT       WR
      000000A8H.6 SFRSYM    DATA     BIT       ELVD
      00000080H   SFRSYM    DATA     BIT       P00
      00000090H   SFRSYM    DATA     BIT       P10
      00000080H.1 SFRSYM    DATA     BIT       P01
      000000BCH   SFRSYM    DATA     BYTE      ADC_CONTR
      00000099H   SFRSYM    DATA     BYTE      SBUF
      00000087H   SFRSYM    DATA     BYTE      PCON
      000000A0H   SFRSYM    DATA     BIT       P20
      00000090H.1 SFRSYM    DATA     BIT       P11
      00000080H.2 SFRSYM    DATA     BIT       P02
      000000C3H   SFRSYM    DATA     BYTE      ISP_ADDRH
      000000B0H   SFRSYM    DATA     BIT       P30
      000000A0H.1 SFRSYM    DATA     BIT       P21
      00000090H.2 SFRSYM    DATA     BIT       P12
      00000080H.3 SFRSYM    DATA     BIT       P03
      000000C0H   SFRSYM    DATA     BIT       P40
      000000B0H.1 SFRSYM    DATA     BIT       P31
      000000A0H.2 SFRSYM    DATA     BIT       P22
      00000090H.3 SFRSYM    DATA     BIT       P13
      00000080H.4 SFRSYM    DATA     BIT       P04
LX51 LINKER/LOCATER V4.66.41.0                                                        11/02/2018  15:47:42  PAGE 53


      00000098H   SFRSYM    DATA     BYTE      SCON
      0000008FH   SFRSYM    DATA     BYTE      WAKE_CLKO
      000000C8H   SFRSYM    DATA     BIT       P50
      000000C0H.1 SFRSYM    DATA     BIT       P41
      000000B0H.2 SFRSYM    DATA     BIT       P32
      000000A0H.3 SFRSYM    DATA     BIT       P23
      00000090H.4 SFRSYM    DATA     BIT       P14
      00000080H.5 SFRSYM    DATA     BIT       P05
      00000089H   SFRSYM    DATA     BYTE      TMOD
      00000088H   SFRSYM    DATA     BYTE      TCON
      000000C8H.1 SFRSYM    DATA     BIT       P51
      000000C0H.2 SFRSYM    DATA     BIT       P42
      000000B0H.3 SFRSYM    DATA     BIT       P33
      000000A0H.4 SFRSYM    DATA     BIT       P24
      00000090H.5 SFRSYM    DATA     BIT       P15
      00000080H.6 SFRSYM    DATA     BIT       P06
      000000C4H   SFRSYM    DATA     BYTE      ISP_ADDRL
      000000B8H.6 SFRSYM    DATA     BIT       PLVD
      000000C8H.2 SFRSYM    DATA     BIT       P52
      000000C0H.3 SFRSYM    DATA     BIT       P43
      000000B0H.4 SFRSYM    DATA     BIT       P34
      000000A0H.5 SFRSYM    DATA     BIT       P25
      00000090H.6 SFRSYM    DATA     BIT       P16
      00000080H.7 SFRSYM    DATA     BIT       P07
      000000C8H.3 SFRSYM    DATA     BIT       P53
      000000C0H.4 SFRSYM    DATA     BIT       P44
      000000B0H.5 SFRSYM    DATA     BIT       P35
      000000A0H.6 SFRSYM    DATA     BIT       P26
      00000090H.7 SFRSYM    DATA     BIT       P17
      000000C8H.4 SFRSYM    DATA     BIT       P54
      000000C0H.5 SFRSYM    DATA     BIT       P45
      000000B0H.6 SFRSYM    DATA     BIT       P36
      000000A0H.7 SFRSYM    DATA     BIT       P27
      000000C8H.5 SFRSYM    DATA     BIT       P55
      000000C0H.6 SFRSYM    DATA     BIT       P46
      000000B0H.7 SFRSYM    DATA     BIT       P37
      000000C8H.6 SFRSYM    DATA     BIT       P56
      000000C0H.7 SFRSYM    DATA     BIT       P47
      000000C8H.7 SFRSYM    DATA     BIT       P57
      00000088H.1 SFRSYM    DATA     BIT       IE0
      000000A1H   SFRSYM    DATA     BYTE      BUS_SPEED
      00000088H.3 SFRSYM    DATA     BIT       IE1
      000000AFH   SFRSYM    DATA     BYTE      IE2
      000000F0H   SFRSYM    DATA     BYTE      B
      0000008EH   SFRSYM    DATA     BYTE      AUXR
      000000C7H   SFRSYM    DATA     BYTE      IAP_CONTR
      000000E0H   SFRSYM    DATA     BYTE      ACC
      000000A8H.1 SFRSYM    DATA     BIT       ET0
      000000A8H.3 SFRSYM    DATA     BIT       ET1
      00000088H.5 SFRSYM    DATA     BIT       TF0
      00000088H.7 SFRSYM    DATA     BIT       TF1
      000000B5H   SFRSYM    DATA     BYTE      IP2
      0000008CH   SFRSYM    DATA     BYTE      RL_TH0
      00000098H.2 SFRSYM    DATA     BIT       RB8
      0000008DH   SFRSYM    DATA     BYTE      RL_TH1
      0000008CH   SFRSYM    DATA     BYTE      TH0
      000000A8H   SFRSYM    DATA     BIT       EX0
      00000088H   SFRSYM    DATA     BIT       IT0
      000000D6H   SFRSYM    DATA     BYTE      RL_T2H
      0000008DH   SFRSYM    DATA     BYTE      TH1
      000000A8H.2 SFRSYM    DATA     BIT       EX1
      00000098H.3 SFRSYM    DATA     BIT       TB8
      00000088H.2 SFRSYM    DATA     BIT       IT1
      000000D4H   SFRSYM    DATA     BYTE      RL_T3H
      000000D6H   SFRSYM    DATA     BYTE      TH2
LX51 LINKER/LOCATER V4.66.41.0                                                        11/02/2018  15:47:42  PAGE 54


      000000D6H   SFRSYM    DATA     BYTE      T2H
      000000D0H   SFRSYM    DATA     BIT       P
      000000D2H   SFRSYM    DATA     BYTE      RL_T4H
      000000D4H   SFRSYM    DATA     BYTE      TH3
      000000D4H   SFRSYM    DATA     BYTE      T3H
      0000008AH   SFRSYM    DATA     BYTE      RL_TL0
      00000098H.7 SFRSYM    DATA     BIT       SM0
      000000D2H   SFRSYM    DATA     BYTE      TH4
      000000D2H   SFRSYM    DATA     BYTE      T4H
      0000008BH   SFRSYM    DATA     BYTE      RL_TL1
      0000008AH   SFRSYM    DATA     BYTE      TL0
      00000098H.6 SFRSYM    DATA     BIT       SM1
      000000D7H   SFRSYM    DATA     BYTE      RL_T2L
      0000008BH   SFRSYM    DATA     BYTE      TL1
      00000098H.5 SFRSYM    DATA     BIT       SM2
      000000D5H   SFRSYM    DATA     BYTE      RL_T3L
      000000D7H   SFRSYM    DATA     BYTE      TL2
      000000D7H   SFRSYM    DATA     BYTE      T2L
      000000D3H   SFRSYM    DATA     BYTE      RL_T4L
      000000D5H   SFRSYM    DATA     BYTE      TL3
      000000D5H   SFRSYM    DATA     BYTE      T3L
      000000B8H.1 SFRSYM    DATA     BIT       PT0
      000000D3H   SFRSYM    DATA     BYTE      TL4
      000000D3H   SFRSYM    DATA     BYTE      T4L
      000000B8H.3 SFRSYM    DATA     BIT       PT1
      000000D0H.3 SFRSYM    DATA     BIT       RS0
      000000C7H   SFRSYM    DATA     BYTE      ISP_CONTR
      00000088H.4 SFRSYM    DATA     BIT       TR0
      000000D0H.4 SFRSYM    DATA     BIT       RS1
      000000C2H   SFRSYM    DATA     BYTE      IAP_DATA
      00000088H.6 SFRSYM    DATA     BIT       TR1
      000000B8H   SFRSYM    DATA     BIT       PX0
      000000C1H   SFRSYM    DATA     BYTE      WDT_CONTR
      000000B8H.2 SFRSYM    DATA     BIT       PX1
      000000F2H   SFRSYM    DATA     BYTE      PCA_PWM0
      000000F3H   SFRSYM    DATA     BYTE      PCA_PWM1
      000000F4H   SFRSYM    DATA     BYTE      PCA_PWM2
      0000009DH   SFRSYM    DATA     BYTE      P1ASF
      00000083H   SFRSYM    DATA     BYTE      DPH
      000000D1H   SFRSYM    DATA     BYTE      T4T3M
      000000BEH   SFRSYM    DATA     BYTE      ADC_RESL
      00000082H   SFRSYM    DATA     BYTE      DPL
      000000CDH   SFRSYM    DATA     BYTE      SPSTAT
      000000B7H   SFRSYM    DATA     BYTE      IPH
      0000009BH   SFRSYM    DATA     BYTE      S2BUF
      00000097H   SFRSYM    DATA     BYTE      PCON2
      000000ADH   SFRSYM    DATA     BYTE      S3BUF
      00000098H.4 SFRSYM    DATA     BIT       REN
      00000085H   SFRSYM    DATA     BYTE      S4BUF
      0000009AH   SFRSYM    DATA     BYTE      S2CON
      000000ACH   SFRSYM    DATA     BYTE      S3CON
      000000C2H   SFRSYM    DATA     BYTE      ISP_DATA
      00000084H   SFRSYM    DATA     BYTE      S4CON
      000000B9H   SFRSYM    DATA     BYTE      SADEN
      000000B0H   SFRSYM    DATA     BIT       RXD
      000000A9H   SFRSYM    DATA     BYTE      SADDR
      000000B0H.1 SFRSYM    DATA     BIT       TXD
      000000F0H   SFRSYM    DATA     BIT       B0
      000000F0H.1 SFRSYM    DATA     BIT       B1
      000000C6H   SFRSYM    DATA     BYTE      IAP_TRIG
      000000A2H   SFRSYM    DATA     BYTE      AUXR1
      000000F0H.2 SFRSYM    DATA     BIT       B2
      00000090H.2 SFRSYM    DATA     BIT       SPI_SS
      0000008FH   SFRSYM    DATA     BYTE      AUXR2
      000000F0H.3 SFRSYM    DATA     BIT       B3
LX51 LINKER/LOCATER V4.66.41.0                                                        11/02/2018  15:47:42  PAGE 55


      000000F0H.4 SFRSYM    DATA     BIT       B4
      000000D0H.5 SFRSYM    DATA     BIT       F0
      000000F0H.5 SFRSYM    DATA     BIT       B5
      000000D0H.1 SFRSYM    DATA     BIT       F1
      0000008FH   SFRSYM    DATA     BYTE      INT_CLKO
      000000F0H.6 SFRSYM    DATA     BIT       B6
      000000E0H   SFRSYM    DATA     BIT       ACC0
      000000F0H.7 SFRSYM    DATA     BIT       B7
      000000E0H.1 SFRSYM    DATA     BIT       ACC1
      000000E0H.2 SFRSYM    DATA     BIT       ACC2
      000000E0H.3 SFRSYM    DATA     BIT       ACC3
      000000D0H   SFRSYM    DATA     BYTE      PSW
      000000E0H.4 SFRSYM    DATA     BIT       ACC4
      00000090H.5 SFRSYM    DATA     BIT       SPI_SCLK
      000000D8H   SFRSYM    DATA     BIT       CCF0
      000000E0H.5 SFRSYM    DATA     BIT       ACC5
      000000D8H.1 SFRSYM    DATA     BIT       CCF1
      000000E0H.6 SFRSYM    DATA     BIT       ACC6
      000000CFH   SFRSYM    DATA     BYTE      SPDAT
      00000094H   SFRSYM    DATA     BYTE      P0M0
      01004642H   SYMBOL    CODE     ---       _zigB_sysTimeSet
      01005D92H   SYMBOL    CODE     ---       ZigB_getPanIDCurrent
      010059CEH   SYMBOL    CODE     ---       _zigb_datsRequest
      01003C6FH   SYMBOL    CODE     ---       dataTransRequest_datsSend
      01004B9FH   SYMBOL    CODE     ---       getSystemTime_reales
      01002EA4H   SYMBOL    CODE     ---       zigB_nwkJoinRequest
      0100043FH   SYMBOL    CODE     ---       _?ix1000
      01000C7DH   SYMBOL    CODE     ---       _?ix1010
      0100047FH   SYMBOL    CODE     ---       _?ix1001
      01000E93H   SYMBOL    CODE     ---       _?ix1020
      01000CCDH   SYMBOL    CODE     ---       _?ix1011
      01000565H   SYMBOL    CODE     ---       _?ix1002
      01000D0DH   SYMBOL    CODE     ---       _?ix1012
      01000568H   SYMBOL    CODE     ---       _?ix1003
      01000D12H   SYMBOL    CODE     ---       _?ix1013
      01000590H   SYMBOL    CODE     ---       _?ix1004
      01000D15H   SYMBOL    CODE     ---       _?ix1014
      0100063DH   SYMBOL    CODE     ---       _?ix1005
      01000D37H   SYMBOL    CODE     ---       _?ix1015
      01004F8AH   SYMBOL    CODE     ---       function_devNwkHold
      01000B93H   SYMBOL    CODE     ---       _?ix1006
      01000D9DH   SYMBOL    CODE     ---       _?ix1016
      01000BD3H   SYMBOL    CODE     ---       _?ix1007
      01000DCBH   SYMBOL    CODE     ---       _?ix1017
      01000BE5H   SYMBOL    CODE     ---       _?ix1008
      01000DD3H   SYMBOL    CODE     ---       _?ix1018
      01000C2DH   SYMBOL    CODE     ---       _?ix1009
      01000E33H   SYMBOL    CODE     ---       _?ix1019
      01006171H   SYMBOL    CODE     ---       _frame_Check
      01005DE5H   SYMBOL    CODE     ---       _dataParing_scenarioCtrl
      01000E99H   SYMBOL    CODE     ---       _dataParing_Nomal
      010057C4H   SYMBOL    CODE     ---       _zigb_datsLoad_datsSend
      01005F14H   SYMBOL    CODE     ---       _dataSendRemote_straightforward
      0100493DH   SYMBOL    CODE     ---       dtasTX_loadBasic_CUST
      01004234H   SYMBOL    CODE     ---       _dataParing_zigbSysCtrl
      01005228H   SYMBOL    CODE     ---       _ZigB_TXFrameLoad

      01006356H   BLOCK     CODE     ---       LVL=0
      01006356H   LINE      CODE     ---       #63
      01006356H   LINE      CODE     ---       #66
      01006359H   LINE      CODE     ---       #67
      0100635CH   LINE      CODE     ---       #70
      0100635FH   LINE      CODE     ---       #71
      01006362H   LINE      CODE     ---       #74
      01006365H   LINE      CODE     ---       #75
LX51 LINKER/LOCATER V4.66.41.0                                                        11/02/2018  15:47:42  PAGE 56


      01006368H   LINE      CODE     ---       #76
      ---         BLOCKEND  ---      ---       LVL=0

      01005953H   BLOCK     CODE     ---       LVL=0
      0100595FH   BLOCK     CODE     NEAR LAB  LVL=1
      00000026H   SYMBOL    DATA     DWORD     j
      ---         BLOCKEND  ---      ---       LVL=1
      01005953H   LINE      CODE     ---       #79
      01005953H   LINE      CODE     ---       #81
      01005955H   LINE      CODE     ---       #83
      01005957H   LINE      CODE     ---       #84
      0100595FH   LINE      CODE     ---       #86
      0100595FH   LINE      CODE     ---       #87
      01005969H   LINE      CODE     ---       #88
      0100597EH   LINE      CODE     ---       #90
      0100598CH   LINE      CODE     ---       #91
      0100598FH   LINE      CODE     ---       #92
      0100598FH   LINE      CODE     ---       #93
      01005992H   LINE      CODE     ---       #94
      01005995H   LINE      CODE     ---       #95
      01005998H   LINE      CODE     ---       #96
      0100599BH   LINE      CODE     ---       #98
      0100599EH   LINE      CODE     ---       #99
      010059A1H   LINE      CODE     ---       #100
      010059A4H   LINE      CODE     ---       #102
      010059A6H   LINE      CODE     ---       #103
      010059A8H   LINE      CODE     ---       #104
      010059ABH   LINE      CODE     ---       #106
      010059BAH   LINE      CODE     ---       #108
      010059BCH   LINE      CODE     ---       #110
      010059C5H   LINE      CODE     ---       #111
      ---         BLOCKEND  ---      ---       LVL=0

      010056A2H   BLOCK     CODE     ---       LVL=0
      010056A2H   LINE      CODE     ---       #134
      010056BFH   LINE      CODE     ---       #137
      010056C2H   LINE      CODE     ---       #138
      010056C2H   LINE      CODE     ---       #139
      010056C4H   LINE      CODE     ---       #140
      010056C8H   LINE      CODE     ---       #141
      010056C8H   LINE      CODE     ---       #147
      010056CBH   LINE      CODE     ---       #149
      010056CDH   LINE      CODE     ---       #150
      010056CFH   LINE      CODE     ---       #151
      010056D1H   LINE      CODE     ---       #153
      010056DFH   LINE      CODE     ---       #154
      010056DFH   LINE      CODE     ---       #157
      010056F0H   LINE      CODE     ---       #158
      010056F3H   LINE      CODE     ---       #159
      010056F3H   LINE      CODE     ---       #160
      010056F3H   LINE      CODE     ---       #162
      010056F6H   LINE      CODE     ---       #163
      010056F6H   LINE      CODE     ---       #164
      010056F8H   LINE      CODE     ---       #165
      010056FEH   LINE      CODE     ---       #166
      010056FEH   LINE      CODE     ---       #167
      0100570CH   LINE      CODE     ---       #168
      01005718H   LINE      CODE     ---       #169
      0100571AH   LINE      CODE     ---       #170
      0100571DH   LINE      CODE     ---       #171
      0100571DH   LINE      CODE     ---       #172
      ---         BLOCKEND  ---      ---       LVL=0

      01006171H   BLOCK     CODE     ---       LVL=0
      00000038H   SYMBOL    DATA     ---       frame_temp
LX51 LINKER/LOCATER V4.66.41.0                                                        11/02/2018  15:47:42  PAGE 57


      00000005H   SYMBOL    DATA     BYTE      check_num
      01006177H   BLOCK     CODE     NEAR LAB  LVL=1
      00000007H   SYMBOL    DATA     BYTE      loop
      00000006H   SYMBOL    DATA     BYTE      val_Check
      ---         BLOCKEND  ---      ---       LVL=1
      01006171H   LINE      CODE     ---       #176
      01006177H   LINE      CODE     ---       #178
      01006179H   LINE      CODE     ---       #179
      0100617AH   LINE      CODE     ---       #181
      0100617FH   LINE      CODE     ---       #183
      0100618FH   LINE      CODE     ---       #184
      01006192H   LINE      CODE     ---       #186
      01006195H   LINE      CODE     ---       #187
      01006198H   LINE      CODE     ---       #189
      0100619AH   LINE      CODE     ---       #190
      ---         BLOCKEND  ---      ---       LVL=0

      0100493DH   BLOCK     CODE     ---       LVL=0
      00000020H.6 SYMBOL    BIT      BIT       ifRemoteDats
      00000032H   SYMBOL    DATA     ---       dats_Tx
      00000035H   SYMBOL    DATA     BYTE      datsLen_TX
      00000036H   SYMBOL    DATA     BYTE      frame_Type
      00000037H   SYMBOL    DATA     BYTE      frame_CMD
      00000020H.7 SYMBOL    BIT      BIT       ifSpecial_CMD
      010049A1H   BLOCK     CODE     NEAR LAB  LVL=1
      02000158H   SYMBOL    XDATA    ---       dats_Temp
      ---         BLOCKEND  ---      ---       LVL=1
      0100493DH   LINE      CODE     ---       #194
      0100493DH   LINE      CODE     ---       #199
      0100493DH   LINE      CODE     ---       #201
      0100494BH   LINE      CODE     ---       #202
      01004953H   LINE      CODE     ---       #204
      01004964H   LINE      CODE     ---       #206
      0100497EH   LINE      CODE     ---       #208
      0100499BH   LINE      CODE     ---       #210
      010049A1H   LINE      CODE     ---       #212
      010049B4H   LINE      CODE     ---       #214
      010049BFH   LINE      CODE     ---       #215
      010049CFH   LINE      CODE     ---       #217
      010049E8H   LINE      CODE     ---       #218
      01004A01H   LINE      CODE     ---       #219
      01004A20H   LINE      CODE     ---       #220
      01004A3AH   LINE      CODE     ---       #221
      01004A54H   LINE      CODE     ---       #223
      01004A57H   LINE      CODE     ---       #225
      01004A57H   LINE      CODE     ---       #227
      01004A62H   LINE      CODE     ---       #228
      01004A70H   LINE      CODE     ---       #230
      01004A72H   LINE      CODE     ---       #231
      01004A72H   LINE      CODE     ---       #232
      ---         BLOCKEND  ---      ---       LVL=0
      00000005H   SYMBOL    DATA     BYTE      length
      00000007H   SYMBOL    DATA     BYTE      loop
      00000006H   SYMBOL    DATA     BYTE      valXOR

      01005228H   BLOCK     CODE     VOID      LVL=0
      ---         BLOCKEND  ---      ---       LVL=0

      01005232H   BLOCK     CODE     ---       LVL=0
      00000045H   SYMBOL    DATA     ---       frame
      00000048H   SYMBOL    DATA     ---       cmd
      0000004BH   SYMBOL    DATA     BYTE      cmdLen
      0000004CH   SYMBOL    DATA     ---       dats
      0000004FH   SYMBOL    DATA     BYTE      datsLen
      00000007H   SYMBOL    DATA     BYTE      frameHead
LX51 LINKER/LOCATER V4.66.41.0                                                        11/02/2018  15:47:42  PAGE 58


      00000050H   SYMBOL    DATA     BYTE      xor_check
      00000006H   SYMBOL    DATA     BYTE      loop
      00000051H   SYMBOL    DATA     BYTE      ptr
      01005238H   BLOCK     CODE     NEAR LAB  LVL=1
      00000007H   SYMBOL    DATA     BYTE      frameHead
      00000050H   SYMBOL    DATA     BYTE      xor_check
      00000006H   SYMBOL    DATA     BYTE      loop
      00000051H   SYMBOL    DATA     BYTE      ptr
      ---         BLOCKEND  ---      ---       LVL=1
      01005232H   LINE      CODE     ---       #248
      01005238H   LINE      CODE     ---       #250
      01005238H   LINE      CODE     ---       #251
      0100523BH   LINE      CODE     ---       #252
      0100523CH   LINE      CODE     ---       #253
      0100523EH   LINE      CODE     ---       #255
      0100524BH   LINE      CODE     ---       #256
      01005259H   LINE      CODE     ---       #258
      01005275H   LINE      CODE     ---       #259
      0100527BH   LINE      CODE     ---       #260
      01005296H   LINE      CODE     ---       #262
      010052B2H   LINE      CODE     ---       #263
      010052B8H   LINE      CODE     ---       #264
      010052D3H   LINE      CODE     ---       #266
      010052E7H   LINE      CODE     ---       #268
      010052E9H   LINE      CODE     ---       #269
      ---         BLOCKEND  ---      ---       LVL=0

      01006319H   BLOCK     CODE     ---       LVL=0
      00000007H   SYMBOL    DATA     BYTE      hangTime
      01006319H   LINE      CODE     ---       #272
      01006319H   LINE      CODE     ---       #274
      0100631EH   LINE      CODE     ---       #275
      01006324H   LINE      CODE     ---       #277
      0100632DH   LINE      CODE     ---       #278
      ---         BLOCKEND  ---      ---       LVL=0

      010059CEH   BLOCK     CODE     ---       LVL=0
      00000034H   SYMBOL    DATA     ---       frameREQ
      00000037H   SYMBOL    DATA     BYTE      frameREQ_Len
      00000038H   SYMBOL    DATA     ---       resp_cmd
      0000003BH   SYMBOL    DATA     ---       resp_dats
      0000003EH   SYMBOL    DATA     BYTE      loopReapt
      0000003FH   SYMBOL    DATA     WORD      timeWait
      010059D6H   BLOCK     CODE     NEAR LAB  LVL=1
      00000041H   SYMBOL    DATA     WORD      Local_Delay
      00000043H   SYMBOL    DATA     BYTE      loop
      ---         BLOCKEND  ---      ---       LVL=1
      010059CEH   LINE      CODE     ---       #282
      010059D6H   LINE      CODE     ---       #286
      010059D6H   LINE      CODE     ---       #288
      010059DCH   LINE      CODE     ---       #289
      010059DFH   LINE      CODE     ---       #291
      010059E8H   LINE      CODE     ---       #293
      010059EAH   LINE      CODE     ---       #294
      010059F4H   LINE      CODE     ---       #295
      010059FFH   LINE      CODE     ---       #297
      01005A09H   LINE      CODE     ---       #299
      01005A0CH   LINE      CODE     ---       #301
      01005A0EH   LINE      CODE     ---       #303
      01005A24H   LINE      CODE     ---       #305
      01005A3AH   LINE      CODE     ---       #306
      01005A40H   LINE      CODE     ---       #308
      01005A40H   LINE      CODE     ---       #309
      01005A40H   LINE      CODE     ---       #310
      01005A40H   LINE      CODE     ---       #311
LX51 LINKER/LOCATER V4.66.41.0                                                        11/02/2018  15:47:42  PAGE 59


      01005A44H   LINE      CODE     ---       #313
      01005A46H   LINE      CODE     ---       #314
      ---         BLOCKEND  ---      ---       LVL=0

      01005571H   BLOCK     CODE     ---       LVL=0
      00000035H   SYMBOL    DATA     ---       REQ_CMD
      00000038H   SYMBOL    DATA     ---       REQ_DATS
      0000003BH   SYMBOL    DATA     BYTE      REQdatsLen
      0000003CH   SYMBOL    DATA     ---       ANSR_frame
      0000003FH   SYMBOL    DATA     BYTE      ANSRdatsLen
      00000040H   SYMBOL    DATA     BYTE      times
      00000041H   SYMBOL    DATA     WORD      timeDelay
      01005577H   BLOCK     CODE     NEAR LAB  LVL=1
      02000135H   SYMBOL    XDATA    ---       dataTXBUF
      00000043H   SYMBOL    DATA     BYTE      loop
      00000044H   SYMBOL    DATA     BYTE      datsTX_Len
      ---         BLOCKEND  ---      ---       LVL=1
      01005571H   LINE      CODE     ---       #317
      01005577H   LINE      CODE     ---       #322
      01005577H   LINE      CODE     ---       #325
      0100558AH   LINE      CODE     ---       #326
      0100558DH   LINE      CODE     ---       #329
      010055B0H   LINE      CODE     ---       #331
      010055BAH   LINE      CODE     ---       #333
      010055BCH   LINE      CODE     ---       #334
      010055C6H   LINE      CODE     ---       #335
      010055D1H   LINE      CODE     ---       #337
      010055DBH   LINE      CODE     ---       #339
      010055DEH   LINE      CODE     ---       #341
      010055E0H   LINE      CODE     ---       #343
      010055FCH   LINE      CODE     ---       #345
      01005603H   LINE      CODE     ---       #346
      01005605H   LINE      CODE     ---       #347
      01005605H   LINE      CODE     ---       #348
      01005605H   LINE      CODE     ---       #349
      01005605H   LINE      CODE     ---       #350
      01005609H   LINE      CODE     ---       #352
      0100560AH   LINE      CODE     ---       #353
      ---         BLOCKEND  ---      ---       LVL=0

      01005C6FH   BLOCK     CODE     ---       LVL=0
      00000020H.4 SYMBOL    BIT      BIT       openIF
      0000002DH   SYMBOL    DATA     BYTE      openTime
      01005C6FH   BLOCK     CODE     NEAR LAB  LVL=1
      010004DFH   SYMBOL    CODE     ---       default_param
      00000020H.5 SYMBOL    BIT      BIT       resultSet
      0000002EH   SYMBOL    DATA     BYTE      openTime_temp
      0200012AH   SYMBOL    XDATA    ---       paramTX_temp
      ---         BLOCKEND  ---      ---       LVL=1
      01005C6FH   LINE      CODE     ---       #468
      01005C6FH   LINE      CODE     ---       #472
      01005C71H   LINE      CODE     ---       #474
      01005C74H   LINE      CODE     ---       #477
      01005C86H   LINE      CODE     ---       #479
      01005C96H   LINE      CODE     ---       #484
      01005CCEH   LINE      CODE     ---       #498
      01005CD0H   LINE      CODE     ---       #499
      ---         BLOCKEND  ---      ---       LVL=0

      01005D92H   BLOCK     CODE     ---       LVL=0
      01005D92H   BLOCK     CODE     NEAR LAB  LVL=1
      00000032H   SYMBOL    DATA     WORD      PANID_temp
      02000158H   SYMBOL    XDATA    ---       paramTX_temp
      01000588H   SYMBOL    CODE     ---       frameREQ_zigbPanIDGet
      0100058EH   SYMBOL    CODE     ---       cmdResp_zigbPanIDGet
LX51 LINKER/LOCATER V4.66.41.0                                                        11/02/2018  15:47:42  PAGE 60


      00000007H   SYMBOL    DATA     BYTE      datsResp_Len
      ---         BLOCKEND  ---      ---       LVL=1
      01005D92H   LINE      CODE     ---       #502
      01005D92H   LINE      CODE     ---       #504
      01005D97H   LINE      CODE     ---       #507
      01005DA9H   LINE      CODE     ---       #511
      01005DABH   LINE      CODE     ---       #513
      01005DD1H   LINE      CODE     ---       #515
      01005DD4H   LINE      CODE     ---       #517
      01005DDAH   LINE      CODE     ---       #518
      01005DE0H   LINE      CODE     ---       #521
      01005DE0H   LINE      CODE     ---       #523
      01005DE4H   LINE      CODE     ---       #524
      ---         BLOCKEND  ---      ---       LVL=0

      01004B9FH   BLOCK     CODE     ---       LVL=0
      01004B9FH   BLOCK     CODE     NEAR LAB  LVL=1
      00000020H.2 SYMBOL    BIT      BIT       resultOpreat
      020000C8H   SYMBOL    XDATA    ---       paramTX_temp
      010005B0H   SYMBOL    CODE     ---       frameREQ_zigbSystimeGet
      010005B5H   SYMBOL    CODE     ---       cmdResp_zigbSystimeGet
      00000007H   SYMBOL    DATA     BYTE      datsResp_Len
      01004BE4H   BLOCK     CODE     NEAR LAB  LVL=2
      00000026H   SYMBOL    DATA     WORD      Y_temp16
      00000028H   SYMBOL    DATA     BYTE      Y_temp8
      00000029H   SYMBOL    DATA     BYTE      M_temp8
      0000002AH   SYMBOL    DATA     BYTE      Y
      0000002BH   SYMBOL    DATA     BYTE      M
      0000002CH   SYMBOL    DATA     BYTE      D
      0000002DH   SYMBOL    DATA     BYTE      W
      ---         BLOCKEND  ---      ---       LVL=2
      ---         BLOCKEND  ---      ---       LVL=1
      01004B9FH   LINE      CODE     ---       #527
      01004B9FH   LINE      CODE     ---       #529
      01004BA1H   LINE      CODE     ---       #532
      01004BB4H   LINE      CODE     ---       #536
      01004BB6H   LINE      CODE     ---       #538
      01004BDCH   LINE      CODE     ---       #540
      01004BE4H   LINE      CODE     ---       #541
      01004BE4H   LINE      CODE     ---       #543
      01004BF4H   LINE      CODE     ---       #544
      01004BF7H   LINE      CODE     ---       #545
      01004BF9H   LINE      CODE     ---       #547
      01004C06H   LINE      CODE     ---       #548
      01004C0CH   LINE      CODE     ---       #549
      01004C10H   LINE      CODE     ---       #550
      01004C13H   LINE      CODE     ---       #553
      01004C16H   LINE      CODE     ---       #554
      01004C21H   LINE      CODE     ---       #556
      01004C27H   LINE      CODE     ---       #557
      01004C29H   LINE      CODE     ---       #558
      01004C2BH   LINE      CODE     ---       #559
      01004C2EH   LINE      CODE     ---       #562
      01004C51H   LINE      CODE     ---       #563
      01004C58H   LINE      CODE     ---       #566
      01004C65H   LINE      CODE     ---       #568
      01004C6BH   LINE      CODE     ---       #569
      01004C71H   LINE      CODE     ---       #570
      01004C77H   LINE      CODE     ---       #572
      01004C7FH   LINE      CODE     ---       #573
      01004C87H   LINE      CODE     ---       #574
      01004C90H   LINE      CODE     ---       #577
      01004CA4H   LINE      CODE     ---       #579
      01004CA6H   LINE      CODE     ---       #580
      01004CA6H   LINE      CODE     ---       #591
LX51 LINKER/LOCATER V4.66.41.0                                                        11/02/2018  15:47:42  PAGE 61


      01004CA8H   LINE      CODE     ---       #592
      ---         BLOCKEND  ---      ---       LVL=0

      01004642H   BLOCK     CODE     ---       LVL=0
      0000002DH   SYMBOL    DATA     DWORD     timeStamp
      00000020H.4 SYMBOL    BIT      BIT       timeZoneAdjust_IF
      0100464AH   BLOCK     CODE     NEAR LAB  LVL=1
      010005B7H   SYMBOL    CODE     ---       default_param
      0200012AH   SYMBOL    XDATA    ---       timeStampArray
      00000020H.5 SYMBOL    BIT      BIT       resultSet
      00000031H   SYMBOL    DATA     DWORD     timeStamp_temp
      ---         BLOCKEND  ---      ---       LVL=1
      01004642H   LINE      CODE     ---       #596
      0100464AH   LINE      CODE     ---       #599
      0100465DH   LINE      CODE     ---       #600
      0100465FH   LINE      CODE     ---       #601
      0100466BH   LINE      CODE     ---       #603
      01004671H   LINE      CODE     ---       #605
      0100467AH   LINE      CODE     ---       #607
      010046B8H   LINE      CODE     ---       #609
      010046BBH   LINE      CODE     ---       #610
      010046CBH   LINE      CODE     ---       #612
      01004721H   LINE      CODE     ---       #614
      01004723H   LINE      CODE     ---       #615
      0100472DH   LINE      CODE     ---       #617
      01004782H   LINE      CODE     ---       #618
      01004782H   LINE      CODE     ---       #619
      01004782H   LINE      CODE     ---       #621
      0100478AH   LINE      CODE     ---       #622
      0100479AH   LINE      CODE     ---       #623
      010047AAH   LINE      CODE     ---       #624
      010047B9H   LINE      CODE     ---       #629
      010047F1H   LINE      CODE     ---       #643
      010047F3H   LINE      CODE     ---       #644
      ---         BLOCKEND  ---      ---       LVL=0

      01002EA4H   BLOCK     CODE     ---       LVL=0
      00000020H.2 SYMBOL    BIT      BIT       reJoin_IF
      01002EA4H   BLOCK     CODE     NEAR LAB  LVL=1
      01000648H   SYMBOL    CODE     ---       ZigbInit_dats
      01000AFEH   SYMBOL    CODE     ---       defaultParam_clusterRegister
      01000B84H   SYMBOL    CODE     ---       frameResponseSubs_clusterRegister
      01000B8AH   SYMBOL    CODE     ---       cluster_Default
      020000C8H   SYMBOL    XDATA    ---       paramTX_temp
      02000259H   SYMBOL    XDATA    BYTE      step_CortexA
      0200025AH   SYMBOL    XDATA    BYTE      step_CortexB
      0200025BH   SYMBOL    XDATA    BYTE      reactionLoop
      02000108H   SYMBOL    XDATA    BYTE      actionReaptDefine_normal
      00000026H   SYMBOL    DATA     BYTE      datsTX_Len
      01002F3FH   BLOCK     CODE     NEAR LAB  LVL=2
      02000258H   SYMBOL    XDATA    BYTE      stepDisp_CortexA
      00000027H   SYMBOL    DATA     ---       datsREG_cluster
      ---         BLOCKEND  ---      ---       LVL=2
      01003122H   BLOCK     CODE     NEAR LAB  LVL=2
      00000027H   SYMBOL    DATA     ---       datsREG_cluster
      ---         BLOCKEND  ---      ---       LVL=2
      ---         BLOCKEND  ---      ---       LVL=1
      01002EA4H   LINE      CODE     ---       #713
      01002EA4H   LINE      CODE     ---       #749
      01002EB7H   LINE      CODE     ---       #754
      01002EBDH   LINE      CODE     ---       #756
      01002EC0H   LINE      CODE     ---       #758
      01002EC7H   LINE      CODE     ---       #760
      01002ECAH   LINE      CODE     ---       #761
      01002ECEH   LINE      CODE     ---       #763
LX51 LINKER/LOCATER V4.66.41.0                                                        11/02/2018  15:47:42  PAGE 62


      01002ED3H   LINE      CODE     ---       #764
      01002ED5H   LINE      CODE     ---       #765
      01002ED7H   LINE      CODE     ---       #766
      01002EDAH   LINE      CODE     ---       #769
      01002EDAH   LINE      CODE     ---       #771
      01002EE3H   LINE      CODE     ---       #773
      01002EE5H   LINE      CODE     ---       #774
      01002EE7H   LINE      CODE     ---       #775
      01002EE9H   LINE      CODE     ---       #776
      01002EEBH   LINE      CODE     ---       #778
      01002EF1H   LINE      CODE     ---       #780
      01002EF4H   LINE      CODE     ---       #781
      01002EF7H   LINE      CODE     ---       #784
      01002EF7H   LINE      CODE     ---       #785
      01002F06H   LINE      CODE     ---       #786
      01002F18H   LINE      CODE     ---       #787
      01002F21H   LINE      CODE     ---       #788
      01002F21H   LINE      CODE     ---       #792
      01002F21H   LINE      CODE     ---       #794
      01002F2DH   LINE      CODE     ---       #795
      01002F3FH   LINE      CODE     ---       #798
      01002F3FH   LINE      CODE     ---       #802
      01002F46H   LINE      CODE     ---       #804
      01002F4CH   LINE      CODE     ---       #805
      01002F5BH   LINE      CODE     ---       #806
      01002F7FH   LINE      CODE     ---       #807
      01002F88H   LINE      CODE     ---       #808
      01002F88H   LINE      CODE     ---       #809
      01002F88H   LINE      CODE     ---       #812
      01002F92H   LINE      CODE     ---       #814
      01002F98H   LINE      CODE     ---       #816
      01002F98H   LINE      CODE     ---       #818
      01002FA9H   LINE      CODE     ---       #820
      01002FA9H   LINE      CODE     ---       #822
      01002FABH   LINE      CODE     ---       #823
      01002FB3H   LINE      CODE     ---       #824
      01002FB3H   LINE      CODE     ---       #826
      01002FB6H   LINE      CODE     ---       #828
      01002FB6H   LINE      CODE     ---       #830
      01002FC3H   LINE      CODE     ---       #832
      01002FC5H   LINE      CODE     ---       #833
      01002FCFH   LINE      CODE     ---       #834
      01002FD5H   LINE      CODE     ---       #835
      01002FD5H   LINE      CODE     ---       #837
      01002FD6H   LINE      CODE     ---       #839
      01002FD6H   LINE      CODE     ---       #841
      01002FE4H   LINE      CODE     ---       #843
      01002FEAH   LINE      CODE     ---       #845
      01002FECH   LINE      CODE     ---       #847
      0100300FH   LINE      CODE     ---       #849
      0100300FH   LINE      CODE     ---       #850
      0100300FH   LINE      CODE     ---       #851
      0100300FH   LINE      CODE     ---       #852
      0100300FH   LINE      CODE     ---       #853
      0100300FH   LINE      CODE     ---       #855
      01003012H   LINE      CODE     ---       #856
      01003012H   LINE      CODE     ---       #858
      01003012H   LINE      CODE     ---       #859
      01003012H   LINE      CODE     ---       #860
      01003012H   LINE      CODE     ---       #861
      01003027H   LINE      CODE     ---       #865
      01003035H   LINE      CODE     ---       #867
      01003035H   LINE      CODE     ---       #869
      01003048H   LINE      CODE     ---       #871
      01003055H   LINE      CODE     ---       #873
LX51 LINKER/LOCATER V4.66.41.0                                                        11/02/2018  15:47:42  PAGE 63


      01003055H   LINE      CODE     ---       #874
      01003055H   LINE      CODE     ---       #875
      01003058H   LINE      CODE     ---       #876
      01003058H   LINE      CODE     ---       #878
      01003095H   LINE      CODE     ---       #884
      010030A0H   LINE      CODE     ---       #886
      010030BFH   LINE      CODE     ---       #887
      010030BFH   LINE      CODE     ---       #889
      010030C2H   LINE      CODE     ---       #891
      010030C2H   LINE      CODE     ---       #893
      010030CCH   LINE      CODE     ---       #895
      010030CCH   LINE      CODE     ---       #896
      010030CCH   LINE      CODE     ---       #897
      010030CFH   LINE      CODE     ---       #899
      010030D5H   LINE      CODE     ---       #901
      010030D7H   LINE      CODE     ---       #903
      01003113H   LINE      CODE     ---       #905
      01003113H   LINE      CODE     ---       #906
      01003113H   LINE      CODE     ---       #907
      01003113H   LINE      CODE     ---       #908
      01003113H   LINE      CODE     ---       #909
      01003113H   LINE      CODE     ---       #911
      01003116H   LINE      CODE     ---       #912
      01003116H   LINE      CODE     ---       #914
      01003116H   LINE      CODE     ---       #915
      01003122H   LINE      CODE     ---       #917
      01003135H   LINE      CODE     ---       #918
      0100314CH   LINE      CODE     ---       #919
      01003156H   LINE      CODE     ---       #921
      01003169H   LINE      CODE     ---       #922
      0100317FH   LINE      CODE     ---       #923
      01003182H   LINE      CODE     ---       #925
      01003184H   LINE      CODE     ---       #927
      0100319AH   LINE      CODE     ---       #929
      0100319CH   LINE      CODE     ---       #930
      0100319FH   LINE      CODE     ---       #931
      010031A2H   LINE      CODE     ---       #933
      010031A2H   LINE      CODE     ---       #937
      010031A2H   LINE      CODE     ---       #938
      010031A2H   LINE      CODE     ---       #940
      010031AFH   LINE      CODE     ---       #942
      010031AFH   LINE      CODE     ---       #944
      010031B8H   LINE      CODE     ---       #946
      010031BAH   LINE      CODE     ---       #947
      010031BEH   LINE      CODE     ---       #948
      010031BFH   LINE      CODE     ---       #949
      010031BFH   LINE      CODE     ---       #951
      010031DCH   LINE      CODE     ---       #957
      010031E7H   LINE      CODE     ---       #959
      010031F8H   LINE      CODE     ---       #960
      010031FEH   LINE      CODE     ---       #962
      010031FFH   LINE      CODE     ---       #964
      010031FFH   LINE      CODE     ---       #966
      01003209H   LINE      CODE     ---       #968
      0100320FH   LINE      CODE     ---       #969
      01003214H   LINE      CODE     ---       #970
      01003215H   LINE      CODE     ---       #972
      01003218H   LINE      CODE     ---       #974
      0100321AH   LINE      CODE     ---       #976
      01003256H   LINE      CODE     ---       #977
      01003256H   LINE      CODE     ---       #979
      0100325BH   LINE      CODE     ---       #980
      0100325DH   LINE      CODE     ---       #981
      01003263H   LINE      CODE     ---       #982
      01003263H   LINE      CODE     ---       #983
LX51 LINKER/LOCATER V4.66.41.0                                                        11/02/2018  15:47:42  PAGE 64


      01003263H   LINE      CODE     ---       #985
      01003263H   LINE      CODE     ---       #986
      01003263H   LINE      CODE     ---       #987
      01003263H   LINE      CODE     ---       #988
      ---         BLOCKEND  ---      ---       LVL=0

      010057C4H   BLOCK     CODE     ---       LVL=0
      0000002DH   SYMBOL    DATA     ---       frame_Temp
      00000030H   SYMBOL    DATA     WORD      DstAddr
      00000032H   SYMBOL    DATA     BYTE      portPoint
      00000033H   SYMBOL    DATA     ---       dats
      00000036H   SYMBOL    DATA     BYTE      datsLen
      010057CEH   BLOCK     CODE     NEAR LAB  LVL=1
      01000BE3H   SYMBOL    CODE     ---       zigbCMD_DatsSend
      02000159H   SYMBOL    XDATA    ---       buf_datsLOAD
      00000037H   SYMBOL    DATA     BYTE      datsTX_Len
      ---         BLOCKEND  ---      ---       LVL=1
      010057C4H   LINE      CODE     ---       #992
      010057CEH   LINE      CODE     ---       #996
      010057CEH   LINE      CODE     ---       #1001
      010057E1H   LINE      CODE     ---       #1002
      010057E4H   LINE      CODE     ---       #1004
      010057F1H   LINE      CODE     ---       #1007
      010057F7H   LINE      CODE     ---       #1008
      010057FBH   LINE      CODE     ---       #1009
      010057FFH   LINE      CODE     ---       #1010
      01005801H   LINE      CODE     ---       #1011
      01005805H   LINE      CODE     ---       #1012
      01005809H   LINE      CODE     ---       #1013
      0100580CH   LINE      CODE     ---       #1014
      01005810H   LINE      CODE     ---       #1015
      01005814H   LINE      CODE     ---       #1016
      01005826H   LINE      CODE     ---       #1018
      0100584AH   LINE      CODE     ---       #1019
      ---         BLOCKEND  ---      ---       LVL=0

      01005F14H   BLOCK     CODE     ---       LVL=0
      00000026H   SYMBOL    DATA     WORD      DstAddr
      00000028H   SYMBOL    DATA     BYTE      port
      00000029H   SYMBOL    DATA     ---       dats
      0000002CH   SYMBOL    DATA     BYTE      datsLen
      01005F20H   BLOCK     CODE     NEAR LAB  LVL=1
      020000CBH   SYMBOL    XDATA    ---       buf_datsTX
      00000005H   SYMBOL    DATA     BYTE      datsTX_Len
      ---         BLOCKEND  ---      ---       LVL=1
      01005F14H   LINE      CODE     ---       #1023
      01005F20H   LINE      CODE     ---       #1026
      01005F20H   LINE      CODE     ---       #1028
      01005F33H   LINE      CODE     ---       #1029
      01005F33H   LINE      CODE     ---       #1031
      01005F51H   LINE      CODE     ---       #1033
      ---         BLOCKEND  ---      ---       LVL=0

      01003C6FH   BLOCK     CODE     ---       LVL=0
      01003C6FH   BLOCK     CODE     NEAR LAB  LVL=1
      020000C9H   SYMBOL    XDATA    ---       buf_datsTX
      00000026H   SYMBOL    DATA     BYTE      datsTX_Len
      02000119H   SYMBOL    XDATA    ---       buf_datsRX
      00000027H   SYMBOL    DATA     BYTE      datsRX_Len
      00000028H   SYMBOL    DATA     ---       ASR_dats
      01000D10H   SYMBOL    CODE     ---       ASR_cmd
      00000008H   SYMBOL    DATA     BYTE      datsTrans_respondCode
      00000009H   SYMBOL    DATA     BYTE      step
      0000000AH   SYMBOL    DATA     BYTE      reactionLoop
      01003D67H   BLOCK     CODE     NEAR LAB  LVL=2
LX51 LINKER/LOCATER V4.66.41.0                                                        11/02/2018  15:47:42  PAGE 65


      0200025CH   SYMBOL    XDATA    BYTE      local_funRecord
      020000C8H   SYMBOL    XDATA    BYTE      funRecord_temp
      ---         BLOCKEND  ---      ---       LVL=2
      01003E38H   BLOCK     CODE     NEAR LAB  LVL=2
      00000088H   SYMBOL    IDATA    WORD      datsFrom_addr
      0000008AH   SYMBOL    IDATA    BYTE      dstPoint
      ---         BLOCKEND  ---      ---       LVL=2
      ---         BLOCKEND  ---      ---       LVL=1
      01003C6FH   LINE      CODE     ---       #1038
      01003C6FH   LINE      CODE     ---       #1040
      01003C82H   LINE      CODE     ---       #1041
      01003C85H   LINE      CODE     ---       #1044
      01003C97H   LINE      CODE     ---       #1045
      01003C9AH   LINE      CODE     ---       #1048
      01003CABH   LINE      CODE     ---       #1060
      01003CB3H   LINE      CODE     ---       #1062
      01003CB6H   LINE      CODE     ---       #1063
      01003CBAH   LINE      CODE     ---       #1065
      01003CBDH   LINE      CODE     ---       #1066
      01003CC0H   LINE      CODE     ---       #1069
      01003CC0H   LINE      CODE     ---       #1072
      01003CC3H   LINE      CODE     ---       #1073
      01003CC9H   LINE      CODE     ---       #1074
      01003CCCH   LINE      CODE     ---       #1075
      01003CEFH   LINE      CODE     ---       #1077
      01003D17H   LINE      CODE     ---       #1079
      01003D35H   LINE      CODE     ---       #1081
      01003D35H   LINE      CODE     ---       #1083
      01003D3CH   LINE      CODE     ---       #1085
      01003D3FH   LINE      CODE     ---       #1087
      01003D42H   LINE      CODE     ---       #1088
      01003D42H   LINE      CODE     ---       #1090
      01003D45H   LINE      CODE     ---       #1091
      01003D45H   LINE      CODE     ---       #1093
      01003D47H   LINE      CODE     ---       #1094
      01003D59H   LINE      CODE     ---       #1095
      01003D63H   LINE      CODE     ---       #1096
      01003D66H   LINE      CODE     ---       #1098
      01003D67H   LINE      CODE     ---       #1100
      01003D67H   LINE      CODE     ---       #1103
      01003D8BH   LINE      CODE     ---       #1105
      01003D8FH   LINE      CODE     ---       #1107
      01003D91H   LINE      CODE     ---       #1108
      01003D93H   LINE      CODE     ---       #1109
      01003D93H   LINE      CODE     ---       #1110
      01003D95H   LINE      CODE     ---       #1111
      01003D95H   LINE      CODE     ---       #1113
      01003D9CH   LINE      CODE     ---       #1115
      01003DA8H   LINE      CODE     ---       #1117
      01003DAAH   LINE      CODE     ---       #1119
      01003DB5H   LINE      CODE     ---       #1120
      01003DB5H   LINE      CODE     ---       #1121
      01003DB5H   LINE      CODE     ---       #1123
      01003DBBH   LINE      CODE     ---       #1125
      01003DBDH   LINE      CODE     ---       #1127
      01003DD9H   LINE      CODE     ---       #1129
      01003DDFH   LINE      CODE     ---       #1131
      01003DE2H   LINE      CODE     ---       #1133
      01003DE4H   LINE      CODE     ---       #1135
      01003DE7H   LINE      CODE     ---       #1136
      01003DF1H   LINE      CODE     ---       #1137
      01003DF1H   LINE      CODE     ---       #1139
      01003DF6H   LINE      CODE     ---       #1141
      01003DF7H   LINE      CODE     ---       #1143
      01003E10H   LINE      CODE     ---       #1145
LX51 LINKER/LOCATER V4.66.41.0                                                        11/02/2018  15:47:42  PAGE 66


      01003E16H   LINE      CODE     ---       #1147
      01003E20H   LINE      CODE     ---       #1151
      01003E20H   LINE      CODE     ---       #1153
      01003E20H   LINE      CODE     ---       #1154
      01003E20H   LINE      CODE     ---       #1155
      01003E20H   LINE      CODE     ---       #1165
      01003E20H   LINE      CODE     ---       #1166
      01003E20H   LINE      CODE     ---       #1167
      01003E20H   LINE      CODE     ---       #1169
      01003E23H   LINE      CODE     ---       #1171
      01003E23H   LINE      CODE     ---       #1173
      01003E2DH   LINE      CODE     ---       #1175
      01003E2FH   LINE      CODE     ---       #1176
      01003E31H   LINE      CODE     ---       #1177
      01003E32H   LINE      CODE     ---       #1178
      01003E32H   LINE      CODE     ---       #1180
      01003E38H   LINE      CODE     ---       #1182
      01003E45H   LINE      CODE     ---       #1183
      01003E4BH   LINE      CODE     ---       #1185
      01003E4DH   LINE      CODE     ---       #1187
      01003E55H   LINE      CODE     ---       #1190
      01003E55H   LINE      CODE     ---       #1191
      01003E64H   LINE      CODE     ---       #1192
      01003E7FH   LINE      CODE     ---       #1193
      01003E88H   LINE      CODE     ---       #1194
      01003E88H   LINE      CODE     ---       #1196
      01003E88H   LINE      CODE     ---       #1198
      01003EBCH   LINE      CODE     ---       #1200
      01003EBCH   LINE      CODE     ---       #1202
      01003EBFH   LINE      CODE     ---       #1204
      01003EC0H   LINE      CODE     ---       #1207
      01003EC0H   LINE      CODE     ---       #1208
      01003ECFH   LINE      CODE     ---       #1210
      01003EF3H   LINE      CODE     ---       #1212
      01003EFCH   LINE      CODE     ---       #1213
      01003EFCH   LINE      CODE     ---       #1215
      01003EFCH   LINE      CODE     ---       #1216
      01003EFCH   LINE      CODE     ---       #1217
      01003EFCH   LINE      CODE     ---       #1219
      01003EFCH   LINE      CODE     ---       #1221
      01003EFCH   LINE      CODE     ---       #1223
      01003EFFH   LINE      CODE     ---       #1225
      01003F01H   LINE      CODE     ---       #1226
      01003F04H   LINE      CODE     ---       #1228
      01003F06H   LINE      CODE     ---       #1230
      01003F09H   LINE      CODE     ---       #1231
      01003F09H   LINE      CODE     ---       #1233
      01003F09H   LINE      CODE     ---       #1234
      01003F09H   LINE      CODE     ---       #1237
      01003F09H   LINE      CODE     ---       #1238
      01003F09H   LINE      CODE     ---       #1240
      01003F0BH   LINE      CODE     ---       #1242
      01003F0BH   LINE      CODE     ---       #1244
      01003F0EH   LINE      CODE     ---       #1246
      01003F10H   LINE      CODE     ---       #1247
      01003F13H   LINE      CODE     ---       #1249
      01003F15H   LINE      CODE     ---       #1251
      01003F18H   LINE      CODE     ---       #1252
      01003F18H   LINE      CODE     ---       #1255
      01003F1CH   LINE      CODE     ---       #1258
      01003F1CH   LINE      CODE     ---       #1259
      01003F2BH   LINE      CODE     ---       #1260
      01003F43H   LINE      CODE     ---       #1261
      01003F4CH   LINE      CODE     ---       #1262
      01003F4CH   LINE      CODE     ---       #1265
LX51 LINKER/LOCATER V4.66.41.0                                                        11/02/2018  15:47:42  PAGE 67


      01003F5AH   LINE      CODE     ---       #1267
      01003F5AH   LINE      CODE     ---       #1268
      01003F5AH   LINE      CODE     ---       #1269
      01003F5AH   LINE      CODE     ---       #1271
      01003F5AH   LINE      CODE     ---       #1273
      01003F5CH   LINE      CODE     ---       #1275
      01003F5CH   LINE      CODE     ---       #1277
      01003F5FH   LINE      CODE     ---       #1279
      01003F5FH   LINE      CODE     ---       #1280
      01003F5FH   LINE      CODE     ---       #1282
      01003F62H   LINE      CODE     ---       #1283
      01003F62H   LINE      CODE     ---       #1285
      01003F65H   LINE      CODE     ---       #1286
      01003F67H   LINE      CODE     ---       #1289
      01003F6EH   LINE      CODE     ---       #1290
      01003F78H   LINE      CODE     ---       #1292
      01003F79H   LINE      CODE     ---       #1294
      01003F79H   LINE      CODE     ---       #1296
      01003F7CH   LINE      CODE     ---       #1298
      01003F7CH   LINE      CODE     ---       #1299
      01003F7CH   LINE      CODE     ---       #1300
      ---         BLOCKEND  ---      ---       LVL=0

      01005ECAH   BLOCK     CODE     ---       LVL=0
      00000020H.4 SYMBOL    BIT      BIT       zigbNwkSysNote_IF
      01005ECAH   LINE      CODE     ---       #1303
      01005ECAH   LINE      CODE     ---       #1305
      01005ED0H   LINE      CODE     ---       #1306
      01005EDAH   LINE      CODE     ---       #1308
      01005EE0H   LINE      CODE     ---       #1309
      01005EE7H   LINE      CODE     ---       #1311
      01005EEAH   LINE      CODE     ---       #1314
      01005EEAH   LINE      CODE     ---       #1315
      01005EF9H   LINE      CODE     ---       #1316
      01005F0BH   LINE      CODE     ---       #1317
      ---         BLOCKEND  ---      ---       LVL=0

      010063F2H   BLOCK     CODE     ---       LVL=0
      010063F2H   LINE      CODE     ---       #1323
      010063F2H   LINE      CODE     ---       #1325
      010063FAH   LINE      CODE     ---       #1326
      ---         BLOCKEND  ---      ---       LVL=0

      01004F8AH   BLOCK     CODE     ---       LVL=0
      01004F8AH   BLOCK     CODE     NEAR LAB  LVL=1
      0000000BH   SYMBOL    DATA     INT       status_Step
      01004F9AH   BLOCK     CODE     NEAR LAB  LVL=2
      020000C8H   SYMBOL    XDATA    ---       dats_Note
      ---         BLOCKEND  ---      ---       LVL=2
      ---         BLOCKEND  ---      ---       LVL=1
      01004F8AH   LINE      CODE     ---       #1330
      01004F8AH   LINE      CODE     ---       #1334
      01004F93H   LINE      CODE     ---       #1336
      01004F9AH   LINE      CODE     ---       #1338
      01004FADH   LINE      CODE     ---       #1340
      01004FB4H   LINE      CODE     ---       #1342
      01004FC6H   LINE      CODE     ---       #1347
      01004FCDH   LINE      CODE     ---       #1348
      01004FCDH   LINE      CODE     ---       #1350
      01004FCDH   LINE      CODE     ---       #1352
      01004FDDH   LINE      CODE     ---       #1354
      01004FDDH   LINE      CODE     ---       #1356
      01004FDFH   LINE      CODE     ---       #1357
      01004FE8H   LINE      CODE     ---       #1358
      01004FEEH   LINE      CODE     ---       #1360
LX51 LINKER/LOCATER V4.66.41.0                                                        11/02/2018  15:47:42  PAGE 68


      01004FEFH   LINE      CODE     ---       #1362
      01004FEFH   LINE      CODE     ---       #1364
      01004FF9H   LINE      CODE     ---       #1366
      01004FFBH   LINE      CODE     ---       #1367
      01005005H   LINE      CODE     ---       #1368
      0100500BH   LINE      CODE     ---       #1369
      0100500BH   LINE      CODE     ---       #1371
      0100500CH   LINE      CODE     ---       #1373
      0100500CH   LINE      CODE     ---       #1375
      01005016H   LINE      CODE     ---       #1377
      0100501AH   LINE      CODE     ---       #1380
      0100501AH   LINE      CODE     ---       #1381
      01005027H   LINE      CODE     ---       #1382
      01005039H   LINE      CODE     ---       #1383
      01005039H   LINE      CODE     ---       #1384
      01005039H   LINE      CODE     ---       #1386
      01005039H   LINE      CODE     ---       #1388
      0100503BH   LINE      CODE     ---       #1390
      0100503BH   LINE      CODE     ---       #1392
      01005040H   LINE      CODE     ---       #1394
      01005041H   LINE      CODE     ---       #1395
      01005041H   LINE      CODE     ---       #1396
      01005041H   LINE      CODE     ---       #1398
      01005041H   LINE      CODE     ---       #1401
      01005046H   LINE      CODE     ---       #1402
      01005048H   LINE      CODE     ---       #1404
      0100504BH   LINE      CODE     ---       #1405
      0100504EH   LINE      CODE     ---       #1408
      0100504EH   LINE      CODE     ---       #1409
      0100505BH   LINE      CODE     ---       #1410
      0100506DH   LINE      CODE     ---       #1411
      01005076H   LINE      CODE     ---       #1412
      01005076H   LINE      CODE     ---       #1414
      01005076H   LINE      CODE     ---       #1415
      ---         BLOCKEND  ---      ---       LVL=0

      01005DE5H   BLOCK     CODE     ---       LVL=0
      00000026H   SYMBOL    DATA     ---       datsFrame
      01005DE5H   LINE      CODE     ---       #1419
      01005DEBH   LINE      CODE     ---       #1421
      01005DF3H   LINE      CODE     ---       #1422
      01005DF7H   LINE      CODE     ---       #1424
      01005DFCH   LINE      CODE     ---       #1427
      01005DFCH   LINE      CODE     ---       #1428
      01005E0BH   LINE      CODE     ---       #1429
      01005E2BH   LINE      CODE     ---       #1430
      ---         BLOCKEND  ---      ---       LVL=0

      01004234H   BLOCK     CODE     ---       LVL=0
      00000026H   SYMBOL    DATA     ---       datsFrame
      0100423AH   BLOCK     CODE     NEAR LAB  LVL=1
      02000108H   SYMBOL    XDATA    ---       dats
      01004298H   BLOCK     CODE     NEAR LAB  LVL=2
      00000020H.2 SYMBOL    BIT      BIT       resultSet
      00000020H.2 SYMBOL    BIT      BIT       resultSet
      00000020H.3 SYMBOL    BIT      BIT       timeZoneAdjust_needIF
      00000029H   SYMBOL    DATA     DWORD     time_Temp
      ---         BLOCKEND  ---      ---       LVL=2
      010042E2H   BLOCK     CODE     NEAR LAB  LVL=2
      00000020H.2 SYMBOL    BIT      BIT       resultSet
      00000020H.3 SYMBOL    BIT      BIT       timeZoneAdjust_needIF
      00000029H   SYMBOL    DATA     DWORD     time_Temp
      010043E9H   BLOCK     CODE     NEAR LAB  LVL=3
      020000C8H   SYMBOL    XDATA    ---       log_buf
      ---         BLOCKEND  ---      ---       LVL=3
LX51 LINKER/LOCATER V4.66.41.0                                                        11/02/2018  15:47:42  PAGE 69


      ---         BLOCKEND  ---      ---       LVL=2
      ---         BLOCKEND  ---      ---       LVL=1
      01004234H   LINE      CODE     ---       #1437
      0100423AH   LINE      CODE     ---       #1446
      0100424DH   LINE      CODE     ---       #1448
      0100425AH   LINE      CODE     ---       #1449
      01004273H   LINE      CODE     ---       #1450
      01004283H   LINE      CODE     ---       #1452
      01004298H   LINE      CODE     ---       #1454
      01004298H   LINE      CODE     ---       #1456
      0100429AH   LINE      CODE     ---       #1458
      010042A7H   LINE      CODE     ---       #1459
      010042AFH   LINE      CODE     ---       #1462
      010042AFH   LINE      CODE     ---       #1463
      010042BEH   LINE      CODE     ---       #1464
      010042D9H   LINE      CODE     ---       #1465
      010042DFH   LINE      CODE     ---       #1466
      010042DFH   LINE      CODE     ---       #1469
      010042E2H   LINE      CODE     ---       #1471
      010042E2H   LINE      CODE     ---       #1473
      010042E4H   LINE      CODE     ---       #1474
      010042E6H   LINE      CODE     ---       #1475
      010042EFH   LINE      CODE     ---       #1477
      01004305H   LINE      CODE     ---       #1478
      01004325H   LINE      CODE     ---       #1479
      01004345H   LINE      CODE     ---       #1480
      01004365H   LINE      CODE     ---       #1481
      0100437BH   LINE      CODE     ---       #1483
      01004380H   LINE      CODE     ---       #1484
      01004388H   LINE      CODE     ---       #1485
      0100439BH   LINE      CODE     ---       #1486
      010043AEH   LINE      CODE     ---       #1487
      010043AEH   LINE      CODE     ---       #1489
      010043B6H   LINE      CODE     ---       #1490
      010043E9H   LINE      CODE     ---       #1493
      010043E9H   LINE      CODE     ---       #1496
      0100441FH   LINE      CODE     ---       #1497
      01004428H   LINE      CODE     ---       #1498
      01004428H   LINE      CODE     ---       #1500
      01004428H   LINE      CODE     ---       #1502
      01004428H   LINE      CODE     ---       #1505
      01004428H   LINE      CODE     ---       #1506
      01004437H   LINE      CODE     ---       #1507
      01004449H   LINE      CODE     ---       #1508
      01004452H   LINE      CODE     ---       #1509
      01004452H   LINE      CODE     ---       #1511
      01004457H   LINE      CODE     ---       #1513
      01004457H   LINE      CODE     ---       #1588
      01004457H   LINE      CODE     ---       #1589
      01004457H   LINE      CODE     ---       #1590
      ---         BLOCKEND  ---      ---       LVL=0

      01000E99H   BLOCK     CODE     ---       LVL=0
      00000026H   SYMBOL    DATA     ---       datsParam
      00000029H   SYMBOL    DATA     WORD      nwkAddr_from
      0000002BH   SYMBOL    DATA     BYTE      port_from
      01000EA3H   BLOCK     CODE     NEAR LAB  LVL=1
      020000F8H   SYMBOL    XDATA    ---       paramTX_temp
      00000020H.2 SYMBOL    BIT      BIT       dataFromRemote_IF
      01000F21H   BLOCK     CODE     NEAR LAB  LVL=2
      00000020H.3 SYMBOL    BIT      BIT       frameCheck_Done
      01000D97H   SYMBOL    CODE     ---       agingCmd_Temp
      020000CAH   SYMBOL    XDATA    ---       dev_dataPointTemp
      00000020H.3 SYMBOL    BIT      BIT       frameCodeCheck_PASS
      00000020H.4 SYMBOL    BIT      BIT       frameMacCheck_PASS
LX51 LINKER/LOCATER V4.66.41.0                                                        11/02/2018  15:47:42  PAGE 70


      01000F23H   BLOCK     CODE     NEAR LAB  LVL=3
      00000020H.4 SYMBOL    BIT      BIT       frameCodeCheck_PASS
      00000020H.5 SYMBOL    BIT      BIT       frameMacCheck_PASS
      00000020H.4 SYMBOL    BIT      BIT       respond_IF
      00000020H.5 SYMBOL    BIT      BIT       specialCmd_IF
      ---         BLOCKEND  ---      ---       LVL=3
      01000F94H   BLOCK     CODE     NEAR LAB  LVL=3
      00000020H.4 SYMBOL    BIT      BIT       respond_IF
      00000020H.5 SYMBOL    BIT      BIT       specialCmd_IF
      01001031H   BLOCK     CODE     NEAR LAB  LVL=4
      020000C8H   SYMBOL    XDATA    WORD      panid_Temp
      0000002CH   SYMBOL    DATA     BYTE      deviceLock_IF
      0000002CH   SYMBOL    DATA     BYTE      deviceLock_IF
      ---         BLOCKEND  ---      ---       LVL=4
      0100110DH   BLOCK     CODE     NEAR LAB  LVL=4
      0000002CH   SYMBOL    DATA     BYTE      deviceLock_IF
      0000002CH   SYMBOL    DATA     BYTE      deviceLock_IF
      ---         BLOCKEND  ---      ---       LVL=4
      01001124H   BLOCK     CODE     NEAR LAB  LVL=4
      0000002CH   SYMBOL    DATA     BYTE      deviceLock_IF
      ---         BLOCKEND  ---      ---       LVL=4
      01001165H   BLOCK     CODE     NEAR LAB  LVL=4
      0000002CH   SYMBOL    DATA     BYTE      loop
      0000002CH   SYMBOL    DATA     BYTE      deviceLock_IF
      0000002CH   SYMBOL    DATA     BYTE      loop
      0000002CH   SYMBOL    DATA     ---       dataTemp
      ---         BLOCKEND  ---      ---       LVL=4
      01001268H   BLOCK     CODE     NEAR LAB  LVL=4
      0000002CH   SYMBOL    DATA     BYTE      datsTemp
      0000002CH   SYMBOL    DATA     BYTE      datsTemp
      0000002CH   SYMBOL    DATA     BYTE      loop
      0000002CH   SYMBOL    DATA     BYTE      loop
      0000002DH   SYMBOL    DATA     BYTE      effective_oprate
      0000002CH   SYMBOL    DATA     BYTE      loop
      00000021H.7 SYMBOL    BIT      BIT       local_ftyRecover_standbyFLG
      ---         BLOCKEND  ---      ---       LVL=4
      01001280H   BLOCK     CODE     NEAR LAB  LVL=4
      0000002CH   SYMBOL    DATA     BYTE      datsTemp
      0000002CH   SYMBOL    DATA     BYTE      loop
      0000002CH   SYMBOL    DATA     BYTE      loop
      0000002DH   SYMBOL    DATA     BYTE      effective_oprate
      0000002CH   SYMBOL    DATA     BYTE      loop
      00000021H.7 SYMBOL    BIT      BIT       local_ftyRecover_standbyFLG
      ---         BLOCKEND  ---      ---       LVL=4
      010012B9H   BLOCK     CODE     NEAR LAB  LVL=4
      0000002CH   SYMBOL    DATA     BYTE      loop
      0000002CH   SYMBOL    DATA     BYTE      loop
      0000002DH   SYMBOL    DATA     BYTE      effective_oprate
      0000002CH   SYMBOL    DATA     BYTE      loop
      00000021H.7 SYMBOL    BIT      BIT       local_ftyRecover_standbyFLG
      ---         BLOCKEND  ---      ---       LVL=4
      01001455H   BLOCK     CODE     NEAR LAB  LVL=4
      0000002CH   SYMBOL    DATA     BYTE      loop
      0000002DH   SYMBOL    DATA     BYTE      effective_oprate
      0000002CH   SYMBOL    DATA     BYTE      loop
      00000021H.7 SYMBOL    BIT      BIT       local_ftyRecover_standbyFLG
      ---         BLOCKEND  ---      ---       LVL=4
      010014C9H   BLOCK     CODE     NEAR LAB  LVL=4
      0000002CH   SYMBOL    DATA     BYTE      loop
      00000021H.7 SYMBOL    BIT      BIT       local_ftyRecover_standbyFLG
      ---         BLOCKEND  ---      ---       LVL=4
      01001573H   BLOCK     CODE     NEAR LAB  LVL=4
      0000002CH   SYMBOL    DATA     BYTE      datsTX_Len
      ---         BLOCKEND  ---      ---       LVL=4
      ---         BLOCKEND  ---      ---       LVL=3
LX51 LINKER/LOCATER V4.66.41.0                                                        11/02/2018  15:47:42  PAGE 71


      ---         BLOCKEND  ---      ---       LVL=2
      010015E9H   BLOCK     CODE     NEAR LAB  LVL=2
      01000D97H   SYMBOL    CODE     ---       agingCmd_Temp
      020000CAH   SYMBOL    XDATA    ---       dev_dataPointTemp
      00000020H.3 SYMBOL    BIT      BIT       frameCodeCheck_PASS
      00000020H.4 SYMBOL    BIT      BIT       frameMacCheck_PASS
      0100169EH   BLOCK     CODE     NEAR LAB  LVL=3
      00000021H.7 SYMBOL    BIT      BIT       local_ftyRecover_standbyFLG
      010017D5H   BLOCK     CODE     NEAR LAB  LVL=4
      0000002CH   SYMBOL    DATA     BYTE      deviceLock_IF
      0000002CH   SYMBOL    DATA     BYTE      loop
      0000002CH   SYMBOL    DATA     ---       dataTemp
      ---         BLOCKEND  ---      ---       LVL=4
      0100183EH   BLOCK     CODE     NEAR LAB  LVL=4
      0000002CH   SYMBOL    DATA     BYTE      loop
      0000002CH   SYMBOL    DATA     ---       dataTemp
      ---         BLOCKEND  ---      ---       LVL=4
      01001956H   BLOCK     CODE     NEAR LAB  LVL=4
      0000002CH   SYMBOL    DATA     ---       dataTemp
      ---         BLOCKEND  ---      ---       LVL=4
      ---         BLOCKEND  ---      ---       LVL=3
      ---         BLOCKEND  ---      ---       LVL=2
      ---         BLOCKEND  ---      ---       LVL=1
      01000E99H   LINE      CODE     ---       #1594
      01000EA3H   LINE      CODE     ---       #1597
      01000EB6H   LINE      CODE     ---       #1599
      01000EB8H   LINE      CODE     ---       #1602
      01000ED9H   LINE      CODE     ---       #1605
      01000ED9H   LINE      CODE     ---       #1607
      01000EDBH   LINE      CODE     ---       #1609
      01000EEFH   LINE      CODE     ---       #1610
      01000F21H   LINE      CODE     ---       #1611
      01000F21H   LINE      CODE     ---       #1614
      01000F21H   LINE      CODE     ---       #1616
      01000F23H   LINE      CODE     ---       #1619
      01000F25H   LINE      CODE     ---       #1620
      01000F27H   LINE      CODE     ---       #1622
      01000F48H   LINE      CODE     ---       #1623
      01000F67H   LINE      CODE     ---       #1625
      01000F77H   LINE      CODE     ---       #1627
      01000F79H   LINE      CODE     ---       #1629
      01000F7BH   LINE      CODE     ---       #1630
      01000F84H   LINE      CODE     ---       #1631
      01000F84H   LINE      CODE     ---       #1633
      01000F86H   LINE      CODE     ---       #1634
      01000F86H   LINE      CODE     ---       #1636
      01000F8EH   LINE      CODE     ---       #1637
      01000F8EH   LINE      CODE     ---       #1639
      01000F94H   LINE      CODE     ---       #1641
      01000F96H   LINE      CODE     ---       #1642
      01000F98H   LINE      CODE     ---       #1646
      01000FA7H   LINE      CODE     ---       #1647
      01000FCAH   LINE      CODE     ---       #1648
      01000FD3H   LINE      CODE     ---       #1649
      01000FD3H   LINE      CODE     ---       #1651
      01000FE2H   LINE      CODE     ---       #1653
      0100102BH   LINE      CODE     ---       #1655
      0100102BH   LINE      CODE     ---       #1657
      01001031H   LINE      CODE     ---       #1659
      0100103DH   LINE      CODE     ---       #1661
      01001045H   LINE      CODE     ---       #1663
      0100104AH   LINE      CODE     ---       #1664
      0100104FH   LINE      CODE     ---       #1666
      0100105FH   LINE      CODE     ---       #1667
      01001069H   LINE      CODE     ---       #1668
LX51 LINKER/LOCATER V4.66.41.0                                                        11/02/2018  15:47:42  PAGE 72


      0100107CH   LINE      CODE     ---       #1669
      0100108FH   LINE      CODE     ---       #1671
      01001094H   LINE      CODE     ---       #1673
      01001094H   LINE      CODE     ---       #1674
      01001094H   LINE      CODE     ---       #1676
      01001096H   LINE      CODE     ---       #1679
      01001096H   LINE      CODE     ---       #1681
      01001096H   LINE      CODE     ---       #1683
      01001096H   LINE      CODE     ---       #1685
      0100109BH   LINE      CODE     ---       #1686
      010010AEH   LINE      CODE     ---       #1687
      010010C5H   LINE      CODE     ---       #1688
      010010DEH   LINE      CODE     ---       #1689
      010010F2H   LINE      CODE     ---       #1691
      01001102H   LINE      CODE     ---       #1692
      01001106H   LINE      CODE     ---       #1694
      01001108H   LINE      CODE     ---       #1695
      0100110AH   LINE      CODE     ---       #1697
      0100110DH   LINE      CODE     ---       #1699
      0100110DH   LINE      CODE     ---       #1701
      0100110DH   LINE      CODE     ---       #1703
      0100110DH   LINE      CODE     ---       #1705
      0100110DH   LINE      CODE     ---       #1708
      0100110DH   LINE      CODE     ---       #1709
      01001110H   LINE      CODE     ---       #1711
      01001112H   LINE      CODE     ---       #1712
      01001122H   LINE      CODE     ---       #1713
      01001122H   LINE      CODE     ---       #1715
      01001124H   LINE      CODE     ---       #1717
      01001124H   LINE      CODE     ---       #1720
      01001124H   LINE      CODE     ---       #1721
      01001127H   LINE      CODE     ---       #1723
      01001129H   LINE      CODE     ---       #1724
      01001139H   LINE      CODE     ---       #1725
      01001139H   LINE      CODE     ---       #1727
      0100113CH   LINE      CODE     ---       #1729
      0100113CH   LINE      CODE     ---       #1732
      01001165H   LINE      CODE     ---       #1734
      01001165H   LINE      CODE     ---       #1735
      01001165H   LINE      CODE     ---       #1737
      01001168H   LINE      CODE     ---       #1740
      01001179H   LINE      CODE     ---       #1743
      0100117CH   LINE      CODE     ---       #1745
      01001195H   LINE      CODE     ---       #1747
      010011A8H   LINE      CODE     ---       #1748
      010011A8H   LINE      CODE     ---       #1749
      010011AFH   LINE      CODE     ---       #1751
      010011B1H   LINE      CODE     ---       #1754
      010011B1H   LINE      CODE     ---       #1755
      010011C0H   LINE      CODE     ---       #1756
      010011E9H   LINE      CODE     ---       #1757
      010011F2H   LINE      CODE     ---       #1758
      010011F2H   LINE      CODE     ---       #1761
      010011F4H   LINE      CODE     ---       #1763
      010011F4H   LINE      CODE     ---       #1765
      01001200H   LINE      CODE     ---       #1766
      01001210H   LINE      CODE     ---       #1767
      01001217H   LINE      CODE     ---       #1769
      01001219H   LINE      CODE     ---       #1771
      01001219H   LINE      CODE     ---       #1773
      01001220H   LINE      CODE     ---       #1775
      01001222H   LINE      CODE     ---       #1777
      01001222H   LINE      CODE     ---       #1779
      01001235H   LINE      CODE     ---       #1781
      01001244H   LINE      CODE     ---       #1782
LX51 LINKER/LOCATER V4.66.41.0                                                        11/02/2018  15:47:42  PAGE 73


      01001253H   LINE      CODE     ---       #1784
      01001253H   LINE      CODE     ---       #1786
      01001253H   LINE      CODE     ---       #1787
      01001253H   LINE      CODE     ---       #1789
      01001263H   LINE      CODE     ---       #1791
      01001265H   LINE      CODE     ---       #1793
      01001268H   LINE      CODE     ---       #1795
      01001268H   LINE      CODE     ---       #1797
      01001268H   LINE      CODE     ---       #1799
      0100126BH   LINE      CODE     ---       #1801
      0100127BH   LINE      CODE     ---       #1802
      0100127EH   LINE      CODE     ---       #1803
      0100127EH   LINE      CODE     ---       #1805
      0100127EH   LINE      CODE     ---       #1807
      01001280H   LINE      CODE     ---       #1809
      01001280H   LINE      CODE     ---       #1811
      01001283H   LINE      CODE     ---       #1813
      01001293H   LINE      CODE     ---       #1814
      01001296H   LINE      CODE     ---       #1815
      010012A9H   LINE      CODE     ---       #1817
      010012ABH   LINE      CODE     ---       #1819
      010012AEH   LINE      CODE     ---       #1821
      010012AEH   LINE      CODE     ---       #1823
      010012B0H   LINE      CODE     ---       #1825
      010012B3H   LINE      CODE     ---       #1827
      010012B3H   LINE      CODE     ---       #1829
      010012B6H   LINE      CODE     ---       #1831
      010012B9H   LINE      CODE     ---       #1833
      010012B9H   LINE      CODE     ---       #1835
      010012BCH   LINE      CODE     ---       #1837
      010012E2H   LINE      CODE     ---       #1839
      010012E2H   LINE      CODE     ---       #1841
      010012E5H   LINE      CODE     ---       #1843
      01001301H   LINE      CODE     ---       #1845
      01001311H   LINE      CODE     ---       #1846
      01001345H   LINE      CODE     ---       #1847
      01001345H   LINE      CODE     ---       #1848
      0100134CH   LINE      CODE     ---       #1849
      01001364H   LINE      CODE     ---       #1852
      01001364H   LINE      CODE     ---       #1853
      01001373H   LINE      CODE     ---       #1854
      010013ACH   LINE      CODE     ---       #1855
      010013B5H   LINE      CODE     ---       #1856
      010013B5H   LINE      CODE     ---       #1859
      010013B8H   LINE      CODE     ---       #1861
      010013B8H   LINE      CODE     ---       #1863
      010013C9H   LINE      CODE     ---       #1865
      010013CDH   LINE      CODE     ---       #1866
      010013D1H   LINE      CODE     ---       #1868
      010013DAH   LINE      CODE     ---       #1870
      010013DBH   LINE      CODE     ---       #1872
      010013DDH   LINE      CODE     ---       #1874
      010013E1H   LINE      CODE     ---       #1875
      010013E5H   LINE      CODE     ---       #1876
      010013EAH   LINE      CODE     ---       #1877
      010013EAH   LINE      CODE     ---       #1879
      010013ECH   LINE      CODE     ---       #1881
      010013ECH   LINE      CODE     ---       #1883
      010013FDH   LINE      CODE     ---       #1885
      01001401H   LINE      CODE     ---       #1886
      01001405H   LINE      CODE     ---       #1887
      01001406H   LINE      CODE     ---       #1889
      01001408H   LINE      CODE     ---       #1891
      0100140CH   LINE      CODE     ---       #1892
      01001410H   LINE      CODE     ---       #1893
LX51 LINKER/LOCATER V4.66.41.0                                                        11/02/2018  15:47:42  PAGE 74


      01001415H   LINE      CODE     ---       #1894
      01001415H   LINE      CODE     ---       #1896
      01001428H   LINE      CODE     ---       #1897
      01001436H   LINE      CODE     ---       #1899
      01001438H   LINE      CODE     ---       #1901
      01001438H   LINE      CODE     ---       #1903
      01001450H   LINE      CODE     ---       #1905
      01001450H   LINE      CODE     ---       #1907
      01001450H   LINE      CODE     ---       #1908
      01001450H   LINE      CODE     ---       #1910
      01001452H   LINE      CODE     ---       #1912
      01001455H   LINE      CODE     ---       #1914
      01001455H   LINE      CODE     ---       #1916
      01001458H   LINE      CODE     ---       #1917
      01001466H   LINE      CODE     ---       #1919
      01001469H   LINE      CODE     ---       #1921
      01001479H   LINE      CODE     ---       #1923
      0100149EH   LINE      CODE     ---       #1924
      010014B9H   LINE      CODE     ---       #1925
      010014BBH   LINE      CODE     ---       #1926
      010014BBH   LINE      CODE     ---       #1927
      010014C4H   LINE      CODE     ---       #1929
      010014C6H   LINE      CODE     ---       #1931
      010014C9H   LINE      CODE     ---       #1933
      010014C9H   LINE      CODE     ---       #1935
      010014CCH   LINE      CODE     ---       #1937
      010014CEH   LINE      CODE     ---       #1939
      010014EAH   LINE      CODE     ---       #1940
      010014F3H   LINE      CODE     ---       #1942
      010014F5H   LINE      CODE     ---       #1944
      010014F7H   LINE      CODE     ---       #1946
      010014F7H   LINE      CODE     ---       #1948
      0100150FH   LINE      CODE     ---       #1949
      01001527H   LINE      CODE     ---       #1950
      01001535H   LINE      CODE     ---       #1951
      0100153DH   LINE      CODE     ---       #1953
      0100153FH   LINE      CODE     ---       #1955
      01001541H   LINE      CODE     ---       #1957
      01001541H   LINE      CODE     ---       #1959
      01001554H   LINE      CODE     ---       #1960
      01001567H   LINE      CODE     ---       #1962
      01001569H   LINE      CODE     ---       #1964
      0100156BH   LINE      CODE     ---       #2009
      0100156BH   LINE      CODE     ---       #2011
      0100156DH   LINE      CODE     ---       #2013
      0100156DH   LINE      CODE     ---       #2014
      0100156DH   LINE      CODE     ---       #2017
      01001573H   LINE      CODE     ---       #2019
      01001576H   LINE      CODE     ---       #2021
      01001578H   LINE      CODE     ---       #2023
      010015A2H   LINE      CODE     ---       #2030
      010015A8H   LINE      CODE     ---       #2032
      010015B2H   LINE      CODE     ---       #2033
      010015B8H   LINE      CODE     ---       #2034
      010015C7H   LINE      CODE     ---       #2035
      010015DAH   LINE      CODE     ---       #2036
      010015E0H   LINE      CODE     ---       #2037
      010015E5H   LINE      CODE     ---       #2038
      010015E8H   LINE      CODE     ---       #2047
      010015E8H   LINE      CODE     ---       #2048
      010015E8H   LINE      CODE     ---       #2049
      010015E9H   LINE      CODE     ---       #2052
      010015E9H   LINE      CODE     ---       #2056
      010015E9H   LINE      CODE     ---       #2059
      010015E9H   LINE      CODE     ---       #2063
LX51 LINKER/LOCATER V4.66.41.0                                                        11/02/2018  15:47:42  PAGE 75


      010015E9H   LINE      CODE     ---       #2067
      010015E9H   LINE      CODE     ---       #2070
      010015FCH   LINE      CODE     ---       #2072
      010015FEH   LINE      CODE     ---       #2073
      01001600H   LINE      CODE     ---       #2083
      01001642H   LINE      CODE     ---       #2084
      01001661H   LINE      CODE     ---       #2086
      0100166DH   LINE      CODE     ---       #2088
      01001685H   LINE      CODE     ---       #2100
      0100169EH   LINE      CODE     ---       #2102
      0100169EH   LINE      CODE     ---       #2169
      010016B7H   LINE      CODE     ---       #2171
      010016BDH   LINE      CODE     ---       #2173
      010016D0H   LINE      CODE     ---       #2177
      010016D7H   LINE      CODE     ---       #2179
      010016E8H   LINE      CODE     ---       #2181
      010016EDH   LINE      CODE     ---       #2182
      010016F1H   LINE      CODE     ---       #2185
      010016F1H   LINE      CODE     ---       #2187
      01001700H   LINE      CODE     ---       #2188
      01001728H   LINE      CODE     ---       #2189
      01001731H   LINE      CODE     ---       #2190
      01001731H   LINE      CODE     ---       #2192
      01001731H   LINE      CODE     ---       #2193
      01001731H   LINE      CODE     ---       #2195
      01001738H   LINE      CODE     ---       #2197
      01001741H   LINE      CODE     ---       #2199
      01001745H   LINE      CODE     ---       #2200
      01001749H   LINE      CODE     ---       #2201
      0100174EH   LINE      CODE     ---       #2202
      01001754H   LINE      CODE     ---       #2204
      01001754H   LINE      CODE     ---       #2206
      01001761H   LINE      CODE     ---       #2207
      01001783H   LINE      CODE     ---       #2208
      0100178CH   LINE      CODE     ---       #2209
      0100178CH   LINE      CODE     ---       #2212
      0100178EH   LINE      CODE     ---       #2214
      01001792H   LINE      CODE     ---       #2215
      01001796H   LINE      CODE     ---       #2216
      0100179BH   LINE      CODE     ---       #2217
      0100179BH   LINE      CODE     ---       #2218
      0100179BH   LINE      CODE     ---       #2220
      010017A2H   LINE      CODE     ---       #2222
      010017A4H   LINE      CODE     ---       #2224
      010017A4H   LINE      CODE     ---       #2226
      010017B3H   LINE      CODE     ---       #2227
      010017C5H   LINE      CODE     ---       #2228
      010017CEH   LINE      CODE     ---       #2229
      010017CEH   LINE      CODE     ---       #2231
      010017CEH   LINE      CODE     ---       #2233
      010017D5H   LINE      CODE     ---       #2235
      010017D8H   LINE      CODE     ---       #2240
      010017E5H   LINE      CODE     ---       #2241
      01001805H   LINE      CODE     ---       #2242
      0100180EH   LINE      CODE     ---       #2243
      0100180EH   LINE      CODE     ---       #2246
      01001815H   LINE      CODE     ---       #2248
      0100181AH   LINE      CODE     ---       #2250
      0100181CH   LINE      CODE     ---       #2252
      01001821H   LINE      CODE     ---       #2253
      01001821H   LINE      CODE     ---       #2254
      01001834H   LINE      CODE     ---       #2255
      01001834H   LINE      CODE     ---       #2257
      0100183EH   LINE      CODE     ---       #2259
      01001841H   LINE      CODE     ---       #2263
LX51 LINKER/LOCATER V4.66.41.0                                                        11/02/2018  15:47:42  PAGE 76


      0100184EH   LINE      CODE     ---       #2266
      01001877H   LINE      CODE     ---       #2267
      01001880H   LINE      CODE     ---       #2268
      01001880H   LINE      CODE     ---       #2270
      01001883H   LINE      CODE     ---       #2272
      01001897H   LINE      CODE     ---       #2274
      010018A7H   LINE      CODE     ---       #2275
      010018D3H   LINE      CODE     ---       #2276
      010018D3H   LINE      CODE     ---       #2277
      010018DAH   LINE      CODE     ---       #2278
      010018EDH   LINE      CODE     ---       #2279
      010018EDH   LINE      CODE     ---       #2281
      010018F4H   LINE      CODE     ---       #2284
      010018F4H   LINE      CODE     ---       #2287
      01001906H   LINE      CODE     ---       #2288
      0100190FH   LINE      CODE     ---       #2289
      0100190FH   LINE      CODE     ---       #2292
      01001922H   LINE      CODE     ---       #2293
      01001926H   LINE      CODE     ---       #2294
      01001939H   LINE      CODE     ---       #2295
      0100194CH   LINE      CODE     ---       #2296
      0100194CH   LINE      CODE     ---       #2298
      01001956H   LINE      CODE     ---       #2300
      01001969H   LINE      CODE     ---       #2304
      01001978H   LINE      CODE     ---       #2305
      0100198AH   LINE      CODE     ---       #2306
      01001993H   LINE      CODE     ---       #2307
      01001993H   LINE      CODE     ---       #2309
      010019A1H   LINE      CODE     ---       #2310
      010019AFH   LINE      CODE     ---       #2311
      010019BAH   LINE      CODE     ---       #2312
      010019BEH   LINE      CODE     ---       #2313
      010019C7H   LINE      CODE     ---       #2314
      010019CBH   LINE      CODE     ---       #2316
      010019DEH   LINE      CODE     ---       #2317
      010019DEH   LINE      CODE     ---       #2319
      010019E5H   LINE      CODE     ---       #2322
      010019E5H   LINE      CODE     ---       #2324
      010019F4H   LINE      CODE     ---       #2325
      01001A06H   LINE      CODE     ---       #2326
      01001A0FH   LINE      CODE     ---       #2327
      01001A0FH   LINE      CODE     ---       #2330
      01001A15H   LINE      CODE     ---       #2331
      01001A19H   LINE      CODE     ---       #2332
      01001A2CH   LINE      CODE     ---       #2333
      01001A2CH   LINE      CODE     ---       #2335
      01001A36H   LINE      CODE     ---       #2338
      01001A36H   LINE      CODE     ---       #2345
      01001A37H   LINE      CODE     ---       #2347
      01001A46H   LINE      CODE     ---       #2349
      01001A4CH   LINE      CODE     ---       #2352
      01001A4CH   LINE      CODE     ---       #2354
      01001A5BH   LINE      CODE     ---       #2355
      01001A6DH   LINE      CODE     ---       #2356
      01001A76H   LINE      CODE     ---       #2357
      01001A76H   LINE      CODE     ---       #2359
      01001A78H   LINE      CODE     ---       #2360
      01001A7BH   LINE      CODE     ---       #2361
      01001A7BH   LINE      CODE     ---       #2362
      01001A7BH   LINE      CODE     ---       #2364
      01001A7BH   LINE      CODE     ---       #2366
      01001A7BH   LINE      CODE     ---       #2368
      01001A81H   LINE      CODE     ---       #2370
      01001A97H   LINE      CODE     ---       #2372
      01001A9AH   LINE      CODE     ---       #2374
LX51 LINKER/LOCATER V4.66.41.0                                                        11/02/2018  15:47:42  PAGE 77


      01001A9BH   LINE      CODE     ---       #2376
      01001AAAH   LINE      CODE     ---       #2377
      01001AADH   LINE      CODE     ---       #2378
      01001AADH   LINE      CODE     ---       #2380
      01001AAEH   LINE      CODE     ---       #2382
      01001AAEH   LINE      CODE     ---       #2383
      01001AAEH   LINE      CODE     ---       #2384
      01001AAEH   LINE      CODE     ---       #2386
      01001AAEH   LINE      CODE     ---       #2389
      01001AAEH   LINE      CODE     ---       #2391
      01001AB3H   LINE      CODE     ---       #2393
      01001AB3H   LINE      CODE     ---       #2395
      01001AC2H   LINE      CODE     ---       #2396
      01001AD4H   LINE      CODE     ---       #2397
      01001ADDH   LINE      CODE     ---       #2398
      01001ADDH   LINE      CODE     ---       #2400
      01001ADDH   LINE      CODE     ---       #2404
      01001ADDH   LINE      CODE     ---       #2405
      01001ADDH   LINE      CODE     ---       #2406
      ---         BLOCKEND  ---      ---       LVL=0

      01001ADEH   BLOCK     CODE     ---       LVL=0
      01001ADEH   BLOCK     CODE     NEAR LAB  LVL=1
      01000DD1H   SYMBOL    CODE     ---       cmd_datsComing
      02000008H   SYMBOL    XDATA    ---       paramTX_temp
      02000068H   SYMBOL    XDATA    ---       paramRX_temp
      00000022H.1 SYMBOL    BIT      BIT       heartBeat_cmdFLG
      01001B3DH   BLOCK     CODE     NEAR LAB  LVL=2
      00000022H.0 SYMBOL    BIT      BIT       FLG_timeSetInit
      02000006H   SYMBOL    XDATA    BYTE      frame_dataLen
      00000020H.0 SYMBOL    BIT      BIT       dataFromRemote_IF
      00000020H.1 SYMBOL    BIT      BIT       specialCmd_IF
      02000007H   SYMBOL    XDATA    BYTE      datsTX_Len
      ---         BLOCKEND  ---      ---       LVL=2
      01001B66H   BLOCK     CODE     NEAR LAB  LVL=2
      02000006H   SYMBOL    XDATA    BYTE      frame_dataLen
      00000020H.0 SYMBOL    BIT      BIT       dataFromRemote_IF
      00000020H.1 SYMBOL    BIT      BIT       specialCmd_IF
      02000007H   SYMBOL    XDATA    BYTE      datsTX_Len
      01001C11H   BLOCK     CODE     NEAR LAB  LVL=3
      02000000H   SYMBOL    XDATA    ---       nightDatsTemp_CalibrateTab
      00000082H   SYMBOL    IDATA    BYTE      loop
      00000084H   SYMBOL    IDATA    WORD      datsFrom_addr
      00000086H   SYMBOL    IDATA    BYTE      srcPoint
      00000087H   SYMBOL    IDATA    BYTE      dstPoint
      ---         BLOCKEND  ---      ---       LVL=3
      ---         BLOCKEND  ---      ---       LVL=2
      01001E4AH   BLOCK     CODE     NEAR LAB  LVL=2
      00000020H.0 SYMBOL    BIT      BIT       dataFromRemote_IF
      00000020H.1 SYMBOL    BIT      BIT       specialCmd_IF
      02000007H   SYMBOL    XDATA    BYTE      datsTX_Len
      ---         BLOCKEND  ---      ---       LVL=2
      01001E96H   BLOCK     CODE     NEAR LAB  LVL=2
      00000082H   SYMBOL    IDATA    BYTE      loop
      00000084H   SYMBOL    IDATA    WORD      datsFrom_addr
      00000086H   SYMBOL    IDATA    BYTE      srcPoint
      00000087H   SYMBOL    IDATA    BYTE      dstPoint
      ---         BLOCKEND  ---      ---       LVL=2
      01001FB7H   BLOCK     CODE     NEAR LAB  LVL=2
      00000084H   SYMBOL    IDATA    WORD      datsFrom_addr
      00000086H   SYMBOL    IDATA    BYTE      srcPoint
      00000087H   SYMBOL    IDATA    BYTE      dstPoint
      01002006H   BLOCK     CODE     NEAR LAB  LVL=3
      00000083H   SYMBOL    IDATA    BYTE      statusRelay_temp
      ---         BLOCKEND  ---      ---       LVL=3
LX51 LINKER/LOCATER V4.66.41.0                                                        11/02/2018  15:47:42  PAGE 78


      ---         BLOCKEND  ---      ---       LVL=2
      ---         BLOCKEND  ---      ---       LVL=1
      01001ADEH   LINE      CODE     ---       #2409
      01001ADEH   LINE      CODE     ---       #2414
      01001AF1H   LINE      CODE     ---       #2415
      01001B04H   LINE      CODE     ---       #2420
      01001B0AH   LINE      CODE     ---       #2422
      01001B0DH   LINE      CODE     ---       #2423
      01001B10H   LINE      CODE     ---       #2424
      01001B10H   LINE      CODE     ---       #2427
      01001B32H   LINE      CODE     ---       #2429
      01001B32H   LINE      CODE     ---       #2431
      01001B3AH   LINE      CODE     ---       #2433
      01001B3AH   LINE      CODE     ---       #2434
      01001B3AH   LINE      CODE     ---       #2436
      01001B3DH   LINE      CODE     ---       #2437
      01001B3DH   LINE      CODE     ---       #2439
      01001B3DH   LINE      CODE     ---       #2442
      01001B40H   LINE      CODE     ---       #2444
      01001B42H   LINE      CODE     ---       #2445
      01001B4FH   LINE      CODE     ---       #2446
      01001B4FH   LINE      CODE     ---       #2447
      01001B4FH   LINE      CODE     ---       #2449
      01001B57H   LINE      CODE     ---       #2452
      01001B66H   LINE      CODE     ---       #2454
      01001B6AH   LINE      CODE     ---       #2456
      01001B6CH   LINE      CODE     ---       #2457
      01001B6EH   LINE      CODE     ---       #2459
      01001B7BH   LINE      CODE     ---       #2480
      01001B8AH   LINE      CODE     ---       #2481
      01001B98H   LINE      CODE     ---       #2482
      01001BA7H   LINE      CODE     ---       #2483
      01001BBCH   LINE      CODE     ---       #2484
      01001BCBH   LINE      CODE     ---       #2485
      01001BDAH   LINE      CODE     ---       #2486
      01001BDDH   LINE      CODE     ---       #2489
      01001BF0H   LINE      CODE     ---       #2490
      01001C07H   LINE      CODE     ---       #2491
      01001C0CH   LINE      CODE     ---       #2492
      01001C11H   LINE      CODE     ---       #2493
      01001C11H   LINE      CODE     ---       #2495
      01001C24H   LINE      CODE     ---       #2497
      01001C2DH   LINE      CODE     ---       #2498
      01001C45H   LINE      CODE     ---       #2499
      01001C5CH   LINE      CODE     ---       #2500
      01001C69H   LINE      CODE     ---       #2501
      01001C71H   LINE      CODE     ---       #2502
      01001C7EH   LINE      CODE     ---       #2503
      01001C86H   LINE      CODE     ---       #2504
      01001C86H   LINE      CODE     ---       #2505
      01001C99H   LINE      CODE     ---       #2506
      01001C9EH   LINE      CODE     ---       #2509
      01001CA7H   LINE      CODE     ---       #2511
      01001CA7H   LINE      CODE     ---       #2513
      01001CB3H   LINE      CODE     ---       #2515
      01001CB5H   LINE      CODE     ---       #2517
      01001CB5H   LINE      CODE     ---       #2519
      01001CC8H   LINE      CODE     ---       #2521
      01001CC8H   LINE      CODE     ---       #2523
      01001CC8H   LINE      CODE     ---       #2524
      01001CC8H   LINE      CODE     ---       #2527
      01001CCDH   LINE      CODE     ---       #2528
      01001CDEH   LINE      CODE     ---       #2529
      01001CF1H   LINE      CODE     ---       #2530
      01001D0DH   LINE      CODE     ---       #2531
LX51 LINKER/LOCATER V4.66.41.0                                                        11/02/2018  15:47:42  PAGE 79


      01001D14H   LINE      CODE     ---       #2532
      01001D25H   LINE      CODE     ---       #2533
      01001D39H   LINE      CODE     ---       #2534
      01001D4CH   LINE      CODE     ---       #2535
      01001D5FH   LINE      CODE     ---       #2536
      01001D72H   LINE      CODE     ---       #2537
      01001D8AH   LINE      CODE     ---       #2538
      01001DA2H   LINE      CODE     ---       #2539
      01001DBEH   LINE      CODE     ---       #2540
      01001DC5H   LINE      CODE     ---       #2541
      01001DC8H   LINE      CODE     ---       #2542
      01001DCDH   LINE      CODE     ---       #2543
      01001DE8H   LINE      CODE     ---       #2555
      01001DEFH   LINE      CODE     ---       #2556
      01001DF5H   LINE      CODE     ---       #2557
      01001E04H   LINE      CODE     ---       #2558
      01001E1AH   LINE      CODE     ---       #2559
      01001E22H   LINE      CODE     ---       #2560
      01001E27H   LINE      CODE     ---       #2561
      01001E2EH   LINE      CODE     ---       #2562
      01001E3FH   LINE      CODE     ---       #2563
      01001E42H   LINE      CODE     ---       #2566
      01001E42H   LINE      CODE     ---       #2600
      01001E4AH   LINE      CODE     ---       #2602
      01001E4CH   LINE      CODE     ---       #2603
      01001E4EH   LINE      CODE     ---       #2605
      01001E53H   LINE      CODE     ---       #2607
      01001E5AH   LINE      CODE     ---       #2640
      01001E6FH   LINE      CODE     ---       #2641
      01001E76H   LINE      CODE     ---       #2642
      01001E79H   LINE      CODE     ---       #2644
      01001E7FH   LINE      CODE     ---       #2645
      01001E84H   LINE      CODE     ---       #2649
      01001E84H   LINE      CODE     ---       #2652
      01001E8DH   LINE      CODE     ---       #2654
      01001E96H   LINE      CODE     ---       #2658
      01001EA5H   LINE      CODE     ---       #2660
      01001EC3H   LINE      CODE     ---       #2662
      01001ED8H   LINE      CODE     ---       #2664
      01001EECH   LINE      CODE     ---       #2666
      01001F04H   LINE      CODE     ---       #2668
      01001F25H   LINE      CODE     ---       #2669
      01001F2BH   LINE      CODE     ---       #2671
      01001F33H   LINE      CODE     ---       #2672
      01001F3EH   LINE      CODE     ---       #2673
      01001F4DH   LINE      CODE     ---       #2674
      01001F60H   LINE      CODE     ---       #2675
      01001F66H   LINE      CODE     ---       #2676
      01001F6BH   LINE      CODE     ---       #2678
      01001F72H   LINE      CODE     ---       #2679
      01001F80H   LINE      CODE     ---       #2681
      01001F82H   LINE      CODE     ---       #2683
      01001F86H   LINE      CODE     ---       #2686
      01001F86H   LINE      CODE     ---       #2687
      01001F86H   LINE      CODE     ---       #2688
      01001F8CH   LINE      CODE     ---       #2689
      01001F8CH   LINE      CODE     ---       #2690
      01001F8CH   LINE      CODE     ---       #2742
      01001F92H   LINE      CODE     ---       #2744
      01001F94H   LINE      CODE     ---       #2759
      01001FB7H   LINE      CODE     ---       #2760
      01001FB7H   LINE      CODE     ---       #2762
      01001FC4H   LINE      CODE     ---       #2763
      01001FC8H   LINE      CODE     ---       #2764
      01001FCCH   LINE      CODE     ---       #2766
LX51 LINKER/LOCATER V4.66.41.0                                                        11/02/2018  15:47:42  PAGE 80


      01001FCFH   LINE      CODE     ---       #2768
      01001FDCH   LINE      CODE     ---       #2769
      01001FF2H   LINE      CODE     ---       #2771
      01002006H   LINE      CODE     ---       #2773
      0100200DH   LINE      CODE     ---       #2775
      01002013H   LINE      CODE     ---       #2778
      01002013H   LINE      CODE     ---       #2779
      01002022H   LINE      CODE     ---       #2780
      0100203CH   LINE      CODE     ---       #2781
      01002045H   LINE      CODE     ---       #2782
      01002045H   LINE      CODE     ---       #2784
      01002051H   LINE      CODE     ---       #2786
      01002057H   LINE      CODE     ---       #2787
      0100205EH   LINE      CODE     ---       #2788
      01002068H   LINE      CODE     ---       #2789
      01002070H   LINE      CODE     ---       #2792
      01002079H   LINE      CODE     ---       #2794
      0100207FH   LINE      CODE     ---       #2795
      01002086H   LINE      CODE     ---       #2796
      01002092H   LINE      CODE     ---       #2797
      0100209AH   LINE      CODE     ---       #2798
      0100209CH   LINE      CODE     ---       #2800
      010020A7H   LINE      CODE     ---       #2802
      010020ADH   LINE      CODE     ---       #2803
      010020B4H   LINE      CODE     ---       #2804
      010020C2H   LINE      CODE     ---       #2805
      010020D0H   LINE      CODE     ---       #2806
      010020D0H   LINE      CODE     ---       #2808
      010020D7H   LINE      CODE     ---       #2810
      010020D8H   LINE      CODE     ---       #2812
      010020E6H   LINE      CODE     ---       #2815
      010020E6H   LINE      CODE     ---       #2817
      010020EFH   LINE      CODE     ---       #2819
      010020EFH   LINE      CODE     ---       #2822
      010020EFH   LINE      CODE     ---       #2824
      010020F9H   LINE      CODE     ---       #2826
      01002106H   LINE      CODE     ---       #2827
      01002106H   LINE      CODE     ---       #2829
      01002106H   LINE      CODE     ---       #2832
      01002106H   LINE      CODE     ---       #2834
      0100210FH   LINE      CODE     ---       #2836
      0100210FH   LINE      CODE     ---       #2838
      0100210FH   LINE      CODE     ---       #2842
      0100210FH   LINE      CODE     ---       #2843
      0100210FH   LINE      CODE     ---       #2844
      0100210FH   LINE      CODE     ---       #2845
      0100210FH   LINE      CODE     ---       #2846
      0100210FH   LINE      CODE     ---       #2848
      0100210FH   LINE      CODE     ---       #2850
      0100210FH   LINE      CODE     ---       #2853
      01002112H   LINE      CODE     ---       #2854
      01002114H   LINE      CODE     ---       #2856
      01002116H   LINE      CODE     ---       #2858
      01002116H   LINE      CODE     ---       #2861
      01002119H   LINE      CODE     ---       #2862
      0100211EH   LINE      CODE     ---       #2864
      0100211EH   LINE      CODE     ---       #2866
      0100211EH   LINE      CODE     ---       #2869
      01002121H   LINE      CODE     ---       #2871
      01002121H   LINE      CODE     ---       #2873
      01002121H   LINE      CODE     ---       #2876
      01002124H   LINE      CODE     ---       #2877
      01002127H   LINE      CODE     ---       #2879
      01002127H   LINE      CODE     ---       #2881
      01002127H   LINE      CODE     ---       #2883
LX51 LINKER/LOCATER V4.66.41.0                                                        11/02/2018  15:47:42  PAGE 81


      0100212EH   LINE      CODE     ---       #2885
      01002131H   LINE      CODE     ---       #2886
      01002135H   LINE      CODE     ---       #2888
      01002135H   LINE      CODE     ---       #2889
      01002135H   LINE      CODE     ---       #2891
      01002135H   LINE      CODE     ---       #2892
      01002135H   LINE      CODE     ---       #2893
      ---         BLOCKEND  ---      ---       LVL=0

      ---         MODULE    ---      ---       USRKIN
      0200054AH   PUBLIC    XDATA    WORD      touchPadActCounter
      02000548H   PUBLIC    XDATA    WORD      touchPadContinueCnt
      00000023H.6 PUBLIC    BIT      BIT       ledBackground_method
      0000001EH   PUBLIC    IDATA    BYTE      val_DcodeCfm
      0000001CH   PUBLIC    DATA     WORD      usrKeyCount
      00000023H.5 PUBLIC    BIT      BIT       usrKeyCount_EN
      010063A1H   PUBLIC    CODE     ---       usrKeyFun_zigbNwkRejoin
      01006407H   PUBLIC    CODE     ---       fun_Test
      01005BA4H   PUBLIC    CODE     ---       _touchPad_functionTrigContinue
      01004A73H   PUBLIC    CODE     ---       _touchPad_functionTrigNormal
      010047F4H   PUBLIC    CODE     ---       touchPad_Scan
      00000026H   PUBLIC    DATA     BYTE      ?_UsrKEYScan?BYTE
      010054D5H   PUBLIC    CODE     ---       _UsrKEYScan
      01005ABCH   PUBLIC    CODE     ---       DcodeScan
      01006369H   PUBLIC    CODE     ---       touchPadScan_oneShoot
      01006404H   PUBLIC    CODE     ---       UsrKEYScan_oneShoot
      01005F5AH   PUBLIC    CODE     ---       DcodeScan_oneShoot
      01006303H   PUBLIC    CODE     ---       usrKin_pinInit
      01005F9DH   PUBLIC    CODE     ---       usrZigbNwkOpen
      000000D8H.2 SFRSYM    DATA     BIT       CCF2
      000000E0H.7 SFRSYM    DATA     BIT       ACC7
      00000093H   SFRSYM    DATA     BYTE      P0M1
      00000092H   SFRSYM    DATA     BYTE      P1M0
      00000096H   SFRSYM    DATA     BYTE      P2M0
      00000091H   SFRSYM    DATA     BYTE      P1M1
      00000080H   SFRSYM    DATA     BYTE      P0
      000000B2H   SFRSYM    DATA     BYTE      P3M0
      00000095H   SFRSYM    DATA     BYTE      P2M1
      00000090H   SFRSYM    DATA     BYTE      P1
      000000B4H   SFRSYM    DATA     BYTE      P4M0
      000000B1H   SFRSYM    DATA     BYTE      P3M1
      000000A0H   SFRSYM    DATA     BYTE      P2
      000000CAH   SFRSYM    DATA     BYTE      P5M0
      000000B3H   SFRSYM    DATA     BYTE      P4M1
      000000B0H   SFRSYM    DATA     BYTE      P3
      000000ABH   SFRSYM    DATA     BYTE      WKTCH
      000000B0H.4 SFRSYM    DATA     BIT       T0
      000000D0H.6 SFRSYM    DATA     BIT       AC
      000000CCH   SFRSYM    DATA     BYTE      P6M0
      000000C9H   SFRSYM    DATA     BYTE      P5M1
      000000C0H   SFRSYM    DATA     BYTE      P4
      000000B0H.5 SFRSYM    DATA     BIT       CLKOUT0
      000000B0H.5 SFRSYM    DATA     BIT       T1
      000000E2H   SFRSYM    DATA     BYTE      P7M0
      000000CBH   SFRSYM    DATA     BYTE      P6M1
      000000C8H   SFRSYM    DATA     BYTE      P5
      000000C6H   SFRSYM    DATA     BYTE      ISP_TRIG
      000000A8H.7 SFRSYM    DATA     BIT       EA
      000000B0H.4 SFRSYM    DATA     BIT       CLKOUT1
      000000A0H.4 SFRSYM    DATA     BIT       SPI_SS_2
      000000E8H   SFRSYM    DATA     BYTE      P6
      000000E1H   SFRSYM    DATA     BYTE      P7M1
      000000C8H.4 SFRSYM    DATA     BIT       SPI_SS_3
      00000090H.4 SFRSYM    DATA     BIT       SPI_MISO
      00000090H.3 SFRSYM    DATA     BIT       SPI_MOSI
LX51 LINKER/LOCATER V4.66.41.0                                                        11/02/2018  15:47:42  PAGE 82


      00000090H.1 SFRSYM    DATA     BIT       CCP0
      000000F8H   SFRSYM    DATA     BYTE      P7
      000000AAH   SFRSYM    DATA     BYTE      WKTCL
      00000090H   SFRSYM    DATA     BIT       CCP1
      000000CEH   SFRSYM    DATA     BYTE      SPCTL
      000000D8H.7 SFRSYM    DATA     BIT       CF
      000000B0H.7 SFRSYM    DATA     BIT       CCP2
      000000F9H   SFRSYM    DATA     BYTE      CH
      000000A2H   SFRSYM    DATA     BYTE      P_SW1
      000000BAH   SFRSYM    DATA     BYTE      P_SW2
      000000A8H.5 SFRSYM    DATA     BIT       EADC
      000000A0H.1 SFRSYM    DATA     BIT       SPI_SCLK_2
      000000A8H   SFRSYM    DATA     BYTE      IE
      000000C0H.3 SFRSYM    DATA     BIT       SPI_SCLK_3
      000000E9H   SFRSYM    DATA     BYTE      CL
      000000C5H   SFRSYM    DATA     BYTE      IAP_CMD
      000000FAH   SFRSYM    DATA     BYTE      CCAP0H
      00000090H   SFRSYM    DATA     BIT       Dcode0
      000000FBH   SFRSYM    DATA     BYTE      CCAP1H
      00000090H.1 SFRSYM    DATA     BIT       Dcode1
      000000FCH   SFRSYM    DATA     BYTE      CCAP2H
      00000090H.2 SFRSYM    DATA     BIT       Dcode2
      000000BDH   SFRSYM    DATA     BYTE      ADC_RES
      000000B6H   SFRSYM    DATA     BYTE      IPH2
      00000090H.3 SFRSYM    DATA     BIT       Dcode3
      000000D8H.6 SFRSYM    DATA     BIT       CR
      000000EAH   SFRSYM    DATA     BYTE      CCAP0L
      00000090H.3 SFRSYM    DATA     BIT       Dcode4
      000000B0H.7 SFRSYM    DATA     BIT       RD
      000000EBH   SFRSYM    DATA     BYTE      CCAP1L
      000000DAH   SFRSYM    DATA     BYTE      CCAPM0
      00000090H.4 SFRSYM    DATA     BIT       Dcode5
      000000ECH   SFRSYM    DATA     BYTE      CCAP2L
      000000DBH   SFRSYM    DATA     BYTE      CCAPM1
      000000A8H.4 SFRSYM    DATA     BIT       ES
      000000DCH   SFRSYM    DATA     BYTE      CCAPM2
      000000B8H.5 SFRSYM    DATA     BIT       PADC
      000000A0H.2 SFRSYM    DATA     BIT       SPI_MISO_2
      000000A0H.3 SFRSYM    DATA     BIT       SPI_MOSI_2
      000000B8H   SFRSYM    DATA     BYTE      IP
      000000C0H.1 SFRSYM    DATA     BIT       SPI_MISO_3
      000000C0H   SFRSYM    DATA     BIT       SPI_MOSI_3
      00000098H   SFRSYM    DATA     BIT       RI
      000000B0H.2 SFRSYM    DATA     BIT       INT0
      000000D0H.7 SFRSYM    DATA     BIT       CY
      00000098H.1 SFRSYM    DATA     BIT       TI
      000000B0H.3 SFRSYM    DATA     BIT       INT1
      00000097H   SFRSYM    DATA     BYTE      CLK_DIV
      000000C3H   SFRSYM    DATA     BYTE      IAP_ADDRH
      00000090H   SFRSYM    DATA     BIT       RXD2
      000000C5H   SFRSYM    DATA     BYTE      ISP_CMD
      000000B8H.4 SFRSYM    DATA     BIT       PS
      00000090H.1 SFRSYM    DATA     BIT       TXD2
      00000081H   SFRSYM    DATA     BYTE      SP
      000000D9H   SFRSYM    DATA     BYTE      CMOD
      000000D8H   SFRSYM    DATA     BYTE      CCON
      000000C4H   SFRSYM    DATA     BYTE      IAP_ADDRL
      000000B8H.7 SFRSYM    DATA     BIT       PPCA
      000000D0H.2 SFRSYM    DATA     BIT       OV
      000000B0H.6 SFRSYM    DATA     BIT       WR
      000000A8H.6 SFRSYM    DATA     BIT       ELVD
      00000080H   SFRSYM    DATA     BIT       P00
      00000090H   SFRSYM    DATA     BIT       P10
      00000080H.1 SFRSYM    DATA     BIT       P01
      000000BCH   SFRSYM    DATA     BYTE      ADC_CONTR
LX51 LINKER/LOCATER V4.66.41.0                                                        11/02/2018  15:47:42  PAGE 83


      00000099H   SFRSYM    DATA     BYTE      SBUF
      00000087H   SFRSYM    DATA     BYTE      PCON
      000000A0H   SFRSYM    DATA     BIT       P20
      00000090H.1 SFRSYM    DATA     BIT       P11
      00000080H.2 SFRSYM    DATA     BIT       P02
      000000C3H   SFRSYM    DATA     BYTE      ISP_ADDRH
      000000B0H   SFRSYM    DATA     BIT       P30
      000000A0H.1 SFRSYM    DATA     BIT       P21
      00000090H.2 SFRSYM    DATA     BIT       P12
      00000080H.3 SFRSYM    DATA     BIT       P03
      000000C0H   SFRSYM    DATA     BIT       P40
      000000B0H.1 SFRSYM    DATA     BIT       P31
      000000A0H.2 SFRSYM    DATA     BIT       P22
      00000090H.3 SFRSYM    DATA     BIT       P13
      00000080H.4 SFRSYM    DATA     BIT       P04
      00000098H   SFRSYM    DATA     BYTE      SCON
      0000008FH   SFRSYM    DATA     BYTE      WAKE_CLKO
      000000C8H   SFRSYM    DATA     BIT       P50
      000000C0H.1 SFRSYM    DATA     BIT       P41
      000000B0H.2 SFRSYM    DATA     BIT       P32
      000000A0H.3 SFRSYM    DATA     BIT       P23
      00000090H.4 SFRSYM    DATA     BIT       P14
      00000080H.5 SFRSYM    DATA     BIT       P05
      00000089H   SFRSYM    DATA     BYTE      TMOD
      00000088H   SFRSYM    DATA     BYTE      TCON
      000000C8H.1 SFRSYM    DATA     BIT       P51
      000000C0H.2 SFRSYM    DATA     BIT       P42
      000000B0H.3 SFRSYM    DATA     BIT       P33
      000000A0H.4 SFRSYM    DATA     BIT       P24
      00000090H.5 SFRSYM    DATA     BIT       P15
      00000080H.6 SFRSYM    DATA     BIT       P06
      000000C4H   SFRSYM    DATA     BYTE      ISP_ADDRL
      000000B8H.6 SFRSYM    DATA     BIT       PLVD
      000000C8H.2 SFRSYM    DATA     BIT       P52
      000000C0H.3 SFRSYM    DATA     BIT       P43
      000000B0H.4 SFRSYM    DATA     BIT       P34
      000000A0H.5 SFRSYM    DATA     BIT       P25
      00000090H.6 SFRSYM    DATA     BIT       P16
      00000080H.7 SFRSYM    DATA     BIT       P07
      000000C8H.3 SFRSYM    DATA     BIT       P53
      000000C0H.4 SFRSYM    DATA     BIT       P44
      000000B0H.5 SFRSYM    DATA     BIT       P35
      000000A0H.6 SFRSYM    DATA     BIT       P26
      00000090H.7 SFRSYM    DATA     BIT       P17
      000000C8H.4 SFRSYM    DATA     BIT       P54
      000000C0H.5 SFRSYM    DATA     BIT       P45
      000000B0H.6 SFRSYM    DATA     BIT       P36
      000000A0H.7 SFRSYM    DATA     BIT       P27
      000000C8H.5 SFRSYM    DATA     BIT       P55
      000000C0H.6 SFRSYM    DATA     BIT       P46
      000000B0H.7 SFRSYM    DATA     BIT       P37
      000000C8H.6 SFRSYM    DATA     BIT       P56
      000000C0H.7 SFRSYM    DATA     BIT       P47
      000000C8H.7 SFRSYM    DATA     BIT       P57
      00000088H.1 SFRSYM    DATA     BIT       IE0
      000000A1H   SFRSYM    DATA     BYTE      BUS_SPEED
      00000088H.3 SFRSYM    DATA     BIT       IE1
      000000AFH   SFRSYM    DATA     BYTE      IE2
      000000F0H   SFRSYM    DATA     BYTE      B
      0000008EH   SFRSYM    DATA     BYTE      AUXR
      000000C7H   SFRSYM    DATA     BYTE      IAP_CONTR
      000000E0H   SFRSYM    DATA     BYTE      ACC
      000000A8H.1 SFRSYM    DATA     BIT       ET0
      000000A8H.3 SFRSYM    DATA     BIT       ET1
      00000088H.5 SFRSYM    DATA     BIT       TF0
LX51 LINKER/LOCATER V4.66.41.0                                                        11/02/2018  15:47:42  PAGE 84


      00000088H.7 SFRSYM    DATA     BIT       TF1
      000000B5H   SFRSYM    DATA     BYTE      IP2
      0000008CH   SFRSYM    DATA     BYTE      RL_TH0
      00000098H.2 SFRSYM    DATA     BIT       RB8
      0000008DH   SFRSYM    DATA     BYTE      RL_TH1
      0000008CH   SFRSYM    DATA     BYTE      TH0
      000000A8H   SFRSYM    DATA     BIT       EX0
      00000088H   SFRSYM    DATA     BIT       IT0
      000000D6H   SFRSYM    DATA     BYTE      RL_T2H
      0000008DH   SFRSYM    DATA     BYTE      TH1
      00000090H.6 SFRSYM    DATA     BIT       touchPad_1
      000000A8H.2 SFRSYM    DATA     BIT       EX1
      00000098H.3 SFRSYM    DATA     BIT       TB8
      00000088H.2 SFRSYM    DATA     BIT       IT1
      000000D4H   SFRSYM    DATA     BYTE      RL_T3H
      000000D6H   SFRSYM    DATA     BYTE      TH2
      000000D6H   SFRSYM    DATA     BYTE      T2H
      00000090H.7 SFRSYM    DATA     BIT       touchPad_2
      000000D0H   SFRSYM    DATA     BIT       P
      000000D2H   SFRSYM    DATA     BYTE      RL_T4H
      000000D4H   SFRSYM    DATA     BYTE      TH3
      000000D4H   SFRSYM    DATA     BYTE      T3H
      0000008AH   SFRSYM    DATA     BYTE      RL_TL0
      00000090H.5 SFRSYM    DATA     BIT       touchPad_3
      00000098H.7 SFRSYM    DATA     BIT       SM0
      000000D2H   SFRSYM    DATA     BYTE      TH4
      000000D2H   SFRSYM    DATA     BYTE      T4H
      0000008BH   SFRSYM    DATA     BYTE      RL_TL1
      0000008AH   SFRSYM    DATA     BYTE      TL0
      00000098H.6 SFRSYM    DATA     BIT       SM1
      000000D7H   SFRSYM    DATA     BYTE      RL_T2L
      0000008BH   SFRSYM    DATA     BYTE      TL1
      00000098H.5 SFRSYM    DATA     BIT       SM2
      000000D5H   SFRSYM    DATA     BYTE      RL_T3L
      000000D7H   SFRSYM    DATA     BYTE      TL2
      000000D7H   SFRSYM    DATA     BYTE      T2L
      000000D3H   SFRSYM    DATA     BYTE      RL_T4L
      000000D5H   SFRSYM    DATA     BYTE      TL3
      000000D5H   SFRSYM    DATA     BYTE      T3L
      000000B8H.1 SFRSYM    DATA     BIT       PT0
      000000D3H   SFRSYM    DATA     BYTE      TL4
      000000D3H   SFRSYM    DATA     BYTE      T4L
      000000B8H.3 SFRSYM    DATA     BIT       PT1
      000000D0H.3 SFRSYM    DATA     BIT       RS0
      000000C7H   SFRSYM    DATA     BYTE      ISP_CONTR
      00000088H.4 SFRSYM    DATA     BIT       TR0
      000000D0H.4 SFRSYM    DATA     BIT       RS1
      000000C2H   SFRSYM    DATA     BYTE      IAP_DATA
      00000088H.6 SFRSYM    DATA     BIT       TR1
      000000B8H   SFRSYM    DATA     BIT       PX0
      000000C1H   SFRSYM    DATA     BYTE      WDT_CONTR
      000000B8H.2 SFRSYM    DATA     BIT       PX1
      000000F2H   SFRSYM    DATA     BYTE      PCA_PWM0
      000000F3H   SFRSYM    DATA     BYTE      PCA_PWM1
      000000F4H   SFRSYM    DATA     BYTE      PCA_PWM2
      0000009DH   SFRSYM    DATA     BYTE      P1ASF
      00000083H   SFRSYM    DATA     BYTE      DPH
      000000D1H   SFRSYM    DATA     BYTE      T4T3M
      000000BEH   SFRSYM    DATA     BYTE      ADC_RESL
      00000082H   SFRSYM    DATA     BYTE      DPL
      000000CDH   SFRSYM    DATA     BYTE      SPSTAT
      000000B7H   SFRSYM    DATA     BYTE      IPH
      0000009BH   SFRSYM    DATA     BYTE      S2BUF
      00000097H   SFRSYM    DATA     BYTE      PCON2
      000000ADH   SFRSYM    DATA     BYTE      S3BUF
LX51 LINKER/LOCATER V4.66.41.0                                                        11/02/2018  15:47:42  PAGE 85


      00000098H.4 SFRSYM    DATA     BIT       REN
      00000085H   SFRSYM    DATA     BYTE      S4BUF
      00000080H.2 SFRSYM    DATA     BIT       Usr_key
      0000009AH   SFRSYM    DATA     BYTE      S2CON
      000000ACH   SFRSYM    DATA     BYTE      S3CON
      000000C2H   SFRSYM    DATA     BYTE      ISP_DATA
      00000084H   SFRSYM    DATA     BYTE      S4CON
      000000B9H   SFRSYM    DATA     BYTE      SADEN
      000000B0H   SFRSYM    DATA     BIT       RXD
      000000A9H   SFRSYM    DATA     BYTE      SADDR
      000000B0H.1 SFRSYM    DATA     BIT       TXD
      000000F0H   SFRSYM    DATA     BIT       B0
      000000F0H.1 SFRSYM    DATA     BIT       B1
      000000C6H   SFRSYM    DATA     BYTE      IAP_TRIG
      000000A2H   SFRSYM    DATA     BYTE      AUXR1
      000000F0H.2 SFRSYM    DATA     BIT       B2
      00000090H.2 SFRSYM    DATA     BIT       SPI_SS
      0000008FH   SFRSYM    DATA     BYTE      AUXR2
      000000F0H.3 SFRSYM    DATA     BIT       B3
      000000F0H.4 SFRSYM    DATA     BIT       B4
      000000D0H.5 SFRSYM    DATA     BIT       F0
      000000F0H.5 SFRSYM    DATA     BIT       B5
      000000D0H.1 SFRSYM    DATA     BIT       F1
      0000008FH   SFRSYM    DATA     BYTE      INT_CLKO
      000000F0H.6 SFRSYM    DATA     BIT       B6
      000000E0H   SFRSYM    DATA     BIT       ACC0
      000000F0H.7 SFRSYM    DATA     BIT       B7
      000000E0H.1 SFRSYM    DATA     BIT       ACC1
      000000E0H.2 SFRSYM    DATA     BIT       ACC2
      000000E0H.3 SFRSYM    DATA     BIT       ACC3
      000000D0H   SFRSYM    DATA     BYTE      PSW
      000000E0H.4 SFRSYM    DATA     BIT       ACC4
      00000090H.5 SFRSYM    DATA     BIT       SPI_SCLK
      000000D8H   SFRSYM    DATA     BIT       CCF0
      000000E0H.5 SFRSYM    DATA     BIT       ACC5
      000000D8H.1 SFRSYM    DATA     BIT       CCF1
      000000E0H.6 SFRSYM    DATA     BIT       ACC6
      000000CFH   SFRSYM    DATA     BYTE      SPDAT
      00000094H   SFRSYM    DATA     BYTE      P0M0
      01004A73H   SYMBOL    CODE     ---       _touchPad_functionTrigNormal
      01005BA4H   SYMBOL    CODE     ---       _touchPad_functionTrigContinue

      01005F9DH   BLOCK     CODE     ---       LVL=0
      01005F9DH   LINE      CODE     ---       #98
      01005F9DH   LINE      CODE     ---       #100
      01005FA5H   LINE      CODE     ---       #101
      01005FAAH   LINE      CODE     ---       #103
      01005FAAH   LINE      CODE     ---       #104
      01005FB9H   LINE      CODE     ---       #105
      01005FD1H   LINE      CODE     ---       #106
      ---         BLOCKEND  ---      ---       LVL=0

      01006303H   BLOCK     CODE     ---       LVL=0
      01006303H   LINE      CODE     ---       #111
      01006303H   LINE      CODE     ---       #113
      01006306H   LINE      CODE     ---       #114
      01006309H   LINE      CODE     ---       #116
      0100630CH   LINE      CODE     ---       #117
      0100630FH   LINE      CODE     ---       #119
      01006318H   LINE      CODE     ---       #120
      ---         BLOCKEND  ---      ---       LVL=0

      01005F5AH   BLOCK     CODE     ---       LVL=0
      01005F5AH   BLOCK     CODE     NEAR LAB  LVL=1
      00000007H   SYMBOL    DATA     BYTE      val_Dcode
LX51 LINKER/LOCATER V4.66.41.0                                                        11/02/2018  15:47:42  PAGE 86


      ---         BLOCKEND  ---      ---       LVL=1
      01005F5AH   LINE      CODE     ---       #122
      01005F5AH   LINE      CODE     ---       #124
      01005F5CH   LINE      CODE     ---       #126
      01005F62H   LINE      CODE     ---       #127
      01005F65H   LINE      CODE     ---       #129
      01005F6DH   LINE      CODE     ---       #130
      01005F70H   LINE      CODE     ---       #132
      01005F78H   LINE      CODE     ---       #133
      01005F7BH   LINE      CODE     ---       #135
      01005F83H   LINE      CODE     ---       #136
      01005F86H   LINE      CODE     ---       #138
      01005F8EH   LINE      CODE     ---       #139
      01005F91H   LINE      CODE     ---       #141
      01005F99H   LINE      CODE     ---       #142
      01005F9CH   LINE      CODE     ---       #144
      01005F9CH   LINE      CODE     ---       #145
      ---         BLOCKEND  ---      ---       LVL=0

      01006404H   BLOCK     CODE     ---       LVL=0
      01006404H   LINE      CODE     ---       #147
      01006404H   LINE      CODE     ---       #149
      01006406H   LINE      CODE     ---       #150
      ---         BLOCKEND  ---      ---       LVL=0

      01006369H   BLOCK     CODE     ---       LVL=0
      01006369H   BLOCK     CODE     NEAR LAB  LVL=1
      00000007H   SYMBOL    DATA     BYTE      valKey_Temp
      ---         BLOCKEND  ---      ---       LVL=1
      01006369H   LINE      CODE     ---       #152
      01006369H   LINE      CODE     ---       #154
      0100636BH   LINE      CODE     ---       #156
      0100636FH   LINE      CODE     ---       #157
      01006375H   LINE      CODE     ---       #158
      0100637BH   LINE      CODE     ---       #160
      0100637BH   LINE      CODE     ---       #161
      ---         BLOCKEND  ---      ---       LVL=0

      01005ABCH   BLOCK     CODE     ---       LVL=0
      01005ABCH   BLOCK     CODE     NEAR LAB  LVL=1
      00000018H   SYMBOL    DATA     BYTE      val_Dcode_Local
      00000019H   SYMBOL    DATA     BYTE      comfirm_Cnt
      00000026H   SYMBOL    DATA     BYTE      comfirm_Period
      00000027H   SYMBOL    DATA     BYTE      val_Dcode_differ
      00000020H.0 SYMBOL    BIT      BIT       val_CHG
      ---         BLOCKEND  ---      ---       LVL=1
      01005ABCH   LINE      CODE     ---       #163
      01005ABCH   LINE      CODE     ---       #167
      01005ABFH   LINE      CODE     ---       #169
      01005AC2H   LINE      CODE     ---       #171
      01005AC4H   LINE      CODE     ---       #173
      01005ACBH   LINE      CODE     ---       #175
      01005AD0H   LINE      CODE     ---       #177
      01005AD8H   LINE      CODE     ---       #179
      01005AE3H   LINE      CODE     ---       #180
      01005AE3H   LINE      CODE     ---       #182
      01005AE6H   LINE      CODE     ---       #183
      01005AE8H   LINE      CODE     ---       #184
      01005AE8H   LINE      CODE     ---       #185
      01005AE8H   LINE      CODE     ---       #187
      01005AEBH   LINE      CODE     ---       #189
      01005AEDH   LINE      CODE     ---       #191
      01005AF2H   LINE      CODE     ---       #192
      01005AF4H   LINE      CODE     ---       #194
      01005AF4H   LINE      CODE     ---       #196
LX51 LINKER/LOCATER V4.66.41.0                                                        11/02/2018  15:47:42  PAGE 87


      01005AF4H   LINE      CODE     ---       #199
      01005AF4H   LINE      CODE     ---       #202
      01005AF4H   LINE      CODE     ---       #203
      01005AF4H   LINE      CODE     ---       #205
      01005AF4H   LINE      CODE     ---       #207
      01005AF4H   LINE      CODE     ---       #210
      01005AF4H   LINE      CODE     ---       #213
      01005AF4H   LINE      CODE     ---       #214
      01005AF4H   LINE      CODE     ---       #216
      01005AF9H   LINE      CODE     ---       #218
      01005B01H   LINE      CODE     ---       #220
      01005B04H   LINE      CODE     ---       #222
      01005B06H   LINE      CODE     ---       #224
      01005B09H   LINE      CODE     ---       #225
      01005B09H   LINE      CODE     ---       #226
      01005B09H   LINE      CODE     ---       #228
      01005B0FH   LINE      CODE     ---       #230
      01005B23H   LINE      CODE     ---       #232
      01005B23H   LINE      CODE     ---       #234
      01005B23H   LINE      CODE     ---       #236
      01005B25H   LINE      CODE     ---       #238
      01005B25H   LINE      CODE     ---       #240
      01005B28H   LINE      CODE     ---       #242
      01005B29H   LINE      CODE     ---       #244
      01005B29H   LINE      CODE     ---       #246
      01005B2CH   LINE      CODE     ---       #248
      01005B2DH   LINE      CODE     ---       #250
      01005B30H   LINE      CODE     ---       #254
      01005B30H   LINE      CODE     ---       #256
      01005B30H   LINE      CODE     ---       #257
      01005B30H   LINE      CODE     ---       #258
      01005B30H   LINE      CODE     ---       #259
      01005B30H   LINE      CODE     ---       #260
      ---         BLOCKEND  ---      ---       LVL=0

      010054D5H   BLOCK     CODE     ---       LVL=0
      00000026H   SYMBOL    DATA     ---       funCB_Short
      00000029H   SYMBOL    DATA     ---       funCB_LongA
      0000002CH   SYMBOL    DATA     ---       funCB_LongB
      010054DBH   BLOCK     CODE     NEAR LAB  LVL=1
      01005218H   SYMBOL    CODE     WORD      keyCfrmLoop_Short
      0100521AH   SYMBOL    CODE     WORD      keyCfrmLoop_LongA
      0100521CH   SYMBOL    CODE     WORD      keyCfrmLoop_LongB
      0100521EH   SYMBOL    CODE     WORD      keyCfrmLoop_MAX
      00000022H.7 SYMBOL    BIT      BIT       LongA_FLG
      00000023H.0 SYMBOL    BIT      BIT       LongB_FLG
      00000023H.1 SYMBOL    BIT      BIT       keyPress_FLG
      ---         BLOCKEND  ---      ---       LVL=1
      010054D5H   LINE      CODE     ---       #262
      010054DBH   LINE      CODE     ---       #274
      010054E0H   LINE      CODE     ---       #276
      010054E2H   LINE      CODE     ---       #280
      010054E7H   LINE      CODE     ---       #282
      01005508H   LINE      CODE     ---       #284
      0100550FH   LINE      CODE     ---       #286
      01005511H   LINE      CODE     ---       #287
      01005511H   LINE      CODE     ---       #289
      01005532H   LINE      CODE     ---       #291
      01005539H   LINE      CODE     ---       #293
      0100553BH   LINE      CODE     ---       #294
      0100553BH   LINE      CODE     ---       #296
      0100553CH   LINE      CODE     ---       #298
      0100553EH   LINE      CODE     ---       #300
      01005541H   LINE      CODE     ---       #302
      01005543H   LINE      CODE     ---       #304
LX51 LINKER/LOCATER V4.66.41.0                                                        11/02/2018  15:47:42  PAGE 88


      01005560H   LINE      CODE     ---       #311
      01005567H   LINE      CODE     ---       #312
      01005567H   LINE      CODE     ---       #314
      0100556CH   LINE      CODE     ---       #315
      0100556EH   LINE      CODE     ---       #316
      01005570H   LINE      CODE     ---       #317
      01005570H   LINE      CODE     ---       #318
      01005570H   LINE      CODE     ---       #319
      ---         BLOCKEND  ---      ---       LVL=0

      010047F4H   BLOCK     CODE     ---       LVL=0
      010047F4H   BLOCK     CODE     NEAR LAB  LVL=1
      0000001AH   SYMBOL    DATA     BYTE      touchPad_temp
      00000023H.2 SYMBOL    BIT      BIT       keyPress_FLG
      00000023H.3 SYMBOL    BIT      BIT       funTrigFLG_LongA
      00000023H.4 SYMBOL    BIT      BIT       funTrigFLG_LongB
      01005220H   SYMBOL    CODE     WORD      touchCfrmLoop_Short
      01005222H   SYMBOL    CODE     WORD      touchCfrmLoop_LongA
      01005224H   SYMBOL    CODE     WORD      touchCfrmLoop_LongB
      01005226H   SYMBOL    CODE     WORD      touchCfrmLoop_MAX
      0000001BH   SYMBOL    DATA     BYTE      pressContinueGet
      00000026H   SYMBOL    DATA     BYTE      pressContinueCfm
      00000027H   SYMBOL    DATA     WORD      conterTemp
      ---         BLOCKEND  ---      ---       LVL=1
      010047F4H   LINE      CODE     ---       #321
      010047F4H   LINE      CODE     ---       #335
      010047F7H   LINE      CODE     ---       #337
      010047FBH   LINE      CODE     ---       #339
      01004804H   LINE      CODE     ---       #341
      01004807H   LINE      CODE     ---       #343
      01004809H   LINE      CODE     ---       #344
      0100481AH   LINE      CODE     ---       #345
      01004824H   LINE      CODE     ---       #346
      01004829H   LINE      CODE     ---       #347
      0100482AH   LINE      CODE     ---       #348
      0100482AH   LINE      CODE     ---       #350
      01004835H   LINE      CODE     ---       #352
      0100484CH   LINE      CODE     ---       #360
      0100486AH   LINE      CODE     ---       #362
      0100486DH   LINE      CODE     ---       #364
      0100486FH   LINE      CODE     ---       #365
      01004876H   LINE      CODE     ---       #366
      01004876H   LINE      CODE     ---       #367
      01004876H   LINE      CODE     ---       #368
      0100489AH   LINE      CODE     ---       #370
      010048A0H   LINE      CODE     ---       #372
      010048A2H   LINE      CODE     ---       #373
      010048A9H   LINE      CODE     ---       #374
      010048A9H   LINE      CODE     ---       #375
      010048A9H   LINE      CODE     ---       #376
      010048A9H   LINE      CODE     ---       #377
      010048A9H   LINE      CODE     ---       #378
      010048A9H   LINE      CODE     ---       #380
      010048ACH   LINE      CODE     ---       #382
      010048C3H   LINE      CODE     ---       #383
      010048E1H   LINE      CODE     ---       #385
      010048EDH   LINE      CODE     ---       #386
      010048F8H   LINE      CODE     ---       #387
      010048FFH   LINE      CODE     ---       #388
      01004908H   LINE      CODE     ---       #389
      01004908H   LINE      CODE     ---       #390
      01004908H   LINE      CODE     ---       #392
      01004916H   LINE      CODE     ---       #394
      01004918H   LINE      CODE     ---       #395
      0100491BH   LINE      CODE     ---       #397
LX51 LINKER/LOCATER V4.66.41.0                                                        11/02/2018  15:47:42  PAGE 89


      01004922H   LINE      CODE     ---       #406
      01004929H   LINE      CODE     ---       #407
      0100492CH   LINE      CODE     ---       #408
      0100492CH   LINE      CODE     ---       #410
      0100492FH   LINE      CODE     ---       #411
      0100492FH   LINE      CODE     ---       #413
      01004931H   LINE      CODE     ---       #414
      01004933H   LINE      CODE     ---       #416
      0100493AH   LINE      CODE     ---       #417
      0100493CH   LINE      CODE     ---       #418
      0100493CH   LINE      CODE     ---       #419
      ---         BLOCKEND  ---      ---       LVL=0

      01004A73H   BLOCK     CODE     ---       LVL=0
      00000029H   SYMBOL    DATA     BYTE      statusPad
      00000005H   SYMBOL    DATA     BYTE      statusCfm
      01004A73H   LINE      CODE     ---       #421
      01004A75H   LINE      CODE     ---       #423
      01004A8DH   LINE      CODE     ---       #425
      01004A8DH   LINE      CODE     ---       #428
      01004A8DH   LINE      CODE     ---       #429
      01004A9CH   LINE      CODE     ---       #430
      01004AB4H   LINE      CODE     ---       #431
      01004ABDH   LINE      CODE     ---       #432
      01004ABDH   LINE      CODE     ---       #434
      01004ACEH   LINE      CODE     ---       #436
      01004ACEH   LINE      CODE     ---       #437
      01004ACEH   LINE      CODE     ---       #438
      01004ACEH   LINE      CODE     ---       #440
      01004AD4H   LINE      CODE     ---       #441
      01004ADAH   LINE      CODE     ---       #442
      01004ADEH   LINE      CODE     ---       #443
      01004AE5H   LINE      CODE     ---       #445
      01004AE6H   LINE      CODE     ---       #447
      01004AE6H   LINE      CODE     ---       #448
      01004AE6H   LINE      CODE     ---       #450
      01004AE6H   LINE      CODE     ---       #452
      01004AE6H   LINE      CODE     ---       #455
      01004AE6H   LINE      CODE     ---       #456
      01004AF5H   LINE      CODE     ---       #457
      01004B0DH   LINE      CODE     ---       #458
      01004B16H   LINE      CODE     ---       #459
      01004B16H   LINE      CODE     ---       #462
      01004B24H   LINE      CODE     ---       #464
      01004B24H   LINE      CODE     ---       #465
      01004B24H   LINE      CODE     ---       #466
      01004B24H   LINE      CODE     ---       #468
      01004B2AH   LINE      CODE     ---       #469
      01004B30H   LINE      CODE     ---       #471
      01004B31H   LINE      CODE     ---       #473
      01004B31H   LINE      CODE     ---       #474
      01004B31H   LINE      CODE     ---       #476
      01004B31H   LINE      CODE     ---       #478
      01004B31H   LINE      CODE     ---       #481
      01004B31H   LINE      CODE     ---       #482
      01004B40H   LINE      CODE     ---       #483
      01004B58H   LINE      CODE     ---       #484
      01004B61H   LINE      CODE     ---       #485
      01004B61H   LINE      CODE     ---       #488
      01004B69H   LINE      CODE     ---       #490
      01004B69H   LINE      CODE     ---       #493
      01004B69H   LINE      CODE     ---       #495
      01004B69H   LINE      CODE     ---       #497
      01004B69H   LINE      CODE     ---       #499
      01004B6EH   LINE      CODE     ---       #501
LX51 LINKER/LOCATER V4.66.41.0                                                        11/02/2018  15:47:42  PAGE 90


      01004B6EH   LINE      CODE     ---       #503
      01004B6EH   LINE      CODE     ---       #504
      01004B6EH   LINE      CODE     ---       #506
      01004B6EH   LINE      CODE     ---       #508
      01004B6EH   LINE      CODE     ---       #511
      01004B6EH   LINE      CODE     ---       #512
      01004B7DH   LINE      CODE     ---       #513
      01004B95H   LINE      CODE     ---       #514
      01004B9EH   LINE      CODE     ---       #515
      01004B9EH   LINE      CODE     ---       #518
      01004B9EH   LINE      CODE     ---       #520
      01004B9EH   LINE      CODE     ---       #522
      01004B9EH   LINE      CODE     ---       #524
      01004B9EH   LINE      CODE     ---       #526
      01004B9EH   LINE      CODE     ---       #527
      01004B9EH   LINE      CODE     ---       #529
      01004B9EH   LINE      CODE     ---       #531
      01004B9EH   LINE      CODE     ---       #532
      01004B9EH   LINE      CODE     ---       #533
      ---         BLOCKEND  ---      ---       LVL=0

      01005BA4H   BLOCK     CODE     ---       LVL=0
      00000029H   SYMBOL    DATA     BYTE      statusPad
      0000002AH   SYMBOL    DATA     BYTE      loopCount
      01005BA4H   LINE      CODE     ---       #535
      01005BA8H   LINE      CODE     ---       #537
      01005BAEH   LINE      CODE     ---       #538
      01005BB5H   LINE      CODE     ---       #541
      01005BB5H   LINE      CODE     ---       #542
      01005BC4H   LINE      CODE     ---       #543
      01005BE2H   LINE      CODE     ---       #544
      01005BEBH   LINE      CODE     ---       #545
      01005BEBH   LINE      CODE     ---       #548
      01005BF9H   LINE      CODE     ---       #550
      01005BF9H   LINE      CODE     ---       #552
      01005BFFH   LINE      CODE     ---       #554
      01005BFFH   LINE      CODE     ---       #556
      01005BFFH   LINE      CODE     ---       #558
      01005BFFH   LINE      CODE     ---       #560
      01005C02H   LINE      CODE     ---       #562
      01005C02H   LINE      CODE     ---       #564
      01005C02H   LINE      CODE     ---       #565
      01005C02H   LINE      CODE     ---       #567
      01005C02H   LINE      CODE     ---       #569
      01005C02H   LINE      CODE     ---       #571
      01005C03H   LINE      CODE     ---       #573
      01005C03H   LINE      CODE     ---       #575
      01005C03H   LINE      CODE     ---       #576
      01005C03H   LINE      CODE     ---       #578
      01005C03H   LINE      CODE     ---       #580
      01005C03H   LINE      CODE     ---       #582
      01005C09H   LINE      CODE     ---       #584
      01005C09H   LINE      CODE     ---       #586
      01005C09H   LINE      CODE     ---       #588
      01005C0CH   LINE      CODE     ---       #590
      01005C0CH   LINE      CODE     ---       #592
      01005C0CH   LINE      CODE     ---       #593
      01005C0CH   LINE      CODE     ---       #595
      01005C0CH   LINE      CODE     ---       #597
      01005C0CH   LINE      CODE     ---       #598
      01005C0CH   LINE      CODE     ---       #599
      ---         BLOCKEND  ---      ---       LVL=0

      01006407H   BLOCK     CODE     ---       LVL=0
      01006407H   LINE      CODE     ---       #601
LX51 LINKER/LOCATER V4.66.41.0                                                        11/02/2018  15:47:42  PAGE 91


      01006407H   LINE      CODE     ---       #604
      ---         BLOCKEND  ---      ---       LVL=0

      010063A1H   BLOCK     CODE     ---       LVL=0
      010063A1H   LINE      CODE     ---       #606
      010063A1H   LINE      CODE     ---       #608
      010063A7H   LINE      CODE     ---       #609
      010063AEH   LINE      CODE     ---       #611
      ---         BLOCKEND  ---      ---       LVL=0

      ---         MODULE    ---      ---       RELAY
      02000547H   PUBLIC    XDATA    BYTE      relayStatus_ifSave
      02000545H   PUBLIC    XDATA    ---       devActionPush_IF
      00000025H.2 PUBLIC    BIT      BIT       EACHCTRL_reportFLG
      02000544H   PUBLIC    XDATA    BYTE      status_Relay
      02000543H   PUBLIC    XDATA    BYTE      EACHCTRL_realesFLG
      02000541H   PUBLIC    XDATA    ---       swCommand_fromUsr
      0100619BH   PUBLIC    CODE     ---       thread_Relay
      00000026H   PUBLIC    DATA     BYTE      ?relay_Act?BYTE
      01005077H   PUBLIC    CODE     ---       relay_Act
      01005E7FH   PUBLIC    CODE     ---       relay_pinInit
      010060CCH   PUBLIC    CODE     ---       relay_statusReales
      000000D8H.2 SFRSYM    DATA     BIT       CCF2
      000000E0H.7 SFRSYM    DATA     BIT       ACC7
      00000093H   SFRSYM    DATA     BYTE      P0M1
      00000092H   SFRSYM    DATA     BYTE      P1M0
      00000096H   SFRSYM    DATA     BYTE      P2M0
      00000091H   SFRSYM    DATA     BYTE      P1M1
      00000080H   SFRSYM    DATA     BYTE      P0
      000000B2H   SFRSYM    DATA     BYTE      P3M0
      00000095H   SFRSYM    DATA     BYTE      P2M1
      00000090H   SFRSYM    DATA     BYTE      P1
      000000B4H   SFRSYM    DATA     BYTE      P4M0
      000000B1H   SFRSYM    DATA     BYTE      P3M1
      000000A0H   SFRSYM    DATA     BYTE      P2
      000000CAH   SFRSYM    DATA     BYTE      P5M0
      000000B3H   SFRSYM    DATA     BYTE      P4M1
      000000B0H   SFRSYM    DATA     BYTE      P3
      000000ABH   SFRSYM    DATA     BYTE      WKTCH
      000000B0H.4 SFRSYM    DATA     BIT       T0
      000000D0H.6 SFRSYM    DATA     BIT       AC
      000000CCH   SFRSYM    DATA     BYTE      P6M0
      000000C9H   SFRSYM    DATA     BYTE      P5M1
      000000C0H   SFRSYM    DATA     BYTE      P4
      000000B0H.5 SFRSYM    DATA     BIT       CLKOUT0
      000000B0H.5 SFRSYM    DATA     BIT       T1
      000000E2H   SFRSYM    DATA     BYTE      P7M0
      000000CBH   SFRSYM    DATA     BYTE      P6M1
      000000C8H   SFRSYM    DATA     BYTE      P5
      000000C6H   SFRSYM    DATA     BYTE      ISP_TRIG
      000000A8H.7 SFRSYM    DATA     BIT       EA
      000000B0H.4 SFRSYM    DATA     BIT       CLKOUT1
      000000A0H.4 SFRSYM    DATA     BIT       SPI_SS_2
      000000E8H   SFRSYM    DATA     BYTE      P6
      000000E1H   SFRSYM    DATA     BYTE      P7M1
      000000C8H.4 SFRSYM    DATA     BIT       SPI_SS_3
      00000090H.4 SFRSYM    DATA     BIT       SPI_MISO
      00000090H.3 SFRSYM    DATA     BIT       SPI_MOSI
      00000090H.1 SFRSYM    DATA     BIT       CCP0
      000000F8H   SFRSYM    DATA     BYTE      P7
      000000AAH   SFRSYM    DATA     BYTE      WKTCL
      00000090H   SFRSYM    DATA     BIT       CCP1
      000000CEH   SFRSYM    DATA     BYTE      SPCTL
      000000D8H.7 SFRSYM    DATA     BIT       CF
      000000B0H.7 SFRSYM    DATA     BIT       CCP2
LX51 LINKER/LOCATER V4.66.41.0                                                        11/02/2018  15:47:42  PAGE 92


      000000F9H   SFRSYM    DATA     BYTE      CH
      000000A2H   SFRSYM    DATA     BYTE      P_SW1
      000000BAH   SFRSYM    DATA     BYTE      P_SW2
      000000A8H.5 SFRSYM    DATA     BIT       EADC
      000000A0H.1 SFRSYM    DATA     BIT       SPI_SCLK_2
      000000A8H   SFRSYM    DATA     BYTE      IE
      000000C0H.3 SFRSYM    DATA     BIT       SPI_SCLK_3
      000000E9H   SFRSYM    DATA     BYTE      CL
      000000C5H   SFRSYM    DATA     BYTE      IAP_CMD
      000000FAH   SFRSYM    DATA     BYTE      CCAP0H
      000000FBH   SFRSYM    DATA     BYTE      CCAP1H
      000000FCH   SFRSYM    DATA     BYTE      CCAP2H
      000000BDH   SFRSYM    DATA     BYTE      ADC_RES
      000000B6H   SFRSYM    DATA     BYTE      IPH2
      000000D8H.6 SFRSYM    DATA     BIT       CR
      000000EAH   SFRSYM    DATA     BYTE      CCAP0L
      000000B0H.7 SFRSYM    DATA     BIT       RD
      000000EBH   SFRSYM    DATA     BYTE      CCAP1L
      000000DAH   SFRSYM    DATA     BYTE      CCAPM0
      000000ECH   SFRSYM    DATA     BYTE      CCAP2L
      000000DBH   SFRSYM    DATA     BYTE      CCAPM1
      000000A8H.4 SFRSYM    DATA     BIT       ES
      000000DCH   SFRSYM    DATA     BYTE      CCAPM2
      000000B8H.5 SFRSYM    DATA     BIT       PADC
      000000A0H.2 SFRSYM    DATA     BIT       SPI_MISO_2
      000000A0H.3 SFRSYM    DATA     BIT       SPI_MOSI_2
      000000B8H   SFRSYM    DATA     BYTE      IP
      000000C0H.1 SFRSYM    DATA     BIT       SPI_MISO_3
      000000C0H   SFRSYM    DATA     BIT       SPI_MOSI_3
      00000098H   SFRSYM    DATA     BIT       RI
      000000B0H.2 SFRSYM    DATA     BIT       INT0
      000000D0H.7 SFRSYM    DATA     BIT       CY
      00000098H.1 SFRSYM    DATA     BIT       TI
      000000B0H.3 SFRSYM    DATA     BIT       INT1
      00000097H   SFRSYM    DATA     BYTE      CLK_DIV
      000000C3H   SFRSYM    DATA     BYTE      IAP_ADDRH
      00000090H   SFRSYM    DATA     BIT       RXD2
      000000C5H   SFRSYM    DATA     BYTE      ISP_CMD
      000000B8H.4 SFRSYM    DATA     BIT       PS
      00000090H.1 SFRSYM    DATA     BIT       TXD2
      00000081H   SFRSYM    DATA     BYTE      SP
      000000D9H   SFRSYM    DATA     BYTE      CMOD
      000000D8H   SFRSYM    DATA     BYTE      CCON
      000000C4H   SFRSYM    DATA     BYTE      IAP_ADDRL
      000000B8H.7 SFRSYM    DATA     BIT       PPCA
      000000D0H.2 SFRSYM    DATA     BIT       OV
      000000B0H.6 SFRSYM    DATA     BIT       WR
      000000A8H.6 SFRSYM    DATA     BIT       ELVD
      00000080H   SFRSYM    DATA     BIT       P00
      00000090H   SFRSYM    DATA     BIT       P10
      00000080H.1 SFRSYM    DATA     BIT       P01
      000000BCH   SFRSYM    DATA     BYTE      ADC_CONTR
      00000099H   SFRSYM    DATA     BYTE      SBUF
      00000087H   SFRSYM    DATA     BYTE      PCON
      000000A0H   SFRSYM    DATA     BIT       P20
      00000090H.1 SFRSYM    DATA     BIT       P11
      00000080H.2 SFRSYM    DATA     BIT       P02
      000000C3H   SFRSYM    DATA     BYTE      ISP_ADDRH
      000000B0H   SFRSYM    DATA     BIT       P30
      000000A0H.1 SFRSYM    DATA     BIT       P21
      00000090H.2 SFRSYM    DATA     BIT       P12
      00000080H.3 SFRSYM    DATA     BIT       P03
      000000C0H   SFRSYM    DATA     BIT       P40
      000000B0H.1 SFRSYM    DATA     BIT       P31
      000000A0H.2 SFRSYM    DATA     BIT       P22
LX51 LINKER/LOCATER V4.66.41.0                                                        11/02/2018  15:47:42  PAGE 93


      00000090H.3 SFRSYM    DATA     BIT       P13
      00000080H.4 SFRSYM    DATA     BIT       P04
      00000098H   SFRSYM    DATA     BYTE      SCON
      0000008FH   SFRSYM    DATA     BYTE      WAKE_CLKO
      000000C8H   SFRSYM    DATA     BIT       P50
      000000C0H.1 SFRSYM    DATA     BIT       P41
      000000B0H.2 SFRSYM    DATA     BIT       P32
      000000A0H.3 SFRSYM    DATA     BIT       P23
      00000090H.4 SFRSYM    DATA     BIT       P14
      00000080H.5 SFRSYM    DATA     BIT       P05
      00000089H   SFRSYM    DATA     BYTE      TMOD
      00000088H   SFRSYM    DATA     BYTE      TCON
      000000C8H.1 SFRSYM    DATA     BIT       P51
      000000C0H.2 SFRSYM    DATA     BIT       P42
      000000B0H.3 SFRSYM    DATA     BIT       P33
      000000A0H.4 SFRSYM    DATA     BIT       P24
      00000090H.5 SFRSYM    DATA     BIT       P15
      00000080H.6 SFRSYM    DATA     BIT       P06
      000000C4H   SFRSYM    DATA     BYTE      ISP_ADDRL
      000000B8H.6 SFRSYM    DATA     BIT       PLVD
      000000C8H.2 SFRSYM    DATA     BIT       P52
      000000C0H.3 SFRSYM    DATA     BIT       P43
      000000B0H.4 SFRSYM    DATA     BIT       P34
      000000A0H.5 SFRSYM    DATA     BIT       P25
      00000090H.6 SFRSYM    DATA     BIT       P16
      00000080H.7 SFRSYM    DATA     BIT       P07
      000000C8H.3 SFRSYM    DATA     BIT       P53
      000000C0H.4 SFRSYM    DATA     BIT       P44
      000000B0H.5 SFRSYM    DATA     BIT       P35
      000000A0H.6 SFRSYM    DATA     BIT       P26
      00000090H.7 SFRSYM    DATA     BIT       P17
      000000C8H.4 SFRSYM    DATA     BIT       P54
      000000C0H.5 SFRSYM    DATA     BIT       P45
      000000B0H.6 SFRSYM    DATA     BIT       P36
      000000A0H.7 SFRSYM    DATA     BIT       P27
      000000C8H.5 SFRSYM    DATA     BIT       P55
      000000C0H.6 SFRSYM    DATA     BIT       P46
      000000B0H.7 SFRSYM    DATA     BIT       P37
      000000C8H.6 SFRSYM    DATA     BIT       P56
      000000C0H.7 SFRSYM    DATA     BIT       P47
      000000C8H.7 SFRSYM    DATA     BIT       P57
      00000088H.1 SFRSYM    DATA     BIT       IE0
      000000A1H   SFRSYM    DATA     BYTE      BUS_SPEED
      00000088H.3 SFRSYM    DATA     BIT       IE1
      000000AFH   SFRSYM    DATA     BYTE      IE2
      000000F0H   SFRSYM    DATA     BYTE      B
      0000008EH   SFRSYM    DATA     BYTE      AUXR
      000000C7H   SFRSYM    DATA     BYTE      IAP_CONTR
      000000E0H   SFRSYM    DATA     BYTE      ACC
      000000A8H.1 SFRSYM    DATA     BIT       ET0
      000000A8H.3 SFRSYM    DATA     BIT       ET1
      00000088H.5 SFRSYM    DATA     BIT       TF0
      00000088H.7 SFRSYM    DATA     BIT       TF1
      000000B5H   SFRSYM    DATA     BYTE      IP2
      0000008CH   SFRSYM    DATA     BYTE      RL_TH0
      00000098H.2 SFRSYM    DATA     BIT       RB8
      0000008DH   SFRSYM    DATA     BYTE      RL_TH1
      0000008CH   SFRSYM    DATA     BYTE      TH0
      000000A8H   SFRSYM    DATA     BIT       EX0
      00000088H   SFRSYM    DATA     BIT       IT0
      000000D6H   SFRSYM    DATA     BYTE      RL_T2H
      0000008DH   SFRSYM    DATA     BYTE      TH1
      000000A8H.2 SFRSYM    DATA     BIT       EX1
      00000098H.3 SFRSYM    DATA     BIT       TB8
      00000088H.2 SFRSYM    DATA     BIT       IT1
LX51 LINKER/LOCATER V4.66.41.0                                                        11/02/2018  15:47:42  PAGE 94


      000000D4H   SFRSYM    DATA     BYTE      RL_T3H
      000000D6H   SFRSYM    DATA     BYTE      TH2
      000000D6H   SFRSYM    DATA     BYTE      T2H
      000000D0H   SFRSYM    DATA     BIT       P
      000000D2H   SFRSYM    DATA     BYTE      RL_T4H
      000000D4H   SFRSYM    DATA     BYTE      TH3
      000000D4H   SFRSYM    DATA     BYTE      T3H
      0000008AH   SFRSYM    DATA     BYTE      RL_TL0
      00000098H.7 SFRSYM    DATA     BIT       SM0
      000000D2H   SFRSYM    DATA     BYTE      TH4
      000000D2H   SFRSYM    DATA     BYTE      T4H
      0000008BH   SFRSYM    DATA     BYTE      RL_TL1
      0000008AH   SFRSYM    DATA     BYTE      TL0
      00000098H.6 SFRSYM    DATA     BIT       SM1
      000000D7H   SFRSYM    DATA     BYTE      RL_T2L
      0000008BH   SFRSYM    DATA     BYTE      TL1
      00000098H.5 SFRSYM    DATA     BIT       SM2
      000000D5H   SFRSYM    DATA     BYTE      RL_T3L
      000000D7H   SFRSYM    DATA     BYTE      TL2
      000000D7H   SFRSYM    DATA     BYTE      T2L
      000000D3H   SFRSYM    DATA     BYTE      RL_T4L
      000000D5H   SFRSYM    DATA     BYTE      TL3
      000000D5H   SFRSYM    DATA     BYTE      T3L
      000000B8H.1 SFRSYM    DATA     BIT       PT0
      000000D3H   SFRSYM    DATA     BYTE      TL4
      000000D3H   SFRSYM    DATA     BYTE      T4L
      000000B8H.3 SFRSYM    DATA     BIT       PT1
      000000D0H.3 SFRSYM    DATA     BIT       RS0
      000000C7H   SFRSYM    DATA     BYTE      ISP_CONTR
      00000088H.4 SFRSYM    DATA     BIT       TR0
      000000D0H.4 SFRSYM    DATA     BIT       RS1
      000000C2H   SFRSYM    DATA     BYTE      IAP_DATA
      00000088H.6 SFRSYM    DATA     BIT       TR1
      000000B8H   SFRSYM    DATA     BIT       PX0
      000000C1H   SFRSYM    DATA     BYTE      WDT_CONTR
      000000B8H.2 SFRSYM    DATA     BIT       PX1
      000000F2H   SFRSYM    DATA     BYTE      PCA_PWM0
      000000F3H   SFRSYM    DATA     BYTE      PCA_PWM1
      000000F4H   SFRSYM    DATA     BYTE      PCA_PWM2
      0000009DH   SFRSYM    DATA     BYTE      P1ASF
      00000083H   SFRSYM    DATA     BYTE      DPH
      000000D1H   SFRSYM    DATA     BYTE      T4T3M
      000000BEH   SFRSYM    DATA     BYTE      ADC_RESL
      00000082H   SFRSYM    DATA     BYTE      DPL
      000000CDH   SFRSYM    DATA     BYTE      SPSTAT
      000000B7H   SFRSYM    DATA     BYTE      IPH
      0000009BH   SFRSYM    DATA     BYTE      S2BUF
      00000097H   SFRSYM    DATA     BYTE      PCON2
      000000ADH   SFRSYM    DATA     BYTE      S3BUF
      00000098H.4 SFRSYM    DATA     BIT       REN
      00000085H   SFRSYM    DATA     BYTE      S4BUF
      0000009AH   SFRSYM    DATA     BYTE      S2CON
      000000ACH   SFRSYM    DATA     BYTE      S3CON
      000000C2H   SFRSYM    DATA     BYTE      ISP_DATA
      00000084H   SFRSYM    DATA     BYTE      S4CON
      000000B9H   SFRSYM    DATA     BYTE      SADEN
      000000B0H   SFRSYM    DATA     BIT       RXD
      000000A9H   SFRSYM    DATA     BYTE      SADDR
      000000B0H.1 SFRSYM    DATA     BIT       TXD
      000000F0H   SFRSYM    DATA     BIT       B0
      000000F0H.1 SFRSYM    DATA     BIT       B1
      000000C6H   SFRSYM    DATA     BYTE      IAP_TRIG
      000000A2H   SFRSYM    DATA     BYTE      AUXR1
      000000F0H.2 SFRSYM    DATA     BIT       B2
      00000090H.2 SFRSYM    DATA     BIT       SPI_SS
LX51 LINKER/LOCATER V4.66.41.0                                                        11/02/2018  15:47:42  PAGE 95


      0000008FH   SFRSYM    DATA     BYTE      AUXR2
      000000F0H.3 SFRSYM    DATA     BIT       B3
      000000F0H.4 SFRSYM    DATA     BIT       B4
      000000D0H.5 SFRSYM    DATA     BIT       F0
      000000F0H.5 SFRSYM    DATA     BIT       B5
      000000D0H.1 SFRSYM    DATA     BIT       F1
      0000008FH   SFRSYM    DATA     BYTE      INT_CLKO
      000000F0H.6 SFRSYM    DATA     BIT       B6
      000000E0H   SFRSYM    DATA     BIT       ACC0
      000000F0H.7 SFRSYM    DATA     BIT       B7
      000000E0H.1 SFRSYM    DATA     BIT       ACC1
      000000E0H.2 SFRSYM    DATA     BIT       ACC2
      000000E0H.3 SFRSYM    DATA     BIT       ACC3
      000000D0H   SFRSYM    DATA     BYTE      PSW
      000000E0H.4 SFRSYM    DATA     BIT       ACC4
      00000090H.5 SFRSYM    DATA     BIT       SPI_SCLK
      000000D8H   SFRSYM    DATA     BIT       CCF0
      000000E0H.5 SFRSYM    DATA     BIT       ACC5
      000000D8H.1 SFRSYM    DATA     BIT       CCF1
      000000E0H.6 SFRSYM    DATA     BIT       ACC6
      000000CFH   SFRSYM    DATA     BYTE      SPDAT
      00000094H   SFRSYM    DATA     BYTE      P0M0

      010060CCH   BLOCK     CODE     ---       LVL=0
      010060CCH   LINE      CODE     ---       #22
      010060CCH   LINE      CODE     ---       #24
      010060DEH   LINE      CODE     ---       #25
      010060F0H   LINE      CODE     ---       #26
      01006102H   LINE      CODE     ---       #28
      ---         BLOCKEND  ---      ---       LVL=0

      01005E7FH   BLOCK     CODE     ---       LVL=0
      01005E7FH   BLOCK     CODE     NEAR LAB  LVL=1
      00000082H   SYMBOL    IDATA    BYTE      statusTemp
      ---         BLOCKEND  ---      ---       LVL=1
      01005E7FH   LINE      CODE     ---       #32
      01005E7FH   LINE      CODE     ---       #34
      01005E83H   LINE      CODE     ---       #37
      01005E86H   LINE      CODE     ---       #38
      01005E89H   LINE      CODE     ---       #40
      01005E8FH   LINE      CODE     ---       #42
      01005E96H   LINE      CODE     ---       #44
      01005EA9H   LINE      CODE     ---       #45
      01005EB0H   LINE      CODE     ---       #46
      01005EB0H   LINE      CODE     ---       #48
      01005EB2H   LINE      CODE     ---       #50
      01005EB6H   LINE      CODE     ---       #51
      01005EC6H   LINE      CODE     ---       #52
      01005EC9H   LINE      CODE     ---       #53
      01005EC9H   LINE      CODE     ---       #54
      ---         BLOCKEND  ---      ---       LVL=0

      01005077H   BLOCK     CODE     ---       LVL=0
      00000026H   SYMBOL    DATA     ---       dats
      01005077H   BLOCK     CODE     NEAR LAB  LVL=1
      00000028H   SYMBOL    DATA     BYTE      statusTemp
      ---         BLOCKEND  ---      ---       LVL=1
      01005077H   LINE      CODE     ---       #57
      01005077H   LINE      CODE     ---       #59
      0100507AH   LINE      CODE     ---       #61
      01005081H   LINE      CODE     ---       #63
      0100508AH   LINE      CODE     ---       #65
      0100508AH   LINE      CODE     ---       #67
      01005096H   LINE      CODE     ---       #68
      010050A2H   LINE      CODE     ---       #69
LX51 LINKER/LOCATER V4.66.41.0                                                        11/02/2018  15:47:42  PAGE 96


      010050AEH   LINE      CODE     ---       #71
      010050B0H   LINE      CODE     ---       #73
      010050B0H   LINE      CODE     ---       #75
      010050C2H   LINE      CODE     ---       #76
      010050D4H   LINE      CODE     ---       #77
      010050E6H   LINE      CODE     ---       #79
      010050E6H   LINE      CODE     ---       #81
      010050E6H   LINE      CODE     ---       #83
      010050E9H   LINE      CODE     ---       #85
      010050EEH   LINE      CODE     ---       #86
      010050F9H   LINE      CODE     ---       #87
      0100510AH   LINE      CODE     ---       #88
      01005122H   LINE      CODE     ---       #89
      01005134H   LINE      CODE     ---       #91
      01005141H   LINE      CODE     ---       #93
      01005148H   LINE      CODE     ---       #95
      0100514AH   LINE      CODE     ---       #96
      0100515DH   LINE      CODE     ---       #97
      0100515DH   LINE      CODE     ---       #98
      ---         BLOCKEND  ---      ---       LVL=0

      0100619BH   BLOCK     CODE     ---       LVL=0
      0100619BH   LINE      CODE     ---       #101
      0100619BH   LINE      CODE     ---       #103
      010061A3H   LINE      CODE     ---       #105
      010061B9H   LINE      CODE     ---       #107
      010061BFH   LINE      CODE     ---       #108
      010061C4H   LINE      CODE     ---       #109
      010061C4H   LINE      CODE     ---       #110
      ---         BLOCKEND  ---      ---       LVL=0

      ---         MODULE    ---      ---       TIMERACT
      00000081H   PUBLIC    IDATA    BYTE      delayPeriod_onoff
      00000080H   PUBLIC    IDATA    BYTE      delayUp_act
      0000007FH   PUBLIC    IDATA    BYTE      ifDelay_sw_running_FLAG
      0000007EH   PUBLIC    IDATA    BYTE      swTim_onShoot_FLAG
      0000007CH   PUBLIC    IDATA    WORD      sysTimeKeep_counter
      0000007AH   PUBLIC    IDATA    WORD      delayCnt_closeLoop
      02000540H   PUBLIC    XDATA    BYTE      sysTimeZone_M
      0200053FH   PUBLIC    XDATA    BYTE      sysTimeZone_H
      0200053EH   PUBLIC    XDATA    BYTE      sysTimeReales_counter
      00000078H   PUBLIC    IDATA    WORD      delayCnt_onoff
      00000024H.6 PUBLIC    BIT      BIT       ifTim_sw_running_FLAG
      02000537H   PUBLIC    XDATA    ---       systemTime_current
      00000077H   PUBLIC    IDATA    BYTE      delayPeriod_closeLoop
      00000024H.5 PUBLIC    BIT      BIT       ifNightMode_sw_running_FLAG
      01002AD5H   PUBLIC    CODE     ---       thread_Timing
      00000027H   PUBLIC    DATA     BYTE      ?time_Logout?BYTE
      0100560BH   PUBLIC    CODE     ---       time_Logout
      010061C5H   PUBLIC    CODE     ---       _weekend_judge
      01004E9BH   PUBLIC    CODE     ---       _datsTimNight_read_eeprom
      01004DACH   PUBLIC    CODE     ---       _datsTiming_read_eeprom
      01006216H   PUBLIC    CODE     ---       timeZone_Reales
      000000D8H.2 SFRSYM    DATA     BIT       CCF2
      000000E0H.7 SFRSYM    DATA     BIT       ACC7
      00000093H   SFRSYM    DATA     BYTE      P0M1
      00000092H   SFRSYM    DATA     BYTE      P1M0
      00000096H   SFRSYM    DATA     BYTE      P2M0
      00000091H   SFRSYM    DATA     BYTE      P1M1
      00000080H   SFRSYM    DATA     BYTE      P0
      000000B2H   SFRSYM    DATA     BYTE      P3M0
      00000095H   SFRSYM    DATA     BYTE      P2M1
      00000090H   SFRSYM    DATA     BYTE      P1
      000000B4H   SFRSYM    DATA     BYTE      P4M0
      000000B1H   SFRSYM    DATA     BYTE      P3M1
LX51 LINKER/LOCATER V4.66.41.0                                                        11/02/2018  15:47:42  PAGE 97


      000000A0H   SFRSYM    DATA     BYTE      P2
      000000CAH   SFRSYM    DATA     BYTE      P5M0
      000000B3H   SFRSYM    DATA     BYTE      P4M1
      000000B0H   SFRSYM    DATA     BYTE      P3
      000000ABH   SFRSYM    DATA     BYTE      WKTCH
      000000B0H.4 SFRSYM    DATA     BIT       T0
      000000D0H.6 SFRSYM    DATA     BIT       AC
      000000CCH   SFRSYM    DATA     BYTE      P6M0
      000000C9H   SFRSYM    DATA     BYTE      P5M1
      000000C0H   SFRSYM    DATA     BYTE      P4
      000000B0H.5 SFRSYM    DATA     BIT       CLKOUT0
      000000B0H.5 SFRSYM    DATA     BIT       T1
      000000E2H   SFRSYM    DATA     BYTE      P7M0
      000000CBH   SFRSYM    DATA     BYTE      P6M1
      000000C8H   SFRSYM    DATA     BYTE      P5
      000000C6H   SFRSYM    DATA     BYTE      ISP_TRIG
      000000A8H.7 SFRSYM    DATA     BIT       EA
      000000B0H.4 SFRSYM    DATA     BIT       CLKOUT1
      000000A0H.4 SFRSYM    DATA     BIT       SPI_SS_2
      000000E8H   SFRSYM    DATA     BYTE      P6
      000000E1H   SFRSYM    DATA     BYTE      P7M1
      000000C8H.4 SFRSYM    DATA     BIT       SPI_SS_3
      00000090H.4 SFRSYM    DATA     BIT       SPI_MISO
      00000090H.3 SFRSYM    DATA     BIT       SPI_MOSI
      00000090H.1 SFRSYM    DATA     BIT       CCP0
      000000F8H   SFRSYM    DATA     BYTE      P7
      000000AAH   SFRSYM    DATA     BYTE      WKTCL
      00000090H   SFRSYM    DATA     BIT       CCP1
      000000CEH   SFRSYM    DATA     BYTE      SPCTL
      000000D8H.7 SFRSYM    DATA     BIT       CF
      000000B0H.7 SFRSYM    DATA     BIT       CCP2
      000000F9H   SFRSYM    DATA     BYTE      CH
      000000A2H   SFRSYM    DATA     BYTE      P_SW1
      000000BAH   SFRSYM    DATA     BYTE      P_SW2
      000000A8H.5 SFRSYM    DATA     BIT       EADC
      000000A0H.1 SFRSYM    DATA     BIT       SPI_SCLK_2
      000000A8H   SFRSYM    DATA     BYTE      IE
      000000C0H.3 SFRSYM    DATA     BIT       SPI_SCLK_3
      000000E9H   SFRSYM    DATA     BYTE      CL
      000000C5H   SFRSYM    DATA     BYTE      IAP_CMD
      000000FAH   SFRSYM    DATA     BYTE      CCAP0H
      000000FBH   SFRSYM    DATA     BYTE      CCAP1H
      000000FCH   SFRSYM    DATA     BYTE      CCAP2H
      000000BDH   SFRSYM    DATA     BYTE      ADC_RES
      000000B6H   SFRSYM    DATA     BYTE      IPH2
      000000D8H.6 SFRSYM    DATA     BIT       CR
      000000EAH   SFRSYM    DATA     BYTE      CCAP0L
      000000B0H.7 SFRSYM    DATA     BIT       RD
      000000EBH   SFRSYM    DATA     BYTE      CCAP1L
      000000DAH   SFRSYM    DATA     BYTE      CCAPM0
      000000ECH   SFRSYM    DATA     BYTE      CCAP2L
      000000DBH   SFRSYM    DATA     BYTE      CCAPM1
      000000A8H.4 SFRSYM    DATA     BIT       ES
      000000DCH   SFRSYM    DATA     BYTE      CCAPM2
      000000B8H.5 SFRSYM    DATA     BIT       PADC
      000000A0H.2 SFRSYM    DATA     BIT       SPI_MISO_2
      000000A0H.3 SFRSYM    DATA     BIT       SPI_MOSI_2
      000000B8H   SFRSYM    DATA     BYTE      IP
      000000C0H.1 SFRSYM    DATA     BIT       SPI_MISO_3
      000000C0H   SFRSYM    DATA     BIT       SPI_MOSI_3
      00000098H   SFRSYM    DATA     BIT       RI
      000000B0H.2 SFRSYM    DATA     BIT       INT0
      000000D0H.7 SFRSYM    DATA     BIT       CY
      00000098H.1 SFRSYM    DATA     BIT       TI
      000000B0H.3 SFRSYM    DATA     BIT       INT1
LX51 LINKER/LOCATER V4.66.41.0                                                        11/02/2018  15:47:42  PAGE 98


      00000097H   SFRSYM    DATA     BYTE      CLK_DIV
      000000C3H   SFRSYM    DATA     BYTE      IAP_ADDRH
      00000090H   SFRSYM    DATA     BIT       RXD2
      000000C5H   SFRSYM    DATA     BYTE      ISP_CMD
      000000B8H.4 SFRSYM    DATA     BIT       PS
      00000090H.1 SFRSYM    DATA     BIT       TXD2
      00000081H   SFRSYM    DATA     BYTE      SP
      000000D9H   SFRSYM    DATA     BYTE      CMOD
      000000D8H   SFRSYM    DATA     BYTE      CCON
      000000C4H   SFRSYM    DATA     BYTE      IAP_ADDRL
      000000B8H.7 SFRSYM    DATA     BIT       PPCA
      000000D0H.2 SFRSYM    DATA     BIT       OV
      000000B0H.6 SFRSYM    DATA     BIT       WR
      000000A8H.6 SFRSYM    DATA     BIT       ELVD
      00000080H   SFRSYM    DATA     BIT       P00
      00000090H   SFRSYM    DATA     BIT       P10
      00000080H.1 SFRSYM    DATA     BIT       P01
      000000BCH   SFRSYM    DATA     BYTE      ADC_CONTR
      00000099H   SFRSYM    DATA     BYTE      SBUF
      00000087H   SFRSYM    DATA     BYTE      PCON
      000000A0H   SFRSYM    DATA     BIT       P20
      00000090H.1 SFRSYM    DATA     BIT       P11
      00000080H.2 SFRSYM    DATA     BIT       P02
      000000C3H   SFRSYM    DATA     BYTE      ISP_ADDRH
      000000B0H   SFRSYM    DATA     BIT       P30
      000000A0H.1 SFRSYM    DATA     BIT       P21
      00000090H.2 SFRSYM    DATA     BIT       P12
      00000080H.3 SFRSYM    DATA     BIT       P03
      000000C0H   SFRSYM    DATA     BIT       P40
      000000B0H.1 SFRSYM    DATA     BIT       P31
      000000A0H.2 SFRSYM    DATA     BIT       P22
      00000090H.3 SFRSYM    DATA     BIT       P13
      00000080H.4 SFRSYM    DATA     BIT       P04
      00000098H   SFRSYM    DATA     BYTE      SCON
      0000008FH   SFRSYM    DATA     BYTE      WAKE_CLKO
      000000C8H   SFRSYM    DATA     BIT       P50
      000000C0H.1 SFRSYM    DATA     BIT       P41
      000000B0H.2 SFRSYM    DATA     BIT       P32
      000000A0H.3 SFRSYM    DATA     BIT       P23
      00000090H.4 SFRSYM    DATA     BIT       P14
      00000080H.5 SFRSYM    DATA     BIT       P05
      00000089H   SFRSYM    DATA     BYTE      TMOD
      00000088H   SFRSYM    DATA     BYTE      TCON
      000000C8H.1 SFRSYM    DATA     BIT       P51
      000000C0H.2 SFRSYM    DATA     BIT       P42
      000000B0H.3 SFRSYM    DATA     BIT       P33
      000000A0H.4 SFRSYM    DATA     BIT       P24
      00000090H.5 SFRSYM    DATA     BIT       P15
      00000080H.6 SFRSYM    DATA     BIT       P06
      000000C4H   SFRSYM    DATA     BYTE      ISP_ADDRL
      000000B8H.6 SFRSYM    DATA     BIT       PLVD
      000000C8H.2 SFRSYM    DATA     BIT       P52
      000000C0H.3 SFRSYM    DATA     BIT       P43
      000000B0H.4 SFRSYM    DATA     BIT       P34
      000000A0H.5 SFRSYM    DATA     BIT       P25
      00000090H.6 SFRSYM    DATA     BIT       P16
      00000080H.7 SFRSYM    DATA     BIT       P07
      000000C8H.3 SFRSYM    DATA     BIT       P53
      000000C0H.4 SFRSYM    DATA     BIT       P44
      000000B0H.5 SFRSYM    DATA     BIT       P35
      000000A0H.6 SFRSYM    DATA     BIT       P26
      00000090H.7 SFRSYM    DATA     BIT       P17
      000000C8H.4 SFRSYM    DATA     BIT       P54
      000000C0H.5 SFRSYM    DATA     BIT       P45
      000000B0H.6 SFRSYM    DATA     BIT       P36
LX51 LINKER/LOCATER V4.66.41.0                                                        11/02/2018  15:47:42  PAGE 99


      000000A0H.7 SFRSYM    DATA     BIT       P27
      000000C8H.5 SFRSYM    DATA     BIT       P55
      000000C0H.6 SFRSYM    DATA     BIT       P46
      000000B0H.7 SFRSYM    DATA     BIT       P37
      000000C8H.6 SFRSYM    DATA     BIT       P56
      000000C0H.7 SFRSYM    DATA     BIT       P47
      000000C8H.7 SFRSYM    DATA     BIT       P57
      00000088H.1 SFRSYM    DATA     BIT       IE0
      000000A1H   SFRSYM    DATA     BYTE      BUS_SPEED
      00000088H.3 SFRSYM    DATA     BIT       IE1
      000000AFH   SFRSYM    DATA     BYTE      IE2
      000000F0H   SFRSYM    DATA     BYTE      B
      0000008EH   SFRSYM    DATA     BYTE      AUXR
      000000C7H   SFRSYM    DATA     BYTE      IAP_CONTR
      000000E0H   SFRSYM    DATA     BYTE      ACC
      000000A8H.1 SFRSYM    DATA     BIT       ET0
      000000A8H.3 SFRSYM    DATA     BIT       ET1
      00000088H.5 SFRSYM    DATA     BIT       TF0
      00000088H.7 SFRSYM    DATA     BIT       TF1
      000000B5H   SFRSYM    DATA     BYTE      IP2
      0000008CH   SFRSYM    DATA     BYTE      RL_TH0
      00000098H.2 SFRSYM    DATA     BIT       RB8
      0000008DH   SFRSYM    DATA     BYTE      RL_TH1
      0000008CH   SFRSYM    DATA     BYTE      TH0
      000000A8H   SFRSYM    DATA     BIT       EX0
      00000088H   SFRSYM    DATA     BIT       IT0
      000000D6H   SFRSYM    DATA     BYTE      RL_T2H
      0000008DH   SFRSYM    DATA     BYTE      TH1
      000000A8H.2 SFRSYM    DATA     BIT       EX1
      00000098H.3 SFRSYM    DATA     BIT       TB8
      00000088H.2 SFRSYM    DATA     BIT       IT1
      000000D4H   SFRSYM    DATA     BYTE      RL_T3H
      000000D6H   SFRSYM    DATA     BYTE      TH2
      000000D6H   SFRSYM    DATA     BYTE      T2H
      000000D0H   SFRSYM    DATA     BIT       P
      000000D2H   SFRSYM    DATA     BYTE      RL_T4H
      000000D4H   SFRSYM    DATA     BYTE      TH3
      000000D4H   SFRSYM    DATA     BYTE      T3H
      0000008AH   SFRSYM    DATA     BYTE      RL_TL0
      00000098H.7 SFRSYM    DATA     BIT       SM0
      000000D2H   SFRSYM    DATA     BYTE      TH4
      000000D2H   SFRSYM    DATA     BYTE      T4H
      0000008BH   SFRSYM    DATA     BYTE      RL_TL1
      0000008AH   SFRSYM    DATA     BYTE      TL0
      00000098H.6 SFRSYM    DATA     BIT       SM1
      000000D7H   SFRSYM    DATA     BYTE      RL_T2L
      0000008BH   SFRSYM    DATA     BYTE      TL1
      00000098H.5 SFRSYM    DATA     BIT       SM2
      000000D5H   SFRSYM    DATA     BYTE      RL_T3L
      000000D7H   SFRSYM    DATA     BYTE      TL2
      000000D7H   SFRSYM    DATA     BYTE      T2L
      000000D3H   SFRSYM    DATA     BYTE      RL_T4L
      000000D5H   SFRSYM    DATA     BYTE      TL3
      000000D5H   SFRSYM    DATA     BYTE      T3L
      000000B8H.1 SFRSYM    DATA     BIT       PT0
      000000D3H   SFRSYM    DATA     BYTE      TL4
      000000D3H   SFRSYM    DATA     BYTE      T4L
      000000B8H.3 SFRSYM    DATA     BIT       PT1
      000000D0H.3 SFRSYM    DATA     BIT       RS0
      000000C7H   SFRSYM    DATA     BYTE      ISP_CONTR
      00000088H.4 SFRSYM    DATA     BIT       TR0
      000000D0H.4 SFRSYM    DATA     BIT       RS1
      000000C2H   SFRSYM    DATA     BYTE      IAP_DATA
      00000088H.6 SFRSYM    DATA     BIT       TR1
      000000B8H   SFRSYM    DATA     BIT       PX0
LX51 LINKER/LOCATER V4.66.41.0                                                        11/02/2018  15:47:42  PAGE 100


      000000C1H   SFRSYM    DATA     BYTE      WDT_CONTR
      000000B8H.2 SFRSYM    DATA     BIT       PX1
      000000F2H   SFRSYM    DATA     BYTE      PCA_PWM0
      000000F3H   SFRSYM    DATA     BYTE      PCA_PWM1
      000000F4H   SFRSYM    DATA     BYTE      PCA_PWM2
      0000009DH   SFRSYM    DATA     BYTE      P1ASF
      00000083H   SFRSYM    DATA     BYTE      DPH
      000000D1H   SFRSYM    DATA     BYTE      T4T3M
      000000BEH   SFRSYM    DATA     BYTE      ADC_RESL
      00000082H   SFRSYM    DATA     BYTE      DPL
      000000CDH   SFRSYM    DATA     BYTE      SPSTAT
      000000B7H   SFRSYM    DATA     BYTE      IPH
      0000009BH   SFRSYM    DATA     BYTE      S2BUF
      00000097H   SFRSYM    DATA     BYTE      PCON2
      000000ADH   SFRSYM    DATA     BYTE      S3BUF
      00000098H.4 SFRSYM    DATA     BIT       REN
      00000085H   SFRSYM    DATA     BYTE      S4BUF
      0000009AH   SFRSYM    DATA     BYTE      S2CON
      000000ACH   SFRSYM    DATA     BYTE      S3CON
      000000C2H   SFRSYM    DATA     BYTE      ISP_DATA
      00000084H   SFRSYM    DATA     BYTE      S4CON
      000000B9H   SFRSYM    DATA     BYTE      SADEN
      000000B0H   SFRSYM    DATA     BIT       RXD
      000000A9H   SFRSYM    DATA     BYTE      SADDR
      000000B0H.1 SFRSYM    DATA     BIT       TXD
      000000F0H   SFRSYM    DATA     BIT       B0
      000000F0H.1 SFRSYM    DATA     BIT       B1
      000000C6H   SFRSYM    DATA     BYTE      IAP_TRIG
      000000A2H   SFRSYM    DATA     BYTE      AUXR1
      000000F0H.2 SFRSYM    DATA     BIT       B2
      00000090H.2 SFRSYM    DATA     BIT       SPI_SS
      0000008FH   SFRSYM    DATA     BYTE      AUXR2
      000000F0H.3 SFRSYM    DATA     BIT       B3
      000000F0H.4 SFRSYM    DATA     BIT       B4
      000000D0H.5 SFRSYM    DATA     BIT       F0
      000000F0H.5 SFRSYM    DATA     BIT       B5
      000000D0H.1 SFRSYM    DATA     BIT       F1
      0000008FH   SFRSYM    DATA     BYTE      INT_CLKO
      000000F0H.6 SFRSYM    DATA     BIT       B6
      000000E0H   SFRSYM    DATA     BIT       ACC0
      000000F0H.7 SFRSYM    DATA     BIT       B7
      000000E0H.1 SFRSYM    DATA     BIT       ACC1
      000000E0H.2 SFRSYM    DATA     BIT       ACC2
      000000E0H.3 SFRSYM    DATA     BIT       ACC3
      000000D0H   SFRSYM    DATA     BYTE      PSW
      000000E0H.4 SFRSYM    DATA     BIT       ACC4
      00000090H.5 SFRSYM    DATA     BIT       SPI_SCLK
      000000D8H   SFRSYM    DATA     BIT       CCF0
      000000E0H.5 SFRSYM    DATA     BIT       ACC5
      000000D8H.1 SFRSYM    DATA     BIT       CCF1
      000000E0H.6 SFRSYM    DATA     BIT       ACC6
      000000CFH   SFRSYM    DATA     BYTE      SPDAT
      00000094H   SFRSYM    DATA     BYTE      P0M0
      01004D1CH   SYMBOL    CODE     ---       _?ix1000
      01004D34H   SYMBOL    CODE     ---       _?ix1001
      01004D3AH   SYMBOL    CODE     ---       _?ix1002
      01004D8AH   SYMBOL    CODE     ---       _?ix1003
      01004DA2H   SYMBOL    CODE     ---       _?ix1004

      01006216H   BLOCK     CODE     ---       LVL=0
      01006216H   LINE      CODE     ---       #33
      01006216H   LINE      CODE     ---       #35
      01006229H   LINE      CODE     ---       #36
      ---         BLOCKEND  ---      ---       LVL=0

LX51 LINKER/LOCATER V4.66.41.0                                                        11/02/2018  15:47:42  PAGE 101


      01004DACH   BLOCK     CODE     ---       LVL=0
      00000027H   SYMBOL    DATA     ---       timDats_tab
      01004DB2H   BLOCK     CODE     NEAR LAB  LVL=1
      0000002AH   SYMBOL    DATA     ---       dats_Temp
      00000042H   SYMBOL    DATA     BYTE      loop
      ---         BLOCKEND  ---      ---       LVL=1
      01004DACH   LINE      CODE     ---       #39
      01004DB2H   LINE      CODE     ---       #41
      01004DC5H   LINE      CODE     ---       #42
      01004DC8H   LINE      CODE     ---       #44
      01004DD8H   LINE      CODE     ---       #46
      01004DDBH   LINE      CODE     ---       #48
      01004E02H   LINE      CODE     ---       #49
      01004E22H   LINE      CODE     ---       #50
      01004E54H   LINE      CODE     ---       #51
      01004E6DH   LINE      CODE     ---       #52
      01004E8FH   LINE      CODE     ---       #53
      01004E9AH   LINE      CODE     ---       #54
      ---         BLOCKEND  ---      ---       LVL=0

      01004E9BH   BLOCK     CODE     ---       LVL=0
      00000027H   SYMBOL    DATA     ---       timDats_tab
      01004EA1H   BLOCK     CODE     NEAR LAB  LVL=1
      0000002AH   SYMBOL    DATA     ---       dats_Temp
      00000030H   SYMBOL    DATA     BYTE      loop
      ---         BLOCKEND  ---      ---       LVL=1
      01004E9BH   LINE      CODE     ---       #56
      01004EA1H   LINE      CODE     ---       #58
      01004EB4H   LINE      CODE     ---       #59
      01004EB7H   LINE      CODE     ---       #61
      01004EC7H   LINE      CODE     ---       #63
      01004ECAH   LINE      CODE     ---       #65
      01004EF1H   LINE      CODE     ---       #66
      01004F11H   LINE      CODE     ---       #67
      01004F43H   LINE      CODE     ---       #68
      01004F5CH   LINE      CODE     ---       #69
      01004F7EH   LINE      CODE     ---       #70
      01004F89H   LINE      CODE     ---       #71
      ---         BLOCKEND  ---      ---       LVL=0

      010061C5H   BLOCK     CODE     ---       LVL=0
      00000004H   SYMBOL    DATA     BYTE      weekNum
      00000001H   SYMBOL    DATA     BYTE      HoldNum
      010061C9H   BLOCK     CODE     NEAR LAB  LVL=1
      00000005H   SYMBOL    DATA     BYTE      loop
      ---         BLOCKEND  ---      ---       LVL=1
      010061C5H   LINE      CODE     ---       #74
      010061C9H   LINE      CODE     ---       #78
      010061CAH   LINE      CODE     ---       #79
      010061CCH   LINE      CODE     ---       #81
      010061E3H   LINE      CODE     ---       #83
      010061E9H   LINE      CODE     ---       #84
      010061E9H   LINE      CODE     ---       #85
      010061EDH   LINE      CODE     ---       #87
      010061EEH   LINE      CODE     ---       #88
      ---         BLOCKEND  ---      ---       LVL=0

      0100560BH   BLOCK     CODE     ---       LVL=0
      00000027H   SYMBOL    DATA     ---       timeDats
      0100560BH   BLOCK     CODE     NEAR LAB  LVL=1
      0200005EH   SYMBOL    XDATA    ---       Log
      ---         BLOCKEND  ---      ---       LVL=1
      0100560BH   LINE      CODE     ---       #91
      0100560BH   LINE      CODE     ---       #93
      0100561EH   LINE      CODE     ---       #115
LX51 LINKER/LOCATER V4.66.41.0                                                        11/02/2018  15:47:42  PAGE 102


      01005648H   LINE      CODE     ---       #118
      01005651H   LINE      CODE     ---       #124
      01005675H   LINE      CODE     ---       #127
      0100567EH   LINE      CODE     ---       #131
      01005699H   LINE      CODE     ---       #133
      ---         BLOCKEND  ---      ---       LVL=0

      01002AD5H   BLOCK     CODE     ---       LVL=0
      01002AD5H   BLOCK     CODE     NEAR LAB  LVL=1
      00000026H   SYMBOL    DATA     BYTE      loop
      02000040H   SYMBOL    XDATA    ---       timDatsTemp_CalibrateTab
      02000058H   SYMBOL    XDATA    ---       nightDatsTemp_CalibrateTab
      00000024H.4 SYMBOL    BIT      BIT       timeUp_actionDone_flg
      01002AFFH   BLOCK     CODE     NEAR LAB  LVL=2
      01004DA8H   SYMBOL    CODE     WORD      log_period
      02000535H   SYMBOL    XDATA    WORD      log_Count
      00000024H.3 SYMBOL    BIT      BIT       read_FLG
      ---         BLOCKEND  ---      ---       LVL=2
      01002B3FH   BLOCK     CODE     NEAR LAB  LVL=2
      00000024H.3 SYMBOL    BIT      BIT       read_FLG
      ---         BLOCKEND  ---      ---       LVL=2
      01002D6CH   BLOCK     CODE     NEAR LAB  LVL=2
      02000000H   SYMBOL    XDATA    ---       log_buf
      01004DAAH   SYMBOL    CODE     BYTE      dats_Temp
      01004DABH   SYMBOL    CODE     BYTE      dats_Temp
      ---         BLOCKEND  ---      ---       LVL=2
      01002DA8H   BLOCK     CODE     NEAR LAB  LVL=2
      01004DAAH   SYMBOL    CODE     BYTE      dats_Temp
      01004DABH   SYMBOL    CODE     BYTE      dats_Temp
      ---         BLOCKEND  ---      ---       LVL=2
      01002E69H   BLOCK     CODE     NEAR LAB  LVL=2
      01004DABH   SYMBOL    CODE     BYTE      dats_Temp
      ---         BLOCKEND  ---      ---       LVL=2
      ---         BLOCKEND  ---      ---       LVL=1
      01002AD5H   LINE      CODE     ---       #137
      01002AD5H   LINE      CODE     ---       #139
      01002AD8H   LINE      CODE     ---       #141
      01002AEAH   LINE      CODE     ---       #142
      01002AFDH   LINE      CODE     ---       #144
      01002AFFH   LINE      CODE     ---       #152
      01002B24H   LINE      CODE     ---       #153
      01002B24H   LINE      CODE     ---       #155
      01002B2BH   LINE      CODE     ---       #157
      01002B3FH   LINE      CODE     ---       #158
      01002B3FH   LINE      CODE     ---       #159
      01002B3FH   LINE      CODE     ---       #163
      01002B3FH   LINE      CODE     ---       #167
      01002B42H   LINE      CODE     ---       #169
      01002B44H   LINE      CODE     ---       #171
      01002B57H   LINE      CODE     ---       #172
      01002B6AH   LINE      CODE     ---       #173
      01002B6AH   LINE      CODE     ---       #174
      01002B6AH   LINE      CODE     ---       #177
      01002B6AH   LINE      CODE     ---       #179
      01002B80H   LINE      CODE     ---       #180
      01002B8EH   LINE      CODE     ---       #182
      01002B9AH   LINE      CODE     ---       #184
      01002B9AH   LINE      CODE     ---       #186
      01002BA0H   LINE      CODE     ---       #187
      01002BB3H   LINE      CODE     ---       #188
      01002BC7H   LINE      CODE     ---       #189
      01002BC7H   LINE      CODE     ---       #190
      01002BC7H   LINE      CODE     ---       #193
      01002BD0H   LINE      CODE     ---       #195
      01002BDBH   LINE      CODE     ---       #197
LX51 LINKER/LOCATER V4.66.41.0                                                        11/02/2018  15:47:42  PAGE 103


      01002BDDH   LINE      CODE     ---       #199
      01002BDFH   LINE      CODE     ---       #201
      01002BE3H   LINE      CODE     ---       #204
      01002C43H   LINE      CODE     ---       #206
      01002C45H   LINE      CODE     ---       #208
      01002C47H   LINE      CODE     ---       #210
      01002C49H   LINE      CODE     ---       #211
      01002C49H   LINE      CODE     ---       #213
      01002C4BH   LINE      CODE     ---       #215
      01002C4DH   LINE      CODE     ---       #216
      01002C4DH   LINE      CODE     ---       #217
      01002C4DH   LINE      CODE     ---       #220
      01002C56H   LINE      CODE     ---       #222
      01002C59H   LINE      CODE     ---       #224
      01002C72H   LINE      CODE     ---       #226
      01002C74H   LINE      CODE     ---       #227
      01002C76H   LINE      CODE     ---       #229
      01002C76H   LINE      CODE     ---       #231
      01002C78H   LINE      CODE     ---       #232
      01002C78H   LINE      CODE     ---       #233
      01002C7FH   LINE      CODE     ---       #236
      01002C85H   LINE      CODE     ---       #238
      01002C88H   LINE      CODE     ---       #240
      01002CA8H   LINE      CODE     ---       #242
      01002CC4H   LINE      CODE     ---       #265
      01002D15H   LINE      CODE     ---       #267
      01002D15H   LINE      CODE     ---       #269
      01002D17H   LINE      CODE     ---       #270
      01002D17H   LINE      CODE     ---       #272
      01002D6CH   LINE      CODE     ---       #274
      01002D6CH   LINE      CODE     ---       #276
      01002D6CH   LINE      CODE     ---       #279
      01002D83H   LINE      CODE     ---       #280
      01002D8CH   LINE      CODE     ---       #281
      01002D8CH   LINE      CODE     ---       #283
      01002D8EH   LINE      CODE     ---       #286
      01002DA8H   LINE      CODE     ---       #290
      01002DBAH   LINE      CODE     ---       #291
      01002DD6H   LINE      CODE     ---       #292
      01002DD6H   LINE      CODE     ---       #295
      01002DDCH   LINE      CODE     ---       #296
      01002DF2H   LINE      CODE     ---       #297
      01002DF9H   LINE      CODE     ---       #298
      01002E00H   LINE      CODE     ---       #300
      01002E03H   LINE      CODE     ---       #302
      01002E4FH   LINE      CODE     ---       #305
      01002E69H   LINE      CODE     ---       #309
      01002E7BH   LINE      CODE     ---       #310
      01002E97H   LINE      CODE     ---       #311
      01002E97H   LINE      CODE     ---       #312
      01002E97H   LINE      CODE     ---       #313
      01002E97H   LINE      CODE     ---       #314
      01002E97H   LINE      CODE     ---       #315
      01002EA3H   LINE      CODE     ---       #316
      01002EA3H   LINE      CODE     ---       #317
      ---         BLOCKEND  ---      ---       LVL=0

      ---         MODULE    ---      ---       TOUCHPAD
      010063FBH   PUBLIC    CODE     ---       touchPad_processThread
      000000D8H.2 SFRSYM    DATA     BIT       CCF2
      000000E0H.7 SFRSYM    DATA     BIT       ACC7
      00000093H   SFRSYM    DATA     BYTE      P0M1
      00000092H   SFRSYM    DATA     BYTE      P1M0
      00000096H   SFRSYM    DATA     BYTE      P2M0
      00000091H   SFRSYM    DATA     BYTE      P1M1
LX51 LINKER/LOCATER V4.66.41.0                                                        11/02/2018  15:47:42  PAGE 104


      00000080H   SFRSYM    DATA     BYTE      P0
      000000B2H   SFRSYM    DATA     BYTE      P3M0
      00000095H   SFRSYM    DATA     BYTE      P2M1
      00000090H   SFRSYM    DATA     BYTE      P1
      000000B4H   SFRSYM    DATA     BYTE      P4M0
      000000B1H   SFRSYM    DATA     BYTE      P3M1
      000000A0H   SFRSYM    DATA     BYTE      P2
      000000CAH   SFRSYM    DATA     BYTE      P5M0
      000000B3H   SFRSYM    DATA     BYTE      P4M1
      000000B0H   SFRSYM    DATA     BYTE      P3
      000000ABH   SFRSYM    DATA     BYTE      WKTCH
      000000B0H.4 SFRSYM    DATA     BIT       T0
      000000D0H.6 SFRSYM    DATA     BIT       AC
      000000CCH   SFRSYM    DATA     BYTE      P6M0
      000000C9H   SFRSYM    DATA     BYTE      P5M1
      000000C0H   SFRSYM    DATA     BYTE      P4
      000000B0H.5 SFRSYM    DATA     BIT       CLKOUT0
      000000B0H.5 SFRSYM    DATA     BIT       T1
      000000E2H   SFRSYM    DATA     BYTE      P7M0
      000000CBH   SFRSYM    DATA     BYTE      P6M1
      000000C8H   SFRSYM    DATA     BYTE      P5
      000000C6H   SFRSYM    DATA     BYTE      ISP_TRIG
      000000A8H.7 SFRSYM    DATA     BIT       EA
      000000B0H.4 SFRSYM    DATA     BIT       CLKOUT1
      000000A0H.4 SFRSYM    DATA     BIT       SPI_SS_2
      000000E8H   SFRSYM    DATA     BYTE      P6
      000000E1H   SFRSYM    DATA     BYTE      P7M1
      000000C8H.4 SFRSYM    DATA     BIT       SPI_SS_3
      00000090H.4 SFRSYM    DATA     BIT       SPI_MISO
      00000090H.3 SFRSYM    DATA     BIT       SPI_MOSI
      00000090H.1 SFRSYM    DATA     BIT       CCP0
      000000F8H   SFRSYM    DATA     BYTE      P7
      000000AAH   SFRSYM    DATA     BYTE      WKTCL
      00000090H   SFRSYM    DATA     BIT       CCP1
      000000CEH   SFRSYM    DATA     BYTE      SPCTL
      000000D8H.7 SFRSYM    DATA     BIT       CF
      000000B0H.7 SFRSYM    DATA     BIT       CCP2
      000000F9H   SFRSYM    DATA     BYTE      CH
      000000A2H   SFRSYM    DATA     BYTE      P_SW1
      000000BAH   SFRSYM    DATA     BYTE      P_SW2
      000000A8H.5 SFRSYM    DATA     BIT       EADC
      000000A0H.1 SFRSYM    DATA     BIT       SPI_SCLK_2
      000000A8H   SFRSYM    DATA     BYTE      IE
      000000C0H.3 SFRSYM    DATA     BIT       SPI_SCLK_3
      000000E9H   SFRSYM    DATA     BYTE      CL
      000000C5H   SFRSYM    DATA     BYTE      IAP_CMD
      000000FAH   SFRSYM    DATA     BYTE      CCAP0H
      000000FBH   SFRSYM    DATA     BYTE      CCAP1H
      000000FCH   SFRSYM    DATA     BYTE      CCAP2H
      000000BDH   SFRSYM    DATA     BYTE      ADC_RES
      000000B6H   SFRSYM    DATA     BYTE      IPH2
      000000D8H.6 SFRSYM    DATA     BIT       CR
      000000EAH   SFRSYM    DATA     BYTE      CCAP0L
      000000B0H.7 SFRSYM    DATA     BIT       RD
      000000EBH   SFRSYM    DATA     BYTE      CCAP1L
      000000DAH   SFRSYM    DATA     BYTE      CCAPM0
      000000ECH   SFRSYM    DATA     BYTE      CCAP2L
      000000DBH   SFRSYM    DATA     BYTE      CCAPM1
      000000A8H.4 SFRSYM    DATA     BIT       ES
      000000DCH   SFRSYM    DATA     BYTE      CCAPM2
      000000B8H.5 SFRSYM    DATA     BIT       PADC
      000000A0H.2 SFRSYM    DATA     BIT       SPI_MISO_2
      000000A0H.3 SFRSYM    DATA     BIT       SPI_MOSI_2
      000000B8H   SFRSYM    DATA     BYTE      IP
      000000C0H.1 SFRSYM    DATA     BIT       SPI_MISO_3
LX51 LINKER/LOCATER V4.66.41.0                                                        11/02/2018  15:47:42  PAGE 105


      000000C0H   SFRSYM    DATA     BIT       SPI_MOSI_3
      00000098H   SFRSYM    DATA     BIT       RI
      000000B0H.2 SFRSYM    DATA     BIT       INT0
      000000D0H.7 SFRSYM    DATA     BIT       CY
      00000098H.1 SFRSYM    DATA     BIT       TI
      000000B0H.3 SFRSYM    DATA     BIT       INT1
      00000097H   SFRSYM    DATA     BYTE      CLK_DIV
      000000C3H   SFRSYM    DATA     BYTE      IAP_ADDRH
      00000090H   SFRSYM    DATA     BIT       RXD2
      000000C5H   SFRSYM    DATA     BYTE      ISP_CMD
      000000B8H.4 SFRSYM    DATA     BIT       PS
      00000090H.1 SFRSYM    DATA     BIT       TXD2
      00000081H   SFRSYM    DATA     BYTE      SP
      000000D9H   SFRSYM    DATA     BYTE      CMOD
      000000D8H   SFRSYM    DATA     BYTE      CCON
      000000C4H   SFRSYM    DATA     BYTE      IAP_ADDRL
      000000B8H.7 SFRSYM    DATA     BIT       PPCA
      000000D0H.2 SFRSYM    DATA     BIT       OV
      000000B0H.6 SFRSYM    DATA     BIT       WR
      000000A8H.6 SFRSYM    DATA     BIT       ELVD
      00000080H   SFRSYM    DATA     BIT       P00
      00000090H   SFRSYM    DATA     BIT       P10
      00000080H.1 SFRSYM    DATA     BIT       P01
      000000BCH   SFRSYM    DATA     BYTE      ADC_CONTR
      00000099H   SFRSYM    DATA     BYTE      SBUF
      00000087H   SFRSYM    DATA     BYTE      PCON
      000000A0H   SFRSYM    DATA     BIT       P20
      00000090H.1 SFRSYM    DATA     BIT       P11
      00000080H.2 SFRSYM    DATA     BIT       P02
      000000C3H   SFRSYM    DATA     BYTE      ISP_ADDRH
      000000B0H   SFRSYM    DATA     BIT       P30
      000000A0H.1 SFRSYM    DATA     BIT       P21
      00000090H.2 SFRSYM    DATA     BIT       P12
      00000080H.3 SFRSYM    DATA     BIT       P03
      000000C0H   SFRSYM    DATA     BIT       P40
      000000B0H.1 SFRSYM    DATA     BIT       P31
      000000A0H.2 SFRSYM    DATA     BIT       P22
      00000090H.3 SFRSYM    DATA     BIT       P13
      00000080H.4 SFRSYM    DATA     BIT       P04
      00000098H   SFRSYM    DATA     BYTE      SCON
      0000008FH   SFRSYM    DATA     BYTE      WAKE_CLKO
      000000C8H   SFRSYM    DATA     BIT       P50
      000000C0H.1 SFRSYM    DATA     BIT       P41
      000000B0H.2 SFRSYM    DATA     BIT       P32
      000000A0H.3 SFRSYM    DATA     BIT       P23
      00000090H.4 SFRSYM    DATA     BIT       P14
      00000080H.5 SFRSYM    DATA     BIT       P05
      00000089H   SFRSYM    DATA     BYTE      TMOD
      00000088H   SFRSYM    DATA     BYTE      TCON
      000000C8H.1 SFRSYM    DATA     BIT       P51
      000000C0H.2 SFRSYM    DATA     BIT       P42
      000000B0H.3 SFRSYM    DATA     BIT       P33
      000000A0H.4 SFRSYM    DATA     BIT       P24
      00000090H.5 SFRSYM    DATA     BIT       P15
      00000080H.6 SFRSYM    DATA     BIT       P06
      000000C4H   SFRSYM    DATA     BYTE      ISP_ADDRL
      000000B8H.6 SFRSYM    DATA     BIT       PLVD
      000000C8H.2 SFRSYM    DATA     BIT       P52
      000000C0H.3 SFRSYM    DATA     BIT       P43
      000000B0H.4 SFRSYM    DATA     BIT       P34
      000000A0H.5 SFRSYM    DATA     BIT       P25
      00000090H.6 SFRSYM    DATA     BIT       P16
      00000080H.7 SFRSYM    DATA     BIT       P07
      000000C8H.3 SFRSYM    DATA     BIT       P53
      000000C0H.4 SFRSYM    DATA     BIT       P44
LX51 LINKER/LOCATER V4.66.41.0                                                        11/02/2018  15:47:42  PAGE 106


      000000B0H.5 SFRSYM    DATA     BIT       P35
      000000A0H.6 SFRSYM    DATA     BIT       P26
      00000090H.7 SFRSYM    DATA     BIT       P17
      000000C8H.4 SFRSYM    DATA     BIT       P54
      000000C0H.5 SFRSYM    DATA     BIT       P45
      000000B0H.6 SFRSYM    DATA     BIT       P36
      000000A0H.7 SFRSYM    DATA     BIT       P27
      000000C8H.5 SFRSYM    DATA     BIT       P55
      000000C0H.6 SFRSYM    DATA     BIT       P46
      000000B0H.7 SFRSYM    DATA     BIT       P37
      000000C8H.6 SFRSYM    DATA     BIT       P56
      000000C0H.7 SFRSYM    DATA     BIT       P47
      000000C8H.7 SFRSYM    DATA     BIT       P57
      00000088H.1 SFRSYM    DATA     BIT       IE0
      000000A1H   SFRSYM    DATA     BYTE      BUS_SPEED
      00000088H.3 SFRSYM    DATA     BIT       IE1
      000000AFH   SFRSYM    DATA     BYTE      IE2
      000000F0H   SFRSYM    DATA     BYTE      B
      0000008EH   SFRSYM    DATA     BYTE      AUXR
      000000C7H   SFRSYM    DATA     BYTE      IAP_CONTR
      000000E0H   SFRSYM    DATA     BYTE      ACC
      000000A8H.1 SFRSYM    DATA     BIT       ET0
      000000A8H.3 SFRSYM    DATA     BIT       ET1
      00000088H.5 SFRSYM    DATA     BIT       TF0
      00000088H.7 SFRSYM    DATA     BIT       TF1
      000000B5H   SFRSYM    DATA     BYTE      IP2
      0000008CH   SFRSYM    DATA     BYTE      RL_TH0
      00000098H.2 SFRSYM    DATA     BIT       RB8
      0000008DH   SFRSYM    DATA     BYTE      RL_TH1
      0000008CH   SFRSYM    DATA     BYTE      TH0
      000000A8H   SFRSYM    DATA     BIT       EX0
      00000088H   SFRSYM    DATA     BIT       IT0
      000000D6H   SFRSYM    DATA     BYTE      RL_T2H
      0000008DH   SFRSYM    DATA     BYTE      TH1
      000000A8H.2 SFRSYM    DATA     BIT       EX1
      00000098H.3 SFRSYM    DATA     BIT       TB8
      00000088H.2 SFRSYM    DATA     BIT       IT1
      000000D4H   SFRSYM    DATA     BYTE      RL_T3H
      000000D6H   SFRSYM    DATA     BYTE      TH2
      000000D6H   SFRSYM    DATA     BYTE      T2H
      000000D0H   SFRSYM    DATA     BIT       P
      000000D2H   SFRSYM    DATA     BYTE      RL_T4H
      000000D4H   SFRSYM    DATA     BYTE      TH3
      000000D4H   SFRSYM    DATA     BYTE      T3H
      0000008AH   SFRSYM    DATA     BYTE      RL_TL0
      00000098H.7 SFRSYM    DATA     BIT       SM0
      000000D2H   SFRSYM    DATA     BYTE      TH4
      000000D2H   SFRSYM    DATA     BYTE      T4H
      0000008BH   SFRSYM    DATA     BYTE      RL_TL1
      0000008AH   SFRSYM    DATA     BYTE      TL0
      00000098H.6 SFRSYM    DATA     BIT       SM1
      000000D7H   SFRSYM    DATA     BYTE      RL_T2L
      0000008BH   SFRSYM    DATA     BYTE      TL1
      00000098H.5 SFRSYM    DATA     BIT       SM2
      000000D5H   SFRSYM    DATA     BYTE      RL_T3L
      000000D7H   SFRSYM    DATA     BYTE      TL2
      000000D7H   SFRSYM    DATA     BYTE      T2L
      000000D3H   SFRSYM    DATA     BYTE      RL_T4L
      000000D5H   SFRSYM    DATA     BYTE      TL3
      000000D5H   SFRSYM    DATA     BYTE      T3L
      000000B8H.1 SFRSYM    DATA     BIT       PT0
      000000D3H   SFRSYM    DATA     BYTE      TL4
      000000D3H   SFRSYM    DATA     BYTE      T4L
      000000B8H.3 SFRSYM    DATA     BIT       PT1
      000000D0H.3 SFRSYM    DATA     BIT       RS0
LX51 LINKER/LOCATER V4.66.41.0                                                        11/02/2018  15:47:42  PAGE 107


      000000C7H   SFRSYM    DATA     BYTE      ISP_CONTR
      00000088H.4 SFRSYM    DATA     BIT       TR0
      000000D0H.4 SFRSYM    DATA     BIT       RS1
      000000C2H   SFRSYM    DATA     BYTE      IAP_DATA
      00000088H.6 SFRSYM    DATA     BIT       TR1
      000000B8H   SFRSYM    DATA     BIT       PX0
      000000C1H   SFRSYM    DATA     BYTE      WDT_CONTR
      000000B8H.2 SFRSYM    DATA     BIT       PX1
      000000F2H   SFRSYM    DATA     BYTE      PCA_PWM0
      000000F3H   SFRSYM    DATA     BYTE      PCA_PWM1
      000000F4H   SFRSYM    DATA     BYTE      PCA_PWM2
      0000009DH   SFRSYM    DATA     BYTE      P1ASF
      00000083H   SFRSYM    DATA     BYTE      DPH
      000000D1H   SFRSYM    DATA     BYTE      T4T3M
      000000BEH   SFRSYM    DATA     BYTE      ADC_RESL
      00000082H   SFRSYM    DATA     BYTE      DPL
      000000CDH   SFRSYM    DATA     BYTE      SPSTAT
      000000B7H   SFRSYM    DATA     BYTE      IPH
      0000009BH   SFRSYM    DATA     BYTE      S2BUF
      00000097H   SFRSYM    DATA     BYTE      PCON2
      000000ADH   SFRSYM    DATA     BYTE      S3BUF
      00000098H.4 SFRSYM    DATA     BIT       REN
      00000085H   SFRSYM    DATA     BYTE      S4BUF
      0000009AH   SFRSYM    DATA     BYTE      S2CON
      000000ACH   SFRSYM    DATA     BYTE      S3CON
      000000C2H   SFRSYM    DATA     BYTE      ISP_DATA
      00000084H   SFRSYM    DATA     BYTE      S4CON
      000000B9H   SFRSYM    DATA     BYTE      SADEN
      000000B0H   SFRSYM    DATA     BIT       RXD
      000000A9H   SFRSYM    DATA     BYTE      SADDR
      000000B0H.1 SFRSYM    DATA     BIT       TXD
      000000F0H   SFRSYM    DATA     BIT       B0
      000000F0H.1 SFRSYM    DATA     BIT       B1
      000000C6H   SFRSYM    DATA     BYTE      IAP_TRIG
      000000A2H   SFRSYM    DATA     BYTE      AUXR1
      000000F0H.2 SFRSYM    DATA     BIT       B2
      00000090H.2 SFRSYM    DATA     BIT       SPI_SS
      0000008FH   SFRSYM    DATA     BYTE      AUXR2
      000000F0H.3 SFRSYM    DATA     BIT       B3
      000000F0H.4 SFRSYM    DATA     BIT       B4
      000000D0H.5 SFRSYM    DATA     BIT       F0
      000000F0H.5 SFRSYM    DATA     BIT       B5
      000000D0H.1 SFRSYM    DATA     BIT       F1
      0000008FH   SFRSYM    DATA     BYTE      INT_CLKO
      000000F0H.6 SFRSYM    DATA     BIT       B6
      000000E0H   SFRSYM    DATA     BIT       ACC0
      000000F0H.7 SFRSYM    DATA     BIT       B7
      000000E0H.1 SFRSYM    DATA     BIT       ACC1
      000000E0H.2 SFRSYM    DATA     BIT       ACC2
      000000E0H.3 SFRSYM    DATA     BIT       ACC3
      000000D0H   SFRSYM    DATA     BYTE      PSW
      000000E0H.4 SFRSYM    DATA     BIT       ACC4
      00000090H.5 SFRSYM    DATA     BIT       SPI_SCLK
      000000D8H   SFRSYM    DATA     BIT       CCF0
      000000E0H.5 SFRSYM    DATA     BIT       ACC5
      000000D8H.1 SFRSYM    DATA     BIT       CCF1
      000000E0H.6 SFRSYM    DATA     BIT       ACC6
      000000CFH   SFRSYM    DATA     BYTE      SPDAT
      00000094H   SFRSYM    DATA     BYTE      P0M0
      00000025H.3 SYMBOL    BIT      BIT       touchPad_resetIF

      010063FBH   BLOCK     CODE     ---       LVL=0
      010063FBH   LINE      CODE     ---       #15
      010063FBH   LINE      CODE     ---       #17
      01006403H   LINE      CODE     ---       #18
LX51 LINKER/LOCATER V4.66.41.0                                                        11/02/2018  15:47:42  PAGE 108


      ---         BLOCKEND  ---      ---       LVL=0

      ---         MODULE    ---      ---       USART
      02000441H   PUBLIC    XDATA    ---       TX1_Buffer
      020003C1H   PUBLIC    XDATA    ---       RX1_Buffer
      00000011H   PUBLIC    DATA     ---       COM1
      0100623CH   PUBLIC    CODE     ---       _uart1_datsSend
      0100613BH   PUBLIC    CODE     ---       _PrintString1_logOut
      0100637CH   PUBLIC    CODE     ---       _PrintString1
      01006285H   PUBLIC    CODE     ---       _TX1_write2buff
      000000D8H.2 SFRSYM    DATA     BIT       CCF2
      000000E0H.7 SFRSYM    DATA     BIT       ACC7
      00000093H   SFRSYM    DATA     BYTE      P0M1
      00000092H   SFRSYM    DATA     BYTE      P1M0
      00000096H   SFRSYM    DATA     BYTE      P2M0
      00000091H   SFRSYM    DATA     BYTE      P1M1
      00000080H   SFRSYM    DATA     BYTE      P0
      000000B2H   SFRSYM    DATA     BYTE      P3M0
      00000095H   SFRSYM    DATA     BYTE      P2M1
      00000090H   SFRSYM    DATA     BYTE      P1
      000000B4H   SFRSYM    DATA     BYTE      P4M0
      000000B1H   SFRSYM    DATA     BYTE      P3M1
      000000A0H   SFRSYM    DATA     BYTE      P2
      000000CAH   SFRSYM    DATA     BYTE      P5M0
      000000B3H   SFRSYM    DATA     BYTE      P4M1
      000000B0H   SFRSYM    DATA     BYTE      P3
      000000ABH   SFRSYM    DATA     BYTE      WKTCH
      000000B0H.4 SFRSYM    DATA     BIT       T0
      000000D0H.6 SFRSYM    DATA     BIT       AC
      000000CCH   SFRSYM    DATA     BYTE      P6M0
      000000C9H   SFRSYM    DATA     BYTE      P5M1
      000000C0H   SFRSYM    DATA     BYTE      P4
      000000B0H.5 SFRSYM    DATA     BIT       CLKOUT0
      000000B0H.5 SFRSYM    DATA     BIT       T1
      000000E2H   SFRSYM    DATA     BYTE      P7M0
      000000CBH   SFRSYM    DATA     BYTE      P6M1
      000000C8H   SFRSYM    DATA     BYTE      P5
      000000C6H   SFRSYM    DATA     BYTE      ISP_TRIG
      000000A8H.7 SFRSYM    DATA     BIT       EA
      000000B0H.4 SFRSYM    DATA     BIT       CLKOUT1
      000000A0H.4 SFRSYM    DATA     BIT       SPI_SS_2
      000000E8H   SFRSYM    DATA     BYTE      P6
      000000E1H   SFRSYM    DATA     BYTE      P7M1
      000000C8H.4 SFRSYM    DATA     BIT       SPI_SS_3
      00000090H.4 SFRSYM    DATA     BIT       SPI_MISO
      00000090H.3 SFRSYM    DATA     BIT       SPI_MOSI
      00000090H.1 SFRSYM    DATA     BIT       CCP0
      000000F8H   SFRSYM    DATA     BYTE      P7
      000000AAH   SFRSYM    DATA     BYTE      WKTCL
      00000090H   SFRSYM    DATA     BIT       CCP1
      000000CEH   SFRSYM    DATA     BYTE      SPCTL
      000000D8H.7 SFRSYM    DATA     BIT       CF
      000000B0H.7 SFRSYM    DATA     BIT       CCP2
      000000F9H   SFRSYM    DATA     BYTE      CH
      000000A2H   SFRSYM    DATA     BYTE      P_SW1
      000000BAH   SFRSYM    DATA     BYTE      P_SW2
      000000A8H.5 SFRSYM    DATA     BIT       EADC
      000000A0H.1 SFRSYM    DATA     BIT       SPI_SCLK_2
      000000A8H   SFRSYM    DATA     BYTE      IE
      000000C0H.3 SFRSYM    DATA     BIT       SPI_SCLK_3
      000000E9H   SFRSYM    DATA     BYTE      CL
      000000C5H   SFRSYM    DATA     BYTE      IAP_CMD
      000000FAH   SFRSYM    DATA     BYTE      CCAP0H
      000000FBH   SFRSYM    DATA     BYTE      CCAP1H
      000000FCH   SFRSYM    DATA     BYTE      CCAP2H
LX51 LINKER/LOCATER V4.66.41.0                                                        11/02/2018  15:47:42  PAGE 109


      000000BDH   SFRSYM    DATA     BYTE      ADC_RES
      000000B6H   SFRSYM    DATA     BYTE      IPH2
      000000D8H.6 SFRSYM    DATA     BIT       CR
      000000EAH   SFRSYM    DATA     BYTE      CCAP0L
      000000B0H.7 SFRSYM    DATA     BIT       RD
      000000EBH   SFRSYM    DATA     BYTE      CCAP1L
      000000DAH   SFRSYM    DATA     BYTE      CCAPM0
      000000ECH   SFRSYM    DATA     BYTE      CCAP2L
      000000DBH   SFRSYM    DATA     BYTE      CCAPM1
      000000A8H.4 SFRSYM    DATA     BIT       ES
      000000DCH   SFRSYM    DATA     BYTE      CCAPM2
      000000B8H.5 SFRSYM    DATA     BIT       PADC
      000000A0H.2 SFRSYM    DATA     BIT       SPI_MISO_2
      000000A0H.3 SFRSYM    DATA     BIT       SPI_MOSI_2
      000000B8H   SFRSYM    DATA     BYTE      IP
      000000C0H.1 SFRSYM    DATA     BIT       SPI_MISO_3
      000000C0H   SFRSYM    DATA     BIT       SPI_MOSI_3
      00000098H   SFRSYM    DATA     BIT       RI
      000000B0H.2 SFRSYM    DATA     BIT       INT0
      000000D0H.7 SFRSYM    DATA     BIT       CY
      00000098H.1 SFRSYM    DATA     BIT       TI
      000000B0H.3 SFRSYM    DATA     BIT       INT1
      00000097H   SFRSYM    DATA     BYTE      CLK_DIV
      000000C3H   SFRSYM    DATA     BYTE      IAP_ADDRH
      00000090H   SFRSYM    DATA     BIT       RXD2
      000000C5H   SFRSYM    DATA     BYTE      ISP_CMD
      000000B8H.4 SFRSYM    DATA     BIT       PS
      00000090H.1 SFRSYM    DATA     BIT       TXD2
      00000081H   SFRSYM    DATA     BYTE      SP
      000000D9H   SFRSYM    DATA     BYTE      CMOD
      000000D8H   SFRSYM    DATA     BYTE      CCON
      000000C4H   SFRSYM    DATA     BYTE      IAP_ADDRL
      000000B8H.7 SFRSYM    DATA     BIT       PPCA
      000000D0H.2 SFRSYM    DATA     BIT       OV
      000000B0H.6 SFRSYM    DATA     BIT       WR
      000000A8H.6 SFRSYM    DATA     BIT       ELVD
      00000080H   SFRSYM    DATA     BIT       P00
      00000090H   SFRSYM    DATA     BIT       P10
      00000080H.1 SFRSYM    DATA     BIT       P01
      000000BCH   SFRSYM    DATA     BYTE      ADC_CONTR
      00000099H   SFRSYM    DATA     BYTE      SBUF
      00000087H   SFRSYM    DATA     BYTE      PCON
      000000A0H   SFRSYM    DATA     BIT       P20
      00000090H.1 SFRSYM    DATA     BIT       P11
      00000080H.2 SFRSYM    DATA     BIT       P02
      000000C3H   SFRSYM    DATA     BYTE      ISP_ADDRH
      000000B0H   SFRSYM    DATA     BIT       P30
      000000A0H.1 SFRSYM    DATA     BIT       P21
      00000090H.2 SFRSYM    DATA     BIT       P12
      00000080H.3 SFRSYM    DATA     BIT       P03
      000000C0H   SFRSYM    DATA     BIT       P40
      000000B0H.1 SFRSYM    DATA     BIT       P31
      000000A0H.2 SFRSYM    DATA     BIT       P22
      00000090H.3 SFRSYM    DATA     BIT       P13
      00000080H.4 SFRSYM    DATA     BIT       P04
      00000098H   SFRSYM    DATA     BYTE      SCON
      0000008FH   SFRSYM    DATA     BYTE      WAKE_CLKO
      000000C8H   SFRSYM    DATA     BIT       P50
      000000C0H.1 SFRSYM    DATA     BIT       P41
      000000B0H.2 SFRSYM    DATA     BIT       P32
      000000A0H.3 SFRSYM    DATA     BIT       P23
      00000090H.4 SFRSYM    DATA     BIT       P14
      00000080H.5 SFRSYM    DATA     BIT       P05
      00000089H   SFRSYM    DATA     BYTE      TMOD
      00000088H   SFRSYM    DATA     BYTE      TCON
LX51 LINKER/LOCATER V4.66.41.0                                                        11/02/2018  15:47:42  PAGE 110


      000000C8H.1 SFRSYM    DATA     BIT       P51
      000000C0H.2 SFRSYM    DATA     BIT       P42
      000000B0H.3 SFRSYM    DATA     BIT       P33
      000000A0H.4 SFRSYM    DATA     BIT       P24
      00000090H.5 SFRSYM    DATA     BIT       P15
      00000080H.6 SFRSYM    DATA     BIT       P06
      000000C4H   SFRSYM    DATA     BYTE      ISP_ADDRL
      000000B8H.6 SFRSYM    DATA     BIT       PLVD
      000000C8H.2 SFRSYM    DATA     BIT       P52
      000000C0H.3 SFRSYM    DATA     BIT       P43
      000000B0H.4 SFRSYM    DATA     BIT       P34
      000000A0H.5 SFRSYM    DATA     BIT       P25
      00000090H.6 SFRSYM    DATA     BIT       P16
      00000080H.7 SFRSYM    DATA     BIT       P07
      000000C8H.3 SFRSYM    DATA     BIT       P53
      000000C0H.4 SFRSYM    DATA     BIT       P44
      000000B0H.5 SFRSYM    DATA     BIT       P35
      000000A0H.6 SFRSYM    DATA     BIT       P26
      00000090H.7 SFRSYM    DATA     BIT       P17
      000000C8H.4 SFRSYM    DATA     BIT       P54
      000000C0H.5 SFRSYM    DATA     BIT       P45
      000000B0H.6 SFRSYM    DATA     BIT       P36
      000000A0H.7 SFRSYM    DATA     BIT       P27
      000000C8H.5 SFRSYM    DATA     BIT       P55
      000000C0H.6 SFRSYM    DATA     BIT       P46
      000000B0H.7 SFRSYM    DATA     BIT       P37
      000000C8H.6 SFRSYM    DATA     BIT       P56
      000000C0H.7 SFRSYM    DATA     BIT       P47
      000000C8H.7 SFRSYM    DATA     BIT       P57
      00000088H.1 SFRSYM    DATA     BIT       IE0
      000000A1H   SFRSYM    DATA     BYTE      BUS_SPEED
      00000088H.3 SFRSYM    DATA     BIT       IE1
      000000AFH   SFRSYM    DATA     BYTE      IE2
      000000F0H   SFRSYM    DATA     BYTE      B
      0000008EH   SFRSYM    DATA     BYTE      AUXR
      000000C7H   SFRSYM    DATA     BYTE      IAP_CONTR
      000000E0H   SFRSYM    DATA     BYTE      ACC
      000000A8H.1 SFRSYM    DATA     BIT       ET0
      000000A8H.3 SFRSYM    DATA     BIT       ET1
      00000088H.5 SFRSYM    DATA     BIT       TF0
      00000088H.7 SFRSYM    DATA     BIT       TF1
      000000B5H   SFRSYM    DATA     BYTE      IP2
      0000008CH   SFRSYM    DATA     BYTE      RL_TH0
      00000098H.2 SFRSYM    DATA     BIT       RB8
      0000008DH   SFRSYM    DATA     BYTE      RL_TH1
      0000008CH   SFRSYM    DATA     BYTE      TH0
      000000A8H   SFRSYM    DATA     BIT       EX0
      00000088H   SFRSYM    DATA     BIT       IT0
      000000D6H   SFRSYM    DATA     BYTE      RL_T2H
      0000008DH   SFRSYM    DATA     BYTE      TH1
      000000A8H.2 SFRSYM    DATA     BIT       EX1
      00000098H.3 SFRSYM    DATA     BIT       TB8
      00000088H.2 SFRSYM    DATA     BIT       IT1
      000000D4H   SFRSYM    DATA     BYTE      RL_T3H
      000000D6H   SFRSYM    DATA     BYTE      TH2
      000000D6H   SFRSYM    DATA     BYTE      T2H
      000000D0H   SFRSYM    DATA     BIT       P
      000000D2H   SFRSYM    DATA     BYTE      RL_T4H
      000000D4H   SFRSYM    DATA     BYTE      TH3
      000000D4H   SFRSYM    DATA     BYTE      T3H
      0000008AH   SFRSYM    DATA     BYTE      RL_TL0
      00000098H.7 SFRSYM    DATA     BIT       SM0
      000000D2H   SFRSYM    DATA     BYTE      TH4
      000000D2H   SFRSYM    DATA     BYTE      T4H
      0000008BH   SFRSYM    DATA     BYTE      RL_TL1
LX51 LINKER/LOCATER V4.66.41.0                                                        11/02/2018  15:47:42  PAGE 111


      0000008AH   SFRSYM    DATA     BYTE      TL0
      00000098H.6 SFRSYM    DATA     BIT       SM1
      000000D7H   SFRSYM    DATA     BYTE      RL_T2L
      0000008BH   SFRSYM    DATA     BYTE      TL1
      00000098H.5 SFRSYM    DATA     BIT       SM2
      000000D5H   SFRSYM    DATA     BYTE      RL_T3L
      000000D7H   SFRSYM    DATA     BYTE      TL2
      000000D7H   SFRSYM    DATA     BYTE      T2L
      000000D3H   SFRSYM    DATA     BYTE      RL_T4L
      000000D5H   SFRSYM    DATA     BYTE      TL3
      000000D5H   SFRSYM    DATA     BYTE      T3L
      000000B8H.1 SFRSYM    DATA     BIT       PT0
      000000D3H   SFRSYM    DATA     BYTE      TL4
      000000D3H   SFRSYM    DATA     BYTE      T4L
      000000B8H.3 SFRSYM    DATA     BIT       PT1
      000000D0H.3 SFRSYM    DATA     BIT       RS0
      000000C7H   SFRSYM    DATA     BYTE      ISP_CONTR
      00000088H.4 SFRSYM    DATA     BIT       TR0
      000000D0H.4 SFRSYM    DATA     BIT       RS1
      000000C2H   SFRSYM    DATA     BYTE      IAP_DATA
      00000088H.6 SFRSYM    DATA     BIT       TR1
      000000B8H   SFRSYM    DATA     BIT       PX0
      000000C1H   SFRSYM    DATA     BYTE      WDT_CONTR
      000000B8H.2 SFRSYM    DATA     BIT       PX1
      000000F2H   SFRSYM    DATA     BYTE      PCA_PWM0
      000000F3H   SFRSYM    DATA     BYTE      PCA_PWM1
      000000F4H   SFRSYM    DATA     BYTE      PCA_PWM2
      0000009DH   SFRSYM    DATA     BYTE      P1ASF
      00000083H   SFRSYM    DATA     BYTE      DPH
      000000D1H   SFRSYM    DATA     BYTE      T4T3M
      000000BEH   SFRSYM    DATA     BYTE      ADC_RESL
      00000082H   SFRSYM    DATA     BYTE      DPL
      000000CDH   SFRSYM    DATA     BYTE      SPSTAT
      000000B7H   SFRSYM    DATA     BYTE      IPH
      0000009BH   SFRSYM    DATA     BYTE      S2BUF
      00000097H   SFRSYM    DATA     BYTE      PCON2
      000000ADH   SFRSYM    DATA     BYTE      S3BUF
      00000098H.4 SFRSYM    DATA     BIT       REN
      00000085H   SFRSYM    DATA     BYTE      S4BUF
      0000009AH   SFRSYM    DATA     BYTE      S2CON
      000000ACH   SFRSYM    DATA     BYTE      S3CON
      000000C2H   SFRSYM    DATA     BYTE      ISP_DATA
      00000084H   SFRSYM    DATA     BYTE      S4CON
      000000B9H   SFRSYM    DATA     BYTE      SADEN
      000000B0H   SFRSYM    DATA     BIT       RXD
      000000A9H   SFRSYM    DATA     BYTE      SADDR
      000000B0H.1 SFRSYM    DATA     BIT       TXD
      000000F0H   SFRSYM    DATA     BIT       B0
      000000F0H.1 SFRSYM    DATA     BIT       B1
      000000C6H   SFRSYM    DATA     BYTE      IAP_TRIG
      000000A2H   SFRSYM    DATA     BYTE      AUXR1
      000000F0H.2 SFRSYM    DATA     BIT       B2
      00000090H.2 SFRSYM    DATA     BIT       SPI_SS
      0000008FH   SFRSYM    DATA     BYTE      AUXR2
      000000F0H.3 SFRSYM    DATA     BIT       B3
      000000F0H.4 SFRSYM    DATA     BIT       B4
      000000D0H.5 SFRSYM    DATA     BIT       F0
      000000F0H.5 SFRSYM    DATA     BIT       B5
      000000D0H.1 SFRSYM    DATA     BIT       F1
      0000008FH   SFRSYM    DATA     BYTE      INT_CLKO
      000000F0H.6 SFRSYM    DATA     BIT       B6
      000000E0H   SFRSYM    DATA     BIT       ACC0
      000000F0H.7 SFRSYM    DATA     BIT       B7
      000000E0H.1 SFRSYM    DATA     BIT       ACC1
      000000E0H.2 SFRSYM    DATA     BIT       ACC2
LX51 LINKER/LOCATER V4.66.41.0                                                        11/02/2018  15:47:42  PAGE 112


      000000E0H.3 SFRSYM    DATA     BIT       ACC3
      000000D0H   SFRSYM    DATA     BYTE      PSW
      000000E0H.4 SFRSYM    DATA     BIT       ACC4
      00000090H.5 SFRSYM    DATA     BIT       SPI_SCLK
      000000D8H   SFRSYM    DATA     BIT       CCF0
      000000E0H.5 SFRSYM    DATA     BIT       ACC5
      000000D8H.1 SFRSYM    DATA     BIT       CCF1
      000000E0H.6 SFRSYM    DATA     BIT       ACC6
      000000CFH   SFRSYM    DATA     BYTE      SPDAT
      00000094H   SFRSYM    DATA     BYTE      P0M0

      01006285H   BLOCK     CODE     ---       LVL=0
      00000007H   SYMBOL    DATA     BYTE      dat
      01006285H   LINE      CODE     ---       #128
      01006285H   LINE      CODE     ---       #129
      01006285H   LINE      CODE     ---       #130
      01006292H   LINE      CODE     ---       #131
      0100629EH   LINE      CODE     ---       #133
      010062A2H   LINE      CODE     ---       #134
      010062A2H   LINE      CODE     ---       #135
      010062A5H   LINE      CODE     ---       #136
      010062A7H   LINE      CODE     ---       #137
      010062A7H   LINE      CODE     ---       #138
      ---         BLOCKEND  ---      ---       LVL=0

      0100637CH   BLOCK     CODE     ---       LVL=0
      00000001H   SYMBOL    DATA     ---       puts
      0100637CH   LINE      CODE     ---       #152
      0100637CH   LINE      CODE     ---       #153
      0100637CH   LINE      CODE     ---       #154
      0100638EH   LINE      CODE     ---       #155
      ---         BLOCKEND  ---      ---       LVL=0

      0100613BH   BLOCK     CODE     ---       LVL=0
      00000037H   SYMBOL    DATA     ---       puts
      0100613BH   LINE      CODE     ---       #157
      01006141H   LINE      CODE     ---       #159
      01006148H   LINE      CODE     ---       #160
      01006150H   LINE      CODE     ---       #161
      01006157H   LINE      CODE     ---       #162
      01006160H   LINE      CODE     ---       #163
      01006167H   LINE      CODE     ---       #164
      0100616AH   LINE      CODE     ---       #165
      ---         BLOCKEND  ---      ---       LVL=0

      0100623CH   BLOCK     CODE     ---       LVL=0
      00000045H   SYMBOL    DATA     ---       dats
      00000005H   SYMBOL    DATA     BYTE      datsLen
      01006242H   BLOCK     CODE     NEAR LAB  LVL=1
      00000006H   SYMBOL    DATA     BYTE      loop
      ---         BLOCKEND  ---      ---       LVL=1
      0100623CH   LINE      CODE     ---       #173
      01006242H   LINE      CODE     ---       #175
      01006244H   LINE      CODE     ---       #177
      01006249H   LINE      CODE     ---       #179
      0100625EH   LINE      CODE     ---       #180
      01006261H   LINE      CODE     ---       #181
      ---         BLOCKEND  ---      ---       LVL=0

      ---         MODULE    ---      ---       DELAY
      0100632EH   PUBLIC    CODE     ---       _delayMs
      010063B1H   PUBLIC    CODE     ---       _delay_ms
      000000D8H.2 SFRSYM    DATA     BIT       CCF2
      000000E0H.7 SFRSYM    DATA     BIT       ACC7
      00000093H   SFRSYM    DATA     BYTE      P0M1
LX51 LINKER/LOCATER V4.66.41.0                                                        11/02/2018  15:47:42  PAGE 113


      00000092H   SFRSYM    DATA     BYTE      P1M0
      00000096H   SFRSYM    DATA     BYTE      P2M0
      00000091H   SFRSYM    DATA     BYTE      P1M1
      00000080H   SFRSYM    DATA     BYTE      P0
      000000B2H   SFRSYM    DATA     BYTE      P3M0
      00000095H   SFRSYM    DATA     BYTE      P2M1
      00000090H   SFRSYM    DATA     BYTE      P1
      000000B4H   SFRSYM    DATA     BYTE      P4M0
      000000B1H   SFRSYM    DATA     BYTE      P3M1
      000000A0H   SFRSYM    DATA     BYTE      P2
      000000CAH   SFRSYM    DATA     BYTE      P5M0
      000000B3H   SFRSYM    DATA     BYTE      P4M1
      000000B0H   SFRSYM    DATA     BYTE      P3
      000000ABH   SFRSYM    DATA     BYTE      WKTCH
      000000B0H.4 SFRSYM    DATA     BIT       T0
      000000D0H.6 SFRSYM    DATA     BIT       AC
      000000CCH   SFRSYM    DATA     BYTE      P6M0
      000000C9H   SFRSYM    DATA     BYTE      P5M1
      000000C0H   SFRSYM    DATA     BYTE      P4
      000000B0H.5 SFRSYM    DATA     BIT       CLKOUT0
      000000B0H.5 SFRSYM    DATA     BIT       T1
      000000E2H   SFRSYM    DATA     BYTE      P7M0
      000000CBH   SFRSYM    DATA     BYTE      P6M1
      000000C8H   SFRSYM    DATA     BYTE      P5
      000000C6H   SFRSYM    DATA     BYTE      ISP_TRIG
      000000A8H.7 SFRSYM    DATA     BIT       EA
      000000B0H.4 SFRSYM    DATA     BIT       CLKOUT1
      000000A0H.4 SFRSYM    DATA     BIT       SPI_SS_2
      000000E8H   SFRSYM    DATA     BYTE      P6
      000000E1H   SFRSYM    DATA     BYTE      P7M1
      000000C8H.4 SFRSYM    DATA     BIT       SPI_SS_3
      00000090H.4 SFRSYM    DATA     BIT       SPI_MISO
      00000090H.3 SFRSYM    DATA     BIT       SPI_MOSI
      00000090H.1 SFRSYM    DATA     BIT       CCP0
      000000F8H   SFRSYM    DATA     BYTE      P7
      000000AAH   SFRSYM    DATA     BYTE      WKTCL
      00000090H   SFRSYM    DATA     BIT       CCP1
      000000CEH   SFRSYM    DATA     BYTE      SPCTL
      000000D8H.7 SFRSYM    DATA     BIT       CF
      000000B0H.7 SFRSYM    DATA     BIT       CCP2
      000000F9H   SFRSYM    DATA     BYTE      CH
      000000A2H   SFRSYM    DATA     BYTE      P_SW1
      000000BAH   SFRSYM    DATA     BYTE      P_SW2
      000000A8H.5 SFRSYM    DATA     BIT       EADC
      000000A0H.1 SFRSYM    DATA     BIT       SPI_SCLK_2
      000000A8H   SFRSYM    DATA     BYTE      IE
      000000C0H.3 SFRSYM    DATA     BIT       SPI_SCLK_3
      000000E9H   SFRSYM    DATA     BYTE      CL
      000000C5H   SFRSYM    DATA     BYTE      IAP_CMD
      000000FAH   SFRSYM    DATA     BYTE      CCAP0H
      000000FBH   SFRSYM    DATA     BYTE      CCAP1H
      000000FCH   SFRSYM    DATA     BYTE      CCAP2H
      000000BDH   SFRSYM    DATA     BYTE      ADC_RES
      000000B6H   SFRSYM    DATA     BYTE      IPH2
      000000D8H.6 SFRSYM    DATA     BIT       CR
      000000EAH   SFRSYM    DATA     BYTE      CCAP0L
      000000B0H.7 SFRSYM    DATA     BIT       RD
      000000EBH   SFRSYM    DATA     BYTE      CCAP1L
      000000DAH   SFRSYM    DATA     BYTE      CCAPM0
      000000ECH   SFRSYM    DATA     BYTE      CCAP2L
      000000DBH   SFRSYM    DATA     BYTE      CCAPM1
      000000A8H.4 SFRSYM    DATA     BIT       ES
      000000DCH   SFRSYM    DATA     BYTE      CCAPM2
      000000B8H.5 SFRSYM    DATA     BIT       PADC
      000000A0H.2 SFRSYM    DATA     BIT       SPI_MISO_2
LX51 LINKER/LOCATER V4.66.41.0                                                        11/02/2018  15:47:42  PAGE 114


      000000A0H.3 SFRSYM    DATA     BIT       SPI_MOSI_2
      000000B8H   SFRSYM    DATA     BYTE      IP
      000000C0H.1 SFRSYM    DATA     BIT       SPI_MISO_3
      000000C0H   SFRSYM    DATA     BIT       SPI_MOSI_3
      00000098H   SFRSYM    DATA     BIT       RI
      000000B0H.2 SFRSYM    DATA     BIT       INT0
      000000D0H.7 SFRSYM    DATA     BIT       CY
      00000098H.1 SFRSYM    DATA     BIT       TI
      000000B0H.3 SFRSYM    DATA     BIT       INT1
      00000097H   SFRSYM    DATA     BYTE      CLK_DIV
      000000C3H   SFRSYM    DATA     BYTE      IAP_ADDRH
      00000090H   SFRSYM    DATA     BIT       RXD2
      000000C5H   SFRSYM    DATA     BYTE      ISP_CMD
      000000B8H.4 SFRSYM    DATA     BIT       PS
      00000090H.1 SFRSYM    DATA     BIT       TXD2
      00000081H   SFRSYM    DATA     BYTE      SP
      000000D9H   SFRSYM    DATA     BYTE      CMOD
      000000D8H   SFRSYM    DATA     BYTE      CCON
      000000C4H   SFRSYM    DATA     BYTE      IAP_ADDRL
      000000B8H.7 SFRSYM    DATA     BIT       PPCA
      000000D0H.2 SFRSYM    DATA     BIT       OV
      000000B0H.6 SFRSYM    DATA     BIT       WR
      000000A8H.6 SFRSYM    DATA     BIT       ELVD
      00000080H   SFRSYM    DATA     BIT       P00
      00000090H   SFRSYM    DATA     BIT       P10
      00000080H.1 SFRSYM    DATA     BIT       P01
      000000BCH   SFRSYM    DATA     BYTE      ADC_CONTR
      00000099H   SFRSYM    DATA     BYTE      SBUF
      00000087H   SFRSYM    DATA     BYTE      PCON
      000000A0H   SFRSYM    DATA     BIT       P20
      00000090H.1 SFRSYM    DATA     BIT       P11
      00000080H.2 SFRSYM    DATA     BIT       P02
      000000C3H   SFRSYM    DATA     BYTE      ISP_ADDRH
      000000B0H   SFRSYM    DATA     BIT       P30
      000000A0H.1 SFRSYM    DATA     BIT       P21
      00000090H.2 SFRSYM    DATA     BIT       P12
      00000080H.3 SFRSYM    DATA     BIT       P03
      000000C0H   SFRSYM    DATA     BIT       P40
      000000B0H.1 SFRSYM    DATA     BIT       P31
      000000A0H.2 SFRSYM    DATA     BIT       P22
      00000090H.3 SFRSYM    DATA     BIT       P13
      00000080H.4 SFRSYM    DATA     BIT       P04
      00000098H   SFRSYM    DATA     BYTE      SCON
      0000008FH   SFRSYM    DATA     BYTE      WAKE_CLKO
      000000C8H   SFRSYM    DATA     BIT       P50
      000000C0H.1 SFRSYM    DATA     BIT       P41
      000000B0H.2 SFRSYM    DATA     BIT       P32
      000000A0H.3 SFRSYM    DATA     BIT       P23
      00000090H.4 SFRSYM    DATA     BIT       P14
      00000080H.5 SFRSYM    DATA     BIT       P05
      00000089H   SFRSYM    DATA     BYTE      TMOD
      00000088H   SFRSYM    DATA     BYTE      TCON
      000000C8H.1 SFRSYM    DATA     BIT       P51
      000000C0H.2 SFRSYM    DATA     BIT       P42
      000000B0H.3 SFRSYM    DATA     BIT       P33
      000000A0H.4 SFRSYM    DATA     BIT       P24
      00000090H.5 SFRSYM    DATA     BIT       P15
      00000080H.6 SFRSYM    DATA     BIT       P06
      000000C4H   SFRSYM    DATA     BYTE      ISP_ADDRL
      000000B8H.6 SFRSYM    DATA     BIT       PLVD
      000000C8H.2 SFRSYM    DATA     BIT       P52
      000000C0H.3 SFRSYM    DATA     BIT       P43
      000000B0H.4 SFRSYM    DATA     BIT       P34
      000000A0H.5 SFRSYM    DATA     BIT       P25
      00000090H.6 SFRSYM    DATA     BIT       P16
LX51 LINKER/LOCATER V4.66.41.0                                                        11/02/2018  15:47:42  PAGE 115


      00000080H.7 SFRSYM    DATA     BIT       P07
      000000C8H.3 SFRSYM    DATA     BIT       P53
      000000C0H.4 SFRSYM    DATA     BIT       P44
      000000B0H.5 SFRSYM    DATA     BIT       P35
      000000A0H.6 SFRSYM    DATA     BIT       P26
      00000090H.7 SFRSYM    DATA     BIT       P17
      000000C8H.4 SFRSYM    DATA     BIT       P54
      000000C0H.5 SFRSYM    DATA     BIT       P45
      000000B0H.6 SFRSYM    DATA     BIT       P36
      000000A0H.7 SFRSYM    DATA     BIT       P27
      000000C8H.5 SFRSYM    DATA     BIT       P55
      000000C0H.6 SFRSYM    DATA     BIT       P46
      000000B0H.7 SFRSYM    DATA     BIT       P37
      000000C8H.6 SFRSYM    DATA     BIT       P56
      000000C0H.7 SFRSYM    DATA     BIT       P47
      000000C8H.7 SFRSYM    DATA     BIT       P57
      00000088H.1 SFRSYM    DATA     BIT       IE0
      000000A1H   SFRSYM    DATA     BYTE      BUS_SPEED
      00000088H.3 SFRSYM    DATA     BIT       IE1
      000000AFH   SFRSYM    DATA     BYTE      IE2
      000000F0H   SFRSYM    DATA     BYTE      B
      0000008EH   SFRSYM    DATA     BYTE      AUXR
      000000C7H   SFRSYM    DATA     BYTE      IAP_CONTR
      000000E0H   SFRSYM    DATA     BYTE      ACC
      000000A8H.1 SFRSYM    DATA     BIT       ET0
      000000A8H.3 SFRSYM    DATA     BIT       ET1
      00000088H.5 SFRSYM    DATA     BIT       TF0
      00000088H.7 SFRSYM    DATA     BIT       TF1
      000000B5H   SFRSYM    DATA     BYTE      IP2
      0000008CH   SFRSYM    DATA     BYTE      RL_TH0
      00000098H.2 SFRSYM    DATA     BIT       RB8
      0000008DH   SFRSYM    DATA     BYTE      RL_TH1
      0000008CH   SFRSYM    DATA     BYTE      TH0
      000000A8H   SFRSYM    DATA     BIT       EX0
      00000088H   SFRSYM    DATA     BIT       IT0
      000000D6H   SFRSYM    DATA     BYTE      RL_T2H
      0000008DH   SFRSYM    DATA     BYTE      TH1
      000000A8H.2 SFRSYM    DATA     BIT       EX1
      00000098H.3 SFRSYM    DATA     BIT       TB8
      00000088H.2 SFRSYM    DATA     BIT       IT1
      000000D4H   SFRSYM    DATA     BYTE      RL_T3H
      000000D6H   SFRSYM    DATA     BYTE      TH2
      000000D6H   SFRSYM    DATA     BYTE      T2H
      000000D0H   SFRSYM    DATA     BIT       P
      000000D2H   SFRSYM    DATA     BYTE      RL_T4H
      000000D4H   SFRSYM    DATA     BYTE      TH3
      000000D4H   SFRSYM    DATA     BYTE      T3H
      0000008AH   SFRSYM    DATA     BYTE      RL_TL0
      00000098H.7 SFRSYM    DATA     BIT       SM0
      000000D2H   SFRSYM    DATA     BYTE      TH4
      000000D2H   SFRSYM    DATA     BYTE      T4H
      0000008BH   SFRSYM    DATA     BYTE      RL_TL1
      0000008AH   SFRSYM    DATA     BYTE      TL0
      00000098H.6 SFRSYM    DATA     BIT       SM1
      000000D7H   SFRSYM    DATA     BYTE      RL_T2L
      0000008BH   SFRSYM    DATA     BYTE      TL1
      00000098H.5 SFRSYM    DATA     BIT       SM2
      000000D5H   SFRSYM    DATA     BYTE      RL_T3L
      000000D7H   SFRSYM    DATA     BYTE      TL2
      000000D7H   SFRSYM    DATA     BYTE      T2L
      000000D3H   SFRSYM    DATA     BYTE      RL_T4L
      000000D5H   SFRSYM    DATA     BYTE      TL3
      000000D5H   SFRSYM    DATA     BYTE      T3L
      000000B8H.1 SFRSYM    DATA     BIT       PT0
      000000D3H   SFRSYM    DATA     BYTE      TL4
LX51 LINKER/LOCATER V4.66.41.0                                                        11/02/2018  15:47:42  PAGE 116


      000000D3H   SFRSYM    DATA     BYTE      T4L
      000000B8H.3 SFRSYM    DATA     BIT       PT1
      000000D0H.3 SFRSYM    DATA     BIT       RS0
      000000C7H   SFRSYM    DATA     BYTE      ISP_CONTR
      00000088H.4 SFRSYM    DATA     BIT       TR0
      000000D0H.4 SFRSYM    DATA     BIT       RS1
      000000C2H   SFRSYM    DATA     BYTE      IAP_DATA
      00000088H.6 SFRSYM    DATA     BIT       TR1
      000000B8H   SFRSYM    DATA     BIT       PX0
      000000C1H   SFRSYM    DATA     BYTE      WDT_CONTR
      000000B8H.2 SFRSYM    DATA     BIT       PX1
      000000F2H   SFRSYM    DATA     BYTE      PCA_PWM0
      000000F3H   SFRSYM    DATA     BYTE      PCA_PWM1
      000000F4H   SFRSYM    DATA     BYTE      PCA_PWM2
      0000009DH   SFRSYM    DATA     BYTE      P1ASF
      00000083H   SFRSYM    DATA     BYTE      DPH
      000000D1H   SFRSYM    DATA     BYTE      T4T3M
      000000BEH   SFRSYM    DATA     BYTE      ADC_RESL
      00000082H   SFRSYM    DATA     BYTE      DPL
      000000CDH   SFRSYM    DATA     BYTE      SPSTAT
      000000B7H   SFRSYM    DATA     BYTE      IPH
      0000009BH   SFRSYM    DATA     BYTE      S2BUF
      00000097H   SFRSYM    DATA     BYTE      PCON2
      000000ADH   SFRSYM    DATA     BYTE      S3BUF
      00000098H.4 SFRSYM    DATA     BIT       REN
      00000085H   SFRSYM    DATA     BYTE      S4BUF
      0000009AH   SFRSYM    DATA     BYTE      S2CON
      000000ACH   SFRSYM    DATA     BYTE      S3CON
      000000C2H   SFRSYM    DATA     BYTE      ISP_DATA
      00000084H   SFRSYM    DATA     BYTE      S4CON
      000000B9H   SFRSYM    DATA     BYTE      SADEN
      000000B0H   SFRSYM    DATA     BIT       RXD
      000000A9H   SFRSYM    DATA     BYTE      SADDR
      000000B0H.1 SFRSYM    DATA     BIT       TXD
      000000F0H   SFRSYM    DATA     BIT       B0
      000000F0H.1 SFRSYM    DATA     BIT       B1
      000000C6H   SFRSYM    DATA     BYTE      IAP_TRIG
      000000A2H   SFRSYM    DATA     BYTE      AUXR1
      000000F0H.2 SFRSYM    DATA     BIT       B2
      00000090H.2 SFRSYM    DATA     BIT       SPI_SS
      0000008FH   SFRSYM    DATA     BYTE      AUXR2
      000000F0H.3 SFRSYM    DATA     BIT       B3
      000000F0H.4 SFRSYM    DATA     BIT       B4
      000000D0H.5 SFRSYM    DATA     BIT       F0
      000000F0H.5 SFRSYM    DATA     BIT       B5
      000000D0H.1 SFRSYM    DATA     BIT       F1
      0000008FH   SFRSYM    DATA     BYTE      INT_CLKO
      000000F0H.6 SFRSYM    DATA     BIT       B6
      000000E0H   SFRSYM    DATA     BIT       ACC0
      000000F0H.7 SFRSYM    DATA     BIT       B7
      000000E0H.1 SFRSYM    DATA     BIT       ACC1
      000000E0H.2 SFRSYM    DATA     BIT       ACC2
      000000E0H.3 SFRSYM    DATA     BIT       ACC3
      000000D0H   SFRSYM    DATA     BYTE      PSW
      000000E0H.4 SFRSYM    DATA     BIT       ACC4
      00000090H.5 SFRSYM    DATA     BIT       SPI_SCLK
      000000D8H   SFRSYM    DATA     BIT       CCF0
      000000E0H.5 SFRSYM    DATA     BIT       ACC5
      000000D8H.1 SFRSYM    DATA     BIT       CCF1
      000000E0H.6 SFRSYM    DATA     BIT       ACC6
      000000CFH   SFRSYM    DATA     BYTE      SPDAT
      00000094H   SFRSYM    DATA     BYTE      P0M0

      010063B1H   BLOCK     CODE     ---       LVL=0
      00000007H   SYMBOL    DATA     BYTE      ms
LX51 LINKER/LOCATER V4.66.41.0                                                        11/02/2018  15:47:42  PAGE 117


      010063B1H   BLOCK     CODE     NEAR LAB  LVL=1
      00000004H   SYMBOL    DATA     WORD      i
      ---         BLOCKEND  ---      ---       LVL=1
      010063B1H   LINE      CODE     ---       #31
      010063B1H   LINE      CODE     ---       #32
      010063B1H   LINE      CODE     ---       #34
      010063B1H   LINE      CODE     ---       #35
      010063B5H   LINE      CODE     ---       #36
      010063BEH   LINE      CODE     ---       #37
      010063C0H   LINE      CODE     ---       #38
      ---         BLOCKEND  ---      ---       LVL=0

      0100632EH   BLOCK     CODE     ---       LVL=0
      00000002H   SYMBOL    DATA     WORD      ms
      0100632EH   LINE      CODE     ---       #40
      01006332H   LINE      CODE     ---       #42
      01006342H   LINE      CODE     ---       #43
      ---         BLOCKEND  ---      ---       LVL=0

      ---         MODULE    ---      ---       EEPROM
      00000032H   PUBLIC    DATA     BYTE      ?_coverEEPROM_write_n?BYTE
      01005CD1H   PUBLIC    CODE     ---       _coverEEPROM_write_n
      00000039H   PUBLIC    DATA     BYTE      ?_EEPROM_write_n?BYTE
      01006017H   PUBLIC    CODE     ---       _EEPROM_write_n
      010062CAH   PUBLIC    CODE     ---       _EEPROM_SectorErase
      00000043H   PUBLIC    DATA     BYTE      ?_EEPROM_read_n?BYTE
      01005FDAH   PUBLIC    CODE     ---       _EEPROM_read_n
      010063C1H   PUBLIC    CODE     ---       DisableEEPROM
      000000D8H.2 SFRSYM    DATA     BIT       CCF2
      000000E0H.7 SFRSYM    DATA     BIT       ACC7
      00000093H   SFRSYM    DATA     BYTE      P0M1
      00000092H   SFRSYM    DATA     BYTE      P1M0
      00000096H   SFRSYM    DATA     BYTE      P2M0
      00000091H   SFRSYM    DATA     BYTE      P1M1
      00000080H   SFRSYM    DATA     BYTE      P0
      000000B2H   SFRSYM    DATA     BYTE      P3M0
      00000095H   SFRSYM    DATA     BYTE      P2M1
      00000090H   SFRSYM    DATA     BYTE      P1
      000000B4H   SFRSYM    DATA     BYTE      P4M0
      000000B1H   SFRSYM    DATA     BYTE      P3M1
      000000A0H   SFRSYM    DATA     BYTE      P2
      000000CAH   SFRSYM    DATA     BYTE      P5M0
      000000B3H   SFRSYM    DATA     BYTE      P4M1
      000000B0H   SFRSYM    DATA     BYTE      P3
      000000ABH   SFRSYM    DATA     BYTE      WKTCH
      000000B0H.4 SFRSYM    DATA     BIT       T0
      000000D0H.6 SFRSYM    DATA     BIT       AC
      000000CCH   SFRSYM    DATA     BYTE      P6M0
      000000C9H   SFRSYM    DATA     BYTE      P5M1
      000000C0H   SFRSYM    DATA     BYTE      P4
      000000B0H.5 SFRSYM    DATA     BIT       CLKOUT0
      000000B0H.5 SFRSYM    DATA     BIT       T1
      000000E2H   SFRSYM    DATA     BYTE      P7M0
      000000CBH   SFRSYM    DATA     BYTE      P6M1
      000000C8H   SFRSYM    DATA     BYTE      P5
      000000C6H   SFRSYM    DATA     BYTE      ISP_TRIG
      000000A8H.7 SFRSYM    DATA     BIT       EA
      000000B0H.4 SFRSYM    DATA     BIT       CLKOUT1
      000000A0H.4 SFRSYM    DATA     BIT       SPI_SS_2
      000000E8H   SFRSYM    DATA     BYTE      P6
      000000E1H   SFRSYM    DATA     BYTE      P7M1
      000000C8H.4 SFRSYM    DATA     BIT       SPI_SS_3
      00000090H.4 SFRSYM    DATA     BIT       SPI_MISO
      00000090H.3 SFRSYM    DATA     BIT       SPI_MOSI
      00000090H.1 SFRSYM    DATA     BIT       CCP0
LX51 LINKER/LOCATER V4.66.41.0                                                        11/02/2018  15:47:42  PAGE 118


      000000F8H   SFRSYM    DATA     BYTE      P7
      000000AAH   SFRSYM    DATA     BYTE      WKTCL
      00000090H   SFRSYM    DATA     BIT       CCP1
      000000CEH   SFRSYM    DATA     BYTE      SPCTL
      000000D8H.7 SFRSYM    DATA     BIT       CF
      000000B0H.7 SFRSYM    DATA     BIT       CCP2
      000000F9H   SFRSYM    DATA     BYTE      CH
      000000A2H   SFRSYM    DATA     BYTE      P_SW1
      000000BAH   SFRSYM    DATA     BYTE      P_SW2
      000000A8H.5 SFRSYM    DATA     BIT       EADC
      000000A0H.1 SFRSYM    DATA     BIT       SPI_SCLK_2
      000000A8H   SFRSYM    DATA     BYTE      IE
      000000C0H.3 SFRSYM    DATA     BIT       SPI_SCLK_3
      000000E9H   SFRSYM    DATA     BYTE      CL
      000000C5H   SFRSYM    DATA     BYTE      IAP_CMD
      000000FAH   SFRSYM    DATA     BYTE      CCAP0H
      000000FBH   SFRSYM    DATA     BYTE      CCAP1H
      000000FCH   SFRSYM    DATA     BYTE      CCAP2H
      000000BDH   SFRSYM    DATA     BYTE      ADC_RES
      000000B6H   SFRSYM    DATA     BYTE      IPH2
      000000D8H.6 SFRSYM    DATA     BIT       CR
      000000EAH   SFRSYM    DATA     BYTE      CCAP0L
      000000B0H.7 SFRSYM    DATA     BIT       RD
      000000EBH   SFRSYM    DATA     BYTE      CCAP1L
      000000DAH   SFRSYM    DATA     BYTE      CCAPM0
      000000ECH   SFRSYM    DATA     BYTE      CCAP2L
      000000DBH   SFRSYM    DATA     BYTE      CCAPM1
      000000A8H.4 SFRSYM    DATA     BIT       ES
      000000DCH   SFRSYM    DATA     BYTE      CCAPM2
      000000B8H.5 SFRSYM    DATA     BIT       PADC
      000000A0H.2 SFRSYM    DATA     BIT       SPI_MISO_2
      000000A0H.3 SFRSYM    DATA     BIT       SPI_MOSI_2
      000000B8H   SFRSYM    DATA     BYTE      IP
      000000C0H.1 SFRSYM    DATA     BIT       SPI_MISO_3
      000000C0H   SFRSYM    DATA     BIT       SPI_MOSI_3
      00000098H   SFRSYM    DATA     BIT       RI
      000000B0H.2 SFRSYM    DATA     BIT       INT0
      000000D0H.7 SFRSYM    DATA     BIT       CY
      00000098H.1 SFRSYM    DATA     BIT       TI
      000000B0H.3 SFRSYM    DATA     BIT       INT1
      00000097H   SFRSYM    DATA     BYTE      CLK_DIV
      000000C3H   SFRSYM    DATA     BYTE      IAP_ADDRH
      00000090H   SFRSYM    DATA     BIT       RXD2
      000000C5H   SFRSYM    DATA     BYTE      ISP_CMD
      000000B8H.4 SFRSYM    DATA     BIT       PS
      00000090H.1 SFRSYM    DATA     BIT       TXD2
      00000081H   SFRSYM    DATA     BYTE      SP
      000000D9H   SFRSYM    DATA     BYTE      CMOD
      000000D8H   SFRSYM    DATA     BYTE      CCON
      000000C4H   SFRSYM    DATA     BYTE      IAP_ADDRL
      000000B8H.7 SFRSYM    DATA     BIT       PPCA
      000000D0H.2 SFRSYM    DATA     BIT       OV
      000000B0H.6 SFRSYM    DATA     BIT       WR
      000000A8H.6 SFRSYM    DATA     BIT       ELVD
      00000080H   SFRSYM    DATA     BIT       P00
      00000090H   SFRSYM    DATA     BIT       P10
      00000080H.1 SFRSYM    DATA     BIT       P01
      000000BCH   SFRSYM    DATA     BYTE      ADC_CONTR
      00000099H   SFRSYM    DATA     BYTE      SBUF
      00000087H   SFRSYM    DATA     BYTE      PCON
      000000A0H   SFRSYM    DATA     BIT       P20
      00000090H.1 SFRSYM    DATA     BIT       P11
      00000080H.2 SFRSYM    DATA     BIT       P02
      000000C3H   SFRSYM    DATA     BYTE      ISP_ADDRH
      000000B0H   SFRSYM    DATA     BIT       P30
LX51 LINKER/LOCATER V4.66.41.0                                                        11/02/2018  15:47:42  PAGE 119


      000000A0H.1 SFRSYM    DATA     BIT       P21
      00000090H.2 SFRSYM    DATA     BIT       P12
      00000080H.3 SFRSYM    DATA     BIT       P03
      000000C0H   SFRSYM    DATA     BIT       P40
      000000B0H.1 SFRSYM    DATA     BIT       P31
      000000A0H.2 SFRSYM    DATA     BIT       P22
      00000090H.3 SFRSYM    DATA     BIT       P13
      00000080H.4 SFRSYM    DATA     BIT       P04
      00000098H   SFRSYM    DATA     BYTE      SCON
      0000008FH   SFRSYM    DATA     BYTE      WAKE_CLKO
      000000C8H   SFRSYM    DATA     BIT       P50
      000000C0H.1 SFRSYM    DATA     BIT       P41
      000000B0H.2 SFRSYM    DATA     BIT       P32
      000000A0H.3 SFRSYM    DATA     BIT       P23
      00000090H.4 SFRSYM    DATA     BIT       P14
      00000080H.5 SFRSYM    DATA     BIT       P05
      00000089H   SFRSYM    DATA     BYTE      TMOD
      00000088H   SFRSYM    DATA     BYTE      TCON
      000000C8H.1 SFRSYM    DATA     BIT       P51
      000000C0H.2 SFRSYM    DATA     BIT       P42
      000000B0H.3 SFRSYM    DATA     BIT       P33
      000000A0H.4 SFRSYM    DATA     BIT       P24
      00000090H.5 SFRSYM    DATA     BIT       P15
      00000080H.6 SFRSYM    DATA     BIT       P06
      000000C4H   SFRSYM    DATA     BYTE      ISP_ADDRL
      000000B8H.6 SFRSYM    DATA     BIT       PLVD
      000000C8H.2 SFRSYM    DATA     BIT       P52
      000000C0H.3 SFRSYM    DATA     BIT       P43
      000000B0H.4 SFRSYM    DATA     BIT       P34
      000000A0H.5 SFRSYM    DATA     BIT       P25
      00000090H.6 SFRSYM    DATA     BIT       P16
      00000080H.7 SFRSYM    DATA     BIT       P07
      000000C8H.3 SFRSYM    DATA     BIT       P53
      000000C0H.4 SFRSYM    DATA     BIT       P44
      000000B0H.5 SFRSYM    DATA     BIT       P35
      000000A0H.6 SFRSYM    DATA     BIT       P26
      00000090H.7 SFRSYM    DATA     BIT       P17
      000000C8H.4 SFRSYM    DATA     BIT       P54
      000000C0H.5 SFRSYM    DATA     BIT       P45
      000000B0H.6 SFRSYM    DATA     BIT       P36
      000000A0H.7 SFRSYM    DATA     BIT       P27
      000000C8H.5 SFRSYM    DATA     BIT       P55
      000000C0H.6 SFRSYM    DATA     BIT       P46
      000000B0H.7 SFRSYM    DATA     BIT       P37
      000000C8H.6 SFRSYM    DATA     BIT       P56
      000000C0H.7 SFRSYM    DATA     BIT       P47
      000000C8H.7 SFRSYM    DATA     BIT       P57
      00000088H.1 SFRSYM    DATA     BIT       IE0
      000000A1H   SFRSYM    DATA     BYTE      BUS_SPEED
      00000088H.3 SFRSYM    DATA     BIT       IE1
      000000AFH   SFRSYM    DATA     BYTE      IE2
      000000F0H   SFRSYM    DATA     BYTE      B
      0000008EH   SFRSYM    DATA     BYTE      AUXR
      000000C7H   SFRSYM    DATA     BYTE      IAP_CONTR
      000000E0H   SFRSYM    DATA     BYTE      ACC
      000000A8H.1 SFRSYM    DATA     BIT       ET0
      000000A8H.3 SFRSYM    DATA     BIT       ET1
      00000088H.5 SFRSYM    DATA     BIT       TF0
      00000088H.7 SFRSYM    DATA     BIT       TF1
      000000B5H   SFRSYM    DATA     BYTE      IP2
      0000008CH   SFRSYM    DATA     BYTE      RL_TH0
      00000098H.2 SFRSYM    DATA     BIT       RB8
      0000008DH   SFRSYM    DATA     BYTE      RL_TH1
      0000008CH   SFRSYM    DATA     BYTE      TH0
      000000A8H   SFRSYM    DATA     BIT       EX0
LX51 LINKER/LOCATER V4.66.41.0                                                        11/02/2018  15:47:42  PAGE 120


      00000088H   SFRSYM    DATA     BIT       IT0
      000000D6H   SFRSYM    DATA     BYTE      RL_T2H
      0000008DH   SFRSYM    DATA     BYTE      TH1
      000000A8H.2 SFRSYM    DATA     BIT       EX1
      00000098H.3 SFRSYM    DATA     BIT       TB8
      00000088H.2 SFRSYM    DATA     BIT       IT1
      000000D4H   SFRSYM    DATA     BYTE      RL_T3H
      000000D6H   SFRSYM    DATA     BYTE      TH2
      000000D6H   SFRSYM    DATA     BYTE      T2H
      000000D0H   SFRSYM    DATA     BIT       P
      000000D2H   SFRSYM    DATA     BYTE      RL_T4H
      000000D4H   SFRSYM    DATA     BYTE      TH3
      000000D4H   SFRSYM    DATA     BYTE      T3H
      0000008AH   SFRSYM    DATA     BYTE      RL_TL0
      00000098H.7 SFRSYM    DATA     BIT       SM0
      000000D2H   SFRSYM    DATA     BYTE      TH4
      000000D2H   SFRSYM    DATA     BYTE      T4H
      0000008BH   SFRSYM    DATA     BYTE      RL_TL1
      0000008AH   SFRSYM    DATA     BYTE      TL0
      00000098H.6 SFRSYM    DATA     BIT       SM1
      000000D7H   SFRSYM    DATA     BYTE      RL_T2L
      0000008BH   SFRSYM    DATA     BYTE      TL1
      00000098H.5 SFRSYM    DATA     BIT       SM2
      000000D5H   SFRSYM    DATA     BYTE      RL_T3L
      000000D7H   SFRSYM    DATA     BYTE      TL2
      000000D7H   SFRSYM    DATA     BYTE      T2L
      000000D3H   SFRSYM    DATA     BYTE      RL_T4L
      000000D5H   SFRSYM    DATA     BYTE      TL3
      000000D5H   SFRSYM    DATA     BYTE      T3L
      000000B8H.1 SFRSYM    DATA     BIT       PT0
      000000D3H   SFRSYM    DATA     BYTE      TL4
      000000D3H   SFRSYM    DATA     BYTE      T4L
      000000B8H.3 SFRSYM    DATA     BIT       PT1
      000000D0H.3 SFRSYM    DATA     BIT       RS0
      000000C7H   SFRSYM    DATA     BYTE      ISP_CONTR
      00000088H.4 SFRSYM    DATA     BIT       TR0
      000000D0H.4 SFRSYM    DATA     BIT       RS1
      000000C2H   SFRSYM    DATA     BYTE      IAP_DATA
      00000088H.6 SFRSYM    DATA     BIT       TR1
      000000B8H   SFRSYM    DATA     BIT       PX0
      000000C1H   SFRSYM    DATA     BYTE      WDT_CONTR
      000000B8H.2 SFRSYM    DATA     BIT       PX1
      000000F2H   SFRSYM    DATA     BYTE      PCA_PWM0
      000000F3H   SFRSYM    DATA     BYTE      PCA_PWM1
      000000F4H   SFRSYM    DATA     BYTE      PCA_PWM2
      0000009DH   SFRSYM    DATA     BYTE      P1ASF
      00000083H   SFRSYM    DATA     BYTE      DPH
      000000D1H   SFRSYM    DATA     BYTE      T4T3M
      000000BEH   SFRSYM    DATA     BYTE      ADC_RESL
      00000082H   SFRSYM    DATA     BYTE      DPL
      000000CDH   SFRSYM    DATA     BYTE      SPSTAT
      000000B7H   SFRSYM    DATA     BYTE      IPH
      0000009BH   SFRSYM    DATA     BYTE      S2BUF
      00000097H   SFRSYM    DATA     BYTE      PCON2
      000000ADH   SFRSYM    DATA     BYTE      S3BUF
      00000098H.4 SFRSYM    DATA     BIT       REN
      00000085H   SFRSYM    DATA     BYTE      S4BUF
      0000009AH   SFRSYM    DATA     BYTE      S2CON
      000000ACH   SFRSYM    DATA     BYTE      S3CON
      000000C2H   SFRSYM    DATA     BYTE      ISP_DATA
      00000084H   SFRSYM    DATA     BYTE      S4CON
      000000B9H   SFRSYM    DATA     BYTE      SADEN
      000000B0H   SFRSYM    DATA     BIT       RXD
      000000A9H   SFRSYM    DATA     BYTE      SADDR
      000000B0H.1 SFRSYM    DATA     BIT       TXD
LX51 LINKER/LOCATER V4.66.41.0                                                        11/02/2018  15:47:42  PAGE 121


      000000F0H   SFRSYM    DATA     BIT       B0
      000000F0H.1 SFRSYM    DATA     BIT       B1
      000000C6H   SFRSYM    DATA     BYTE      IAP_TRIG
      000000A2H   SFRSYM    DATA     BYTE      AUXR1
      000000F0H.2 SFRSYM    DATA     BIT       B2
      00000090H.2 SFRSYM    DATA     BIT       SPI_SS
      0000008FH   SFRSYM    DATA     BYTE      AUXR2
      000000F0H.3 SFRSYM    DATA     BIT       B3
      000000F0H.4 SFRSYM    DATA     BIT       B4
      000000D0H.5 SFRSYM    DATA     BIT       F0
      000000F0H.5 SFRSYM    DATA     BIT       B5
      000000D0H.1 SFRSYM    DATA     BIT       F1
      0000008FH   SFRSYM    DATA     BYTE      INT_CLKO
      000000F0H.6 SFRSYM    DATA     BIT       B6
      000000E0H   SFRSYM    DATA     BIT       ACC0
      000000F0H.7 SFRSYM    DATA     BIT       B7
      000000E0H.1 SFRSYM    DATA     BIT       ACC1
      000000E0H.2 SFRSYM    DATA     BIT       ACC2
      000000E0H.3 SFRSYM    DATA     BIT       ACC3
      000000D0H   SFRSYM    DATA     BYTE      PSW
      000000E0H.4 SFRSYM    DATA     BIT       ACC4
      00000090H.5 SFRSYM    DATA     BIT       SPI_SCLK
      000000D8H   SFRSYM    DATA     BIT       CCF0
      000000E0H.5 SFRSYM    DATA     BIT       ACC5
      000000D8H.1 SFRSYM    DATA     BIT       CCF1
      000000E0H.6 SFRSYM    DATA     BIT       ACC6
      000000CFH   SFRSYM    DATA     BYTE      SPDAT
      00000094H   SFRSYM    DATA     BYTE      P0M0
      01006408H   SYMBOL    CONST    ---       _?ix1000

      010063C1H   BLOCK     CODE     ---       LVL=0
      010063C1H   LINE      CODE     ---       #17
      010063C1H   LINE      CODE     ---       #18
      010063C1H   LINE      CODE     ---       #19
      010063C4H   LINE      CODE     ---       #20
      010063C6H   LINE      CODE     ---       #21
      010063C8H   LINE      CODE     ---       #22
      010063CBH   LINE      CODE     ---       #23
      010063CEH   LINE      CODE     ---       #24
      ---         BLOCKEND  ---      ---       LVL=0

      01005FDAH   BLOCK     CODE     ---       LVL=0
      00000004H   SYMBOL    DATA     WORD      EE_address
      00000001H   SYMBOL    DATA     ---       DataAddress
      00000048H   SYMBOL    DATA     WORD      number
      01005FDAH   LINE      CODE     ---       #36
      01005FDEH   LINE      CODE     ---       #37
      01005FDEH   LINE      CODE     ---       #38
      01005FE0H   LINE      CODE     ---       #39
      01005FE3H   LINE      CODE     ---       #40
      01005FE6H   LINE      CODE     ---       #42
      01005FE6H   LINE      CODE     ---       #43
      01005FE8H   LINE      CODE     ---       #44
      01005FECH   LINE      CODE     ---       #45
      01005FF2H   LINE      CODE     ---       #48
      01005FF3H   LINE      CODE     ---       #49
      01005FF8H   LINE      CODE     ---       #50
      01005FFDH   LINE      CODE     ---       #51
      01006004H   LINE      CODE     ---       #52
      01006011H   LINE      CODE     ---       #54
      01006014H   LINE      CODE     ---       #55
      01006016H   LINE      CODE     ---       #56
      ---         BLOCKEND  ---      ---       LVL=0

      010062CAH   BLOCK     CODE     ---       LVL=0
LX51 LINKER/LOCATER V4.66.41.0                                                        11/02/2018  15:47:42  PAGE 122


      00000004H   SYMBOL    DATA     WORD      EE_address
      010062CAH   LINE      CODE     ---       #67
      010062CEH   LINE      CODE     ---       #68
      010062CEH   LINE      CODE     ---       #69
      010062D0H   LINE      CODE     ---       #72
      010062D2H   LINE      CODE     ---       #73
      010062D6H   LINE      CODE     ---       #74
      010062D9H   LINE      CODE     ---       #75
      010062DCH   LINE      CODE     ---       #76
      010062E2H   LINE      CODE     ---       #77
      010062E3H   LINE      CODE     ---       #78
      010062E6H   LINE      CODE     ---       #79
      010062E8H   LINE      CODE     ---       #80
      ---         BLOCKEND  ---      ---       LVL=0

      01006017H   BLOCK     CODE     ---       LVL=0
      00000004H   SYMBOL    DATA     WORD      EE_address
      00000001H   SYMBOL    DATA     ---       DataAddress
      0000003EH   SYMBOL    DATA     WORD      number
      01006017H   LINE      CODE     ---       #91
      0100601BH   LINE      CODE     ---       #92
      0100601BH   LINE      CODE     ---       #93
      0100601DH   LINE      CODE     ---       #95
      01006020H   LINE      CODE     ---       #96
      01006023H   LINE      CODE     ---       #98
      01006023H   LINE      CODE     ---       #99
      01006025H   LINE      CODE     ---       #100
      01006029H   LINE      CODE     ---       #101
      0100602EH   LINE      CODE     ---       #102
      01006034H   LINE      CODE     ---       #103
      01006035H   LINE      CODE     ---       #104
      0100603AH   LINE      CODE     ---       #105
      01006041H   LINE      CODE     ---       #106
      0100604EH   LINE      CODE     ---       #108
      01006051H   LINE      CODE     ---       #109
      01006053H   LINE      CODE     ---       #110
      ---         BLOCKEND  ---      ---       LVL=0

      01005CD1H   BLOCK     CODE     ---       LVL=0
      00000032H   SYMBOL    DATA     WORD      EE_address
      00000034H   SYMBOL    DATA     ---       DataAddress
      00000037H   SYMBOL    DATA     WORD      number
      01005CDBH   BLOCK     CODE     NEAR LAB  LVL=1
      020001D8H   SYMBOL    XDATA    ---       datsTemp
      ---         BLOCKEND  ---      ---       LVL=1
      01005CD1H   LINE      CODE     ---       #122
      01005CDBH   LINE      CODE     ---       #124
      01005CEEH   LINE      CODE     ---       #126
      01005D00H   LINE      CODE     ---       #127
      01005D05H   LINE      CODE     ---       #129
      01005D20H   LINE      CODE     ---       #131
      ---         BLOCKEND  ---      ---       LVL=0

      ---         MODULE    ---      ---       PARS_METHOD
      00000045H   PUBLIC    DATA     BYTE      ?_memmem?BYTE
      0100584BH   PUBLIC    CODE     ---       _memmem

      0100584BH   BLOCK     CODE     ---       LVL=0
      00000045H   SYMBOL    DATA     ---       start
      00000048H   SYMBOL    DATA     BYTE      s_len
      00000049H   SYMBOL    DATA     ---       find
      0000004CH   SYMBOL    DATA     BYTE      f_len
      01005853H   BLOCK     CODE     NEAR LAB  LVL=1
      0000004DH   SYMBOL    DATA     BYTE      len
      0000004EH   SYMBOL    DATA     ---       p
LX51 LINKER/LOCATER V4.66.41.0                                                        11/02/2018  15:47:42  PAGE 123


      00000051H   SYMBOL    DATA     ---       q
      ---         BLOCKEND  ---      ---       LVL=1
      0100584BH   LINE      CODE     ---       #4
      01005853H   LINE      CODE     ---       #6
      01005856H   LINE      CODE     ---       #7
      0100585CH   LINE      CODE     ---       #8
      01005865H   LINE      CODE     ---       #10
      01005884H   LINE      CODE     ---       #12
      010058AAH   LINE      CODE     ---       #14
      010058ACH   LINE      CODE     ---       #15
      010058BDH   LINE      CODE     ---       #16
      010058BDH   LINE      CODE     ---       #18
      010058C6H   LINE      CODE     ---       #19
      010058C9H   LINE      CODE     ---       #20
      010058CBH   LINE      CODE     ---       #22
      010058D1H   LINE      CODE     ---       #23
      ---         BLOCKEND  ---      ---       LVL=0

      ---         MODULE    ---      ---       ?C_STARTUP
      01000000H   PUBLIC    CODE     ---       ?C_STARTUP

      ---         MODULE    ---      ---       ?C?COPY
      01002736H   PUBLIC    CODE     ---       ?C?COPY

      ---         MODULE    ---      ---       ?C?CLDPTR
      0100275CH   PUBLIC    CODE     ---       ?C?CLDPTR

      ---         MODULE    ---      ---       ?C?CLDOPTR
      01002775H   PUBLIC    CODE     ---       ?C?CLDOPTR

      ---         MODULE    ---      ---       ?C?CSTPTR
      010027A2H   PUBLIC    CODE     ---       ?C?CSTPTR

      ---         MODULE    ---      ---       ?C?CSTOPTR
      010027B4H   PUBLIC    CODE     ---       ?C?CSTOPTR

      ---         MODULE    ---      ---       ?C?IMUL
      010027D6H   PUBLIC    CODE     ---       ?C?IMUL

      ---         MODULE    ---      ---       ?C?UIDIV
      010027E8H   PUBLIC    CODE     ---       ?C?UIDIV

      ---         MODULE    ---      ---       ?C?LMUL
      0100283DH   PUBLIC    CODE     ---       ?C?LMUL

      ---         MODULE    ---      ---       ?C?ULCMP
      0100288CH   PUBLIC    CODE     ---       ?C?ULCMP

      ---         MODULE    ---      ---       ?C?ULSHR
      0100289DH   PUBLIC    CODE     ---       ?C?ULSHR

      ---         MODULE    ---      ---       ?C?LSHL
      010028B0H   PUBLIC    CODE     ---       ?C?LSHL

      ---         MODULE    ---      ---       ?C?CCASE
      010028C3H   PUBLIC    CODE     ---       ?C?CCASE

      ---         MODULE    ---      ---       ?C?ICALL
      010028E9H   PUBLIC    CODE     ---       ?C?ICALL
      010028EDH   PUBLIC    CODE     ---       ?C?ICALL2

      ---         MODULE    ---      ---       PRINTF
      00000037H   PUBLIC    DATA     ---       ?_PRINTF517?BYTE
      00000037H   PUBLIC    DATA     ---       ?_PRINTF?BYTE
      00000037H   PUBLIC    DATA     ---       ?_SPRINTF517?BYTE
LX51 LINKER/LOCATER V4.66.41.0                                                        11/02/2018  15:47:42  PAGE 124


      00000037H   PUBLIC    DATA     ---       ?_SPRINTF?BYTE
      0100364EH   PUBLIC    CODE     ---       _PRINTF
      0100364EH   PUBLIC    CODE     ---       _PRINTF517
      01003648H   PUBLIC    CODE     ---       _SPRINTF
      01003648H   PUBLIC    CODE     ---       _SPRINTF517

      ---         MODULE    ---      ---       ?C?MEMCMP
      01002A75H   PUBLIC    CODE     ---       ?C?MEMCMP

      ---         MODULE    ---      ---       ?C?MEMSET
      01002A99H   PUBLIC    CODE     ---       ?C?MEMSET

      ---         MODULE    ---      ---       ?C_INIT
      0100577FH   PUBLIC    CODE     ---       ?C_START

      ---         MODULE    ---      ---       ?C?PLDIIDATA
      01002AC5H   PUBLIC    CODE     ---       ?C?PLDIIDATA

      ---         MODULE    ---      ---       PUTCHAR
      010061EFH   PUBLIC    CODE     ---       _PUTCHAR

Program Size: data=138.4 xdata=1359 const=132 code=25608
LX51 RUN COMPLETE.  0 WARNING(S),  0 ERROR(S)
