LX51 LINKER/LOCATER V4.66.41.0                                                          01/11/2019  12:04:15  PAGE 1


LX51 LINKER/LOCATER V4.66.41.0, INVOKED BY:
C:\KEIL_V5\C51\BIN\LX51.EXE .\Output\Usr_Main.obj, .\Output\appTimer.obj, .\Output\dataManage.obj, .\Output\Tips.obj, .\
>> Output\devlopeDebug.obj, .\Output\dataTrans.obj, .\Output\usrKin.obj, .\Output\DS18B20.obj, .\Output\Relay.obj, .\Out
>> put\timerAct.obj, .\Output\touchPad.obj, .\Output\driver_I2C_HXD019D.obj, .\Output\USART.obj, .\Output\delay.obj, .\O
>> utput\EEPROM.obj, .\Output\pars_Method.obj TO .\Output\swZigbNode_sw3bit PRINT (.\Listings\swZigbNode_sw3bit.map) REM
>> OVEUNUSED


CPU MODE:     8051 MODE
MEMORY MODEL: SMALL


INPUT MODULES INCLUDED:
  .\Output\Usr_Main.obj (USR_MAIN)
         COMMENT TYPE 0: C51 V9.54
  .\Output\appTimer.obj (APPTIMER)
         COMMENT TYPE 0: C51 V9.54
  .\Output\dataManage.obj (DATAMANAGE)
         COMMENT TYPE 0: C51 V9.54
  .\Output\Tips.obj (TIPS)
         COMMENT TYPE 0: C51 V9.54
  .\Output\devlopeDebug.obj (DEVLOPEDEBUG)
         COMMENT TYPE 0: C51 V9.54
  .\Output\dataTrans.obj (DATATRANS)
         COMMENT TYPE 0: C51 V9.54
  .\Output\usrKin.obj (USRKIN)
         COMMENT TYPE 0: C51 V9.54
  .\Output\DS18B20.obj (DS18B20)
         COMMENT TYPE 0: C51 V9.54
  .\Output\Relay.obj (RELAY)
         COMMENT TYPE 0: C51 V9.54
  .\Output\timerAct.obj (TIMERACT)
         COMMENT TYPE 0: C51 V9.54
  .\Output\touchPad.obj (TOUCHPAD)
         COMMENT TYPE 0: C51 V9.54
  .\Output\driver_I2C_HXD019D.obj (DRIVER_I2C_HXD019D)
         COMMENT TYPE 0: C51 V9.54
  .\Output\USART.obj (USART)
         COMMENT TYPE 0: C51 V9.54
  .\Output\delay.obj (DELAY)
         COMMENT TYPE 0: C51 V9.54
  .\Output\EEPROM.obj (EEPROM)
         COMMENT TYPE 0: C51 V9.54
  .\Output\pars_Method.obj (PARS_METHOD)
         COMMENT TYPE 0: C51 V9.54
  C:\KEIL_V5\C51\LIB\C51S.LIB (?C_STARTUP)
         COMMENT TYPE 1: A51 / ASM51 Assembler
  C:\KEIL_V5\C51\LIB\C51S.LIB (?C?COPY)
         COMMENT TYPE 1: A51 / ASM51 Assembler
  C:\KEIL_V5\C51\LIB\C51S.LIB (?C?CLDPTR)
         COMMENT TYPE 1: A51 / ASM51 Assembler
  C:\KEIL_V5\C51\LIB\C51S.LIB (?C?CLDOPTR)
         COMMENT TYPE 1: A51 / ASM51 Assembler
  C:\KEIL_V5\C51\LIB\C51S.LIB (?C?CSTPTR)
         COMMENT TYPE 1: A51 / ASM51 Assembler
  C:\KEIL_V5\C51\LIB\C51S.LIB (?C?CSTOPTR)
         COMMENT TYPE 1: A51 / ASM51 Assembler
  C:\KEIL_V5\C51\LIB\C51S.LIB (?C?IMUL)
         COMMENT TYPE 1: A51 / ASM51 Assembler
  C:\KEIL_V5\C51\LIB\C51S.LIB (?C?UIDIV)
         COMMENT TYPE 1: A51 / ASM51 Assembler
  C:\KEIL_V5\C51\LIB\C51S.LIB (?C?LMUL)
         COMMENT TYPE 1: A51 / ASM51 Assembler
  C:\KEIL_V5\C51\LIB\C51S.LIB (?C?ULCMP)
         COMMENT TYPE 1: A51 / ASM51 Assembler
  C:\KEIL_V5\C51\LIB\C51S.LIB (?C?ULSHR)
LX51 LINKER/LOCATER V4.66.41.0                                                        01/11/2019  12:04:15  PAGE 2


         COMMENT TYPE 1: A51 / ASM51 Assembler
  C:\KEIL_V5\C51\LIB\C51S.LIB (?C?LSHL)
         COMMENT TYPE 1: A51 / ASM51 Assembler
  C:\KEIL_V5\C51\LIB\C51S.LIB (?C?OFFXADD)
         COMMENT TYPE 1: A51 / ASM51 Assembler
  C:\KEIL_V5\C51\LIB\C51S.LIB (?C?CCASE)
         COMMENT TYPE 1: A51 / ASM51 Assembler
  C:\KEIL_V5\C51\LIB\C51S.LIB (?C?ICALL)
         COMMENT TYPE 1: A51 / ASM51 Assembler
  C:\KEIL_V5\C51\LIB\C51S.LIB (PRINTF)
         COMMENT TYPE 1: A51 / ASM51 Assembler
  C:\KEIL_V5\C51\LIB\C51S.LIB (?C?MEMCMP)
         COMMENT TYPE 1: A51 / ASM51 Assembler
  C:\KEIL_V5\C51\LIB\C51S.LIB (?C?MEMSET)
         COMMENT TYPE 1: A51 / ASM51 Assembler
  C:\KEIL_V5\C51\LIB\C51S.LIB (?C_INIT)
         COMMENT TYPE 1: A51 / ASM51 Assembler
  C:\KEIL_V5\C51\LIB\C51S.LIB (?C?PLDIIDATA)
         COMMENT TYPE 1: A51 / ASM51 Assembler
  C:\KEIL_V5\C51\LIB\C51S.LIB (PUTCHAR)
         COMMENT TYPE 1: A51 / ASM51 Assembler


ACTIVE MEMORY CLASSES OF MODULE:  .\Output\swZigbNode_sw3bit (USR_MAIN)

BASE        START       END         USED      MEMORY CLASS
==========================================================
C:000000H   C:000000H   C:00FFFFH   00738FH   CODE
X:000000H   X:000000H   X:00FFFFH   0006F5H   XDATA
I:000020H.0 I:000020H.0 I:00002FH.7 000006H.1 BIT
I:000000H   I:000000H   I:00007FH   000076H   DATA
C:000000H   C:000000H   C:00FFFFH   000087H   CONST
I:000000H   I:000000H   I:0000FFH   00005DH   IDATA


MEMORY MAP OF MODULE:  .\Output\swZigbNode_sw3bit (USR_MAIN)


START     STOP      LENGTH    ALIGN  RELOC    MEMORY CLASS   SEGMENT NAME
=========================================================================

* * * * * * * * * * *   D A T A   M E M O R Y   * * * * * * * * * * * * *
000000H   000007H   000008H   ---    AT..     DATA           "REG BANK 0"
000008H   00001FH   000018H   BYTE   UNIT     DATA           ?DT?TIPS
000020H.0 000021H.6 000001H.7 BIT    UNIT     BIT            _BIT_GROUP_
000021H.7 000023H.0 000001H.2 BIT    UNIT     BIT            ?BI?USRKIN
000023H.1 000024H.1 000001H.1 BIT    UNIT     BIT            ?BI?DATATRANS
000024H.2 000025H.0 000000H.7 BIT    UNIT     BIT            ?BI?TIPS
000025H.1 000025H.4 000000H.4 BIT    UNIT     BIT            ?BI?TIMERACT
000025H.5 000025H.6 000000H.2 BIT    UNIT     BIT            ?BI?RELAY
000025H.7 000025H.7 000000H.1 BIT    UNIT     BIT            ?BI?APPTIMER
000026H.0 000026H.0 000000H.1 BIT    UNIT     BIT            ?BI?DATAMANAGE
000026H.1 000026H   000000H.7 ---    ---      **GAP**
000027H   000055H   00002FH   BYTE   UNIT     DATA           _DATA_GROUP_
000056H   00005FH   00000AH   BYTE   UNIT     DATA           ?DT?DATATRANS
000060H   000067H   000008H   BYTE   UNIT     DATA           ?DT?USRKIN
000068H   00006EH   000007H   BYTE   UNIT     DATA           ?DT?APPTIMER
00006FH   000075H   000007H   BYTE   UNIT     DATA           ?DT?DATAMANAGE
000076H   00007CH   000007H   BYTE   UNIT     DATA           ?DT?USART
00007DH   0000BCH   000040H   BYTE   UNIT     IDATA          ?ID?DATAMANAGE
0000BDH   0000CAH   00000EH   BYTE   UNIT     IDATA          _IDATA_GROUP_
0000CBH   0000D7H   00000DH   BYTE   UNIT     IDATA          ?ID?TIMERACT
0000D8H   0000D8H   000001H   BYTE   UNIT     IDATA          ?ID?USRKIN
0000D9H   0000D9H   000001H   BYTE   UNIT     IDATA          ?STACK

LX51 LINKER/LOCATER V4.66.41.0                                                        01/11/2019  12:04:15  PAGE 3


* * * * * * * * * * *   C O D E   M E M O R Y   * * * * * * * * * * * * *
000000H   000002H   000003H   ---    OFFS..   CODE           ?CO??C_STARTUP?0
000003H   00000AH   000008H   BYTE   UNIT     CODE           ?PR?TIPS_SYSSTANDBY?TIPS
00000BH   00000DH   000003H   BYTE   OFFS..   CODE           ?APPTIMER?0000B
00000EH   000022H   000015H   BYTE   UNIT     CODE           ?PR?APPTIMER0_INIT?APPTIMER
000023H   000025H   000003H   BYTE   OFFS..   CODE           ?DATATRANS?00023
000026H   0000A0H   00007BH   BYTE   UNIT     CODE           ?PR?_MEMMEM?PARS_METHOD
0000A1H   0000A1H   000001H   BYTE   UNIT     CODE           ?PR?TIMER0_ROUNTINE?APPTIMER
0000A2H   0000A2H   000001H   ---    ---      **GAP**
0000A3H   0000A5H   000003H   BYTE   OFFS..   CODE           ?APPTIMER?000A3
0000A6H   00126AH   0011C5H   BYTE   UNIT     CODE           ?CO?DATATRANS
00126BH   001DC7H   000B5DH   BYTE   UNIT     CODE           ?PR?_DATAPARING_NOMAL?DATATRANS
001DC8H   0025FBH   000834H   BYTE   UNIT     CODE           ?PR?THREAD_DATATRANS?DATATRANS
0025FCH   002C00H   000605H   BYTE   UNIT     CODE           ?PR?TIMER4_ROUNTINE?APPTIMER
002C01H   0030C9H   0004C9H   BYTE   UNIT     CODE           ?C_INITSEG
0030CAH   003544H   00047BH   BYTE   UNIT     CODE           ?C?LIB_CODE
003545H   003900H   0003BCH   BYTE   UNIT     CODE           ?PR?DATATRANS
003901H   003C5CH   00035CH   BYTE   UNIT     CODE           ?PR?THREAD_TIPS?TIPS
003C5DH   003FB8H   00035CH   BYTE   UNIT     CODE           ?PR?PRINTF?PRINTF
003FB9H   00430AH   000352H   BYTE   UNIT     CODE           ?PR?THREAD_TIMING?TIMERACT
00430BH   004649H   00033FH   BYTE   UNIT     CODE           ?PR?ZIGB_NWKJOINREQUEST?DATATRANS
00464AH   0048EBH   0002A2H   BYTE   UNIT     CODE           ?PR?DATATRANSREQUEST_DATSSEND?DATATRANS
0048ECH   004B28H   00023DH   BYTE   UNIT     CODE           ?PR?TIPS
004B29H   004D21H   0001F9H   BYTE   UNIT     CODE           ?PR?TIPS_SYSBUTTONREALES?TIPS
004D22H   004F18H   0001F7H   BYTE   UNIT     CODE           ?PR?_DATAPARING_ZIGBSYSCTRL?DATATRANS
004F19H   0050CFH   0001B7H   BYTE   UNIT     CODE           ?PR?_TIPS_SPECIFIED?TIPS
0050D0H   005279H   0001AAH   BYTE   UNIT     CODE           ?PR?_NORMALBUSSINESS_SHORTTOUCHTRIG?USRKIN
00527AH   00540AH   000191H   BYTE   UNIT     CODE           ?CO?DATAMANAGE
00540BH   00554EH   000144H   BYTE   UNIT     CODE           ?PR?_ZIGB_SYSTIMESET?DATATRANS
00554FH   005683H   000135H   BYTE   UNIT     CODE           ?PR?TOUCHPAD_SCAN?USRKIN
005684H   005788H   000105H   BYTE   UNIT     CODE           ?PR?_TOUCHPAD_FUNCTIONTRIGNORMAL?USRKIN
005789H   00588DH   000105H   BYTE   UNIT     CODE           ?CO?USRKIN
00588EH   005989H   0000FCH   BYTE   UNIT     CODE           ?PR?GETSYSTEMTIME_REALES?DATATRANS
00598AH   005A81H   0000F8H   BYTE   UNIT     CODE           ?CO?TIMERACT
005A82H   005B79H   0000F8H   BYTE   UNIT     CODE           ?PR?TIMERACT
005B7AH   005C52H   0000D9H   BYTE   UNIT     CODE           ?PR?DTASTX_LOADBASIC_CUST?DATATRANS
005C53H   005D27H   0000D5H   BYTE   UNIT     CODE           ?PR?RELAY_ACT?RELAY
005D28H   005DFBH   0000D4H   BYTE   UNIT     CODE           ?PR?FUNCTION_DEVNWKHOLD?DATATRANS
005DFCH   005ECCH   0000D1H   BYTE   UNIT     CODE           ?PR?RELAY_STATUSREALES?RELAY
005ECDH   005F8CH   0000C0H   BYTE   UNIT     CODE           ?PR?_TOUCHPAD_FUNCTIONTRIGCONTINUE?USRKIN
005F8DH   006035H   0000A9H   BYTE   UNIT     CODE           ?PR?TIME_LOGOUT?TIMERACT
006036H   0060DAH   0000A5H   BYTE   UNIT     CODE           ?PR?RELAY_PININIT?RELAY
0060DBH   00617BH   0000A1H   BYTE   UNIT     CODE           ?PR?DEVDATARECOVERY_RELAYSTATUS?DATAMANAGE
00617CH   00620DH   000092H   BYTE   UNIT     CODE           ?PR?UART1_ROUNTINE?DATATRANS
00620EH   00629CH   00008FH   BYTE   UNIT     CODE           ?PR?_ZIGB_VALIDA_INPUT?DATATRANS
00629DH   006328H   00008CH   BYTE   UNIT     CODE           ?PR?FACTORY_RECOVER?DATAMANAGE
006329H   0063B4H   00008CH   BYTE   UNIT     CODE           ?C_C51STARTUP
0063B5H   00643EH   00008AH   BYTE   UNIT     CODE           ?PR?_ZIGB_TXFRAMELOAD?DATATRANS
00643FH   0064C7H   000089H   BYTE   UNIT     CODE           ?PR?THREAD_DEVLOPEDEBUG?DEVLOPEDEBUG
0064C8H   00654DH   000086H   BYTE   UNIT     CODE           ?PR?_DATSTIMING_READ_EEPROM?TIMERACT
00654EH   0065D3H   000086H   BYTE   UNIT     CODE           ?PR?_DATSTIMNIGHT_READ_EEPROM?TIMERACT
0065D4H   006657H   000084H   BYTE   UNIT     CODE           ?PR?USRKIN
006658H   0066D6H   00007FH   BYTE   UNIT     CODE           ?PR?_ZIGB_DATSLOAD_DATSSEND?DATATRANS
0066D7H   00674FH   000079H   BYTE   UNIT     CODE           ?CO?DEVLOPEDEBUG
006750H   0067C5H   000076H   BYTE   UNIT     CODE           ?PR?TIPS_WARNING?TIPS
0067C6H   006838H   000073H   BYTE   UNIT     CODE           ?PR?UARTOBJZIGB_INIT?DATATRANS
006839H   0068A7H   00006FH   BYTE   UNIT     CODE           ?PR?_USRKEYSCAN?USRKIN
0068A8H   006912H   00006BH   BYTE   UNIT     CODE           ?PR?DCODESCAN?USRKIN
006913H   00697CH   00006AH   BYTE   UNIT     CODE           ?PR?_THREAD_TIPSGETDARK?TIPS
00697DH   0069E5H   000069H   BYTE   UNIT     CODE           ?PR?APPTIMER
0069E6H   006A4DH   000068H   BYTE   UNIT     CODE           ?PR?_ZIGB_DATSREQUEST?DATATRANS
006A4EH   006AAFH   000062H   BYTE   UNIT     CODE           ?PR?_TIPSLED_COLORSET?TIPS
006AB0H   006B08H   000059H   BYTE   UNIT     CODE           ?PR?MAC_ID_RELAES?DATAMANAGE
006B09H   006B5DH   000055H   BYTE   UNIT     CODE           ?PR?_COVEREEPROM_WRITE_N?EEPROM
006B5EH   006BB0H   000053H   BYTE   UNIT     CODE           ?CO?TIPS
LX51 LINKER/LOCATER V4.66.41.0                                                        01/11/2019  12:04:15  PAGE 4


006BB1H   006BFFH   00004FH   BYTE   UNIT     CODE           ?PR?LEDBKGCOLORSW_REALES?TIPS
006C00H   006C4DH   00004EH   BYTE   UNIT     CODE           ?PR?ZIGB_NWKOPEN?DATATRANS
006C4EH   006C98H   00004BH   BYTE   UNIT     CODE           ?PR?MAIN?USR_MAIN
006C99H   006CE0H   000048H   BYTE   UNIT     CODE           ?PR?_DEVPARAMDTAASAVE_RELAYSTATUSREALTIME?DATAMANAGE
006CE1H   006D26H   000046H   BYTE   UNIT     CODE           ?PR?ZIGB_GETPANIDCURRENT?DATATRANS
006D27H   006D69H   000043H   BYTE   UNIT     CODE           ?PR?DCODESCAN_ONESHOOT?USRKIN
006D6AH   006DABH   000042H   BYTE   UNIT     CODE           ?PR?THREAD_RELAY?RELAY
006DACH   006DEAH   00003FH   BYTE   UNIT     CODE           ?PR?_DATAPARING_SCENARIOCTRL?DATATRANS
006DEBH   006E28H   00003EH   BYTE   UNIT     CODE           ?PR?_DATASENDREMOTE_STRAIGHTFORWARD?DATATRANS
006E29H   006E66H   00003EH   BYTE   UNIT     CODE           ?PR?USRZIGBNWKOPEN?USRKIN
006E67H   006EA2H   00003CH   BYTE   UNIT     CODE           ?CO?RELAY
006EA3H   006EDDH   00003BH   BYTE   UNIT     CODE           ?PR?TIPLED_PININIT?TIPS
006EDEH   006F14H   000037H   BYTE   UNIT     CODE           ?PR?_EEPROM_WRITE_N?EEPROM
006F15H   006F4AH   000036H   BYTE   UNIT     CODE           ?PR?_PRINTSTRING1_LOGOUT?USART
006F4BH   006F7CH   000032H   BYTE   UNIT     CODE           ?PR?DEVSTATUSCHANGETO_DEVHOLD?DATATRANS
006F7DH   006FAEH   000032H   BYTE   UNIT     CODE           ?PR?_EEPROM_READ_N?EEPROM
006FAFH   006FDEH   000030H   BYTE   UNIT     CODE           ?PR?DATAMANAGE
006FDFH   007008H   00002AH   BYTE   UNIT     CODE           ?PR?TIPS_SYSTOUCHRESET?TIPS
007009H   007032H   00002AH   BYTE   UNIT     CODE           ?PR?_WEEKEND_JUDGE?TIMERACT
007033H   00705AH   000028H   BYTE   UNIT     CODE           ?PR?SWITCHTYPERESERVE_GET?DATAMANAGE
00705BH   007081H   000027H   BYTE   UNIT     CODE           ?PR?USRKIN_PININIT?USRKIN
007082H   0070A8H   000027H   BYTE   UNIT     CODE           ?PR?PUTCHAR?PUTCHAR
0070A9H   0070CEH   000026H   BYTE   UNIT     CODE           ?PR?_UART1_DATSSEND?USART
0070CFH   0070F3H   000025H   BYTE   UNIT     CODE           ?PR?_FRAME_CHECK?DATATRANS
0070F4H   007116H   000023H   BYTE   UNIT     CODE           ?PR?_TX1_WRITE2BUFF?USART
007117H   007138H   000022H   BYTE   UNIT     CODE           ?PR?BIRTHDAY_JUDGE?DATAMANAGE
007139H   007156H   00001EH   BYTE   UNIT     CODE           ?PR?_DEVTYPECOMFIRM_BYDCODE?USRKIN
007157H   007172H   00001CH   BYTE   UNIT     CODE           ?PR?TIMEZONE_REALES?TIMERACT
007173H   00718DH   00001BH   BYTE   UNIT     CODE           ?PR?_BEEPS_USRACTIVE?TIPS
00718EH   0071A6H   000019H   BYTE   UNIT     CODE           ?PR?_EEPROM_SECTORERASE?EEPROM
0071A7H   0071BEH   000018H   BYTE   UNIT     CODE           ?PR?BSP_INIT?USR_MAIN
0071BFH   0071D6H   000018H   BYTE   UNIT     CODE           ?PR?TIPS_STATUSCHANGETONORMAL?TIPS
0071D7H   0071EEH   000018H   BYTE   UNIT     CODE           ?PR?_TIPS_STATUSCHANGETOZIGBNWKOPEN?TIPS
0071EFH   007206H   000018H   BYTE   UNIT     CODE           ?PR?_NORMALBUSSINESS_LONGA_TOUCHKEEPTRIG?USRKIN
007207H   00721EH   000018H   BYTE   UNIT     CODE           ?PR?EEPROM
00721FH   007234H   000016H   BYTE   UNIT     CODE           ?PR?_TIPS_STATUSCHANGETOFACTORYRECOVER?TIPS
007235H   00724AH   000016H   BYTE   UNIT     CODE           ?PR?DEVLOPEDEBUG
00724BH   00725FH   000015H   BYTE   UNIT     CODE           ?PR?USRKEYFUN_ZIGBNWKREJOIN?USRKIN
007260H   007274H   000015H   BYTE   UNIT     CODE           ?PR?_DELAYMS?DELAY
007275H   007287H   000013H   BYTE   UNIT     CODE           ?PR?PORTCTRLEACHOTHER_REALES?DATAMANAGE
007288H   00729AH   000013H   BYTE   UNIT     CODE           ?PR?_TIPS_STATUSCHANGETOTOUCHRESET?TIPS
00729BH   0072ADH   000013H   BYTE   UNIT     CODE           ?PR?ZIGBUART_PININIT?DATATRANS
0072AEH   0072C0H   000013H   BYTE   UNIT     CODE           ?PR?TOUCHPADSCAN_ONESHOOT?USRKIN
0072C1H   0072D3H   000013H   BYTE   UNIT     CODE           ?PR?_PRINTSTRING1?USART
0072D4H   0072E4H   000011H   BYTE   UNIT     CODE           ?PR?_PERIODDATATRANS_MOMENTHANG?DATATRANS
0072E5H   0072F5H   000011H   BYTE   UNIT     CODE           ?PR?FUN_FACTORYRECOVEROPREAT?DATATRANS
0072F6H   007305H   000010H   BYTE   UNIT     CODE           ?PR?APPTIMER4_INIT?APPTIMER
007306H   007315H   000010H   BYTE   UNIT     CODE           ?PR?_DELAY_MS?DELAY
007316H   007323H   00000EH   BYTE   UNIT     CODE           ?PR?TIPS_STATUSCHANGETOZIGBNWKFIND?TIPS
007324H   007331H   00000EH   BYTE   UNIT     CODE           ?PR?DISABLEEEPROM?EEPROM
007332H   00733DH   00000CH   BYTE   UNIT     CODE           ?PR?BSP_DATSREALES?USR_MAIN
00733EH   007349H   00000CH   BYTE   UNIT     CODE           ?PR?TOUCHPAD_PROCESSTHREAD?TOUCHPAD
00734AH   007353H   00000AH   BYTE   UNIT     CODE           ?PR?FUN_TOUCHRESET?USRKIN
007354H   00735DH   00000AH   BYTE   UNIT     CODE           ?PR?PARS_METHOD
00735EH   007366H   000009H   BYTE   UNIT     CODE           ?PR?DEVHOLDSTOP_MAKEINADVANCE?DATATRANS
007367H   00736FH   000009H   BYTE   UNIT     CODE           ?PR?ITRF_DATSTIMING_READ_EEPROM?TIMERACT
007370H   007378H   000009H   BYTE   UNIT     CODE           ?PR?ITRF_DATSTIMNIGHT_READ_EEPROM?TIMERACT
007379H   00737FH   000007H   BYTE   UNIT     CODE           ?PR?PINBEEP_INIT?TIPS
007380H   007386H   000007H   BYTE   UNIT     CODE           ?PR?RELAY
007387H   00738CH   000006H   BYTE   UNIT     CODE           ?PR?_TOUCHPAD_RESETOPREAT?TOUCHPAD
00738DH   00738FH   000003H   BYTE   UNIT     CODE           ?PR?USRKEYSCAN_ONESHOOT?USRKIN
007390H   00740FH   000080H   BYTE   UNIT     CONST          ?CO?EEPROM
007410H   007416H   000007H   BYTE   UNIT     CONST          ?CO?APPTIMER

* * * * * * * * * * *  X D A T A   M E M O R Y  * * * * * * * * * * * * *
LX51 LINKER/LOCATER V4.66.41.0                                                        01/11/2019  12:04:15  PAGE 5


000000H   000312H   000313H   BYTE   UNIT     XDATA          _XDATA_GROUP_
000313H   000548H   000236H   BYTE   UNIT     XDATA          ?XD?DATATRANS
000549H   00067AH   000132H   BYTE   UNIT     XDATA          ?XD?USART
00067BH   0006A4H   00002AH   BYTE   UNIT     XDATA          ?XD?TIMERACT
0006A5H   0006BDH   000019H   BYTE   UNIT     XDATA          ?XD?TIPS
0006BEH   0006D0H   000013H   BYTE   UNIT     XDATA          ?XD?APPTIMER
0006D1H   0006DDH   00000DH   BYTE   UNIT     XDATA          ?XD?DATAMANAGE
0006DEH   0006E7H   00000AH   BYTE   UNIT     XDATA          ?XD?RELAY
0006E8H   0006EFH   000008H   BYTE   UNIT     XDATA          ?XD?USRKIN
0006F0H   0006F3H   000004H   BYTE   UNIT     XDATA          ?XD?DEVLOPEDEBUG
0006F4H   0006F4H   000001H   BYTE   UNIT     XDATA          ?XD?TOUCHPAD

* * * * * * * * *   R E M O V E D     S E G M E N T S   * * * * * * * *
   *DEL*:           000022H   BYTE   UNIT     CODE           ?PR?DEVLOCKINFO_REALES?DATAMANAGE
   *DEL*:           000001H   BYTE   UNIT     XDATA          ?XD?DEVLOCKINFO_REALES?DATAMANAGE
   *DEL*:           000073H   BYTE   UNIT     CODE           ?PR?TIPS_BREATH?TIPS
   *DEL*:           000141H   BYTE   UNIT     CODE           ?PR?TIPS_FADEOUT?TIPS
   *DEL*:           000023H   BYTE   UNIT     CODE           ?PR?_XORNUM_CHECK?DATATRANS
   *DEL*:           000003H   BYTE   UNIT     DATA           ?DT?_XORNUM_CHECK?DATATRANS
   *DEL*:           000001H   BYTE   UNIT     CODE           ?PR?FUN_TEST?USRKIN
   *DEL*:           000016H   BYTE   UNIT     CODE           ?PR?USRKEYFUN_RELAYOPREATION?USRKIN
   *DEL*:           000001H   BYTE   UNIT     CODE           ?PR?TOUCHPAD_PININIT?TOUCHPAD
   *DEL*:           00002DH   BYTE   UNIT     CODE           ?PR?_UART1_LOGOUT?USART
   *DEL*:           000004H   BYTE   UNIT     DATA           ?DT?_UART1_LOGOUT?USART
   *DEL*:           000014H   BYTE   UNIT     CODE           ?PR?_I2C_DELAY_US?DELAY



OVERLAY MAP OF MODULE:   .\Output\swZigbNode_sw3bit (USR_MAIN)


FUNCTION/MODULE                                BIT_GROUP   DATA_GROUP   IDATA_GROUP  XDATA_GROUP
--> CALLED FUNCTION/MODULE                    START  STOP  START  STOP  START  STOP  START  STOP
================================================================================================
TIMER0_ROUNTINE/APPTIMER                      ----- -----  ----- -----  ----- -----  ----- -----

*** NEW ROOT ********************************

TIMER4_ROUNTINE/APPTIMER                      ----- -----  ----- -----  ----- -----  ----- -----
  +--> ?CO?APPTIMER
  +--> APPTIMER

?CO?APPTIMER                                  ----- -----  ----- -----  ----- -----  ----- -----

APPTIMER                                      ----- -----  ----- -----  ----- -----  ----- -----
  +--> ?CO?APPTIMER

*** NEW ROOT ********************************

UART1_ROUNTINE/DATATRANS                      ----- -----  ----- -----  ----- -----  ----- -----
  +--> DATATRANS

DATATRANS                                     ----- -----  ----- -----  ----- -----  ----- -----

*** NEW ROOT ********************************

?C_C51STARTUP                                 ----- -----  ----- -----  ----- -----  ----- -----
  +--> MAIN/USR_MAIN
  +--> ?C_INITSEG

MAIN/USR_MAIN                                 ----- -----  ----- -----  ----- -----  ----- -----
  +--> BSP_INIT/USR_MAIN
  +--> BSP_DATSREALES/USR_MAIN
  +--> BIRTHDAY_JUDGE/DATAMANAGE
  +--> TOUCHPAD_SCAN/USRKIN
LX51 LINKER/LOCATER V4.66.41.0                                                        01/11/2019  12:04:15  PAGE 6


  +--> DCODESCAN/USRKIN
  +--> USRKEYFUN_ZIGBNWKREJOIN/USRKIN
  +--> FUN_FACTORYRECOVEROPREAT/DATATRANS
  +--> FUN_TOUCHRESET/USRKIN
  +--> _USRKEYSCAN/USRKIN
  +--> THREAD_TIMING/TIMERACT
  +--> THREAD_RELAY/RELAY
  +--> THREAD_DATATRANS/DATATRANS
  +--> THREAD_TIPS/TIPS
  +--> TOUCHPAD_PROCESSTHREAD/TOUCHPAD
  +--> THREAD_DEVLOPEDEBUG/DEVLOPEDEBUG

BSP_INIT/USR_MAIN                             ----- -----  ----- -----  ----- -----  ----- -----
  +--> APPTIMER0_INIT/APPTIMER
  +--> APPTIMER4_INIT/APPTIMER
  +--> ZIGBUART_PININIT/DATATRANS
  +--> UARTOBJZIGB_INIT/DATATRANS
  +--> TIPLED_PININIT/TIPS
  +--> PINBEEP_INIT/TIPS
  +--> USRKIN_PININIT/USRKIN
  +--> RELAY_PININIT/RELAY

APPTIMER0_INIT/APPTIMER                       ----- -----  ----- -----  ----- -----  ----- -----

APPTIMER4_INIT/APPTIMER                       ----- -----  ----- -----  ----- -----  ----- -----

ZIGBUART_PININIT/DATATRANS                    ----- -----  ----- -----  ----- -----  ----- -----

UARTOBJZIGB_INIT/DATATRANS                    ----- -----  0027H 002AH  ----- -----  ----- -----
  +--> DATATRANS
  +--> ?CO?DATATRANS
  +--> _PRINTSTRING1/USART
  +--> _PRINTSTRING1_LOGOUT/USART

?CO?DATATRANS                                 ----- -----  ----- -----  ----- -----  ----- -----

_PRINTSTRING1/USART                           ----- -----  ----- -----  ----- -----  ----- -----
  +--> _TX1_WRITE2BUFF/USART

_TX1_WRITE2BUFF/USART                         ----- -----  ----- -----  ----- -----  ----- -----

_PRINTSTRING1_LOGOUT/USART                    ----- -----  0038H 003AH  ----- -----  ----- -----
  +--> _PRINTSTRING1/USART
  +--> _DELAYMS/DELAY

_DELAYMS/DELAY                                ----- -----  ----- -----  ----- -----  ----- -----
  +--> _DELAY_MS/DELAY

_DELAY_MS/DELAY                               ----- -----  ----- -----  ----- -----  ----- -----

TIPLED_PININIT/TIPS                           ----- -----  ----- -----  ----- -----  ----- -----
  +--> _TIPSLED_COLORSET/TIPS

_TIPSLED_COLORSET/TIPS                        ----- -----  0028H 002BH  ----- -----  ----- -----
  +--> ?CO?TIPS
  +--> TIPS

?CO?TIPS                                      ----- -----  ----- -----  ----- -----  ----- -----

TIPS                                          ----- -----  ----- -----  ----- -----  ----- -----
  +--> ?CO?TIPS
  +--> TIPS_STATUSCHANGETONORMAL/TIPS

TIPS_STATUSCHANGETONORMAL/TIPS                ----- -----  ----- -----  ----- -----  ----- -----

LX51 LINKER/LOCATER V4.66.41.0                                                        01/11/2019  12:04:15  PAGE 7


PINBEEP_INIT/TIPS                             ----- -----  ----- -----  ----- -----  ----- -----

USRKIN_PININIT/USRKIN                         ----- -----  0027H 0027H  ----- -----  ----- -----
  +--> DCODESCAN_ONESHOOT/USRKIN
  +--> _DEVTYPECOMFIRM_BYDCODE/USRKIN

DCODESCAN_ONESHOOT/USRKIN                     ----- -----  ----- -----  ----- -----  ----- -----

_DEVTYPECOMFIRM_BYDCODE/USRKIN                ----- -----  ----- -----  ----- -----  ----- -----

RELAY_PININIT/RELAY                           ----- -----  ----- -----  00BDH 00BDH  ----- -----
  +--> _EEPROM_READ_N/EEPROM
  +--> RELAY
  +--> ?CO?RELAY
  +--> PRINTF/PRINTF
  +--> _PRINTSTRING1_LOGOUT/USART
  +--> DEVDATARECOVERY_RELAYSTATUS/DATAMANAGE
  +--> _COVEREEPROM_WRITE_N/EEPROM
  +--> RELAY_STATUSREALES/RELAY

_EEPROM_READ_N/EEPROM                         ----- -----  004FH 0055H  ----- -----  ----- -----
  +--> EEPROM
  +--> DISABLEEEPROM/EEPROM

EEPROM                                        ----- -----  ----- -----  ----- -----  ----- -----

DISABLEEEPROM/EEPROM                          ----- -----  ----- -----  ----- -----  ----- -----

RELAY                                         ----- -----  ----- -----  ----- -----  ----- -----

?CO?RELAY                                     ----- -----  ----- -----  ----- -----  ----- -----

PRINTF/PRINTF                                 20H.6 21H.6  0038H 004BH  ----- -----  ----- -----
  +--> PUTCHAR/PUTCHAR

PUTCHAR/PUTCHAR                               ----- -----  ----- -----  ----- -----  ----- -----

DEVDATARECOVERY_RELAYSTATUS/DATAMANAGE        ----- -----  ----- -----  ----- -----  0000H 0065H
  +--> ?CO?DATAMANAGE
  +--> DATAMANAGE
  +--> _EEPROM_READ_N/EEPROM
  +--> PRINTF/PRINTF
  +--> _PRINTSTRING1_LOGOUT/USART
  +--> _EEPROM_SECTORERASE/EEPROM

?CO?DATAMANAGE                                ----- -----  ----- -----  ----- -----  ----- -----

DATAMANAGE                                    ----- -----  ----- -----  ----- -----  ----- -----

_EEPROM_SECTORERASE/EEPROM                    ----- -----  ----- -----  ----- -----  ----- -----
  +--> EEPROM
  +--> DISABLEEEPROM/EEPROM

_COVEREEPROM_WRITE_N/EEPROM                   ----- -----  0033H 0039H  ----- -----  0293H 0312H
  +--> ?CO?EEPROM
  +--> EEPROM
  +--> _EEPROM_READ_N/EEPROM
  +--> _EEPROM_SECTORERASE/EEPROM
  +--> _EEPROM_WRITE_N/EEPROM

?CO?EEPROM                                    ----- -----  ----- -----  ----- -----  ----- -----

_EEPROM_WRITE_N/EEPROM                        ----- -----  003AH 0040H  ----- -----  ----- -----
  +--> EEPROM
  +--> DISABLEEEPROM/EEPROM
LX51 LINKER/LOCATER V4.66.41.0                                                        01/11/2019  12:04:15  PAGE 8



RELAY_STATUSREALES/RELAY                      ----- -----  ----- -----  ----- -----  ----- -----
  +--> _COVEREEPROM_WRITE_N/EEPROM
  +--> TIPS_STATUSCHANGETONORMAL/TIPS

BSP_DATSREALES/USR_MAIN                       ----- -----  ----- -----  ----- -----  ----- -----
  +--> MAC_ID_RELAES/DATAMANAGE
  +--> PORTCTRLEACHOTHER_REALES/DATAMANAGE
  +--> LEDBKGCOLORSW_REALES/TIPS
  +--> TIMEZONE_REALES/TIMERACT

MAC_ID_RELAES/DATAMANAGE                      ----- -----  ----- -----  ----- -----  ----- -----
  +--> DATAMANAGE
  +--> ?CO?DATAMANAGE
  +--> PRINTF/PRINTF
  +--> _PRINTSTRING1_LOGOUT/USART

PORTCTRLEACHOTHER_REALES/DATAMANAGE           ----- -----  ----- -----  ----- -----  ----- -----
  +--> _EEPROM_READ_N/EEPROM

LEDBKGCOLORSW_REALES/TIPS                     ----- -----  ----- -----  ----- -----  ----- -----
  +--> _EEPROM_READ_N/EEPROM

TIMEZONE_REALES/TIMERACT                      ----- -----  ----- -----  ----- -----  ----- -----
  +--> TIMERACT
  +--> _EEPROM_READ_N/EEPROM

TIMERACT                                      ----- -----  ----- -----  ----- -----  ----- -----

BIRTHDAY_JUDGE/DATAMANAGE                     ----- -----  ----- -----  ----- -----  0000H 0000H
  +--> _EEPROM_READ_N/EEPROM
  +--> FACTORY_RECOVER/DATAMANAGE

FACTORY_RECOVER/DATAMANAGE                    ----- -----  ----- -----  ----- -----  0213H 0292H
  +--> ?CO?DATAMANAGE
  +--> DATAMANAGE
  +--> _COVEREEPROM_WRITE_N/EEPROM
  +--> _DELAYMS/DELAY

TOUCHPAD_SCAN/USRKIN                          ----- -----  0027H 0029H  ----- -----  ----- -----
  +--> USRKIN
  +--> TOUCHPADSCAN_ONESHOOT/USRKIN
  +--> ?CO?USRKIN
  +--> _NORMALBUSSINESS_LONGA_TOUCHKEEPTRIG/USRKIN
  +--> _TOUCHPAD_FUNCTIONTRIGNORMAL/USRKIN
  +--> _TOUCHPAD_FUNCTIONTRIGCONTINUE/USRKIN

USRKIN                                        ----- -----  ----- -----  ----- -----  ----- -----
  +--> ?CO?USRKIN

?CO?USRKIN                                    ----- -----  ----- -----  ----- -----  ----- -----

TOUCHPADSCAN_ONESHOOT/USRKIN                  ----- -----  ----- -----  ----- -----  ----- -----

_NORMALBUSSINESS_LONGA_TOUCHKEEPTRIG/USR+     ----- -----  ----- -----  ----- -----  ----- -----
... KIN
  +--> ?CO?USRKIN

_TOUCHPAD_FUNCTIONTRIGNORMAL/USRKIN           ----- -----  002AH 002BH  ----- -----  ----- -----
  +--> USRKIN
  +--> ?CO?USRKIN
  +--> _PRINTSTRING1_LOGOUT/USART
  +--> _NORMALBUSSINESS_SHORTTOUCHTRIG/USRKIN
  +--> USRKEYFUN_ZIGBNWKREJOIN/USRKIN
  +--> PRINTF/PRINTF
LX51 LINKER/LOCATER V4.66.41.0                                                        01/11/2019  12:04:15  PAGE 9


  +--> DEVSTATUSCHANGETO_DEVHOLD/DATATRANS

_NORMALBUSSINESS_SHORTTOUCHTRIG/USRKIN        20H.0 20H.0  ----- -----  ----- -----  ----- -----
  +--> USRKIN
  +--> _BEEPS_USRACTIVE/TIPS

_BEEPS_USRACTIVE/TIPS                         ----- -----  ----- -----  ----- -----  ----- -----
  +--> TIPS

USRKEYFUN_ZIGBNWKREJOIN/USRKIN                ----- -----  ----- -----  ----- -----  ----- -----
  +--> TIPS_STATUSCHANGETOZIGBNWKFIND/TIPS

TIPS_STATUSCHANGETOZIGBNWKFIND/TIPS           ----- -----  ----- -----  ----- -----  ----- -----
  +--> TIPS
  +--> _BEEPS_USRACTIVE/TIPS
  +--> _THREAD_TIPSGETDARK/TIPS

_THREAD_TIPSGETDARK/TIPS                      ----- -----  ----- -----  ----- -----  ----- -----
  +--> TIPS

DEVSTATUSCHANGETO_DEVHOLD/DATATRANS           20H.4 20H.4  ----- -----  ----- -----  ----- -----
  +--> DATATRANS
  +--> _THREAD_TIPSGETDARK/TIPS
  +--> ?CO?DATATRANS
  +--> PRINTF/PRINTF
  +--> _PRINTSTRING1_LOGOUT/USART

_TOUCHPAD_FUNCTIONTRIGCONTINUE/USRKIN         ----- -----  002AH 002BH  ----- -----  ----- -----
  +--> USRKIN
  +--> ?CO?USRKIN
  +--> PRINTF/PRINTF
  +--> _PRINTSTRING1_LOGOUT/USART
  +--> USRZIGBNWKOPEN/USRKIN
  +--> DEVHOLDSTOP_MAKEINADVANCE/DATATRANS

USRZIGBNWKOPEN/USRKIN                         ----- -----  ----- -----  ----- -----  ----- -----
  +--> ZIGB_NWKOPEN/DATATRANS
  +--> _TIPS_STATUSCHANGETOZIGBNWKOPEN/TIPS
  +--> USRKIN
  +--> ?CO?USRKIN
  +--> PRINTF/PRINTF
  +--> _PRINTSTRING1_LOGOUT/USART

ZIGB_NWKOPEN/DATATRANS                        20H.4 20H.5  002EH 002FH  ----- -----  015DH 015FH
  +--> ?CO?DATATRANS
  +--> DATATRANS
  +--> _ZIGB_VALIDA_INPUT/DATATRANS

_ZIGB_VALIDA_INPUT/DATATRANS                  ----- -----  0036H 0045H  ----- -----  0168H 01C7H
  +--> ?CO?DATATRANS
  +--> DATATRANS
  +--> _ZIGB_TXFRAMELOAD/DATATRANS
  +--> _UART1_DATSSEND/USART
  +--> _MEMMEM/PARS_METHOD
  +--> _DELAYMS/DELAY

_ZIGB_TXFRAMELOAD/DATATRANS                   ----- -----  0046H 0052H  ----- -----  ----- -----
  +--> DATATRANS

_UART1_DATSSEND/USART                         ----- -----  004AH 004CH  ----- -----  ----- -----
  +--> _TX1_WRITE2BUFF/USART

_MEMMEM/PARS_METHOD                           ----- -----  0046H 0054H  ----- -----  ----- -----
  +--> PARS_METHOD

LX51 LINKER/LOCATER V4.66.41.0                                                        01/11/2019  12:04:15  PAGE 10


PARS_METHOD                                   ----- -----  ----- -----  ----- -----  ----- -----

_TIPS_STATUSCHANGETOZIGBNWKOPEN/TIPS          ----- -----  ----- -----  ----- -----  ----- -----
  +--> TIPS
  +--> _BEEPS_USRACTIVE/TIPS
  +--> _THREAD_TIPSGETDARK/TIPS

DEVHOLDSTOP_MAKEINADVANCE/DATATRANS           ----- -----  ----- -----  ----- -----  ----- -----

DCODESCAN/USRKIN                              20H.0 20H.0  0027H 0028H  ----- -----  ----- -----
  +--> DCODESCAN_ONESHOOT/USRKIN
  +--> SWITCHTYPERESERVE_GET/DATAMANAGE
  +--> _BEEPS_USRACTIVE/TIPS
  +--> TIPS_STATUSCHANGETONORMAL/TIPS
  +--> _DEVTYPECOMFIRM_BYDCODE/USRKIN

SWITCHTYPERESERVE_GET/DATAMANAGE              ----- -----  0029H 0029H  ----- -----  ----- -----

FUN_FACTORYRECOVEROPREAT/DATATRANS            ----- -----  ----- -----  ----- -----  ----- -----
  +--> DATATRANS
  +--> _TIPS_STATUSCHANGETOFACTORYRECOVER/TIPS

_TIPS_STATUSCHANGETOFACTORYRECOVER/TIPS       ----- -----  ----- -----  ----- -----  ----- -----
  +--> _THREAD_TIPSGETDARK/TIPS
  +--> _BEEPS_USRACTIVE/TIPS

FUN_TOUCHRESET/USRKIN                         ----- -----  ----- -----  ----- -----  ----- -----
  +--> _TOUCHPAD_RESETOPREAT/TOUCHPAD
  +--> _TIPS_STATUSCHANGETOTOUCHRESET/TIPS

_TOUCHPAD_RESETOPREAT/TOUCHPAD                ----- -----  ----- -----  ----- -----  ----- -----

_TIPS_STATUSCHANGETOTOUCHRESET/TIPS           ----- -----  ----- -----  ----- -----  ----- -----
  +--> _THREAD_TIPSGETDARK/TIPS
  +--> TIPS
  +--> _BEEPS_USRACTIVE/TIPS

_USRKEYSCAN/USRKIN                            ----- -----  0027H 002FH  ----- -----  ----- -----
  +--> USRKEYSCAN_ONESHOOT/USRKIN
  +--> USRKIN
  +--> ?CO?USRKIN

USRKEYSCAN_ONESHOOT/USRKIN                    ----- -----  ----- -----  ----- -----  ----- -----

THREAD_TIMING/TIMERACT                        ----- -----  0027H 0027H  ----- -----  0000H 0005H
  +--> ?CO?TIMERACT
  +--> TIME_LOGOUT/TIMERACT
  +--> TIMERACT
  +--> _EEPROM_READ_N/EEPROM
  +--> _DATSTIMING_READ_EEPROM/TIMERACT
  +--> _DATSTIMNIGHT_READ_EEPROM/TIMERACT
  +--> _WEEKEND_JUDGE/TIMERACT
  +--> PRINTF/PRINTF
  +--> _PRINTSTRING1_LOGOUT/USART
  +--> ITRF_DATSTIMING_READ_EEPROM/TIMERACT
  +--> _COVEREEPROM_WRITE_N/EEPROM

?CO?TIMERACT                                  ----- -----  ----- -----  ----- -----  ----- -----

TIME_LOGOUT/TIMERACT                          ----- -----  0028H 002EH  ----- -----  0006H 0055H
  +--> ?CO?TIMERACT
  +--> _PRINTSTRING1_LOGOUT/USART
  +--> PRINTF/PRINTF

_DATSTIMING_READ_EEPROM/TIMERACT              ----- -----  0033H 004EH  ----- -----  ----- -----
LX51 LINKER/LOCATER V4.66.41.0                                                        01/11/2019  12:04:15  PAGE 11


  +--> ?CO?TIMERACT
  +--> TIMERACT
  +--> _EEPROM_READ_N/EEPROM

_DATSTIMNIGHT_READ_EEPROM/TIMERACT            ----- -----  0033H 003CH  ----- -----  ----- -----
  +--> ?CO?TIMERACT
  +--> TIMERACT
  +--> _EEPROM_READ_N/EEPROM

_WEEKEND_JUDGE/TIMERACT                       ----- -----  ----- -----  ----- -----  ----- -----

ITRF_DATSTIMING_READ_EEPROM/TIMERACT          ----- -----  ----- -----  ----- -----  ----- -----
  +--> _DATSTIMING_READ_EEPROM/TIMERACT

THREAD_RELAY/RELAY                            ----- -----  ----- -----  00BDH 00BDH  ----- -----
  +--> RELAY_ACT/RELAY
  +--> _DEVPARAMDTAASAVE_RELAYSTATUSREALTIME/DATAMANAGE

RELAY_ACT/RELAY                               ----- -----  0027H 0029H  ----- -----  ----- -----
  +--> RELAY_STATUSREALES/RELAY
  +--> _DEVPARAMDTAASAVE_RELAYSTATUSREALTIME/DATAMANAGE

_DEVPARAMDTAASAVE_RELAYSTATUSREALTIME/DA+     ----- -----  002AH 002AH  ----- -----  0000H 0063H
... TAMANAGE
  +--> ?CO?DATAMANAGE
  +--> DATAMANAGE
  +--> _EEPROM_SECTORERASE/EEPROM
  +--> _EEPROM_WRITE_N/EEPROM

THREAD_DATATRANS/DATATRANS                    20H.0 20H.1  ----- -----  00BDH 00C7H  0000H 013AH
  +--> ?CO?DATATRANS
  +--> DATATRANS
  +--> GETSYSTEMTIME_REALES/DATATRANS
  +--> _ZIGB_SYSTIMESET/DATATRANS
  +--> ZIGB_GETPANIDCURRENT/DATATRANS
  +--> PRINTF/PRINTF
  +--> _PRINTSTRING1_LOGOUT/USART
  +--> TIPS_STATUSCHANGETONORMAL/TIPS
  +--> _DATASENDREMOTE_STRAIGHTFORWARD/DATATRANS
  +--> _EEPROM_READ_N/EEPROM
  +--> _DATSTIMNIGHT_READ_EEPROM/TIMERACT
  +--> _FRAME_CHECK/DATATRANS
  +--> _DATAPARING_SCENARIOCTRL/DATATRANS
  +--> _DATAPARING_NOMAL/DATATRANS
  +--> _DATAPARING_ZIGBSYSCTRL/DATATRANS
  +--> _TIPS_STATUSCHANGETOZIGBNWKOPEN/TIPS
  +--> ZIGB_NWKJOINREQUEST/DATATRANS
  +--> DATATRANSREQUEST_DATSSEND/DATATRANS
  +--> FUNCTION_DEVNWKHOLD/DATATRANS
  +--> FACTORY_RECOVER/DATAMANAGE

GETSYSTEMTIME_REALES/DATATRANS                20H.2 20H.2  0027H 002EH  ----- -----  013BH 015AH
  +--> ?CO?DATATRANS
  +--> DATATRANS
  +--> _ZIGB_DATSREQUEST/DATATRANS

_ZIGB_DATSREQUEST/DATATRANS                   ----- -----  003AH 0049H  ----- -----  ----- -----
  +--> _UART1_DATSSEND/USART
  +--> DATATRANS

_ZIGB_SYSTIMESET/DATATRANS                    20H.4 20H.5  002EH 0035H  ----- -----  015DH 0167H
  +--> ?CO?DATATRANS
  +--> DATATRANS
  +--> _ZIGB_VALIDA_INPUT/DATATRANS

LX51 LINKER/LOCATER V4.66.41.0                                                        01/11/2019  12:04:15  PAGE 12


ZIGB_GETPANIDCURRENT/DATATRANS                ----- -----  0038H 0039H  ----- -----  017CH 019BH
  +--> ?CO?DATATRANS
  +--> DATATRANS
  +--> _ZIGB_DATSREQUEST/DATATRANS

_DATASENDREMOTE_STRAIGHTFORWARD/DATATRAN+     ----- -----  002BH 0031H  ----- -----  013EH 01D6H
... S
  +--> ?CO?DATATRANS
  +--> DATATRANS
  +--> _ZIGB_DATSLOAD_DATSSEND/DATATRANS
  +--> _UART1_DATSSEND/USART

_ZIGB_DATSLOAD_DATSSEND/DATATRANS             ----- -----  0032H 003CH  ----- -----  0215H 02ADH
  +--> ?CO?DATATRANS
  +--> DATATRANS
  +--> _ZIGB_TXFRAMELOAD/DATATRANS

_FRAME_CHECK/DATATRANS                        ----- -----  0039H 003BH  ----- -----  ----- -----
  +--> DATATRANS

_DATAPARING_SCENARIOCTRL/DATATRANS            ----- -----  0027H 002AH  ----- -----  ----- -----
  +--> _DATASENDREMOTE_STRAIGHTFORWARD/DATATRANS
  +--> DATATRANS
  +--> ?CO?DATATRANS
  +--> PRINTF/PRINTF
  +--> _PRINTSTRING1_LOGOUT/USART

_DATAPARING_NOMAL/DATATRANS                   20H.2 20H.5  0027H 0032H  ----- -----  013BH 0212H
  +--> ?CO?DATATRANS
  +--> DATATRANS
  +--> _FRAME_CHECK/DATATRANS
  +--> PRINTF/PRINTF
  +--> _PRINTSTRING1_LOGOUT/USART
  +--> TIPS_STATUSCHANGETONORMAL/TIPS
  +--> _COVEREEPROM_WRITE_N/EEPROM
  +--> _PERIODDATATRANS_MOMENTHANG/DATATRANS
  +--> _EEPROM_READ_N/EEPROM
  +--> FACTORY_RECOVER/DATAMANAGE
  +--> DTASTX_LOADBASIC_CUST/DATATRANS
  +--> _BEEPS_USRACTIVE/TIPS
  +--> ITRF_DATSTIMNIGHT_READ_EEPROM/TIMERACT
  +--> ITRF_DATSTIMING_READ_EEPROM/TIMERACT

_PERIODDATATRANS_MOMENTHANG/DATATRANS         ----- -----  ----- -----  ----- -----  ----- -----
  +--> DATATRANS

DTASTX_LOADBASIC_CUST/DATATRANS               20H.6 20H.7  0033H 0038H  ----- -----  0213H 0252H
  +--> DATATRANS
  +--> _FRAME_CHECK/DATATRANS
  +--> ?CO?DATATRANS

ITRF_DATSTIMNIGHT_READ_EEPROM/TIMERACT        ----- -----  ----- -----  ----- -----  ----- -----
  +--> _DATSTIMNIGHT_READ_EEPROM/TIMERACT

_DATAPARING_ZIGBSYSCTRL/DATATRANS             20H.2 20H.3  0027H 002DH  00C8H 00C8H  013BH 015CH
  +--> ?CO?DATATRANS
  +--> DATATRANS
  +--> ZIGB_NWKOPEN/DATATRANS
  +--> _TIPS_STATUSCHANGETOZIGBNWKOPEN/TIPS
  +--> _COVEREEPROM_WRITE_N/EEPROM
  +--> _ZIGB_SYSTIMESET/DATATRANS
  +--> PRINTF/PRINTF
  +--> _PRINTSTRING1_LOGOUT/USART
  +--> DEVSTATUSCHANGETO_DEVHOLD/DATATRANS
  +--> _PERIODDATATRANS_MOMENTHANG/DATATRANS
LX51 LINKER/LOCATER V4.66.41.0                                                        01/11/2019  12:04:15  PAGE 13



ZIGB_NWKJOINREQUEST/DATATRANS                 20H.2 20H.2  0027H 0037H  ----- -----  013BH 017BH
  +--> ?CO?DATATRANS
  +--> DATATRANS
  +--> ZIGB_GETPANIDCURRENT/DATATRANS
  +--> PRINTF/PRINTF
  +--> _PRINTSTRING1_LOGOUT/USART
  +--> _UART1_DATSSEND/USART
  +--> _MEMMEM/PARS_METHOD
  +--> _ZIGB_TXFRAMELOAD/DATATRANS

DATATRANSREQUEST_DATSSEND/DATATRANS           ----- -----  0027H 002BH  00C8H 00CAH  013BH 0214H
  +--> ?CO?DATATRANS
  +--> DATATRANS
  +--> _ZIGB_TXFRAMELOAD/DATATRANS
  +--> _ZIGB_DATSLOAD_DATSSEND/DATATRANS
  +--> _MEMMEM/PARS_METHOD
  +--> PRINTF/PRINTF
  +--> _PRINTSTRING1_LOGOUT/USART
  +--> _UART1_DATSSEND/USART

FUNCTION_DEVNWKHOLD/DATATRANS                 ----- -----  ----- -----  ----- -----  013BH 013DH
  +--> DATATRANS
  +--> ?CO?DATATRANS
  +--> _DATASENDREMOTE_STRAIGHTFORWARD/DATATRANS
  +--> _DELAYMS/DELAY
  +--> PRINTF/PRINTF
  +--> _PRINTSTRING1_LOGOUT/USART

THREAD_TIPS/TIPS                              ----- -----  0027H 0027H  ----- -----  ----- -----
  +--> TIPS_STATUSCHANGETONORMAL/TIPS
  +--> _THREAD_TIPSGETDARK/TIPS
  +--> TIPS_SYSSTANDBY/TIPS
  +--> TIPS_SYSBUTTONREALES/TIPS
  +--> TOUCHPADSCAN_ONESHOOT/USRKIN
  +--> TIPS
  +--> _TIPSLED_COLORSET/TIPS
  +--> ?CO?TIPS
  +--> _TIPS_SPECIFIED/TIPS
  +--> TIPS_WARNING/TIPS
  +--> TIPS_SYSTOUCHRESET/TIPS
  +--> PRINTF/PRINTF
  +--> _PRINTSTRING1_LOGOUT/USART

TIPS_SYSSTANDBY/TIPS                          ----- -----  ----- -----  ----- -----  ----- -----
  +--> TIPS

TIPS_SYSBUTTONREALES/TIPS                     ----- -----  ----- -----  ----- -----  ----- -----
  +--> ?CO?TIPS
  +--> TIPS

_TIPS_SPECIFIED/TIPS                          ----- -----  ----- -----  ----- -----  ----- -----
  +--> ?CO?TIPS
  +--> TIPS

TIPS_WARNING/TIPS                             ----- -----  ----- -----  ----- -----  ----- -----
  +--> TIPS
  +--> _THREAD_TIPSGETDARK/TIPS

TIPS_SYSTOUCHRESET/TIPS                       ----- -----  ----- -----  ----- -----  ----- -----
  +--> TIPS

TOUCHPAD_PROCESSTHREAD/TOUCHPAD               ----- -----  ----- -----  ----- -----  ----- -----

THREAD_DEVLOPEDEBUG/DEVLOPEDEBUG              ----- -----  ----- -----  ----- -----  ----- -----
LX51 LINKER/LOCATER V4.66.41.0                                                        01/11/2019  12:04:15  PAGE 14


  +--> DEVLOPEDEBUG
  +--> ?CO?DEVLOPEDEBUG
  +--> PRINTF/PRINTF
  +--> _PRINTSTRING1_LOGOUT/USART

DEVLOPEDEBUG                                  ----- -----  ----- -----  ----- -----  ----- -----

?CO?DEVLOPEDEBUG                              ----- -----  ----- -----  ----- -----  ----- -----

?C_INITSEG                                    ----- -----  ----- -----  ----- -----  ----- -----



PUBLIC SYMBOLS OF MODULE:  .\Output\swZigbNode_sw3bit (USR_MAIN)


      VALUE       CLASS    TYPE      PUBLIC SYMBOL NAME
      =================================================
      00000033H   DATA     BYTE      ?_coverEEPROM_write_n?BYTE
      0000004FH   DATA     BYTE      ?_EEPROM_read_n?BYTE
      0000003AH   DATA     BYTE      ?_EEPROM_write_n?BYTE
      00000046H   DATA     BYTE      ?_memmem?BYTE
      00000038H   DATA     ---       ?_PRINTF517?BYTE
      00000038H   DATA     ---       ?_PRINTF?BYTE
      00000038H   DATA     ---       ?_SPRINTF517?BYTE
      00000038H   DATA     ---       ?_SPRINTF?BYTE
      00000028H   DATA     BYTE      ?_tipsLED_colorSet?BYTE
      00000027H   DATA     BYTE      ?_UsrKEYScan?BYTE
      00000036H   DATA     BYTE      ?_zigb_VALIDA_INPUT?BYTE
      01003333H   CODE     ---       ?C?CCASE
      010031D9H   CODE     ---       ?C?CLDOPTR
      010031C0H   CODE     ---       ?C?CLDPTR
      00000000H   NUMBER   ---       ?C?CODESEG
      0100319AH   CODE     ---       ?C?COPY
      01003218H   CODE     ---       ?C?CSTOPTR
      01003206H   CODE     ---       ?C?CSTPTR
      01003359H   CODE     ---       ?C?ICALL
      0100335DH   CODE     ---       ?C?ICALL2
      0100323AH   CODE     ---       ?C?IMUL
      010032A1H   CODE     ---       ?C?LMUL
      01003314H   CODE     ---       ?C?LSHL
      010034E5H   CODE     ---       ?C?MEMCMP
      01003509H   CODE     ---       ?C?MEMSET
      01003327H   CODE     ---       ?C?OFFXADD
      01003535H   CODE     ---       ?C?PLDIIDATA
      0100324CH   CODE     ---       ?C?UIDIV
      010032F0H   CODE     ---       ?C?ULCMP
      01003301H   CODE     ---       ?C?ULSHR
      00000000H   NUMBER   ---       ?C?XDATASEG
      01006370H   CODE     ---       ?C_START
      01000000H   CODE     ---       ?C_STARTUP
      00000020H.4 BIT      BIT       ?devStatusChangeTo_devHold?BIT
      00000027H   DATA     BYTE      ?relay_Act?BYTE
      00000028H   DATA     BYTE      ?time_Logout?BYTE
      00000020H.4 BIT      BIT       ?ZigB_nwkOpen?BIT
      0000002EH   DATA     BYTE      ?ZigB_nwkOpen?BYTE
      01007173H   CODE     ---       _beeps_usrActive
      01006B09H   CODE     ---       _coverEEPROM_write_n
      010064C8H   CODE     ---       _datsTiming_read_eeprom
      0100654EH   CODE     ---       _datsTimNight_read_eeprom
      01007306H   CODE     ---       _delay_ms
      01007260H   CODE     ---       _delayMs
      01006C99H   CODE     ---       _devParamDtaaSave_relayStatusRealTime
      01007139H   CODE     ---       _devTypeComfirm_byDcode
      01006F7DH   CODE     ---       _EEPROM_read_n
LX51 LINKER/LOCATER V4.66.41.0                                                        01/11/2019  12:04:15  PAGE 15


      0100718EH   CODE     ---       _EEPROM_SectorErase
      01006EDEH   CODE     ---       _EEPROM_write_n
*DEL*:00000000H   CODE     ---       _I2C_delay_us
      01000026H   CODE     ---       _memmem
      010072D4H   CODE     ---       _periodDataTrans_momentHang
      01003CBFH   CODE     ---       _PRINTF
      01003CBFH   CODE     ---       _PRINTF517
      010072C1H   CODE     ---       _PrintString1
      01006F15H   CODE     ---       _PrintString1_logOut
      01007082H   CODE     ---       _PUTCHAR
      01003CB9H   CODE     ---       _SPRINTF
      01003CB9H   CODE     ---       _SPRINTF517
      01006913H   CODE     ---       _thread_tipsGetDark
      01004F19H   CODE     ---       _tips_specified
      0100721FH   CODE     ---       _tips_statusChangeToFactoryRecover
      01007288H   CODE     ---       _tips_statusChangeToTouchReset
      010071D7H   CODE     ---       _tips_statusChangeToZigbNwkOpen
      01006A4EH   CODE     ---       _tipsLED_colorSet
      01005ECDH   CODE     ---       _touchPad_functionTrigContinue
      01005684H   CODE     ---       _touchPad_functionTrigNormal
      01007387H   CODE     ---       _touchPad_resetOpreat
      010070F4H   CODE     ---       _TX1_write2buff
      010070A9H   CODE     ---       _uart1_datsSend
*DEL*:00000000H   CODE     ---       _uart1_logOut
      01006839H   CODE     ---       _UsrKEYScan
      01007009H   CODE     ---       _weekend_judge
      0100620EH   CODE     ---       _zigb_VALIDA_INPUT
*SFR* 000000D0H.6 DATA     BIT       AC
*SFR* 000000E0H   DATA     BYTE      ACC
*SFR* 000000E0H   DATA     BIT       ACC0
*SFR* 000000E0H.1 DATA     BIT       ACC1
*SFR* 000000E0H.2 DATA     BIT       ACC2
*SFR* 000000E0H.3 DATA     BIT       ACC3
*SFR* 000000E0H.4 DATA     BIT       ACC4
*SFR* 000000E0H.5 DATA     BIT       ACC5
*SFR* 000000E0H.6 DATA     BIT       ACC6
*SFR* 000000E0H.7 DATA     BIT       ACC7
*SFR* 000000BCH   DATA     BYTE      ADC_CONTR
*SFR* 000000BDH   DATA     BYTE      ADC_RES
*SFR* 000000BEH   DATA     BYTE      ADC_RESL
      0100000EH   CODE     ---       appTimer0_Init
      010072F6H   CODE     ---       appTimer4_Init
*SFR* 0000008EH   DATA     BYTE      AUXR
*SFR* 000000A2H   DATA     BYTE      AUXR1
*SFR* 0000008FH   DATA     BYTE      AUXR2
*SFR* 000000F0H   DATA     BYTE      B
*SFR* 000000F0H   DATA     BIT       B0
*SFR* 000000F0H.1 DATA     BIT       B1
*SFR* 000000F0H.2 DATA     BIT       B2
*SFR* 000000F0H.3 DATA     BIT       B3
*SFR* 000000F0H.4 DATA     BIT       B4
*SFR* 000000F0H.5 DATA     BIT       B5
*SFR* 000000F0H.6 DATA     BIT       B6
*SFR* 000000F0H.7 DATA     BIT       B7
      01007117H   CODE     ---       birthDay_Judge
      01007332H   CODE     ---       bsp_datsReales
      010071A7H   CODE     ---       bsp_Init
*SFR* 000000A1H   DATA     BYTE      BUS_SPEED
*SFR* 000000FAH   DATA     BYTE      CCAP0H
*SFR* 000000EAH   DATA     BYTE      CCAP0L
*SFR* 000000FBH   DATA     BYTE      CCAP1H
*SFR* 000000EBH   DATA     BYTE      CCAP1L
*SFR* 000000FCH   DATA     BYTE      CCAP2H
*SFR* 000000ECH   DATA     BYTE      CCAP2L
*SFR* 000000DAH   DATA     BYTE      CCAPM0
LX51 LINKER/LOCATER V4.66.41.0                                                        01/11/2019  12:04:15  PAGE 16


*SFR* 000000DBH   DATA     BYTE      CCAPM1
*SFR* 000000DCH   DATA     BYTE      CCAPM2
*SFR* 000000D8H   DATA     BIT       CCF0
*SFR* 000000D8H.1 DATA     BIT       CCF1
*SFR* 000000D8H.2 DATA     BIT       CCF2
*SFR* 000000D8H   DATA     BYTE      CCON
*SFR* 00000090H.1 DATA     BIT       CCP0
*SFR* 00000090H   DATA     BIT       CCP1
*SFR* 000000B0H.7 DATA     BIT       CCP2
*SFR* 000000D8H.7 DATA     BIT       CF
*SFR* 000000F9H   DATA     BYTE      CH
*SFR* 000000E9H   DATA     BYTE      CL
*SFR* 00000097H   DATA     BYTE      CLK_DIV
*SFR* 000000B0H.5 DATA     BIT       CLKOUT0
*SFR* 000000B0H.4 DATA     BIT       CLKOUT1
*SFR* 000000D9H   DATA     BYTE      CMOD
      0200047CH   XDATA    BYTE      colonyCtrlGet_queryCounter
      02000318H   XDATA    ---       colonyCtrlGet_statusLocalEaCtrl
      020003ECH   XDATA    BYTE      colonyCtrlGet_statusLocalScene
      0200031BH   XDATA    BYTE      colonyCtrlGetHang_timeCnt
      01006B85H   CODE     ---       color_Tab
      00000076H   DATA     ---       COM1
      020006EEH   XDATA    WORD      combinationFunFLG_3S5S_cancel_counter
      00000023H.4 BIT      BIT       coordinatorOnline_IF
      00000025H.0 BIT      BIT       countEN_ifTipsFree
      020006B6H   XDATA    BYTE      counter_ifTipsFree
      020006AAH   XDATA    WORD      counter_tipsAct
*SFR* 000000D8H.6 DATA     BIT       CR
      00000071H   DATA     ---       CTRLEATHER_PORT
      020006E4H   XDATA    ---       curtainAct_Param
*SFR* 000000D0H.7 DATA     BIT       CY
      0000005EH   DATA     BYTE      datsRcv_length
      020003EDH   XDATA    ---       datsRcv_respond
      020004AEH   XDATA    ---       datsRcv_ZIGB
      02000327H   XDATA    ---       datsSend_request
      02000481H   XDATA    ---       datsSend_requestEx
*SFR* 00000090H   DATA     BIT       Dcode0
*SFR* 00000090H.1 DATA     BIT       Dcode1
*SFR* 00000090H.2 DATA     BIT       Dcode2
*SFR* 00000090H.3 DATA     BIT       Dcode3
*SFR* 00000090H.4 DATA     BIT       Dcode4
*SFR* 00000090H.3 DATA     BIT       Dcode5
      010068A8H   CODE     ---       DcodeScan
      01006D27H   CODE     ---       DcodeScan_oneShoot
      000000D1H   IDATA    WORD      delayCnt_closeLoop
      000000CEH   IDATA    WORD      delayCnt_onoff
      000000CDH   IDATA    BYTE      delayPeriod_closeLoop
      000000D7H   IDATA    BYTE      delayPeriod_onoff
      000000D6H   IDATA    BYTE      delayUp_act
      00000074H   DATA     BYTE      DEV_actReserve
      02000475H   XDATA    ---       dev_agingCmd_rcvPassive
      0200031CH   XDATA    ---       dev_agingCmd_sndInitative
      020003AEH   XDATA    ---       dev_currentDataPoint
      0000006FH   DATA     WORD      dev_currentPanid
      020006F0H   XDATA    ---       dev_debugInfoLog
      020006A9H   XDATA    BYTE      dev_statusBeeps
      020006E2H   XDATA    ---       devActionPush_IF
      020006A7H   XDATA    ---       devBackgroundLight_param
      010060DBH   CODE     ---       devDataRecovery_relayStatus
      0100735EH   CODE     ---       devHoldStop_makeInAdvance
      00000026H.0 BIT      BIT       deviceLock_flag
*DEL*:00000000H   CODE     ---       devLockInfo_Reales
      0200047EH   XDATA    ---       devNwkHoldTime_Param
      02000471H   XDATA    ---       devRemoteDataReqMethod
      0000005CH   DATA     BYTE      devRunning_Status
LX51 LINKER/LOCATER V4.66.41.0                                                        01/11/2019  12:04:15  PAGE 17


      02000473H   XDATA    ---       devStatus_switch
      01006F4BH   CODE     ---       devStatusChangeTo_devHold
      020006B7H   XDATA    ---       devTips_beep
      0000001EH   DATA     BYTE      devTips_nwkZigb
      0000001FH   DATA     BYTE      devTips_status
      01007324H   CODE     ---       DisableEEPROM
*SFR* 00000083H   DATA     BYTE      DPH
*SFR* 00000082H   DATA     BYTE      DPL
      0000005FH   DATA     BYTE      dtModeKeepAcess_currentCmd
      02000323H   XDATA    WORD      dtReqEx_counter
*SFR* 000000A8H.7 DATA     BIT       EA
      020006E0H   XDATA    BYTE      EACHCTRL_realesFLG
      00000025H.5 BIT      BIT       EACHCTRL_reportFLG
*SFR* 000000A8H.5 DATA     BIT       EADC
*SFR* 000000A8H.6 DATA     BIT       ELVD
*SFR* 000000A8H.4 DATA     BIT       ES
*SFR* 000000A8H.1 DATA     BIT       ET0
*SFR* 000000A8H.3 DATA     BIT       ET1
*SFR* 000000A8H   DATA     BIT       EX0
*SFR* 000000A8H.2 DATA     BIT       EX1
*SFR* 000000D0H.5 DATA     BIT       F0
*SFR* 000000D0H.1 DATA     BIT       F1
      0100629DH   CODE     ---       Factory_recover
      0200047DH   XDATA    BYTE      factoryRecover_HoldTimeCount
      00000024H.0 BIT      BIT       factoryRecover_standBy_FLG
      010072E5H   CODE     ---       fun_factoryRecoverOpreat
*DEL*:00000000H   CODE     ---       fun_Test
      0100734AH   CODE     ---       fun_touchReset
      02000322H   XDATA    BYTE      heartBeatCount
      00000023H.6 BIT      BIT       heartBeatCycle_FLG
      0200047BH   XDATA    BYTE      heartBeatHang_timeCnt
      02000548H   XDATA    BYTE      heartBeatPeriod
*SFR* 000000C3H   DATA     BYTE      IAP_ADDRH
*SFR* 000000C4H   DATA     BYTE      IAP_ADDRL
*SFR* 000000C5H   DATA     BYTE      IAP_CMD
*SFR* 000000C7H   DATA     BYTE      IAP_CONTR
*SFR* 000000C2H   DATA     BYTE      IAP_DATA
*SFR* 000000C6H   DATA     BYTE      IAP_TRIG
*SFR* 000000A8H   DATA     BYTE      IE
*SFR* 00000088H.1 DATA     BIT       IE0
*SFR* 00000088H.3 DATA     BIT       IE1
*SFR* 000000AFH   DATA     BYTE      IE2
      000000D5H   IDATA    BYTE      ifDelay_sw_running_FLAG
      00000024H.7 BIT      BIT       ifHorsingLight_running_FLAG
      00000025H.3 BIT      BIT       ifNightMode_sw_running_FLAG
      00000025H.4 BIT      BIT       ifTim_sw_running_FLAG
*SFR* 000000B0H.2 DATA     BIT       INT0
*SFR* 000000B0H.3 DATA     BIT       INT1
*SFR* 0000008FH   DATA     BYTE      INT_CLKO
*SFR* 000000B8H   DATA     BYTE      IP
*SFR* 000000B5H   DATA     BYTE      IP2
*SFR* 000000B7H   DATA     BYTE      IPH
*SFR* 000000B6H   DATA     BYTE      IPH2
*SFR* 000000C3H   DATA     BYTE      ISP_ADDRH
*SFR* 000000C4H   DATA     BYTE      ISP_ADDRL
*SFR* 000000C5H   DATA     BYTE      ISP_CMD
*SFR* 000000C7H   DATA     BYTE      ISP_CONTR
*SFR* 000000C2H   DATA     BYTE      ISP_DATA
*SFR* 000000C6H   DATA     BYTE      ISP_TRIG
*SFR* 00000088H   DATA     BIT       IT0
*SFR* 00000088H.2 DATA     BIT       IT1
      01007367H   CODE     ---       itrf_datsTiming_read_eeprom
      01007370H   CODE     ---       itrf_datsTimNight_read_eeprom
      00000023H.0 BIT      BIT       ledBackground_method
      01006BB1H   CODE     ---       ledBKGColorSw_Reales
LX51 LINKER/LOCATER V4.66.41.0                                                        01/11/2019  12:04:15  PAGE 18


      020003ABH   XDATA    ---       localDataRecord_eaCtrl
      0000007DH   IDATA    ---       log_buf
      020006D7H   XDATA    BYTE      loopInsert_relayStatusRealTime_record
      020006D8H   XDATA    ---       MAC_ID
      020006D1H   XDATA    ---       MAC_ID_DST
      01006AB0H   CODE     ---       MAC_ID_Relaes
      01006C4EH   CODE     ---       main
*SFR* 000000D0H.2 DATA     BIT       OV
*SFR* 000000D0H   DATA     BIT       P
*SFR* 00000080H   DATA     BYTE      P0
*SFR* 00000080H   DATA     BIT       P00
*SFR* 00000080H.1 DATA     BIT       P01
*SFR* 00000080H.2 DATA     BIT       P02
*SFR* 00000080H.3 DATA     BIT       P03
*SFR* 00000080H.4 DATA     BIT       P04
*SFR* 00000080H.5 DATA     BIT       P05
*SFR* 00000080H.6 DATA     BIT       P06
*SFR* 00000080H.7 DATA     BIT       P07
*SFR* 00000094H   DATA     BYTE      P0M0
*SFR* 00000093H   DATA     BYTE      P0M1
*SFR* 00000090H   DATA     BYTE      P1
*SFR* 00000090H   DATA     BIT       P10
*SFR* 00000090H.1 DATA     BIT       P11
*SFR* 00000090H.2 DATA     BIT       P12
*SFR* 00000090H.3 DATA     BIT       P13
*SFR* 00000090H.4 DATA     BIT       P14
*SFR* 00000090H.5 DATA     BIT       P15
*SFR* 00000090H.6 DATA     BIT       P16
*SFR* 00000090H.7 DATA     BIT       P17
*SFR* 0000009DH   DATA     BYTE      P1ASF
*SFR* 00000092H   DATA     BYTE      P1M0
*SFR* 00000091H   DATA     BYTE      P1M1
*SFR* 000000A0H   DATA     BYTE      P2
*SFR* 000000A0H   DATA     BIT       P20
*SFR* 000000A0H.1 DATA     BIT       P21
*SFR* 000000A0H.2 DATA     BIT       P22
*SFR* 000000A0H.3 DATA     BIT       P23
*SFR* 000000A0H.4 DATA     BIT       P24
*SFR* 000000A0H.5 DATA     BIT       P25
*SFR* 000000A0H.6 DATA     BIT       P26
*SFR* 000000A0H.7 DATA     BIT       P27
*SFR* 00000096H   DATA     BYTE      P2M0
*SFR* 00000095H   DATA     BYTE      P2M1
*SFR* 000000B0H   DATA     BYTE      P3
*SFR* 000000B0H   DATA     BIT       P30
*SFR* 000000B0H.1 DATA     BIT       P31
*SFR* 000000B0H.2 DATA     BIT       P32
*SFR* 000000B0H.3 DATA     BIT       P33
*SFR* 000000B0H.4 DATA     BIT       P34
*SFR* 000000B0H.5 DATA     BIT       P35
*SFR* 000000B0H.6 DATA     BIT       P36
*SFR* 000000B0H.7 DATA     BIT       P37
*SFR* 000000B2H   DATA     BYTE      P3M0
*SFR* 000000B1H   DATA     BYTE      P3M1
*SFR* 000000C0H   DATA     BYTE      P4
*SFR* 000000C0H   DATA     BIT       P40
*SFR* 000000C0H.1 DATA     BIT       P41
*SFR* 000000C0H.2 DATA     BIT       P42
*SFR* 000000C0H.3 DATA     BIT       P43
*SFR* 000000C0H.4 DATA     BIT       P44
*SFR* 000000C0H.5 DATA     BIT       P45
*SFR* 000000C0H.6 DATA     BIT       P46
*SFR* 000000C0H.7 DATA     BIT       P47
*SFR* 000000B4H   DATA     BYTE      P4M0
*SFR* 000000B3H   DATA     BYTE      P4M1
LX51 LINKER/LOCATER V4.66.41.0                                                        01/11/2019  12:04:15  PAGE 19


*SFR* 000000C8H   DATA     BYTE      P5
*SFR* 000000C8H   DATA     BIT       P50
*SFR* 000000C8H.1 DATA     BIT       P51
*SFR* 000000C8H.2 DATA     BIT       P52
*SFR* 000000C8H.3 DATA     BIT       P53
*SFR* 000000C8H.4 DATA     BIT       P54
*SFR* 000000C8H.5 DATA     BIT       P55
*SFR* 000000C8H.6 DATA     BIT       P56
*SFR* 000000C8H.7 DATA     BIT       P57
*SFR* 000000CAH   DATA     BYTE      P5M0
*SFR* 000000C9H   DATA     BYTE      P5M1
*SFR* 000000E8H   DATA     BYTE      P6
*SFR* 000000CCH   DATA     BYTE      P6M0
*SFR* 000000CBH   DATA     BYTE      P6M1
*SFR* 000000F8H   DATA     BYTE      P7
*SFR* 000000E2H   DATA     BYTE      P7M0
*SFR* 000000E1H   DATA     BYTE      P7M1
*SFR* 000000A2H   DATA     BYTE      P_SW1
*SFR* 000000BAH   DATA     BYTE      P_SW2
*SFR* 000000B8H.5 DATA     BIT       PADC
*SFR* 000000F2H   DATA     BYTE      PCA_PWM0
*SFR* 000000F3H   DATA     BYTE      PCA_PWM1
*SFR* 000000F4H   DATA     BYTE      PCA_PWM2
*SFR* 00000087H   DATA     BYTE      PCON
*SFR* 00000097H   DATA     BYTE      PCON2
      01007379H   CODE     ---       pinBeep_Init
*SFR* 000000B8H.6 DATA     BIT       PLVD
      01007275H   CODE     ---       portCtrlEachOther_Reales
*SFR* 000000B8H.7 DATA     BIT       PPCA
*SFR* 000000B8H.4 DATA     BIT       PS
*SFR* 000000D0H   DATA     BYTE      PSW
*SFR* 000000B8H.1 DATA     BIT       PT0
*SFR* 000000B8H.3 DATA     BIT       PT1
*SFR* 000000B8H   DATA     BIT       PX0
*SFR* 000000B8H.2 DATA     BIT       PX1
*SFR* 00000098H.2 DATA     BIT       RB8
*SFR* 000000B0H.7 DATA     BIT       RD
      00000023H.7 BIT      BIT       reConnectAfterDatsReq_IF
      020006ACH   XDATA    ---       relay1_Tips
      020006B0H   XDATA    ---       relay2_Tips
      020006B3H   XDATA    ---       relay3_Tips
      01005C53H   CODE     ---       relay_Act
      01006036H   CODE     ---       relay_pinInit
      01005DFCH   CODE     ---       relay_statusReales
      020006E7H   XDATA    BYTE      relayStatus_ifSave
*SFR* 00000098H.4 DATA     BIT       REN
*SFR* 00000098H   DATA     BIT       RI
*SFR* 000000D6H   DATA     BYTE      RL_T2H
*SFR* 000000D7H   DATA     BYTE      RL_T2L
*SFR* 000000D4H   DATA     BYTE      RL_T3H
*SFR* 000000D5H   DATA     BYTE      RL_T3L
*SFR* 000000D2H   DATA     BYTE      RL_T4H
*SFR* 000000D3H   DATA     BYTE      RL_T4L
*SFR* 0000008CH   DATA     BYTE      RL_TH0
*SFR* 0000008DH   DATA     BYTE      RL_TH1
*SFR* 0000008AH   DATA     BYTE      RL_TL0
*SFR* 0000008BH   DATA     BYTE      RL_TL1
*SFR* 000000D0H.3 DATA     BIT       RS0
*SFR* 000000D0H.4 DATA     BIT       RS1
      02000549H   XDATA    ---       RX1_Buffer
*SFR* 000000B0H   DATA     BIT       RXD
*SFR* 00000090H   DATA     BIT       RXD2
      0000005DH   DATA     BYTE      rxTout_count
      00000023H.5 BIT      BIT       rxTout_count_EN
*SFR* 0000009BH   DATA     BYTE      S2BUF
LX51 LINKER/LOCATER V4.66.41.0                                                        01/11/2019  12:04:15  PAGE 20


*SFR* 0000009AH   DATA     BYTE      S2CON
*SFR* 000000ADH   DATA     BYTE      S3BUF
*SFR* 000000ACH   DATA     BYTE      S3CON
*SFR* 00000085H   DATA     BYTE      S4BUF
*SFR* 00000084H   DATA     BYTE      S4CON
*SFR* 000000A9H   DATA     BYTE      SADDR
*SFR* 000000B9H   DATA     BYTE      SADEN
*SFR* 00000099H   DATA     BYTE      SBUF
*SFR* 00000098H   DATA     BYTE      SCON
*SFR* 00000098H.7 DATA     BIT       SM0
*SFR* 00000098H.6 DATA     BIT       SM1
*SFR* 00000098H.5 DATA     BIT       SM2
*SFR* 00000081H   DATA     BYTE      SP
*SFR* 000000CEH   DATA     BYTE      SPCTL
*SFR* 000000CFH   DATA     BYTE      SPDAT
*SFR* 00000090H.4 DATA     BIT       SPI_MISO
*SFR* 000000A0H.2 DATA     BIT       SPI_MISO_2
*SFR* 000000C0H.1 DATA     BIT       SPI_MISO_3
*SFR* 00000090H.3 DATA     BIT       SPI_MOSI
*SFR* 000000A0H.3 DATA     BIT       SPI_MOSI_2
*SFR* 000000C0H   DATA     BIT       SPI_MOSI_3
*SFR* 00000090H.5 DATA     BIT       SPI_SCLK
*SFR* 000000A0H.1 DATA     BIT       SPI_SCLK_2
*SFR* 000000C0H.3 DATA     BIT       SPI_SCLK_3
*SFR* 00000090H.2 DATA     BIT       SPI_SS
*SFR* 000000A0H.4 DATA     BIT       SPI_SS_2
*SFR* 000000C8H.4 DATA     BIT       SPI_SS_3
*SFR* 000000CDH   DATA     BYTE      SPSTAT
      020006E1H   XDATA    BYTE      status_Relay
      00000025H.6 BIT      BIT       statusRelay_saveEn
      020006DEH   XDATA    ---       swCommand_fromUsr
      00000075H   DATA     BYTE      SWITCH_TYPE
      01007033H   CODE     ---       switchTypeReserve_GET
      000000D0H   IDATA    BYTE      swTim_oneShoot_FLAG
      0200067DH   XDATA    ---       systemTime_current
      000000D3H   IDATA    WORD      sysTimeKeep_counter
      02000684H   XDATA    BYTE      sysTimeReales_counter
      02000685H   XDATA    BYTE      sysTimeZone_H
      02000686H   XDATA    BYTE      sysTimeZone_M
*SFR* 000000B0H.4 DATA     BIT       T0
*SFR* 000000B0H.5 DATA     BIT       T1
*SFR* 000000D6H   DATA     BYTE      T2H
*SFR* 000000D7H   DATA     BYTE      T2L
*SFR* 000000D4H   DATA     BYTE      T3H
*SFR* 000000D5H   DATA     BYTE      T3L
*SFR* 000000D2H   DATA     BYTE      T4H
*SFR* 000000D3H   DATA     BYTE      T4L
*SFR* 000000D1H   DATA     BYTE      T4T3M
*SFR* 00000098H.3 DATA     BIT       TB8
*SFR* 00000088H   DATA     BYTE      TCON
*SFR* 00000088H.5 DATA     BIT       TF0
*SFR* 00000088H.7 DATA     BIT       TF1
*SFR* 0000008CH   DATA     BYTE      TH0
*SFR* 0000008DH   DATA     BYTE      TH1
*SFR* 000000D6H   DATA     BYTE      TH2
*SFR* 000000D4H   DATA     BYTE      TH3
*SFR* 000000D2H   DATA     BYTE      TH4
      01001DC8H   CODE     ---       thread_dataTrans
      0100643FH   CODE     ---       thread_devlopeDebug
      01006D6AH   CODE     ---       thread_Relay
      01003FB9H   CODE     ---       thread_Timing
      01003901H   CODE     ---       thread_Tips
*SFR* 00000098H.1 DATA     BIT       TI
      01005F8DH   CODE     ---       time_Logout
      02000480H   XDATA    BYTE      timeCounter_coordinatorLost_detecting
LX51 LINKER/LOCATER V4.66.41.0                                                        01/11/2019  12:04:15  PAGE 21


      010000A1H   CODE     ---       timer0_Rountine
      010025FCH   CODE     ---       timer4_Rountine
      01007157H   CODE     ---       timeZone_Reales
      01006EA3H   CODE     ---       tipLED_pinInit
*DEL*:00000000H   CODE     ---       tips_breath
*DEL*:00000000H   CODE     ---       tips_fadeOut
      01006BA3H   CODE     ---       tips_relayUnused
      010071BFH   CODE     ---       tips_statusChangeToNormal
      01007316H   CODE     ---       tips_statusChangeToZigbNwkFind
      01004B29H   CODE     ---       tips_sysButtonReales
      01000003H   CODE     ---       tips_sysStandBy
      01006FDFH   CODE     ---       tips_sysTouchReset
      01006750H   CODE     ---       tips_warning
      020006A6H   XDATA    BYTE      tipsTimeCount_factoryRecover
      020006BDH   XDATA    BYTE      tipsTimeCount_touchReset
      020006AFH   XDATA    BYTE      tipsTimeCount_zigNwkOpen
*SFR* 0000008AH   DATA     BYTE      TL0
*SFR* 0000008BH   DATA     BYTE      TL1
*SFR* 000000D7H   DATA     BYTE      TL2
*SFR* 000000D5H   DATA     BYTE      TL3
*SFR* 000000D3H   DATA     BYTE      TL4
*SFR* 00000089H   DATA     BYTE      TMOD
      020006EBH   XDATA    BYTE      touchKeepCnt_record
*SFR* 00000090H.6 DATA     BIT       touchPad_1
*SFR* 00000090H.7 DATA     BIT       touchPad_2
*SFR* 00000090H.5 DATA     BIT       touchPad_3
*DEL*:00000000H   CODE     ---       touchPad_pinInit
      0100733EH   CODE     ---       touchPad_processThread
      020006F4H   XDATA    BYTE      touchPad_resetTimeCount
      0100554FH   CODE     ---       touchPad_Scan
      020006ECH   XDATA    WORD      touchPadActCounter
      020006E9H   XDATA    WORD      touchPadContinueCnt
      010072AEH   CODE     ---       touchPadScan_oneShoot
*SFR* 00000088H.4 DATA     BIT       TR0
*SFR* 00000088H.6 DATA     BIT       TR1
      020005E2H   XDATA    ---       TX1_Buffer
*SFR* 000000B0H.1 DATA     BIT       TXD
*SFR* 00000090H.1 DATA     BIT       TXD2
      0100617CH   CODE     ---       UART1_Rountine
      010067C6H   CODE     ---       uartObjZigb_Init
      00000024H.1 BIT      BIT       uartRX_toutFLG
*SFR* 00000080H.2 DATA     BIT       Usr_key
      00000065H   DATA     WORD      usrKeyCount
      00000022H.7 BIT      BIT       usrKeyCount_EN
*DEL*:00000000H   CODE     ---       usrKeyFun_relayOpreation
      0100724BH   CODE     ---       usrKeyFun_zigbNwkRejoin
      0100738DH   CODE     ---       UsrKEYScan_oneShoot
      0100705BH   CODE     ---       usrKin_pinInit
      01006E29H   CODE     ---       usrZigbNwkOpen
      000000D8H   IDATA    BYTE      val_DcodeCfm
*SFR* 0000008FH   DATA     BYTE      WAKE_CLKO
*SFR* 000000C1H   DATA     BYTE      WDT_CONTR
*SFR* 000000ABH   DATA     BYTE      WKTCH
*SFR* 000000AAH   DATA     BYTE      WKTCL
*SFR* 000000B0H.6 DATA     BIT       WR
      01006C00H   CODE     ---       ZigB_nwkOpen
      020006BAH   XDATA    ---       zigbNwk_Tips
      02000325H   XDATA    WORD      zigbNwkAction_counter
      0100729BH   CODE     ---       zigbUart_pinInit



SYMBOL TABLE OF MODULE:  .\Output\swZigbNode_sw3bit (USR_MAIN)

      VALUE       REP       CLASS    TYPE      SYMBOL NAME
LX51 LINKER/LOCATER V4.66.41.0                                                        01/11/2019  12:04:15  PAGE 22


      ====================================================
      ---         MODULE    ---      ---       USR_MAIN
      01006C4EH   PUBLIC    CODE     ---       main
      01007332H   PUBLIC    CODE     ---       bsp_datsReales
      010071A7H   PUBLIC    CODE     ---       bsp_Init
      000000D8H.2 SFRSYM    DATA     BIT       CCF2
      000000E0H.7 SFRSYM    DATA     BIT       ACC7
      00000093H   SFRSYM    DATA     BYTE      P0M1
      00000092H   SFRSYM    DATA     BYTE      P1M0
      00000096H   SFRSYM    DATA     BYTE      P2M0
      00000091H   SFRSYM    DATA     BYTE      P1M1
      00000080H   SFRSYM    DATA     BYTE      P0
      000000B2H   SFRSYM    DATA     BYTE      P3M0
      00000095H   SFRSYM    DATA     BYTE      P2M1
      00000090H   SFRSYM    DATA     BYTE      P1
      000000B4H   SFRSYM    DATA     BYTE      P4M0
      000000B1H   SFRSYM    DATA     BYTE      P3M1
      000000A0H   SFRSYM    DATA     BYTE      P2
      000000CAH   SFRSYM    DATA     BYTE      P5M0
      000000B3H   SFRSYM    DATA     BYTE      P4M1
      000000B0H   SFRSYM    DATA     BYTE      P3
      000000ABH   SFRSYM    DATA     BYTE      WKTCH
      000000B0H.4 SFRSYM    DATA     BIT       T0
      000000D0H.6 SFRSYM    DATA     BIT       AC
      000000CCH   SFRSYM    DATA     BYTE      P6M0
      000000C9H   SFRSYM    DATA     BYTE      P5M1
      000000C0H   SFRSYM    DATA     BYTE      P4
      000000B0H.5 SFRSYM    DATA     BIT       CLKOUT0
      000000B0H.5 SFRSYM    DATA     BIT       T1
      000000E2H   SFRSYM    DATA     BYTE      P7M0
      000000CBH   SFRSYM    DATA     BYTE      P6M1
      000000C8H   SFRSYM    DATA     BYTE      P5
      000000C6H   SFRSYM    DATA     BYTE      ISP_TRIG
      000000A8H.7 SFRSYM    DATA     BIT       EA
      000000B0H.4 SFRSYM    DATA     BIT       CLKOUT1
      000000A0H.4 SFRSYM    DATA     BIT       SPI_SS_2
      000000E8H   SFRSYM    DATA     BYTE      P6
      000000E1H   SFRSYM    DATA     BYTE      P7M1
      000000C8H.4 SFRSYM    DATA     BIT       SPI_SS_3
      00000090H.4 SFRSYM    DATA     BIT       SPI_MISO
      00000090H.3 SFRSYM    DATA     BIT       SPI_MOSI
      00000090H.1 SFRSYM    DATA     BIT       CCP0
      000000F8H   SFRSYM    DATA     BYTE      P7
      000000AAH   SFRSYM    DATA     BYTE      WKTCL
      00000090H   SFRSYM    DATA     BIT       CCP1
      000000CEH   SFRSYM    DATA     BYTE      SPCTL
      000000D8H.7 SFRSYM    DATA     BIT       CF
      000000B0H.7 SFRSYM    DATA     BIT       CCP2
      000000F9H   SFRSYM    DATA     BYTE      CH
      000000A2H   SFRSYM    DATA     BYTE      P_SW1
      000000BAH   SFRSYM    DATA     BYTE      P_SW2
      000000A8H.5 SFRSYM    DATA     BIT       EADC
      000000A0H.1 SFRSYM    DATA     BIT       SPI_SCLK_2
      000000A8H   SFRSYM    DATA     BYTE      IE
      000000C0H.3 SFRSYM    DATA     BIT       SPI_SCLK_3
      000000E9H   SFRSYM    DATA     BYTE      CL
      000000C5H   SFRSYM    DATA     BYTE      IAP_CMD
      000000FAH   SFRSYM    DATA     BYTE      CCAP0H
      00000090H   SFRSYM    DATA     BIT       Dcode0
      000000FBH   SFRSYM    DATA     BYTE      CCAP1H
      00000090H.1 SFRSYM    DATA     BIT       Dcode1
      000000FCH   SFRSYM    DATA     BYTE      CCAP2H
      00000090H.2 SFRSYM    DATA     BIT       Dcode2
      000000BDH   SFRSYM    DATA     BYTE      ADC_RES
      000000B6H   SFRSYM    DATA     BYTE      IPH2
LX51 LINKER/LOCATER V4.66.41.0                                                        01/11/2019  12:04:15  PAGE 23


      00000090H.3 SFRSYM    DATA     BIT       Dcode3
      000000D8H.6 SFRSYM    DATA     BIT       CR
      000000EAH   SFRSYM    DATA     BYTE      CCAP0L
      00000090H.4 SFRSYM    DATA     BIT       Dcode4
      000000B0H.7 SFRSYM    DATA     BIT       RD
      000000EBH   SFRSYM    DATA     BYTE      CCAP1L
      000000DAH   SFRSYM    DATA     BYTE      CCAPM0
      00000090H.3 SFRSYM    DATA     BIT       Dcode5
      000000ECH   SFRSYM    DATA     BYTE      CCAP2L
      000000DBH   SFRSYM    DATA     BYTE      CCAPM1
      000000A8H.4 SFRSYM    DATA     BIT       ES
      000000DCH   SFRSYM    DATA     BYTE      CCAPM2
      000000B8H.5 SFRSYM    DATA     BIT       PADC
      000000A0H.2 SFRSYM    DATA     BIT       SPI_MISO_2
      000000A0H.3 SFRSYM    DATA     BIT       SPI_MOSI_2
      000000B8H   SFRSYM    DATA     BYTE      IP
      000000C0H.1 SFRSYM    DATA     BIT       SPI_MISO_3
      000000C0H   SFRSYM    DATA     BIT       SPI_MOSI_3
      00000098H   SFRSYM    DATA     BIT       RI
      000000B0H.2 SFRSYM    DATA     BIT       INT0
      000000D0H.7 SFRSYM    DATA     BIT       CY
      00000098H.1 SFRSYM    DATA     BIT       TI
      000000B0H.3 SFRSYM    DATA     BIT       INT1
      00000097H   SFRSYM    DATA     BYTE      CLK_DIV
      000000C3H   SFRSYM    DATA     BYTE      IAP_ADDRH
      00000090H   SFRSYM    DATA     BIT       RXD2
      000000C5H   SFRSYM    DATA     BYTE      ISP_CMD
      000000B8H.4 SFRSYM    DATA     BIT       PS
      00000090H.1 SFRSYM    DATA     BIT       TXD2
      00000081H   SFRSYM    DATA     BYTE      SP
      000000D9H   SFRSYM    DATA     BYTE      CMOD
      000000D8H   SFRSYM    DATA     BYTE      CCON
      000000C4H   SFRSYM    DATA     BYTE      IAP_ADDRL
      000000B8H.7 SFRSYM    DATA     BIT       PPCA
      000000D0H.2 SFRSYM    DATA     BIT       OV
      000000B0H.6 SFRSYM    DATA     BIT       WR
      000000A8H.6 SFRSYM    DATA     BIT       ELVD
      00000080H   SFRSYM    DATA     BIT       P00
      00000090H   SFRSYM    DATA     BIT       P10
      00000080H.1 SFRSYM    DATA     BIT       P01
      000000BCH   SFRSYM    DATA     BYTE      ADC_CONTR
      00000099H   SFRSYM    DATA     BYTE      SBUF
      00000087H   SFRSYM    DATA     BYTE      PCON
      000000A0H   SFRSYM    DATA     BIT       P20
      00000090H.1 SFRSYM    DATA     BIT       P11
      00000080H.2 SFRSYM    DATA     BIT       P02
      000000C3H   SFRSYM    DATA     BYTE      ISP_ADDRH
      000000B0H   SFRSYM    DATA     BIT       P30
      000000A0H.1 SFRSYM    DATA     BIT       P21
      00000090H.2 SFRSYM    DATA     BIT       P12
      00000080H.3 SFRSYM    DATA     BIT       P03
      000000C0H   SFRSYM    DATA     BIT       P40
      000000B0H.1 SFRSYM    DATA     BIT       P31
      000000A0H.2 SFRSYM    DATA     BIT       P22
      00000090H.3 SFRSYM    DATA     BIT       P13
      00000080H.4 SFRSYM    DATA     BIT       P04
      00000098H   SFRSYM    DATA     BYTE      SCON
      0000008FH   SFRSYM    DATA     BYTE      WAKE_CLKO
      000000C8H   SFRSYM    DATA     BIT       P50
      000000C0H.1 SFRSYM    DATA     BIT       P41
      000000B0H.2 SFRSYM    DATA     BIT       P32
      000000A0H.3 SFRSYM    DATA     BIT       P23
      00000090H.4 SFRSYM    DATA     BIT       P14
      00000080H.5 SFRSYM    DATA     BIT       P05
      00000089H   SFRSYM    DATA     BYTE      TMOD
LX51 LINKER/LOCATER V4.66.41.0                                                        01/11/2019  12:04:15  PAGE 24


      00000088H   SFRSYM    DATA     BYTE      TCON
      000000C8H.1 SFRSYM    DATA     BIT       P51
      000000C0H.2 SFRSYM    DATA     BIT       P42
      000000B0H.3 SFRSYM    DATA     BIT       P33
      000000A0H.4 SFRSYM    DATA     BIT       P24
      00000090H.5 SFRSYM    DATA     BIT       P15
      00000080H.6 SFRSYM    DATA     BIT       P06
      000000C4H   SFRSYM    DATA     BYTE      ISP_ADDRL
      000000B8H.6 SFRSYM    DATA     BIT       PLVD
      000000C8H.2 SFRSYM    DATA     BIT       P52
      000000C0H.3 SFRSYM    DATA     BIT       P43
      000000B0H.4 SFRSYM    DATA     BIT       P34
      000000A0H.5 SFRSYM    DATA     BIT       P25
      00000090H.6 SFRSYM    DATA     BIT       P16
      00000080H.7 SFRSYM    DATA     BIT       P07
      000000C8H.3 SFRSYM    DATA     BIT       P53
      000000C0H.4 SFRSYM    DATA     BIT       P44
      000000B0H.5 SFRSYM    DATA     BIT       P35
      000000A0H.6 SFRSYM    DATA     BIT       P26
      00000090H.7 SFRSYM    DATA     BIT       P17
      000000C8H.4 SFRSYM    DATA     BIT       P54
      000000C0H.5 SFRSYM    DATA     BIT       P45
      000000B0H.6 SFRSYM    DATA     BIT       P36
      000000A0H.7 SFRSYM    DATA     BIT       P27
      000000C8H.5 SFRSYM    DATA     BIT       P55
      000000C0H.6 SFRSYM    DATA     BIT       P46
      000000B0H.7 SFRSYM    DATA     BIT       P37
      000000C8H.6 SFRSYM    DATA     BIT       P56
      000000C0H.7 SFRSYM    DATA     BIT       P47
      000000C8H.7 SFRSYM    DATA     BIT       P57
      00000088H.1 SFRSYM    DATA     BIT       IE0
      000000A1H   SFRSYM    DATA     BYTE      BUS_SPEED
      00000088H.3 SFRSYM    DATA     BIT       IE1
      000000AFH   SFRSYM    DATA     BYTE      IE2
      000000F0H   SFRSYM    DATA     BYTE      B
      0000008EH   SFRSYM    DATA     BYTE      AUXR
      000000C7H   SFRSYM    DATA     BYTE      IAP_CONTR
      000000E0H   SFRSYM    DATA     BYTE      ACC
      000000A8H.1 SFRSYM    DATA     BIT       ET0
      000000A8H.3 SFRSYM    DATA     BIT       ET1
      00000088H.5 SFRSYM    DATA     BIT       TF0
      00000088H.7 SFRSYM    DATA     BIT       TF1
      000000B5H   SFRSYM    DATA     BYTE      IP2
      0000008CH   SFRSYM    DATA     BYTE      RL_TH0
      00000098H.2 SFRSYM    DATA     BIT       RB8
      0000008DH   SFRSYM    DATA     BYTE      RL_TH1
      0000008CH   SFRSYM    DATA     BYTE      TH0
      000000A8H   SFRSYM    DATA     BIT       EX0
      00000088H   SFRSYM    DATA     BIT       IT0
      000000D6H   SFRSYM    DATA     BYTE      RL_T2H
      0000008DH   SFRSYM    DATA     BYTE      TH1
      00000090H.6 SFRSYM    DATA     BIT       touchPad_1
      000000A8H.2 SFRSYM    DATA     BIT       EX1
      00000098H.3 SFRSYM    DATA     BIT       TB8
      00000088H.2 SFRSYM    DATA     BIT       IT1
      000000D4H   SFRSYM    DATA     BYTE      RL_T3H
      000000D6H   SFRSYM    DATA     BYTE      TH2
      000000D6H   SFRSYM    DATA     BYTE      T2H
      00000090H.7 SFRSYM    DATA     BIT       touchPad_2
      000000D0H   SFRSYM    DATA     BIT       P
      000000D2H   SFRSYM    DATA     BYTE      RL_T4H
      000000D4H   SFRSYM    DATA     BYTE      TH3
      000000D4H   SFRSYM    DATA     BYTE      T3H
      0000008AH   SFRSYM    DATA     BYTE      RL_TL0
      00000090H.5 SFRSYM    DATA     BIT       touchPad_3
LX51 LINKER/LOCATER V4.66.41.0                                                        01/11/2019  12:04:15  PAGE 25


      00000098H.7 SFRSYM    DATA     BIT       SM0
      000000D2H   SFRSYM    DATA     BYTE      TH4
      000000D2H   SFRSYM    DATA     BYTE      T4H
      0000008BH   SFRSYM    DATA     BYTE      RL_TL1
      0000008AH   SFRSYM    DATA     BYTE      TL0
      00000098H.6 SFRSYM    DATA     BIT       SM1
      000000D7H   SFRSYM    DATA     BYTE      RL_T2L
      0000008BH   SFRSYM    DATA     BYTE      TL1
      00000098H.5 SFRSYM    DATA     BIT       SM2
      000000D5H   SFRSYM    DATA     BYTE      RL_T3L
      000000D7H   SFRSYM    DATA     BYTE      TL2
      000000D7H   SFRSYM    DATA     BYTE      T2L
      000000D3H   SFRSYM    DATA     BYTE      RL_T4L
      000000D5H   SFRSYM    DATA     BYTE      TL3
      000000D5H   SFRSYM    DATA     BYTE      T3L
      000000B8H.1 SFRSYM    DATA     BIT       PT0
      000000D3H   SFRSYM    DATA     BYTE      TL4
      000000D3H   SFRSYM    DATA     BYTE      T4L
      000000B8H.3 SFRSYM    DATA     BIT       PT1
      000000D0H.3 SFRSYM    DATA     BIT       RS0
      000000C7H   SFRSYM    DATA     BYTE      ISP_CONTR
      00000088H.4 SFRSYM    DATA     BIT       TR0
      000000D0H.4 SFRSYM    DATA     BIT       RS1
      000000C2H   SFRSYM    DATA     BYTE      IAP_DATA
      00000088H.6 SFRSYM    DATA     BIT       TR1
      000000B8H   SFRSYM    DATA     BIT       PX0
      000000C1H   SFRSYM    DATA     BYTE      WDT_CONTR
      000000B8H.2 SFRSYM    DATA     BIT       PX1
      000000F2H   SFRSYM    DATA     BYTE      PCA_PWM0
      000000F3H   SFRSYM    DATA     BYTE      PCA_PWM1
      000000F4H   SFRSYM    DATA     BYTE      PCA_PWM2
      0000009DH   SFRSYM    DATA     BYTE      P1ASF
      00000083H   SFRSYM    DATA     BYTE      DPH
      000000D1H   SFRSYM    DATA     BYTE      T4T3M
      000000BEH   SFRSYM    DATA     BYTE      ADC_RESL
      00000082H   SFRSYM    DATA     BYTE      DPL
      000000CDH   SFRSYM    DATA     BYTE      SPSTAT
      000000B7H   SFRSYM    DATA     BYTE      IPH
      0000009BH   SFRSYM    DATA     BYTE      S2BUF
      00000097H   SFRSYM    DATA     BYTE      PCON2
      000000ADH   SFRSYM    DATA     BYTE      S3BUF
      00000098H.4 SFRSYM    DATA     BIT       REN
      00000085H   SFRSYM    DATA     BYTE      S4BUF
      00000080H.2 SFRSYM    DATA     BIT       Usr_key
      0000009AH   SFRSYM    DATA     BYTE      S2CON
      000000ACH   SFRSYM    DATA     BYTE      S3CON
      000000C2H   SFRSYM    DATA     BYTE      ISP_DATA
      00000084H   SFRSYM    DATA     BYTE      S4CON
      000000B9H   SFRSYM    DATA     BYTE      SADEN
      000000B0H   SFRSYM    DATA     BIT       RXD
      000000A9H   SFRSYM    DATA     BYTE      SADDR
      000000B0H.1 SFRSYM    DATA     BIT       TXD
      000000F0H   SFRSYM    DATA     BIT       B0
      000000F0H.1 SFRSYM    DATA     BIT       B1
      000000C6H   SFRSYM    DATA     BYTE      IAP_TRIG
      000000A2H   SFRSYM    DATA     BYTE      AUXR1
      000000F0H.2 SFRSYM    DATA     BIT       B2
      00000090H.2 SFRSYM    DATA     BIT       SPI_SS
      0000008FH   SFRSYM    DATA     BYTE      AUXR2
      000000F0H.3 SFRSYM    DATA     BIT       B3
      000000F0H.4 SFRSYM    DATA     BIT       B4
      000000D0H.5 SFRSYM    DATA     BIT       F0
      000000F0H.5 SFRSYM    DATA     BIT       B5
      000000D0H.1 SFRSYM    DATA     BIT       F1
      0000008FH   SFRSYM    DATA     BYTE      INT_CLKO
LX51 LINKER/LOCATER V4.66.41.0                                                        01/11/2019  12:04:15  PAGE 26


      000000F0H.6 SFRSYM    DATA     BIT       B6
      000000E0H   SFRSYM    DATA     BIT       ACC0
      000000F0H.7 SFRSYM    DATA     BIT       B7
      000000E0H.1 SFRSYM    DATA     BIT       ACC1
      000000E0H.2 SFRSYM    DATA     BIT       ACC2
      000000E0H.3 SFRSYM    DATA     BIT       ACC3
      000000D0H   SFRSYM    DATA     BYTE      PSW
      000000E0H.4 SFRSYM    DATA     BIT       ACC4
      00000090H.5 SFRSYM    DATA     BIT       SPI_SCLK
      000000D8H   SFRSYM    DATA     BIT       CCF0
      000000E0H.5 SFRSYM    DATA     BIT       ACC5
      000000D8H.1 SFRSYM    DATA     BIT       CCF1
      000000E0H.6 SFRSYM    DATA     BIT       ACC6
      000000CFH   SFRSYM    DATA     BYTE      SPDAT
      00000094H   SFRSYM    DATA     BYTE      P0M0

      010071A7H   BLOCK     CODE     ---       LVL=0
      010071A7H   LINE      CODE     ---       #19
      010071A7H   LINE      CODE     ---       #21
      010071AAH   LINE      CODE     ---       #22
      010071ADH   LINE      CODE     ---       #23
      010071B0H   LINE      CODE     ---       #24
      010071B3H   LINE      CODE     ---       #25
      010071B6H   LINE      CODE     ---       #26
      010071B9H   LINE      CODE     ---       #27
      010071BCH   LINE      CODE     ---       #28
      ---         BLOCKEND  ---      ---       LVL=0

      01007332H   BLOCK     CODE     ---       LVL=0
      01007332H   LINE      CODE     ---       #36
      01007332H   LINE      CODE     ---       #38
      01007335H   LINE      CODE     ---       #39
      01007338H   LINE      CODE     ---       #40
      0100733BH   LINE      CODE     ---       #41
      ---         BLOCKEND  ---      ---       LVL=0

      01006C4EH   BLOCK     CODE     ---       LVL=0
      01006C4EH   LINE      CODE     ---       #44
      01006C4EH   LINE      CODE     ---       #46
      01006C51H   LINE      CODE     ---       #47
      01006C54H   LINE      CODE     ---       #48
      01006C57H   LINE      CODE     ---       #52
      01006C5DH   LINE      CODE     ---       #53
      01006C64H   LINE      CODE     ---       #63
      01006C64H   LINE      CODE     ---       #71
      01006C67H   LINE      CODE     ---       #72
      01006C6AH   LINE      CODE     ---       #73
      01006C85H   LINE      CODE     ---       #76
      01006C88H   LINE      CODE     ---       #78
      01006C8BH   LINE      CODE     ---       #80
      01006C8EH   LINE      CODE     ---       #82
      01006C91H   LINE      CODE     ---       #84
      01006C94H   LINE      CODE     ---       #86
      01006C97H   LINE      CODE     ---       #87
      ---         BLOCKEND  ---      ---       LVL=0

      ---         MODULE    ---      ---       APPTIMER
      010025FCH   PUBLIC    CODE     ---       timer4_Rountine
      010000A1H   PUBLIC    CODE     ---       timer0_Rountine
      010072F6H   PUBLIC    CODE     ---       appTimer4_Init
      0100000EH   PUBLIC    CODE     ---       appTimer0_Init
      000000D8H.2 SFRSYM    DATA     BIT       CCF2
      000000E0H.7 SFRSYM    DATA     BIT       ACC7
      00000093H   SFRSYM    DATA     BYTE      P0M1
      00000092H   SFRSYM    DATA     BYTE      P1M0
LX51 LINKER/LOCATER V4.66.41.0                                                        01/11/2019  12:04:15  PAGE 27


      00000096H   SFRSYM    DATA     BYTE      P2M0
      00000091H   SFRSYM    DATA     BYTE      P1M1
      00000080H   SFRSYM    DATA     BYTE      P0
      000000B2H   SFRSYM    DATA     BYTE      P3M0
      00000095H   SFRSYM    DATA     BYTE      P2M1
      00000090H   SFRSYM    DATA     BYTE      P1
      000000B4H   SFRSYM    DATA     BYTE      P4M0
      000000B1H   SFRSYM    DATA     BYTE      P3M1
      000000A0H   SFRSYM    DATA     BYTE      P2
      000000CAH   SFRSYM    DATA     BYTE      P5M0
      000000B3H   SFRSYM    DATA     BYTE      P4M1
      000000B0H   SFRSYM    DATA     BYTE      P3
      000000ABH   SFRSYM    DATA     BYTE      WKTCH
      000000B0H.4 SFRSYM    DATA     BIT       T0
      000000D0H.6 SFRSYM    DATA     BIT       AC
      000000CCH   SFRSYM    DATA     BYTE      P6M0
      000000C9H   SFRSYM    DATA     BYTE      P5M1
      000000C0H   SFRSYM    DATA     BYTE      P4
      000000B0H.5 SFRSYM    DATA     BIT       CLKOUT0
      000000B0H.5 SFRSYM    DATA     BIT       T1
      000000E2H   SFRSYM    DATA     BYTE      P7M0
      000000CBH   SFRSYM    DATA     BYTE      P6M1
      000000C8H   SFRSYM    DATA     BYTE      P5
      000000C6H   SFRSYM    DATA     BYTE      ISP_TRIG
      000000A8H.7 SFRSYM    DATA     BIT       EA
      000000B0H.4 SFRSYM    DATA     BIT       CLKOUT1
      000000A0H.4 SFRSYM    DATA     BIT       SPI_SS_2
      000000E8H   SFRSYM    DATA     BYTE      P6
      000000E1H   SFRSYM    DATA     BYTE      P7M1
      000000C8H.4 SFRSYM    DATA     BIT       SPI_SS_3
      00000090H.4 SFRSYM    DATA     BIT       SPI_MISO
      00000090H.3 SFRSYM    DATA     BIT       SPI_MOSI
      00000090H.1 SFRSYM    DATA     BIT       CCP0
      000000F8H   SFRSYM    DATA     BYTE      P7
      000000AAH   SFRSYM    DATA     BYTE      WKTCL
      00000090H   SFRSYM    DATA     BIT       CCP1
      000000CEH   SFRSYM    DATA     BYTE      SPCTL
      000000D8H.7 SFRSYM    DATA     BIT       CF
      000000B0H.7 SFRSYM    DATA     BIT       CCP2
      000000F9H   SFRSYM    DATA     BYTE      CH
      000000A2H   SFRSYM    DATA     BYTE      P_SW1
      000000BAH   SFRSYM    DATA     BYTE      P_SW2
      000000A8H.5 SFRSYM    DATA     BIT       EADC
      000000A0H.1 SFRSYM    DATA     BIT       SPI_SCLK_2
      000000A8H   SFRSYM    DATA     BYTE      IE
      000000C0H.3 SFRSYM    DATA     BIT       SPI_SCLK_3
      000000E9H   SFRSYM    DATA     BYTE      CL
      000000C5H   SFRSYM    DATA     BYTE      IAP_CMD
      000000FAH   SFRSYM    DATA     BYTE      CCAP0H
      00000090H   SFRSYM    DATA     BIT       Dcode0
      000000FBH   SFRSYM    DATA     BYTE      CCAP1H
      00000090H.1 SFRSYM    DATA     BIT       Dcode1
      000000FCH   SFRSYM    DATA     BYTE      CCAP2H
      00000090H.2 SFRSYM    DATA     BIT       Dcode2
      000000BDH   SFRSYM    DATA     BYTE      ADC_RES
      000000B6H   SFRSYM    DATA     BYTE      IPH2
      00000090H.3 SFRSYM    DATA     BIT       Dcode3
      000000D8H.6 SFRSYM    DATA     BIT       CR
      000000EAH   SFRSYM    DATA     BYTE      CCAP0L
      00000090H.4 SFRSYM    DATA     BIT       Dcode4
      000000B0H.7 SFRSYM    DATA     BIT       RD
      000000EBH   SFRSYM    DATA     BYTE      CCAP1L
      000000DAH   SFRSYM    DATA     BYTE      CCAPM0
      00000090H.3 SFRSYM    DATA     BIT       Dcode5
      000000ECH   SFRSYM    DATA     BYTE      CCAP2L
LX51 LINKER/LOCATER V4.66.41.0                                                        01/11/2019  12:04:15  PAGE 28


      000000DBH   SFRSYM    DATA     BYTE      CCAPM1
      000000A8H.4 SFRSYM    DATA     BIT       ES
      000000DCH   SFRSYM    DATA     BYTE      CCAPM2
      000000B8H.5 SFRSYM    DATA     BIT       PADC
      000000A0H.2 SFRSYM    DATA     BIT       SPI_MISO_2
      000000A0H.3 SFRSYM    DATA     BIT       SPI_MOSI_2
      000000B8H   SFRSYM    DATA     BYTE      IP
      000000C0H.1 SFRSYM    DATA     BIT       SPI_MISO_3
      000000C0H   SFRSYM    DATA     BIT       SPI_MOSI_3
      00000098H   SFRSYM    DATA     BIT       RI
      000000B0H.2 SFRSYM    DATA     BIT       INT0
      000000D0H.7 SFRSYM    DATA     BIT       CY
      00000098H.1 SFRSYM    DATA     BIT       TI
      000000B0H.3 SFRSYM    DATA     BIT       INT1
      00000097H   SFRSYM    DATA     BYTE      CLK_DIV
      000000C3H   SFRSYM    DATA     BYTE      IAP_ADDRH
      00000090H   SFRSYM    DATA     BIT       RXD2
      000000C5H   SFRSYM    DATA     BYTE      ISP_CMD
      000000B8H.4 SFRSYM    DATA     BIT       PS
      00000090H.1 SFRSYM    DATA     BIT       TXD2
      00000081H   SFRSYM    DATA     BYTE      SP
      000000D9H   SFRSYM    DATA     BYTE      CMOD
      000000D8H   SFRSYM    DATA     BYTE      CCON
      000000C4H   SFRSYM    DATA     BYTE      IAP_ADDRL
      000000B8H.7 SFRSYM    DATA     BIT       PPCA
      000000D0H.2 SFRSYM    DATA     BIT       OV
      000000B0H.6 SFRSYM    DATA     BIT       WR
      000000A8H.6 SFRSYM    DATA     BIT       ELVD
      00000080H   SFRSYM    DATA     BIT       P00
      00000090H   SFRSYM    DATA     BIT       P10
      00000080H.1 SFRSYM    DATA     BIT       P01
      000000BCH   SFRSYM    DATA     BYTE      ADC_CONTR
      00000099H   SFRSYM    DATA     BYTE      SBUF
      00000087H   SFRSYM    DATA     BYTE      PCON
      000000A0H   SFRSYM    DATA     BIT       P20
      00000090H.1 SFRSYM    DATA     BIT       P11
      00000080H.2 SFRSYM    DATA     BIT       P02
      000000C3H   SFRSYM    DATA     BYTE      ISP_ADDRH
      000000B0H   SFRSYM    DATA     BIT       P30
      000000A0H.1 SFRSYM    DATA     BIT       P21
      00000090H.2 SFRSYM    DATA     BIT       P12
      00000080H.3 SFRSYM    DATA     BIT       P03
      000000C0H   SFRSYM    DATA     BIT       P40
      000000B0H.1 SFRSYM    DATA     BIT       P31
      000000A0H.2 SFRSYM    DATA     BIT       P22
      00000090H.3 SFRSYM    DATA     BIT       P13
      00000080H.4 SFRSYM    DATA     BIT       P04
      00000098H   SFRSYM    DATA     BYTE      SCON
      0000008FH   SFRSYM    DATA     BYTE      WAKE_CLKO
      000000C8H   SFRSYM    DATA     BIT       P50
      000000C0H.1 SFRSYM    DATA     BIT       P41
      000000B0H.2 SFRSYM    DATA     BIT       P32
      000000A0H.3 SFRSYM    DATA     BIT       P23
      00000090H.4 SFRSYM    DATA     BIT       P14
      00000080H.5 SFRSYM    DATA     BIT       P05
      00000089H   SFRSYM    DATA     BYTE      TMOD
      00000088H   SFRSYM    DATA     BYTE      TCON
      000000C8H.1 SFRSYM    DATA     BIT       P51
      000000C0H.2 SFRSYM    DATA     BIT       P42
      000000B0H.3 SFRSYM    DATA     BIT       P33
      000000A0H.4 SFRSYM    DATA     BIT       P24
      00000090H.5 SFRSYM    DATA     BIT       P15
      00000080H.6 SFRSYM    DATA     BIT       P06
      000000C4H   SFRSYM    DATA     BYTE      ISP_ADDRL
      000000B8H.6 SFRSYM    DATA     BIT       PLVD
LX51 LINKER/LOCATER V4.66.41.0                                                        01/11/2019  12:04:15  PAGE 29


      000000C8H.2 SFRSYM    DATA     BIT       P52
      000000C0H.3 SFRSYM    DATA     BIT       P43
      000000B0H.4 SFRSYM    DATA     BIT       P34
      000000A0H.5 SFRSYM    DATA     BIT       P25
      00000090H.6 SFRSYM    DATA     BIT       P16
      00000080H.7 SFRSYM    DATA     BIT       P07
      000000C8H.3 SFRSYM    DATA     BIT       P53
      000000C0H.4 SFRSYM    DATA     BIT       P44
      000000B0H.5 SFRSYM    DATA     BIT       P35
      000000A0H.6 SFRSYM    DATA     BIT       P26
      00000090H.7 SFRSYM    DATA     BIT       P17
      000000C8H.4 SFRSYM    DATA     BIT       P54
      000000C0H.5 SFRSYM    DATA     BIT       P45
      000000B0H.6 SFRSYM    DATA     BIT       P36
      000000A0H.7 SFRSYM    DATA     BIT       P27
      000000C8H.5 SFRSYM    DATA     BIT       P55
      000000C0H.6 SFRSYM    DATA     BIT       P46
      000000B0H.7 SFRSYM    DATA     BIT       P37
      000000C8H.6 SFRSYM    DATA     BIT       P56
      000000C0H.7 SFRSYM    DATA     BIT       P47
      000000C8H.7 SFRSYM    DATA     BIT       P57
      00000088H.1 SFRSYM    DATA     BIT       IE0
      000000A1H   SFRSYM    DATA     BYTE      BUS_SPEED
      00000088H.3 SFRSYM    DATA     BIT       IE1
      000000AFH   SFRSYM    DATA     BYTE      IE2
      000000F0H   SFRSYM    DATA     BYTE      B
      0000008EH   SFRSYM    DATA     BYTE      AUXR
      000000C7H   SFRSYM    DATA     BYTE      IAP_CONTR
      000000E0H   SFRSYM    DATA     BYTE      ACC
      000000A8H.1 SFRSYM    DATA     BIT       ET0
      000000A8H.3 SFRSYM    DATA     BIT       ET1
      00000088H.5 SFRSYM    DATA     BIT       TF0
      00000088H.7 SFRSYM    DATA     BIT       TF1
      000000B5H   SFRSYM    DATA     BYTE      IP2
      0000008CH   SFRSYM    DATA     BYTE      RL_TH0
      00000098H.2 SFRSYM    DATA     BIT       RB8
      0000008DH   SFRSYM    DATA     BYTE      RL_TH1
      0000008CH   SFRSYM    DATA     BYTE      TH0
      000000A8H   SFRSYM    DATA     BIT       EX0
      00000088H   SFRSYM    DATA     BIT       IT0
      000000D6H   SFRSYM    DATA     BYTE      RL_T2H
      0000008DH   SFRSYM    DATA     BYTE      TH1
      00000090H.6 SFRSYM    DATA     BIT       touchPad_1
      000000A8H.2 SFRSYM    DATA     BIT       EX1
      00000098H.3 SFRSYM    DATA     BIT       TB8
      00000088H.2 SFRSYM    DATA     BIT       IT1
      000000D4H   SFRSYM    DATA     BYTE      RL_T3H
      000000D6H   SFRSYM    DATA     BYTE      TH2
      000000D6H   SFRSYM    DATA     BYTE      T2H
      00000090H.7 SFRSYM    DATA     BIT       touchPad_2
      000000D0H   SFRSYM    DATA     BIT       P
      000000D2H   SFRSYM    DATA     BYTE      RL_T4H
      000000D4H   SFRSYM    DATA     BYTE      TH3
      000000D4H   SFRSYM    DATA     BYTE      T3H
      0000008AH   SFRSYM    DATA     BYTE      RL_TL0
      00000090H.5 SFRSYM    DATA     BIT       touchPad_3
      00000098H.7 SFRSYM    DATA     BIT       SM0
      000000D2H   SFRSYM    DATA     BYTE      TH4
      000000D2H   SFRSYM    DATA     BYTE      T4H
      0000008BH   SFRSYM    DATA     BYTE      RL_TL1
      0000008AH   SFRSYM    DATA     BYTE      TL0
      00000098H.6 SFRSYM    DATA     BIT       SM1
      000000D7H   SFRSYM    DATA     BYTE      RL_T2L
      0000008BH   SFRSYM    DATA     BYTE      TL1
      00000098H.5 SFRSYM    DATA     BIT       SM2
LX51 LINKER/LOCATER V4.66.41.0                                                        01/11/2019  12:04:15  PAGE 30


      000000D5H   SFRSYM    DATA     BYTE      RL_T3L
      000000D7H   SFRSYM    DATA     BYTE      TL2
      000000D7H   SFRSYM    DATA     BYTE      T2L
      000000D3H   SFRSYM    DATA     BYTE      RL_T4L
      000000D5H   SFRSYM    DATA     BYTE      TL3
      000000D5H   SFRSYM    DATA     BYTE      T3L
      000000B8H.1 SFRSYM    DATA     BIT       PT0
      000000D3H   SFRSYM    DATA     BYTE      TL4
      000000D3H   SFRSYM    DATA     BYTE      T4L
      000000B8H.3 SFRSYM    DATA     BIT       PT1
      000000D0H.3 SFRSYM    DATA     BIT       RS0
      000000C7H   SFRSYM    DATA     BYTE      ISP_CONTR
      00000088H.4 SFRSYM    DATA     BIT       TR0
      000000D0H.4 SFRSYM    DATA     BIT       RS1
      000000C2H   SFRSYM    DATA     BYTE      IAP_DATA
      00000088H.6 SFRSYM    DATA     BIT       TR1
      000000B8H   SFRSYM    DATA     BIT       PX0
      000000C1H   SFRSYM    DATA     BYTE      WDT_CONTR
      000000B8H.2 SFRSYM    DATA     BIT       PX1
      000000F2H   SFRSYM    DATA     BYTE      PCA_PWM0
      000000F3H   SFRSYM    DATA     BYTE      PCA_PWM1
      000000F4H   SFRSYM    DATA     BYTE      PCA_PWM2
      0000009DH   SFRSYM    DATA     BYTE      P1ASF
      00000083H   SFRSYM    DATA     BYTE      DPH
      000000D1H   SFRSYM    DATA     BYTE      T4T3M
      000000BEH   SFRSYM    DATA     BYTE      ADC_RESL
      00000082H   SFRSYM    DATA     BYTE      DPL
      000000CDH   SFRSYM    DATA     BYTE      SPSTAT
      000000B7H   SFRSYM    DATA     BYTE      IPH
      0000009BH   SFRSYM    DATA     BYTE      S2BUF
      00000097H   SFRSYM    DATA     BYTE      PCON2
      000000ADH   SFRSYM    DATA     BYTE      S3BUF
      00000098H.4 SFRSYM    DATA     BIT       REN
      00000085H   SFRSYM    DATA     BYTE      S4BUF
      00000080H.2 SFRSYM    DATA     BIT       Usr_key
      0000009AH   SFRSYM    DATA     BYTE      S2CON
      000000ACH   SFRSYM    DATA     BYTE      S3CON
      000000C2H   SFRSYM    DATA     BYTE      ISP_DATA
      00000084H   SFRSYM    DATA     BYTE      S4CON
      000000B9H   SFRSYM    DATA     BYTE      SADEN
      000000B0H   SFRSYM    DATA     BIT       RXD
      000000A9H   SFRSYM    DATA     BYTE      SADDR
      000000B0H.1 SFRSYM    DATA     BIT       TXD
      000000F0H   SFRSYM    DATA     BIT       B0
      000000F0H.1 SFRSYM    DATA     BIT       B1
      000000C6H   SFRSYM    DATA     BYTE      IAP_TRIG
      000000A2H   SFRSYM    DATA     BYTE      AUXR1
      000000F0H.2 SFRSYM    DATA     BIT       B2
      00000090H.2 SFRSYM    DATA     BIT       SPI_SS
      0000008FH   SFRSYM    DATA     BYTE      AUXR2
      000000F0H.3 SFRSYM    DATA     BIT       B3
      000000F0H.4 SFRSYM    DATA     BIT       B4
      000000D0H.5 SFRSYM    DATA     BIT       F0
      000000F0H.5 SFRSYM    DATA     BIT       B5
      000000D0H.1 SFRSYM    DATA     BIT       F1
      0000008FH   SFRSYM    DATA     BYTE      INT_CLKO
      000000F0H.6 SFRSYM    DATA     BIT       B6
      000000E0H   SFRSYM    DATA     BIT       ACC0
      000000F0H.7 SFRSYM    DATA     BIT       B7
      000000E0H.1 SFRSYM    DATA     BIT       ACC1
      000000E0H.2 SFRSYM    DATA     BIT       ACC2
      000000E0H.3 SFRSYM    DATA     BIT       ACC3
      000000D0H   SFRSYM    DATA     BYTE      PSW
      000000E0H.4 SFRSYM    DATA     BIT       ACC4
      00000090H.5 SFRSYM    DATA     BIT       SPI_SCLK
LX51 LINKER/LOCATER V4.66.41.0                                                        01/11/2019  12:04:15  PAGE 31


      000000D8H   SFRSYM    DATA     BIT       CCF0
      000000E0H.5 SFRSYM    DATA     BIT       ACC5
      000000D8H.1 SFRSYM    DATA     BIT       CCF1
      000000E0H.6 SFRSYM    DATA     BIT       ACC6
      000000CFH   SFRSYM    DATA     BYTE      SPDAT
      00000094H   SFRSYM    DATA     BYTE      P0M0

      0100697DH   BLOCK     CODE     ---       LVL=0
      ---         BLOCKEND  ---      ---       LVL=0

      0100000EH   BLOCK     CODE     ---       LVL=0
      0100000EH   LINE      CODE     ---       #54
      0100000EH   LINE      CODE     ---       #56
      01000011H   LINE      CODE     ---       #57
      01000014H   LINE      CODE     ---       #58
      01000017H   LINE      CODE     ---       #59
      0100001AH   LINE      CODE     ---       #60
      0100001CH   LINE      CODE     ---       #61
      0100001EH   LINE      CODE     ---       #62
      01000020H   LINE      CODE     ---       #64
      01000022H   LINE      CODE     ---       #65
      ---         BLOCKEND  ---      ---       LVL=0

      010072F6H   BLOCK     CODE     ---       LVL=0
      010072F6H   LINE      CODE     ---       #67
      010072F6H   LINE      CODE     ---       #69
      010072F9H   LINE      CODE     ---       #70
      010072FCH   LINE      CODE     ---       #71
      010072FFH   LINE      CODE     ---       #72
      01007302H   LINE      CODE     ---       #74
      01007305H   LINE      CODE     ---       #75
      ---         BLOCKEND  ---      ---       LVL=0

      010000A1H   BLOCK     CODE     ---       LVL=0
      010000A1H   LINE      CODE     ---       #77
      010000A1H   LINE      CODE     ---       #173
      ---         BLOCKEND  ---      ---       LVL=0

      010025FCH   BLOCK     CODE     ---       LVL=0
      01002619H   BLOCK     CODE     NEAR LAB  LVL=1
      01007410H   SYMBOL    CONST    WORD      period_1second
      00000068H   SYMBOL    DATA     WORD      counter_1second
      01007412H   SYMBOL    CONST    BYTE      period_1ms
      0000006AH   SYMBOL    DATA     BYTE      counter_1ms
      01007413H   SYMBOL    CONST    WORD      period_200ms
      0000006BH   SYMBOL    DATA     WORD      counter_200ms
      01007415H   SYMBOL    CONST    BYTE      period5_200ms
      0000006DH   SYMBOL    DATA     BYTE      counter5_200ms
      01007416H   SYMBOL    CONST    BYTE      period_tipsColor
      0000006EH   SYMBOL    DATA     BYTE      counter_tipsColor
      020006C3H   SYMBOL    XDATA    ---       cnt_relay1_Tips
      020006C6H   SYMBOL    XDATA    ---       cnt_relay2_Tips
      020006C9H   SYMBOL    XDATA    ---       cnt_relay3_Tips
      020006CCH   SYMBOL    XDATA    ---       cnt_zigbNwk_Tips
      020006CFH   SYMBOL    XDATA    BYTE      period_beep
      020006D0H   SYMBOL    XDATA    BYTE      count_beep
      0100296EH   BLOCK     CODE     NEAR LAB  LVL=2
      020006BEH   SYMBOL    XDATA    WORD      tips_Period
      020006C0H   SYMBOL    XDATA    WORD      tips_Count
      020006C2H   SYMBOL    XDATA    BYTE      tips_Loop
      00000025H.7 SYMBOL    BIT      BIT       beeps_en
      ---         BLOCKEND  ---      ---       LVL=2
      ---         BLOCKEND  ---      ---       LVL=1
      010025FCH   LINE      CODE     ---       #175
      01002619H   LINE      CODE     ---       #215
LX51 LINKER/LOCATER V4.66.41.0                                                        01/11/2019  12:04:15  PAGE 32


      01002632H   LINE      CODE     ---       #216
      01002632H   LINE      CODE     ---       #218
      01002638H   LINE      CODE     ---       #219
      0100263AH   LINE      CODE     ---       #222
      01002640H   LINE      CODE     ---       #224
      0100264CH   LINE      CODE     ---       #226
      0100264CH   LINE      CODE     ---       #228
      01002653H   LINE      CODE     ---       #230
      0100265BH   LINE      CODE     ---       #232
      01002668H   LINE      CODE     ---       #234
      0100266AH   LINE      CODE     ---       #242
      0100266AH   LINE      CODE     ---       #244
      01002670H   LINE      CODE     ---       #246
      01002679H   LINE      CODE     ---       #248
      01002685H   LINE      CODE     ---       #250
      01002687H   LINE      CODE     ---       #252
      0100268CH   LINE      CODE     ---       #253
      0100268CH   LINE      CODE     ---       #254
      0100268CH   LINE      CODE     ---       #256
      0100268EH   LINE      CODE     ---       #258
      0100268EH   LINE      CODE     ---       #260
      01002696H   LINE      CODE     ---       #262
      0100269CH   LINE      CODE     ---       #263
      0100269DH   LINE      CODE     ---       #264
      010026A0H   LINE      CODE     ---       #265
      010026A0H   LINE      CODE     ---       #267
      010026A0H   LINE      CODE     ---       #269
      010026A0H   LINE      CODE     ---       #270
      010026A0H   LINE      CODE     ---       #271
      010026A0H   LINE      CODE     ---       #273
      010026AAH   LINE      CODE     ---       #274
      010026AAH   LINE      CODE     ---       #278
      010026BBH   LINE      CODE     ---       #279
      010026BBH   LINE      CODE     ---       #281
      010026BEH   LINE      CODE     ---       #307
      010026D6H   LINE      CODE     ---       #310
      010026E3H   LINE      CODE     ---       #311
      010026E9H   LINE      CODE     ---       #314
      01002701H   LINE      CODE     ---       #317
      01002719H   LINE      CODE     ---       #320
      01002731H   LINE      CODE     ---       #323
      01002749H   LINE      CODE     ---       #326
      01002761H   LINE      CODE     ---       #327
      01002761H   LINE      CODE     ---       #330
      0100277BH   LINE      CODE     ---       #331
      0100277BH   LINE      CODE     ---       #333
      01002781H   LINE      CODE     ---       #385
      01002784H   LINE      CODE     ---       #387
      01002796H   LINE      CODE     ---       #388
      01002796H   LINE      CODE     ---       #390
      0100279BH   LINE      CODE     ---       #391
      0100279DH   LINE      CODE     ---       #392
      0100279DH   LINE      CODE     ---       #393
      0100279DH   LINE      CODE     ---       #396
      010027A4H   LINE      CODE     ---       #398
      010027BBH   LINE      CODE     ---       #399
      010027BBH   LINE      CODE     ---       #401
      010027C6H   LINE      CODE     ---       #403
      010027CCH   LINE      CODE     ---       #405
      010027D2H   LINE      CODE     ---       #406
      010027D8H   LINE      CODE     ---       #407
      010027DBH   LINE      CODE     ---       #408
      010027E2H   LINE      CODE     ---       #422
      01002805H   LINE      CODE     ---       #424
      01002810H   LINE      CODE     ---       #429
LX51 LINKER/LOCATER V4.66.41.0                                                        01/11/2019  12:04:15  PAGE 33


      01002817H   LINE      CODE     ---       #431
      0100281DH   LINE      CODE     ---       #432
      0100281DH   LINE      CODE     ---       #433
      0100281DH   LINE      CODE     ---       #436
      0100282AH   LINE      CODE     ---       #438
      01002841H   LINE      CODE     ---       #439
      01002841H   LINE      CODE     ---       #441
      01002848H   LINE      CODE     ---       #443
      0100284EH   LINE      CODE     ---       #444
      01002852H   LINE      CODE     ---       #445
      01002855H   LINE      CODE     ---       #446
      0100285CH   LINE      CODE     ---       #459
      0100287AH   LINE      CODE     ---       #461
      01002885H   LINE      CODE     ---       #464
      01002885H   LINE      CODE     ---       #465
      01002885H   LINE      CODE     ---       #468
      0100288DH   LINE      CODE     ---       #471
      01002895H   LINE      CODE     ---       #474
      0100289DH   LINE      CODE     ---       #477
      010028A8H   LINE      CODE     ---       #480
      010028B0H   LINE      CODE     ---       #483
      010028B8H   LINE      CODE     ---       #486
      010028C0H   LINE      CODE     ---       #489
      010028C8H   LINE      CODE     ---       #492
      010028D0H   LINE      CODE     ---       #495
      010028D8H   LINE      CODE     ---       #498
      010028E0H   LINE      CODE     ---       #501
      010028E8H   LINE      CODE     ---       #504
      010028F0H   LINE      CODE     ---       #505
      010028F0H   LINE      CODE     ---       #508
      010028F3H   LINE      CODE     ---       #510
      010028FEH   LINE      CODE     ---       #511
      010028FEH   LINE      CODE     ---       #513
      01002908H   LINE      CODE     ---       #515
      0100290AH   LINE      CODE     ---       #517
      01002919H   LINE      CODE     ---       #518
      0100292CH   LINE      CODE     ---       #519
      01002932H   LINE      CODE     ---       #522
      01002944H   LINE      CODE     ---       #525
      0100294BH   LINE      CODE     ---       #526
      01002953H   LINE      CODE     ---       #527
      01002957H   LINE      CODE     ---       #529
      0100295BH   LINE      CODE     ---       #531
      0100295BH   LINE      CODE     ---       #534
      0100295BH   LINE      CODE     ---       #535
      0100295BH   LINE      CODE     ---       #536
      0100295DH   LINE      CODE     ---       #537
      0100295DH   LINE      CODE     ---       #538
      0100295DH   LINE      CODE     ---       #541
      0100296EH   LINE      CODE     ---       #542
      0100296EH   LINE      CODE     ---       #549
      01002973H   LINE      CODE     ---       #551
      01002988H   LINE      CODE     ---       #553
      01002988H   LINE      CODE     ---       #555
      01002993H   LINE      CODE     ---       #556
      010029ABH   LINE      CODE     ---       #557
      010029B7H   LINE      CODE     ---       #558
      010029BAH   LINE      CODE     ---       #559
      010029BCH   LINE      CODE     ---       #560
      010029C2H   LINE      CODE     ---       #562
      010029C4H   LINE      CODE     ---       #564
      010029C4H   LINE      CODE     ---       #566
      010029CAH   LINE      CODE     ---       #568
      010029DFH   LINE      CODE     ---       #570
      010029EBH   LINE      CODE     ---       #571
LX51 LINKER/LOCATER V4.66.41.0                                                        01/11/2019  12:04:15  PAGE 34


      010029F4H   LINE      CODE     ---       #573
      010029F6H   LINE      CODE     ---       #575
      010029F9H   LINE      CODE     ---       #576
      010029FBH   LINE      CODE     ---       #577
      010029FFH   LINE      CODE     ---       #578
      010029FFH   LINE      CODE     ---       #580
      01002A01H   LINE      CODE     ---       #582
      01002A07H   LINE      CODE     ---       #583
      01002A07H   LINE      CODE     ---       #585
      01002A09H   LINE      CODE     ---       #587
      01002A09H   LINE      CODE     ---       #589
      01002A0CH   LINE      CODE     ---       #590
      01002A0EH   LINE      CODE     ---       #591
      01002A10H   LINE      CODE     ---       #592
      01002A14H   LINE      CODE     ---       #594
      01002A16H   LINE      CODE     ---       #596
      01002A16H   LINE      CODE     ---       #598
      01002A18H   LINE      CODE     ---       #600
      01002A18H   LINE      CODE     ---       #601
      01002A18H   LINE      CODE     ---       #602
      01002A18H   LINE      CODE     ---       #605
      01002A27H   LINE      CODE     ---       #607
      01002A2AH   LINE      CODE     ---       #609
      01002A34H   LINE      CODE     ---       #610
      01002A3EH   LINE      CODE     ---       #611
      01002A48H   LINE      CODE     ---       #613
      01002A52H   LINE      CODE     ---       #614
      01002A5CH   LINE      CODE     ---       #615
      01002A66H   LINE      CODE     ---       #617
      01002A70H   LINE      CODE     ---       #618
      01002A7AH   LINE      CODE     ---       #619
      01002A84H   LINE      CODE     ---       #621
      01002A8EH   LINE      CODE     ---       #622
      01002A9DH   LINE      CODE     ---       #623
      01002AACH   LINE      CODE     ---       #624
      01002AAFH   LINE      CODE     ---       #625
      01002AAFH   LINE      CODE     ---       #627
      01002AB1H   LINE      CODE     ---       #646
      01002ABFH   LINE      CODE     ---       #649
      01002AD4H   LINE      CODE     ---       #650
      01002AD6H   LINE      CODE     ---       #651
      01002AEBH   LINE      CODE     ---       #652
      01002AEDH   LINE      CODE     ---       #653
      01002B02H   LINE      CODE     ---       #654
      01002B04H   LINE      CODE     ---       #655
      01002B15H   LINE      CODE     ---       #656
      01002B17H   LINE      CODE     ---       #658
      01002B1AH   LINE      CODE     ---       #659
      01002B28H   LINE      CODE     ---       #662
      01002B3DH   LINE      CODE     ---       #663
      01002B3FH   LINE      CODE     ---       #664
      01002B54H   LINE      CODE     ---       #665
      01002B56H   LINE      CODE     ---       #666
      01002B6BH   LINE      CODE     ---       #667
      01002B6DH   LINE      CODE     ---       #668
      01002B7DH   LINE      CODE     ---       #669
      01002B7FH   LINE      CODE     ---       #671
      01002B81H   LINE      CODE     ---       #672
      01002B8FH   LINE      CODE     ---       #675
      01002BA4H   LINE      CODE     ---       #676
      01002BA6H   LINE      CODE     ---       #677
      01002BBBH   LINE      CODE     ---       #678
      01002BBDH   LINE      CODE     ---       #679
      01002BD2H   LINE      CODE     ---       #680
      01002BD4H   LINE      CODE     ---       #681
LX51 LINKER/LOCATER V4.66.41.0                                                        01/11/2019  12:04:15  PAGE 35


      01002BE4H   LINE      CODE     ---       #682
      01002BE6H   LINE      CODE     ---       #683
      01002BE6H   LINE      CODE     ---       #685
      01002BE6H   LINE      CODE     ---       #686
      ---         BLOCKEND  ---      ---       LVL=0

      ---         MODULE    ---      ---       DATAMANAGE
      00000026H.0 PUBLIC    BIT      BIT       deviceLock_flag
      00000075H   PUBLIC    DATA     BYTE      SWITCH_TYPE
      0000007DH   PUBLIC    IDATA    ---       log_buf
      00000074H   PUBLIC    DATA     BYTE      DEV_actReserve
      020006D8H   PUBLIC    XDATA    ---       MAC_ID
      020006D7H   PUBLIC    XDATA    BYTE      loopInsert_relayStatusRealTime_record
      00000071H   PUBLIC    DATA     ---       CTRLEATHER_PORT
      0000006FH   PUBLIC    DATA     WORD      dev_currentPanid
      020006D1H   PUBLIC    XDATA    ---       MAC_ID_DST
      010060DBH   PUBLIC    CODE     ---       devDataRecovery_relayStatus
      01006C99H   PUBLIC    CODE     ---       _devParamDtaaSave_relayStatusRealTime
      01007117H   PUBLIC    CODE     ---       birthDay_Judge
      0100629DH   PUBLIC    CODE     ---       Factory_recover
      01007033H   PUBLIC    CODE     ---       switchTypeReserve_GET
      01007275H   PUBLIC    CODE     ---       portCtrlEachOther_Reales
      01006AB0H   PUBLIC    CODE     ---       MAC_ID_Relaes
      000000D8H.2 SFRSYM    DATA     BIT       CCF2
      000000E0H.7 SFRSYM    DATA     BIT       ACC7
      00000093H   SFRSYM    DATA     BYTE      P0M1
      00000092H   SFRSYM    DATA     BYTE      P1M0
      00000096H   SFRSYM    DATA     BYTE      P2M0
      00000091H   SFRSYM    DATA     BYTE      P1M1
      00000080H   SFRSYM    DATA     BYTE      P0
      000000B2H   SFRSYM    DATA     BYTE      P3M0
      00000095H   SFRSYM    DATA     BYTE      P2M1
      00000090H   SFRSYM    DATA     BYTE      P1
      000000B4H   SFRSYM    DATA     BYTE      P4M0
      000000B1H   SFRSYM    DATA     BYTE      P3M1
      000000A0H   SFRSYM    DATA     BYTE      P2
      000000CAH   SFRSYM    DATA     BYTE      P5M0
      000000B3H   SFRSYM    DATA     BYTE      P4M1
      000000B0H   SFRSYM    DATA     BYTE      P3
      000000ABH   SFRSYM    DATA     BYTE      WKTCH
      000000B0H.4 SFRSYM    DATA     BIT       T0
      000000D0H.6 SFRSYM    DATA     BIT       AC
      000000CCH   SFRSYM    DATA     BYTE      P6M0
      000000C9H   SFRSYM    DATA     BYTE      P5M1
      000000C0H   SFRSYM    DATA     BYTE      P4
      000000B0H.5 SFRSYM    DATA     BIT       CLKOUT0
      000000B0H.5 SFRSYM    DATA     BIT       T1
      000000E2H   SFRSYM    DATA     BYTE      P7M0
      000000CBH   SFRSYM    DATA     BYTE      P6M1
      000000C8H   SFRSYM    DATA     BYTE      P5
      000000C6H   SFRSYM    DATA     BYTE      ISP_TRIG
      000000A8H.7 SFRSYM    DATA     BIT       EA
      000000B0H.4 SFRSYM    DATA     BIT       CLKOUT1
      000000A0H.4 SFRSYM    DATA     BIT       SPI_SS_2
      000000E8H   SFRSYM    DATA     BYTE      P6
      000000E1H   SFRSYM    DATA     BYTE      P7M1
      000000C8H.4 SFRSYM    DATA     BIT       SPI_SS_3
      00000090H.4 SFRSYM    DATA     BIT       SPI_MISO
      00000090H.3 SFRSYM    DATA     BIT       SPI_MOSI
      00000090H.1 SFRSYM    DATA     BIT       CCP0
      000000F8H   SFRSYM    DATA     BYTE      P7
      000000AAH   SFRSYM    DATA     BYTE      WKTCL
      00000090H   SFRSYM    DATA     BIT       CCP1
      000000CEH   SFRSYM    DATA     BYTE      SPCTL
      000000D8H.7 SFRSYM    DATA     BIT       CF
LX51 LINKER/LOCATER V4.66.41.0                                                        01/11/2019  12:04:15  PAGE 36


      000000B0H.7 SFRSYM    DATA     BIT       CCP2
      000000F9H   SFRSYM    DATA     BYTE      CH
      000000A2H   SFRSYM    DATA     BYTE      P_SW1
      000000BAH   SFRSYM    DATA     BYTE      P_SW2
      000000A8H.5 SFRSYM    DATA     BIT       EADC
      000000A0H.1 SFRSYM    DATA     BIT       SPI_SCLK_2
      000000A8H   SFRSYM    DATA     BYTE      IE
      000000C0H.3 SFRSYM    DATA     BIT       SPI_SCLK_3
      000000E9H   SFRSYM    DATA     BYTE      CL
      000000C5H   SFRSYM    DATA     BYTE      IAP_CMD
      000000FAH   SFRSYM    DATA     BYTE      CCAP0H
      000000FBH   SFRSYM    DATA     BYTE      CCAP1H
      000000FCH   SFRSYM    DATA     BYTE      CCAP2H
      000000BDH   SFRSYM    DATA     BYTE      ADC_RES
      000000B6H   SFRSYM    DATA     BYTE      IPH2
      000000D8H.6 SFRSYM    DATA     BIT       CR
      000000EAH   SFRSYM    DATA     BYTE      CCAP0L
      000000B0H.7 SFRSYM    DATA     BIT       RD
      000000EBH   SFRSYM    DATA     BYTE      CCAP1L
      000000DAH   SFRSYM    DATA     BYTE      CCAPM0
      000000ECH   SFRSYM    DATA     BYTE      CCAP2L
      000000DBH   SFRSYM    DATA     BYTE      CCAPM1
      000000A8H.4 SFRSYM    DATA     BIT       ES
      000000DCH   SFRSYM    DATA     BYTE      CCAPM2
      000000B8H.5 SFRSYM    DATA     BIT       PADC
      000000A0H.2 SFRSYM    DATA     BIT       SPI_MISO_2
      000000A0H.3 SFRSYM    DATA     BIT       SPI_MOSI_2
      000000B8H   SFRSYM    DATA     BYTE      IP
      000000C0H.1 SFRSYM    DATA     BIT       SPI_MISO_3
      000000C0H   SFRSYM    DATA     BIT       SPI_MOSI_3
      00000098H   SFRSYM    DATA     BIT       RI
      000000B0H.2 SFRSYM    DATA     BIT       INT0
      000000D0H.7 SFRSYM    DATA     BIT       CY
      00000098H.1 SFRSYM    DATA     BIT       TI
      000000B0H.3 SFRSYM    DATA     BIT       INT1
      00000097H   SFRSYM    DATA     BYTE      CLK_DIV
      000000C3H   SFRSYM    DATA     BYTE      IAP_ADDRH
      00000090H   SFRSYM    DATA     BIT       RXD2
      000000C5H   SFRSYM    DATA     BYTE      ISP_CMD
      000000B8H.4 SFRSYM    DATA     BIT       PS
      00000090H.1 SFRSYM    DATA     BIT       TXD2
      00000081H   SFRSYM    DATA     BYTE      SP
      000000D9H   SFRSYM    DATA     BYTE      CMOD
      000000D8H   SFRSYM    DATA     BYTE      CCON
      000000C4H   SFRSYM    DATA     BYTE      IAP_ADDRL
      000000B8H.7 SFRSYM    DATA     BIT       PPCA
      000000D0H.2 SFRSYM    DATA     BIT       OV
      000000B0H.6 SFRSYM    DATA     BIT       WR
      000000A8H.6 SFRSYM    DATA     BIT       ELVD
      00000080H   SFRSYM    DATA     BIT       P00
      00000090H   SFRSYM    DATA     BIT       P10
      00000080H.1 SFRSYM    DATA     BIT       P01
      000000BCH   SFRSYM    DATA     BYTE      ADC_CONTR
      00000099H   SFRSYM    DATA     BYTE      SBUF
      00000087H   SFRSYM    DATA     BYTE      PCON
      000000A0H   SFRSYM    DATA     BIT       P20
      00000090H.1 SFRSYM    DATA     BIT       P11
      00000080H.2 SFRSYM    DATA     BIT       P02
      000000C3H   SFRSYM    DATA     BYTE      ISP_ADDRH
      000000B0H   SFRSYM    DATA     BIT       P30
      000000A0H.1 SFRSYM    DATA     BIT       P21
      00000090H.2 SFRSYM    DATA     BIT       P12
      00000080H.3 SFRSYM    DATA     BIT       P03
      000000C0H   SFRSYM    DATA     BIT       P40
      000000B0H.1 SFRSYM    DATA     BIT       P31
LX51 LINKER/LOCATER V4.66.41.0                                                        01/11/2019  12:04:15  PAGE 37


      000000A0H.2 SFRSYM    DATA     BIT       P22
      00000090H.3 SFRSYM    DATA     BIT       P13
      00000080H.4 SFRSYM    DATA     BIT       P04
      00000098H   SFRSYM    DATA     BYTE      SCON
      0000008FH   SFRSYM    DATA     BYTE      WAKE_CLKO
      000000C8H   SFRSYM    DATA     BIT       P50
      000000C0H.1 SFRSYM    DATA     BIT       P41
      000000B0H.2 SFRSYM    DATA     BIT       P32
      000000A0H.3 SFRSYM    DATA     BIT       P23
      00000090H.4 SFRSYM    DATA     BIT       P14
      00000080H.5 SFRSYM    DATA     BIT       P05
      00000089H   SFRSYM    DATA     BYTE      TMOD
      00000088H   SFRSYM    DATA     BYTE      TCON
      000000C8H.1 SFRSYM    DATA     BIT       P51
      000000C0H.2 SFRSYM    DATA     BIT       P42
      000000B0H.3 SFRSYM    DATA     BIT       P33
      000000A0H.4 SFRSYM    DATA     BIT       P24
      00000090H.5 SFRSYM    DATA     BIT       P15
      00000080H.6 SFRSYM    DATA     BIT       P06
      000000C4H   SFRSYM    DATA     BYTE      ISP_ADDRL
      000000B8H.6 SFRSYM    DATA     BIT       PLVD
      000000C8H.2 SFRSYM    DATA     BIT       P52
      000000C0H.3 SFRSYM    DATA     BIT       P43
      000000B0H.4 SFRSYM    DATA     BIT       P34
      000000A0H.5 SFRSYM    DATA     BIT       P25
      00000090H.6 SFRSYM    DATA     BIT       P16
      00000080H.7 SFRSYM    DATA     BIT       P07
      000000C8H.3 SFRSYM    DATA     BIT       P53
      000000C0H.4 SFRSYM    DATA     BIT       P44
      000000B0H.5 SFRSYM    DATA     BIT       P35
      000000A0H.6 SFRSYM    DATA     BIT       P26
      00000090H.7 SFRSYM    DATA     BIT       P17
      000000C8H.4 SFRSYM    DATA     BIT       P54
      000000C0H.5 SFRSYM    DATA     BIT       P45
      000000B0H.6 SFRSYM    DATA     BIT       P36
      000000A0H.7 SFRSYM    DATA     BIT       P27
      000000C8H.5 SFRSYM    DATA     BIT       P55
      000000C0H.6 SFRSYM    DATA     BIT       P46
      000000B0H.7 SFRSYM    DATA     BIT       P37
      000000C8H.6 SFRSYM    DATA     BIT       P56
      000000C0H.7 SFRSYM    DATA     BIT       P47
      000000C8H.7 SFRSYM    DATA     BIT       P57
      00000088H.1 SFRSYM    DATA     BIT       IE0
      000000A1H   SFRSYM    DATA     BYTE      BUS_SPEED
      00000088H.3 SFRSYM    DATA     BIT       IE1
      000000AFH   SFRSYM    DATA     BYTE      IE2
      000000F0H   SFRSYM    DATA     BYTE      B
      0000008EH   SFRSYM    DATA     BYTE      AUXR
      000000C7H   SFRSYM    DATA     BYTE      IAP_CONTR
      000000E0H   SFRSYM    DATA     BYTE      ACC
      000000A8H.1 SFRSYM    DATA     BIT       ET0
      000000A8H.3 SFRSYM    DATA     BIT       ET1
      00000088H.5 SFRSYM    DATA     BIT       TF0
      00000088H.7 SFRSYM    DATA     BIT       TF1
      000000B5H   SFRSYM    DATA     BYTE      IP2
      0000008CH   SFRSYM    DATA     BYTE      RL_TH0
      00000098H.2 SFRSYM    DATA     BIT       RB8
      0000008DH   SFRSYM    DATA     BYTE      RL_TH1
      0000008CH   SFRSYM    DATA     BYTE      TH0
      000000A8H   SFRSYM    DATA     BIT       EX0
      00000088H   SFRSYM    DATA     BIT       IT0
      000000D6H   SFRSYM    DATA     BYTE      RL_T2H
      0000008DH   SFRSYM    DATA     BYTE      TH1
      000000A8H.2 SFRSYM    DATA     BIT       EX1
      00000098H.3 SFRSYM    DATA     BIT       TB8
LX51 LINKER/LOCATER V4.66.41.0                                                        01/11/2019  12:04:15  PAGE 38


      00000088H.2 SFRSYM    DATA     BIT       IT1
      000000D4H   SFRSYM    DATA     BYTE      RL_T3H
      000000D6H   SFRSYM    DATA     BYTE      TH2
      000000D6H   SFRSYM    DATA     BYTE      T2H
      000000D0H   SFRSYM    DATA     BIT       P
      000000D2H   SFRSYM    DATA     BYTE      RL_T4H
      000000D4H   SFRSYM    DATA     BYTE      TH3
      000000D4H   SFRSYM    DATA     BYTE      T3H
      0000008AH   SFRSYM    DATA     BYTE      RL_TL0
      00000098H.7 SFRSYM    DATA     BIT       SM0
      000000D2H   SFRSYM    DATA     BYTE      TH4
      000000D2H   SFRSYM    DATA     BYTE      T4H
      0000008BH   SFRSYM    DATA     BYTE      RL_TL1
      0000008AH   SFRSYM    DATA     BYTE      TL0
      00000098H.6 SFRSYM    DATA     BIT       SM1
      000000D7H   SFRSYM    DATA     BYTE      RL_T2L
      0000008BH   SFRSYM    DATA     BYTE      TL1
      00000098H.5 SFRSYM    DATA     BIT       SM2
      000000D5H   SFRSYM    DATA     BYTE      RL_T3L
      000000D7H   SFRSYM    DATA     BYTE      TL2
      000000D7H   SFRSYM    DATA     BYTE      T2L
      000000D3H   SFRSYM    DATA     BYTE      RL_T4L
      000000D5H   SFRSYM    DATA     BYTE      TL3
      000000D5H   SFRSYM    DATA     BYTE      T3L
      000000B8H.1 SFRSYM    DATA     BIT       PT0
      000000D3H   SFRSYM    DATA     BYTE      TL4
      000000D3H   SFRSYM    DATA     BYTE      T4L
      000000B8H.3 SFRSYM    DATA     BIT       PT1
      000000D0H.3 SFRSYM    DATA     BIT       RS0
      000000C7H   SFRSYM    DATA     BYTE      ISP_CONTR
      00000088H.4 SFRSYM    DATA     BIT       TR0
      000000D0H.4 SFRSYM    DATA     BIT       RS1
      000000C2H   SFRSYM    DATA     BYTE      IAP_DATA
      00000088H.6 SFRSYM    DATA     BIT       TR1
      000000B8H   SFRSYM    DATA     BIT       PX0
      000000C1H   SFRSYM    DATA     BYTE      WDT_CONTR
      000000B8H.2 SFRSYM    DATA     BIT       PX1
      000000F2H   SFRSYM    DATA     BYTE      PCA_PWM0
      000000F3H   SFRSYM    DATA     BYTE      PCA_PWM1
      000000F4H   SFRSYM    DATA     BYTE      PCA_PWM2
      0000009DH   SFRSYM    DATA     BYTE      P1ASF
      00000083H   SFRSYM    DATA     BYTE      DPH
      000000D1H   SFRSYM    DATA     BYTE      T4T3M
      000000BEH   SFRSYM    DATA     BYTE      ADC_RESL
      00000082H   SFRSYM    DATA     BYTE      DPL
      000000CDH   SFRSYM    DATA     BYTE      SPSTAT
      000000B7H   SFRSYM    DATA     BYTE      IPH
      0000009BH   SFRSYM    DATA     BYTE      S2BUF
      00000097H   SFRSYM    DATA     BYTE      PCON2
      000000ADH   SFRSYM    DATA     BYTE      S3BUF
      00000098H.4 SFRSYM    DATA     BIT       REN
      00000085H   SFRSYM    DATA     BYTE      S4BUF
      0000009AH   SFRSYM    DATA     BYTE      S2CON
      000000ACH   SFRSYM    DATA     BYTE      S3CON
      000000C2H   SFRSYM    DATA     BYTE      ISP_DATA
      00000084H   SFRSYM    DATA     BYTE      S4CON
      000000B9H   SFRSYM    DATA     BYTE      SADEN
      000000B0H   SFRSYM    DATA     BIT       RXD
      000000A9H   SFRSYM    DATA     BYTE      SADDR
      000000B0H.1 SFRSYM    DATA     BIT       TXD
      000000F0H   SFRSYM    DATA     BIT       B0
      000000F0H.1 SFRSYM    DATA     BIT       B1
      000000C6H   SFRSYM    DATA     BYTE      IAP_TRIG
      000000A2H   SFRSYM    DATA     BYTE      AUXR1
      000000F0H.2 SFRSYM    DATA     BIT       B2
LX51 LINKER/LOCATER V4.66.41.0                                                        01/11/2019  12:04:15  PAGE 39


      00000090H.2 SFRSYM    DATA     BIT       SPI_SS
      0000008FH   SFRSYM    DATA     BYTE      AUXR2
      000000F0H.3 SFRSYM    DATA     BIT       B3
      000000F0H.4 SFRSYM    DATA     BIT       B4
      000000D0H.5 SFRSYM    DATA     BIT       F0
      000000F0H.5 SFRSYM    DATA     BIT       B5
      000000D0H.1 SFRSYM    DATA     BIT       F1
      0000008FH   SFRSYM    DATA     BYTE      INT_CLKO
      000000F0H.6 SFRSYM    DATA     BIT       B6
      000000E0H   SFRSYM    DATA     BIT       ACC0
      000000F0H.7 SFRSYM    DATA     BIT       B7
      000000E0H.1 SFRSYM    DATA     BIT       ACC1
      000000E0H.2 SFRSYM    DATA     BIT       ACC2
      000000E0H.3 SFRSYM    DATA     BIT       ACC3
      000000D0H   SFRSYM    DATA     BYTE      PSW
      000000E0H.4 SFRSYM    DATA     BIT       ACC4
      00000090H.5 SFRSYM    DATA     BIT       SPI_SCLK
      000000D8H   SFRSYM    DATA     BIT       CCF0
      000000E0H.5 SFRSYM    DATA     BIT       ACC5
      000000D8H.1 SFRSYM    DATA     BIT       CCF1
      000000E0H.6 SFRSYM    DATA     BIT       ACC6
      000000CFH   SFRSYM    DATA     BYTE      SPDAT
      00000094H   SFRSYM    DATA     BYTE      P0M0
      010052C3H   SYMBOL    CODE     ---       _?ix1000
      01005343H   SYMBOL    CODE     ---       _?ix1001
      010053A7H   SYMBOL    CODE     ---       _?ix1002

      01006FAFH   BLOCK     CODE     ---       LVL=0
      ---         BLOCKEND  ---      ---       LVL=0

      01006AB0H   BLOCK     CODE     ---       LVL=0
      01006AB0H   BLOCK     CODE     NEAR LAB  LVL=1
      00000006H   SYMBOL    DATA     ---       id_ptr
      ---         BLOCKEND  ---      ---       LVL=1
      01006AB0H   LINE      CODE     ---       #55
      01006AB0H   LINE      CODE     ---       #57
      01006AB4H   LINE      CODE     ---       #59
      01006ACDH   LINE      CODE     ---       #62
      01006ACDH   LINE      CODE     ---       #64
      01006AD9H   LINE      CODE     ---       #66
      01006AEBH   LINE      CODE     ---       #67
      01006AF1H   LINE      CODE     ---       #68
      01006B03H   LINE      CODE     ---       #69
      ---         BLOCKEND  ---      ---       LVL=0

      01007275H   BLOCK     CODE     ---       LVL=0
      01007275H   LINE      CODE     ---       #77
      01007275H   LINE      CODE     ---       #79
      ---         BLOCKEND  ---      ---       LVL=0

      01007033H   BLOCK     CODE     ---       LVL=0
      01007033H   BLOCK     CODE     NEAR LAB  LVL=1
      00000029H   SYMBOL    DATA     BYTE      act_Reserve
      ---         BLOCKEND  ---      ---       LVL=1
      01007033H   LINE      CODE     ---       #92
      01007033H   LINE      CODE     ---       #94
      01007036H   LINE      CODE     ---       #107
      0100704BH   LINE      CODE     ---       #109
      0100704BH   LINE      CODE     ---       #110
      0100704BH   LINE      CODE     ---       #112
      0100704EH   LINE      CODE     ---       #114
      01007050H   LINE      CODE     ---       #116
      01007050H   LINE      CODE     ---       #118
      01007053H   LINE      CODE     ---       #120
      01007055H   LINE      CODE     ---       #122
LX51 LINKER/LOCATER V4.66.41.0                                                        01/11/2019  12:04:15  PAGE 40


      01007055H   LINE      CODE     ---       #123
      01007055H   LINE      CODE     ---       #125
      01007058H   LINE      CODE     ---       #127
      01007058H   LINE      CODE     ---       #128
      01007058H   LINE      CODE     ---       #132
      0100705AH   LINE      CODE     ---       #133
      ---         BLOCKEND  ---      ---       LVL=0

      0100629DH   BLOCK     CODE     ---       LVL=0
      0100629DH   BLOCK     CODE     NEAR LAB  LVL=1
      02000213H   SYMBOL    XDATA    ---       datsTemp
      ---         BLOCKEND  ---      ---       LVL=1
      0100629DH   LINE      CODE     ---       #235
      0100629DH   LINE      CODE     ---       #237
      010062B0H   LINE      CODE     ---       #239
      010062BCH   LINE      CODE     ---       #240
      010062C2H   LINE      CODE     ---       #241
      010062CFH   LINE      CODE     ---       #243
      010062DEH   LINE      CODE     ---       #244
      010062E8H   LINE      CODE     ---       #253
      010062E8H   LINE      CODE     ---       #254
      010062F3H   LINE      CODE     ---       #258
      010062F3H   LINE      CODE     ---       #259
      01006301H   LINE      CODE     ---       #261
      01006310H   LINE      CODE     ---       #263
      01006317H   LINE      CODE     ---       #265
      0100631AH   LINE      CODE     ---       #266
      ---         BLOCKEND  ---      ---       LVL=0

      01007117H   BLOCK     CODE     ---       LVL=0
      01007117H   BLOCK     CODE     NEAR LAB  LVL=1
      02000000H   SYMBOL    XDATA    BYTE      datsTemp
      ---         BLOCKEND  ---      ---       LVL=1
      01007117H   LINE      CODE     ---       #268
      01007117H   LINE      CODE     ---       #270
      0100711CH   LINE      CODE     ---       #272
      0100712DH   LINE      CODE     ---       #273
      01007135H   LINE      CODE     ---       #275
      01007138H   LINE      CODE     ---       #276
      01007138H   LINE      CODE     ---       #277
      ---         BLOCKEND  ---      ---       LVL=0

      01006C99H   BLOCK     CODE     ---       LVL=0
      0000002AH   SYMBOL    DATA     BYTE      currentRelayStatus
      01006C9BH   BLOCK     CODE     NEAR LAB  LVL=1
      02000000H   SYMBOL    XDATA    ---       dataRead_temp
      ---         BLOCKEND  ---      ---       LVL=1
      01006C99H   LINE      CODE     ---       #327
      01006C9BH   LINE      CODE     ---       #329
      01006CA6H   LINE      CODE     ---       #331
      01006CAFH   LINE      CODE     ---       #333
      01006CB1H   LINE      CODE     ---       #334
      01006CB7H   LINE      CODE     ---       #335
      01006CB7H   LINE      CODE     ---       #337
      01006CCBH   LINE      CODE     ---       #339
      ---         BLOCKEND  ---      ---       LVL=0

      010060DBH   BLOCK     CODE     ---       LVL=0
      010060DBH   BLOCK     CODE     NEAR LAB  LVL=1
      02000000H   SYMBOL    XDATA    ---       dataRead_temp
      02000064H   SYMBOL    XDATA    BYTE      loop
      02000065H   SYMBOL    XDATA    BYTE      res
      ---         BLOCKEND  ---      ---       LVL=1
      010060DBH   LINE      CODE     ---       #342
      010060DBH   LINE      CODE     ---       #344
LX51 LINKER/LOCATER V4.66.41.0                                                        01/11/2019  12:04:15  PAGE 41


      010060E6H   LINE      CODE     ---       #345
      010060EBH   LINE      CODE     ---       #346
      010060EDH   LINE      CODE     ---       #348
      010060FEH   LINE      CODE     ---       #350
      0100610DH   LINE      CODE     ---       #352
      0100611BH   LINE      CODE     ---       #354
      01006134H   LINE      CODE     ---       #356
      01006134H   LINE      CODE     ---       #358
      01006140H   LINE      CODE     ---       #360
      0100615FH   LINE      CODE     ---       #361
      01006165H   LINE      CODE     ---       #362
      01006165H   LINE      CODE     ---       #364
      01006167H   LINE      CODE     ---       #365
      01006167H   LINE      CODE     ---       #366
      0100616FH   LINE      CODE     ---       #368
      01006176H   LINE      CODE     ---       #370
      0100617BH   LINE      CODE     ---       #371
      ---         BLOCKEND  ---      ---       LVL=0

      ---         MODULE    ---      ---       TIPS
      020006BDH   PUBLIC    XDATA    BYTE      tipsTimeCount_touchReset
      0000001FH   PUBLIC    DATA     BYTE      devTips_status
      020006BAH   PUBLIC    XDATA    ---       zigbNwk_Tips
      020006B7H   PUBLIC    XDATA    ---       devTips_beep
      020006B6H   PUBLIC    XDATA    BYTE      counter_ifTipsFree
      020006B3H   PUBLIC    XDATA    ---       relay3_Tips
      020006B0H   PUBLIC    XDATA    ---       relay2_Tips
      020006AFH   PUBLIC    XDATA    BYTE      tipsTimeCount_zigNwkOpen
      020006ACH   PUBLIC    XDATA    ---       relay1_Tips
      020006AAH   PUBLIC    XDATA    WORD      counter_tipsAct
      020006A9H   PUBLIC    XDATA    BYTE      dev_statusBeeps
      020006A7H   PUBLIC    XDATA    ---       devBackgroundLight_param
      0000001EH   PUBLIC    DATA     BYTE      devTips_nwkZigb
      020006A6H   PUBLIC    XDATA    BYTE      tipsTimeCount_factoryRecover
      00000025H.0 PUBLIC    BIT      BIT       countEN_ifTipsFree
      00000024H.7 PUBLIC    BIT      BIT       ifHorsingLight_running_FLAG
      01006BA3H   PUBLIC    CODE     ---       tips_relayUnused
      01006B85H   PUBLIC    CODE     ---       color_Tab
      01004B29H   PUBLIC    CODE     ---       tips_sysButtonReales
      01000003H   PUBLIC    CODE     ---       tips_sysStandBy
      01006FDFH   PUBLIC    CODE     ---       tips_sysTouchReset
      01004F19H   PUBLIC    CODE     ---       _tips_specified
      01006750H   PUBLIC    CODE     ---       tips_warning
      00000028H   PUBLIC    DATA     BYTE      ?_tipsLED_colorSet?BYTE
      01006A4EH   PUBLIC    CODE     ---       _tipsLED_colorSet
      01003901H   PUBLIC    CODE     ---       thread_Tips
      0100721FH   PUBLIC    CODE     ---       _tips_statusChangeToFactoryRecover
      01007288H   PUBLIC    CODE     ---       _tips_statusChangeToTouchReset
      01007316H   PUBLIC    CODE     ---       tips_statusChangeToZigbNwkFind
      010071D7H   PUBLIC    CODE     ---       _tips_statusChangeToZigbNwkOpen
      010071BFH   PUBLIC    CODE     ---       tips_statusChangeToNormal
      01006913H   PUBLIC    CODE     ---       _thread_tipsGetDark
      01007173H   PUBLIC    CODE     ---       _beeps_usrActive
      01006BB1H   PUBLIC    CODE     ---       ledBKGColorSw_Reales
      01007379H   PUBLIC    CODE     ---       pinBeep_Init
      01006EA3H   PUBLIC    CODE     ---       tipLED_pinInit
      000000D8H.2 SFRSYM    DATA     BIT       CCF2
      000000E0H.7 SFRSYM    DATA     BIT       ACC7
      00000093H   SFRSYM    DATA     BYTE      P0M1
      00000092H   SFRSYM    DATA     BYTE      P1M0
      00000096H   SFRSYM    DATA     BYTE      P2M0
      00000091H   SFRSYM    DATA     BYTE      P1M1
      00000080H   SFRSYM    DATA     BYTE      P0
      000000B2H   SFRSYM    DATA     BYTE      P3M0
      00000095H   SFRSYM    DATA     BYTE      P2M1
LX51 LINKER/LOCATER V4.66.41.0                                                        01/11/2019  12:04:15  PAGE 42


      00000090H   SFRSYM    DATA     BYTE      P1
      000000B4H   SFRSYM    DATA     BYTE      P4M0
      000000B1H   SFRSYM    DATA     BYTE      P3M1
      000000A0H   SFRSYM    DATA     BYTE      P2
      000000CAH   SFRSYM    DATA     BYTE      P5M0
      000000B3H   SFRSYM    DATA     BYTE      P4M1
      000000B0H   SFRSYM    DATA     BYTE      P3
      000000ABH   SFRSYM    DATA     BYTE      WKTCH
      000000B0H.4 SFRSYM    DATA     BIT       T0
      000000D0H.6 SFRSYM    DATA     BIT       AC
      000000CCH   SFRSYM    DATA     BYTE      P6M0
      000000C9H   SFRSYM    DATA     BYTE      P5M1
      000000C0H   SFRSYM    DATA     BYTE      P4
      000000B0H.5 SFRSYM    DATA     BIT       CLKOUT0
      000000B0H.5 SFRSYM    DATA     BIT       T1
      000000E2H   SFRSYM    DATA     BYTE      P7M0
      000000CBH   SFRSYM    DATA     BYTE      P6M1
      000000C8H   SFRSYM    DATA     BYTE      P5
      000000C6H   SFRSYM    DATA     BYTE      ISP_TRIG
      000000A8H.7 SFRSYM    DATA     BIT       EA
      000000B0H.4 SFRSYM    DATA     BIT       CLKOUT1
      000000A0H.4 SFRSYM    DATA     BIT       SPI_SS_2
      000000E8H   SFRSYM    DATA     BYTE      P6
      000000E1H   SFRSYM    DATA     BYTE      P7M1
      000000C8H.4 SFRSYM    DATA     BIT       SPI_SS_3
      00000090H.4 SFRSYM    DATA     BIT       SPI_MISO
      00000090H.3 SFRSYM    DATA     BIT       SPI_MOSI
      00000090H.1 SFRSYM    DATA     BIT       CCP0
      000000F8H   SFRSYM    DATA     BYTE      P7
      000000AAH   SFRSYM    DATA     BYTE      WKTCL
      00000090H   SFRSYM    DATA     BIT       CCP1
      000000CEH   SFRSYM    DATA     BYTE      SPCTL
      000000D8H.7 SFRSYM    DATA     BIT       CF
      000000B0H.7 SFRSYM    DATA     BIT       CCP2
      000000F9H   SFRSYM    DATA     BYTE      CH
      000000A2H   SFRSYM    DATA     BYTE      P_SW1
      000000BAH   SFRSYM    DATA     BYTE      P_SW2
      000000A8H.5 SFRSYM    DATA     BIT       EADC
      000000A0H.1 SFRSYM    DATA     BIT       SPI_SCLK_2
      000000A8H   SFRSYM    DATA     BYTE      IE
      000000C0H.3 SFRSYM    DATA     BIT       SPI_SCLK_3
      000000E9H   SFRSYM    DATA     BYTE      CL
      000000C5H   SFRSYM    DATA     BYTE      IAP_CMD
      000000FAH   SFRSYM    DATA     BYTE      CCAP0H
      00000090H   SFRSYM    DATA     BIT       Dcode0
      000000FBH   SFRSYM    DATA     BYTE      CCAP1H
      00000090H.1 SFRSYM    DATA     BIT       Dcode1
      000000FCH   SFRSYM    DATA     BYTE      CCAP2H
      00000090H.2 SFRSYM    DATA     BIT       Dcode2
      000000BDH   SFRSYM    DATA     BYTE      ADC_RES
      000000B6H   SFRSYM    DATA     BYTE      IPH2
      00000090H.3 SFRSYM    DATA     BIT       Dcode3
      000000D8H.6 SFRSYM    DATA     BIT       CR
      000000EAH   SFRSYM    DATA     BYTE      CCAP0L
      00000090H.4 SFRSYM    DATA     BIT       Dcode4
      000000B0H.7 SFRSYM    DATA     BIT       RD
      000000EBH   SFRSYM    DATA     BYTE      CCAP1L
      000000DAH   SFRSYM    DATA     BYTE      CCAPM0
      00000090H.3 SFRSYM    DATA     BIT       Dcode5
      000000ECH   SFRSYM    DATA     BYTE      CCAP2L
      000000DBH   SFRSYM    DATA     BYTE      CCAPM1
      000000A8H.4 SFRSYM    DATA     BIT       ES
      000000DCH   SFRSYM    DATA     BYTE      CCAPM2
      000000B8H.5 SFRSYM    DATA     BIT       PADC
      000000A0H.2 SFRSYM    DATA     BIT       SPI_MISO_2
LX51 LINKER/LOCATER V4.66.41.0                                                        01/11/2019  12:04:15  PAGE 43


      000000A0H.3 SFRSYM    DATA     BIT       SPI_MOSI_2
      000000B8H   SFRSYM    DATA     BYTE      IP
      000000C0H.1 SFRSYM    DATA     BIT       SPI_MISO_3
      000000C0H   SFRSYM    DATA     BIT       SPI_MOSI_3
      00000098H   SFRSYM    DATA     BIT       RI
      000000B0H.2 SFRSYM    DATA     BIT       INT0
      000000D0H.7 SFRSYM    DATA     BIT       CY
      00000098H.1 SFRSYM    DATA     BIT       TI
      000000B0H.3 SFRSYM    DATA     BIT       INT1
      00000097H   SFRSYM    DATA     BYTE      CLK_DIV
      000000C3H   SFRSYM    DATA     BYTE      IAP_ADDRH
      00000090H   SFRSYM    DATA     BIT       RXD2
      000000C5H   SFRSYM    DATA     BYTE      ISP_CMD
      000000B8H.4 SFRSYM    DATA     BIT       PS
      00000090H.1 SFRSYM    DATA     BIT       TXD2
      00000081H   SFRSYM    DATA     BYTE      SP
      000000D9H   SFRSYM    DATA     BYTE      CMOD
      000000D8H   SFRSYM    DATA     BYTE      CCON
      000000C4H   SFRSYM    DATA     BYTE      IAP_ADDRL
      000000B8H.7 SFRSYM    DATA     BIT       PPCA
      000000D0H.2 SFRSYM    DATA     BIT       OV
      000000B0H.6 SFRSYM    DATA     BIT       WR
      000000A8H.6 SFRSYM    DATA     BIT       ELVD
      00000080H   SFRSYM    DATA     BIT       P00
      00000090H   SFRSYM    DATA     BIT       P10
      00000080H.1 SFRSYM    DATA     BIT       P01
      000000BCH   SFRSYM    DATA     BYTE      ADC_CONTR
      00000099H   SFRSYM    DATA     BYTE      SBUF
      00000087H   SFRSYM    DATA     BYTE      PCON
      000000A0H   SFRSYM    DATA     BIT       P20
      00000090H.1 SFRSYM    DATA     BIT       P11
      00000080H.2 SFRSYM    DATA     BIT       P02
      000000C3H   SFRSYM    DATA     BYTE      ISP_ADDRH
      000000B0H   SFRSYM    DATA     BIT       P30
      000000A0H.1 SFRSYM    DATA     BIT       P21
      00000090H.2 SFRSYM    DATA     BIT       P12
      00000080H.3 SFRSYM    DATA     BIT       P03
      000000C0H   SFRSYM    DATA     BIT       P40
      000000B0H.1 SFRSYM    DATA     BIT       P31
      000000A0H.2 SFRSYM    DATA     BIT       P22
      00000090H.3 SFRSYM    DATA     BIT       P13
      00000080H.4 SFRSYM    DATA     BIT       P04
      00000098H   SFRSYM    DATA     BYTE      SCON
      0000008FH   SFRSYM    DATA     BYTE      WAKE_CLKO
      000000C8H   SFRSYM    DATA     BIT       P50
      000000C0H.1 SFRSYM    DATA     BIT       P41
      000000B0H.2 SFRSYM    DATA     BIT       P32
      000000A0H.3 SFRSYM    DATA     BIT       P23
      00000090H.4 SFRSYM    DATA     BIT       P14
      00000080H.5 SFRSYM    DATA     BIT       P05
      00000089H   SFRSYM    DATA     BYTE      TMOD
      00000088H   SFRSYM    DATA     BYTE      TCON
      000000C8H.1 SFRSYM    DATA     BIT       P51
      000000C0H.2 SFRSYM    DATA     BIT       P42
      000000B0H.3 SFRSYM    DATA     BIT       P33
      000000A0H.4 SFRSYM    DATA     BIT       P24
      00000090H.5 SFRSYM    DATA     BIT       P15
      00000080H.6 SFRSYM    DATA     BIT       P06
      000000C4H   SFRSYM    DATA     BYTE      ISP_ADDRL
      000000B8H.6 SFRSYM    DATA     BIT       PLVD
      000000C8H.2 SFRSYM    DATA     BIT       P52
      000000C0H.3 SFRSYM    DATA     BIT       P43
      000000B0H.4 SFRSYM    DATA     BIT       P34
      000000A0H.5 SFRSYM    DATA     BIT       P25
      00000090H.6 SFRSYM    DATA     BIT       P16
LX51 LINKER/LOCATER V4.66.41.0                                                        01/11/2019  12:04:15  PAGE 44


      00000080H.7 SFRSYM    DATA     BIT       P07
      000000C8H.3 SFRSYM    DATA     BIT       P53
      000000C0H.4 SFRSYM    DATA     BIT       P44
      000000B0H.5 SFRSYM    DATA     BIT       P35
      000000A0H.6 SFRSYM    DATA     BIT       P26
      00000090H.7 SFRSYM    DATA     BIT       P17
      000000C8H.4 SFRSYM    DATA     BIT       P54
      000000C0H.5 SFRSYM    DATA     BIT       P45
      000000B0H.6 SFRSYM    DATA     BIT       P36
      000000A0H.7 SFRSYM    DATA     BIT       P27
      000000C8H.5 SFRSYM    DATA     BIT       P55
      000000C0H.6 SFRSYM    DATA     BIT       P46
      000000B0H.7 SFRSYM    DATA     BIT       P37
      000000C8H.6 SFRSYM    DATA     BIT       P56
      000000C0H.7 SFRSYM    DATA     BIT       P47
      000000C8H.7 SFRSYM    DATA     BIT       P57
      00000088H.1 SFRSYM    DATA     BIT       IE0
      000000A1H   SFRSYM    DATA     BYTE      BUS_SPEED
      00000088H.3 SFRSYM    DATA     BIT       IE1
      000000AFH   SFRSYM    DATA     BYTE      IE2
      000000F0H   SFRSYM    DATA     BYTE      B
      0000008EH   SFRSYM    DATA     BYTE      AUXR
      000000C7H   SFRSYM    DATA     BYTE      IAP_CONTR
      000000E0H   SFRSYM    DATA     BYTE      ACC
      000000A8H.1 SFRSYM    DATA     BIT       ET0
      000000A8H.3 SFRSYM    DATA     BIT       ET1
      00000088H.5 SFRSYM    DATA     BIT       TF0
      00000088H.7 SFRSYM    DATA     BIT       TF1
      000000B5H   SFRSYM    DATA     BYTE      IP2
      0000008CH   SFRSYM    DATA     BYTE      RL_TH0
      00000098H.2 SFRSYM    DATA     BIT       RB8
      0000008DH   SFRSYM    DATA     BYTE      RL_TH1
      0000008CH   SFRSYM    DATA     BYTE      TH0
      000000A8H   SFRSYM    DATA     BIT       EX0
      00000088H   SFRSYM    DATA     BIT       IT0
      000000D6H   SFRSYM    DATA     BYTE      RL_T2H
      0000008DH   SFRSYM    DATA     BYTE      TH1
      00000090H.6 SFRSYM    DATA     BIT       touchPad_1
      000000A8H.2 SFRSYM    DATA     BIT       EX1
      00000098H.3 SFRSYM    DATA     BIT       TB8
      00000088H.2 SFRSYM    DATA     BIT       IT1
      000000D4H   SFRSYM    DATA     BYTE      RL_T3H
      000000D6H   SFRSYM    DATA     BYTE      TH2
      000000D6H   SFRSYM    DATA     BYTE      T2H
      00000090H.7 SFRSYM    DATA     BIT       touchPad_2
      000000D0H   SFRSYM    DATA     BIT       P
      000000D2H   SFRSYM    DATA     BYTE      RL_T4H
      000000D4H   SFRSYM    DATA     BYTE      TH3
      000000D4H   SFRSYM    DATA     BYTE      T3H
      0000008AH   SFRSYM    DATA     BYTE      RL_TL0
      00000090H.5 SFRSYM    DATA     BIT       touchPad_3
      00000098H.7 SFRSYM    DATA     BIT       SM0
      000000D2H   SFRSYM    DATA     BYTE      TH4
      000000D2H   SFRSYM    DATA     BYTE      T4H
      0000008BH   SFRSYM    DATA     BYTE      RL_TL1
      0000008AH   SFRSYM    DATA     BYTE      TL0
      00000098H.6 SFRSYM    DATA     BIT       SM1
      000000D7H   SFRSYM    DATA     BYTE      RL_T2L
      0000008BH   SFRSYM    DATA     BYTE      TL1
      00000098H.5 SFRSYM    DATA     BIT       SM2
      000000D5H   SFRSYM    DATA     BYTE      RL_T3L
      000000D7H   SFRSYM    DATA     BYTE      TL2
      000000D7H   SFRSYM    DATA     BYTE      T2L
      000000D3H   SFRSYM    DATA     BYTE      RL_T4L
      000000D5H   SFRSYM    DATA     BYTE      TL3
LX51 LINKER/LOCATER V4.66.41.0                                                        01/11/2019  12:04:15  PAGE 45


      000000D5H   SFRSYM    DATA     BYTE      T3L
      000000B8H.1 SFRSYM    DATA     BIT       PT0
      000000D3H   SFRSYM    DATA     BYTE      TL4
      000000D3H   SFRSYM    DATA     BYTE      T4L
      000000B8H.3 SFRSYM    DATA     BIT       PT1
      000000D0H.3 SFRSYM    DATA     BIT       RS0
      000000C7H   SFRSYM    DATA     BYTE      ISP_CONTR
      00000088H.4 SFRSYM    DATA     BIT       TR0
      000000D0H.4 SFRSYM    DATA     BIT       RS1
      000000C2H   SFRSYM    DATA     BYTE      IAP_DATA
      00000088H.6 SFRSYM    DATA     BIT       TR1
      000000B8H   SFRSYM    DATA     BIT       PX0
      000000C1H   SFRSYM    DATA     BYTE      WDT_CONTR
      000000B8H.2 SFRSYM    DATA     BIT       PX1
      000000F2H   SFRSYM    DATA     BYTE      PCA_PWM0
      000000F3H   SFRSYM    DATA     BYTE      PCA_PWM1
      000000F4H   SFRSYM    DATA     BYTE      PCA_PWM2
      0000009DH   SFRSYM    DATA     BYTE      P1ASF
      00000083H   SFRSYM    DATA     BYTE      DPH
      000000D1H   SFRSYM    DATA     BYTE      T4T3M
      000000BEH   SFRSYM    DATA     BYTE      ADC_RESL
      00000082H   SFRSYM    DATA     BYTE      DPL
      000000CDH   SFRSYM    DATA     BYTE      SPSTAT
      000000B7H   SFRSYM    DATA     BYTE      IPH
      0000009BH   SFRSYM    DATA     BYTE      S2BUF
      00000097H   SFRSYM    DATA     BYTE      PCON2
      000000ADH   SFRSYM    DATA     BYTE      S3BUF
      00000098H.4 SFRSYM    DATA     BIT       REN
      00000085H   SFRSYM    DATA     BYTE      S4BUF
      00000080H.2 SFRSYM    DATA     BIT       Usr_key
      0000009AH   SFRSYM    DATA     BYTE      S2CON
      000000ACH   SFRSYM    DATA     BYTE      S3CON
      000000C2H   SFRSYM    DATA     BYTE      ISP_DATA
      00000084H   SFRSYM    DATA     BYTE      S4CON
      000000B9H   SFRSYM    DATA     BYTE      SADEN
      000000B0H   SFRSYM    DATA     BIT       RXD
      000000A9H   SFRSYM    DATA     BYTE      SADDR
      000000B0H.1 SFRSYM    DATA     BIT       TXD
      000000F0H   SFRSYM    DATA     BIT       B0
      000000F0H.1 SFRSYM    DATA     BIT       B1
      000000C6H   SFRSYM    DATA     BYTE      IAP_TRIG
      000000A2H   SFRSYM    DATA     BYTE      AUXR1
      000000F0H.2 SFRSYM    DATA     BIT       B2
      00000090H.2 SFRSYM    DATA     BIT       SPI_SS
      0000008FH   SFRSYM    DATA     BYTE      AUXR2
      000000F0H.3 SFRSYM    DATA     BIT       B3
      000000F0H.4 SFRSYM    DATA     BIT       B4
      000000D0H.5 SFRSYM    DATA     BIT       F0
      000000F0H.5 SFRSYM    DATA     BIT       B5
      000000D0H.1 SFRSYM    DATA     BIT       F1
      0000008FH   SFRSYM    DATA     BYTE      INT_CLKO
      000000F0H.6 SFRSYM    DATA     BIT       B6
      000000E0H   SFRSYM    DATA     BIT       ACC0
      000000F0H.7 SFRSYM    DATA     BIT       B7
      000000E0H.1 SFRSYM    DATA     BIT       ACC1
      000000E0H.2 SFRSYM    DATA     BIT       ACC2
      000000E0H.3 SFRSYM    DATA     BIT       ACC3
      000000D0H   SFRSYM    DATA     BYTE      PSW
      000000E0H.4 SFRSYM    DATA     BIT       ACC4
      00000090H.5 SFRSYM    DATA     BIT       SPI_SCLK
      000000D8H   SFRSYM    DATA     BIT       CCF0
      000000E0H.5 SFRSYM    DATA     BIT       ACC5
      000000D8H.1 SFRSYM    DATA     BIT       CCF1
      000000E0H.6 SFRSYM    DATA     BIT       ACC6
      000000CFH   SFRSYM    DATA     BYTE      SPDAT
LX51 LINKER/LOCATER V4.66.41.0                                                        01/11/2019  12:04:15  PAGE 46


      00000094H   SFRSYM    DATA     BYTE      P0M0

      010048ECH   BLOCK     CODE     ---       LVL=0
      ---         BLOCKEND  ---      ---       LVL=0

      01006EA3H   BLOCK     CODE     ---       LVL=0
      01006EA3H   LINE      CODE     ---       #51
      01006EA3H   LINE      CODE     ---       #65
      01006EA6H   LINE      CODE     ---       #66
      01006EA9H   LINE      CODE     ---       #68
      01006EACH   LINE      CODE     ---       #69
      01006EAFH   LINE      CODE     ---       #71
      01006EB2H   LINE      CODE     ---       #72
      01006EB5H   LINE      CODE     ---       #76
      01006EB8H   LINE      CODE     ---       #78
      01006EBEH   LINE      CODE     ---       #79
      01006EC3H   LINE      CODE     ---       #80
      01006ECBH   LINE      CODE     ---       #81
      01006ED5H   LINE      CODE     ---       #87
      ---         BLOCKEND  ---      ---       LVL=0

      01007379H   BLOCK     CODE     ---       LVL=0
      01007379H   LINE      CODE     ---       #89
      01007379H   LINE      CODE     ---       #96
      0100737CH   LINE      CODE     ---       #97
      0100737FH   LINE      CODE     ---       #100
      ---         BLOCKEND  ---      ---       LVL=0

      01006BB1H   BLOCK     CODE     ---       LVL=0
      01006BB1H   LINE      CODE     ---       #103
      01006BB1H   LINE      CODE     ---       #114
      01006BC4H   LINE      CODE     ---       #141
      01006BD0H   LINE      CODE     ---       #143
      01006BD0H   LINE      CODE     ---       #145
      01006BDCH   LINE      CODE     ---       #146
      01006BE5H   LINE      CODE     ---       #148
      01006BE7H   LINE      CODE     ---       #150
      01006BE7H   LINE      CODE     ---       #151
      01006BE7H   LINE      CODE     ---       #152
      01006BE7H   LINE      CODE     ---       #154
      01006BF3H   LINE      CODE     ---       #155
      01006BFFH   LINE      CODE     ---       #157
      01006BFFH   LINE      CODE     ---       #159
      01006BFFH   LINE      CODE     ---       #160
      01006BFFH   LINE      CODE     ---       #163
      ---         BLOCKEND  ---      ---       LVL=0

      01007173H   BLOCK     CODE     ---       LVL=0
      00000007H   SYMBOL    DATA     BYTE      tons
      00000005H   SYMBOL    DATA     BYTE      time
      00000003H   SYMBOL    DATA     BYTE      loop
      01007173H   LINE      CODE     ---       #166
      01007173H   LINE      CODE     ---       #168
      01007176H   LINE      CODE     ---       #170
      01007182H   LINE      CODE     ---       #171
      01007184H   LINE      CODE     ---       #172
      01007187H   LINE      CODE     ---       #173
      0100718DH   LINE      CODE     ---       #174
      0100718DH   LINE      CODE     ---       #175
      ---         BLOCKEND  ---      ---       LVL=0

      01006913H   BLOCK     CODE     ---       LVL=0
      00000005H   SYMBOL    DATA     BYTE      funSet
      01006913H   LINE      CODE     ---       #177
      01006915H   LINE      CODE     ---       #179
LX51 LINKER/LOCATER V4.66.41.0                                                        01/11/2019  12:04:15  PAGE 47


      0100692EH   LINE      CODE     ---       #180
      0100694AH   LINE      CODE     ---       #181
      01006961H   LINE      CODE     ---       #182
      0100697CH   LINE      CODE     ---       #183
      ---         BLOCKEND  ---      ---       LVL=0

      010071BFH   BLOCK     CODE     ---       LVL=0
      010071BFH   LINE      CODE     ---       #186
      010071BFH   LINE      CODE     ---       #188
      010071C5H   LINE      CODE     ---       #189
      010071C8H   LINE      CODE     ---       #190
      010071CDH   LINE      CODE     ---       #191
      010071D6H   LINE      CODE     ---       #192
      ---         BLOCKEND  ---      ---       LVL=0

      010071D7H   BLOCK     CODE     ---       LVL=0
      00000006H   SYMBOL    DATA     BYTE      timeopen
      010071D7H   LINE      CODE     ---       #195
      010071D9H   LINE      CODE     ---       #197
      010071DFH   LINE      CODE     ---       #198
      010071E4H   LINE      CODE     ---       #199
      010071E7H   LINE      CODE     ---       #200
      010071EAH   LINE      CODE     ---       #201
      ---         BLOCKEND  ---      ---       LVL=0

      01007316H   BLOCK     CODE     ---       LVL=0
      01007316H   LINE      CODE     ---       #205
      01007316H   LINE      CODE     ---       #207
      0100731CH   LINE      CODE     ---       #208
      0100731FH   LINE      CODE     ---       #209
      ---         BLOCKEND  ---      ---       LVL=0

      01007288H   BLOCK     CODE     ---       LVL=0
      00000007H   SYMBOL    DATA     BYTE      timeHold
      01007288H   LINE      CODE     ---       #213
      01007288H   LINE      CODE     ---       #215
      0100728DH   LINE      CODE     ---       #216
      01007290H   LINE      CODE     ---       #217
      01007295H   LINE      CODE     ---       #218
      ---         BLOCKEND  ---      ---       LVL=0

      0100721FH   BLOCK     CODE     ---       LVL=0
      00000007H   SYMBOL    DATA     BYTE      timeHold
      0100721FH   LINE      CODE     ---       #222
      0100721FH   LINE      CODE     ---       #224
      01007224H   LINE      CODE     ---       #225
      01007227H   LINE      CODE     ---       #226
      0100722CH   LINE      CODE     ---       #227
      ---         BLOCKEND  ---      ---       LVL=0

      01003901H   BLOCK     CODE     ---       LVL=0
      01003978H   BLOCK     CODE     NEAR LAB  LVL=1
      00000008H   SYMBOL    DATA     WORD      tipsNwk_Counter
      01006BA6H   SYMBOL    CODE     WORD      tipsNwk_Period
      00000027H   SYMBOL    DATA     BYTE      relayStatus_tipsTemp
      01003ACFH   BLOCK     CODE     NEAR LAB  LVL=2
      00000024H.2 SYMBOL    BIT      BIT       tips_Type
      ---         BLOCKEND  ---      ---       LVL=2
      ---         BLOCKEND  ---      ---       LVL=1
      01003901H   LINE      CODE     ---       #231
      01003901H   LINE      CODE     ---       #233
      01003904H   LINE      CODE     ---       #235
      01003910H   LINE      CODE     ---       #236
      01003910H   LINE      CODE     ---       #238
      01003913H   LINE      CODE     ---       #239
LX51 LINKER/LOCATER V4.66.41.0                                                        01/11/2019  12:04:15  PAGE 48


      01003913H   LINE      CODE     ---       #241
      01003915H   LINE      CODE     ---       #243
      0100391DH   LINE      CODE     ---       #245
      01003922H   LINE      CODE     ---       #247
      01003928H   LINE      CODE     ---       #248
      01003928H   LINE      CODE     ---       #250
      01003939H   LINE      CODE     ---       #253
      01003939H   LINE      CODE     ---       #255
      0100393EH   LINE      CODE     ---       #256
      01003941H   LINE      CODE     ---       #257
      01003941H   LINE      CODE     ---       #258
      01003941H   LINE      CODE     ---       #481
      01003972H   LINE      CODE     ---       #483
      01003972H   LINE      CODE     ---       #485
      01003975H   LINE      CODE     ---       #487
      01003975H   LINE      CODE     ---       #489
      01003975H   LINE      CODE     ---       #491
      01003978H   LINE      CODE     ---       #493
      01003978H   LINE      CODE     ---       #495
      01003978H   LINE      CODE     ---       #496
      01003978H   LINE      CODE     ---       #500
      0100397FH   LINE      CODE     ---       #502
      01003984H   LINE      CODE     ---       #504
      01003989H   LINE      CODE     ---       #505
      0100398FH   LINE      CODE     ---       #507
      01003991H   LINE      CODE     ---       #508
      01003996H   LINE      CODE     ---       #510
      0100399FH   LINE      CODE     ---       #511
      010039A5H   LINE      CODE     ---       #512
      010039AAH   LINE      CODE     ---       #514
      010039ACH   LINE      CODE     ---       #515
      010039B1H   LINE      CODE     ---       #517
      010039B1H   LINE      CODE     ---       #519
      010039B3H   LINE      CODE     ---       #520
      010039BEH   LINE      CODE     ---       #522
      010039C4H   LINE      CODE     ---       #524
      010039C6H   LINE      CODE     ---       #525
      010039CBH   LINE      CODE     ---       #527
      010039D0H   LINE      CODE     ---       #528
      010039D0H   LINE      CODE     ---       #531
      010039D6H   LINE      CODE     ---       #806
      010039D6H   LINE      CODE     ---       #808
      010039E0H   LINE      CODE     ---       #810
      010039E0H   LINE      CODE     ---       #812
      010039E6H   LINE      CODE     ---       #815
      010039F2H   LINE      CODE     ---       #818
      010039F9H   LINE      CODE     ---       #822
      010039FCH   LINE      CODE     ---       #824
      010039FCH   LINE      CODE     ---       #826
      01003A08H   LINE      CODE     ---       #829
      01003A0EH   LINE      CODE     ---       #832
      01003A15H   LINE      CODE     ---       #836
      01003A18H   LINE      CODE     ---       #838
      01003A18H   LINE      CODE     ---       #840
      01003A26H   LINE      CODE     ---       #843
      01003A2CH   LINE      CODE     ---       #846
      01003A33H   LINE      CODE     ---       #850
      01003A35H   LINE      CODE     ---       #851
      01003A35H   LINE      CODE     ---       #853
      01003A35H   LINE      CODE     ---       #855
      01003A35H   LINE      CODE     ---       #856
      01003A35H   LINE      CODE     ---       #857
      01003A35H   LINE      CODE     ---       #858
      01003A35H   LINE      CODE     ---       #860
      01003A64H   LINE      CODE     ---       #870
LX51 LINKER/LOCATER V4.66.41.0                                                        01/11/2019  12:04:15  PAGE 49


      01003A93H   LINE      CODE     ---       #880
      01003AC2H   LINE      CODE     ---       #890
      01003AC2H   LINE      CODE     ---       #893
      01003AC2H   LINE      CODE     ---       #896
      01003AC2H   LINE      CODE     ---       #898
      01003ACFH   LINE      CODE     ---       #899
      01003ACFH   LINE      CODE     ---       #902
      01003ACFH   LINE      CODE     ---       #905
      01003AE7H   LINE      CODE     ---       #906
      01003AE7H   LINE      CODE     ---       #908
      01003AE9H   LINE      CODE     ---       #909
      01003AEEH   LINE      CODE     ---       #911
      01003B03H   LINE      CODE     ---       #913
      01003B03H   LINE      CODE     ---       #915
      01003B08H   LINE      CODE     ---       #917
      01003B0AH   LINE      CODE     ---       #919
      01003B0AH   LINE      CODE     ---       #921
      01003B18H   LINE      CODE     ---       #923
      01003B1AH   LINE      CODE     ---       #925
      01003B1AH   LINE      CODE     ---       #927
      01003B20H   LINE      CODE     ---       #929
      01003B22H   LINE      CODE     ---       #931
      01003B22H   LINE      CODE     ---       #933
      01003B29H   LINE      CODE     ---       #935
      01003B2BH   LINE      CODE     ---       #937
      01003B2BH   LINE      CODE     ---       #939
      01003B3BH   LINE      CODE     ---       #941
      01003B3DH   LINE      CODE     ---       #943
      01003B3DH   LINE      CODE     ---       #945
      01003B51H   LINE      CODE     ---       #947
      01003B51H   LINE      CODE     ---       #949
      01003B51H   LINE      CODE     ---       #951
      01003B54H   LINE      CODE     ---       #953
      01003B55H   LINE      CODE     ---       #954
      01003B55H   LINE      CODE     ---       #955
      01003B55H   LINE      CODE     ---       #956
      01003B55H   LINE      CODE     ---       #958
      01003B55H   LINE      CODE     ---       #960
      01003B55H   LINE      CODE     ---       #962
      01003B5FH   LINE      CODE     ---       #963
      01003B5FH   LINE      CODE     ---       #965
      01003B5FH   LINE      CODE     ---       #967
      01003B5FH   LINE      CODE     ---       #968
      01003B65H   LINE      CODE     ---       #969
      01003B6EH   LINE      CODE     ---       #970
      01003B6EH   LINE      CODE     ---       #971
      01003B6EH   LINE      CODE     ---       #973
      01003B6EH   LINE      CODE     ---       #975
      01003B70H   LINE      CODE     ---       #977
      01003B70H   LINE      CODE     ---       #979
      01003B75H   LINE      CODE     ---       #981
      01003B75H   LINE      CODE     ---       #983
      01003B75H   LINE      CODE     ---       #985
      01003B78H   LINE      CODE     ---       #987
      01003B78H   LINE      CODE     ---       #989
      01003B78H   LINE      CODE     ---       #991
      01003B81H   LINE      CODE     ---       #992
      01003B81H   LINE      CODE     ---       #994
      01003B81H   LINE      CODE     ---       #996
      01003B81H   LINE      CODE     ---       #997
      01003B87H   LINE      CODE     ---       #998
      01003B96H   LINE      CODE     ---       #999
      01003B9CH   LINE      CODE     ---       #1000
      01003B9CH   LINE      CODE     ---       #1002
      01003B9CH   LINE      CODE     ---       #1004
LX51 LINKER/LOCATER V4.66.41.0                                                        01/11/2019  12:04:15  PAGE 50


      01003B9CH   LINE      CODE     ---       #1006
      01003B9CH   LINE      CODE     ---       #1008
      01003B9FH   LINE      CODE     ---       #1010
      01003B9FH   LINE      CODE     ---       #1011
      01003B9FH   LINE      CODE     ---       #1013
      ---         BLOCKEND  ---      ---       LVL=0

      01006A4EH   BLOCK     CODE     ---       LVL=0
      00000007H   SYMBOL    DATA     BYTE      obj
      00000005H   SYMBOL    DATA     BYTE      gray_R
      00000003H   SYMBOL    DATA     BYTE      gray_G
      0000002BH   SYMBOL    DATA     BYTE      gray_B
      01006A5FH   BLOCK     CODE     NEAR LAB  LVL=1
      01006BA8H   SYMBOL    CODE     BYTE      bright_coef
      ---         BLOCKEND  ---      ---       LVL=1
      01006A4EH   LINE      CODE     ---       #1015
      01006A4EH   LINE      CODE     ---       #1017
      01006A5AH   LINE      CODE     ---       #1018
      01006A5AH   LINE      CODE     ---       #1020
      01006A5FH   LINE      CODE     ---       #1024
      01006A6AH   LINE      CODE     ---       #1025
      01006A6FH   LINE      CODE     ---       #1026
      01006A76H   LINE      CODE     ---       #1027
      01006A76H   LINE      CODE     ---       #1029
      01006A84H   LINE      CODE     ---       #1031
      01006A84H   LINE      CODE     ---       #1033
      01006A88H   LINE      CODE     ---       #1034
      01006A88H   LINE      CODE     ---       #1035
      01006A88H   LINE      CODE     ---       #1037
      01006A8AH   LINE      CODE     ---       #1039
      01006A8AH   LINE      CODE     ---       #1041
      01006A91H   LINE      CODE     ---       #1042
      01006A91H   LINE      CODE     ---       #1043
      01006A91H   LINE      CODE     ---       #1045
      01006A93H   LINE      CODE     ---       #1047
      01006A93H   LINE      CODE     ---       #1049
      01006A9AH   LINE      CODE     ---       #1050
      01006A9AH   LINE      CODE     ---       #1051
      01006A9AH   LINE      CODE     ---       #1053
      01006A9CH   LINE      CODE     ---       #1055
      01006A9CH   LINE      CODE     ---       #1057
      01006AA7H   LINE      CODE     ---       #1058
      01006AAAH   LINE      CODE     ---       #1059
      01006AAFH   LINE      CODE     ---       #1061
      01006AAFH   LINE      CODE     ---       #1063
      01006AAFH   LINE      CODE     ---       #1064
      01006AAFH   LINE      CODE     ---       #1065
      01006AAFH   LINE      CODE     ---       #1066
      ---         BLOCKEND  ---      ---       LVL=0

      01006750H   BLOCK     CODE     ---       LVL=0
      01006750H   BLOCK     CODE     NEAR LAB  LVL=1
      020006A5H   SYMBOL    XDATA    BYTE      tipsStep
      ---         BLOCKEND  ---      ---       LVL=1
      01006750H   LINE      CODE     ---       #1068
      01006750H   LINE      CODE     ---       #1072
      0100675EH   LINE      CODE     ---       #1074
      0100675EH   LINE      CODE     ---       #1076
      01006768H   LINE      CODE     ---       #1077
      0100676EH   LINE      CODE     ---       #1079
      0100676FH   LINE      CODE     ---       #1081
      0100676FH   LINE      CODE     ---       #1083
      0100677AH   LINE      CODE     ---       #1085
      0100678AH   LINE      CODE     ---       #1087
      01006795H   LINE      CODE     ---       #1092
LX51 LINKER/LOCATER V4.66.41.0                                                        01/11/2019  12:04:15  PAGE 51


      01006796H   LINE      CODE     ---       #1094
      0100679DH   LINE      CODE     ---       #1098
      0100679DH   LINE      CODE     ---       #1100
      0100679EH   LINE      CODE     ---       #1102
      010067A8H   LINE      CODE     ---       #1103
      010067ADH   LINE      CODE     ---       #1104
      010067B3H   LINE      CODE     ---       #1105
      010067B3H   LINE      CODE     ---       #1107
      010067B4H   LINE      CODE     ---       #1110
      010067B4H   LINE      CODE     ---       #1112
      010067BEH   LINE      CODE     ---       #1114
      010067C0H   LINE      CODE     ---       #1116
      010067C0H   LINE      CODE     ---       #1118
      010067C5H   LINE      CODE     ---       #1120
      010067C5H   LINE      CODE     ---       #1121
      010067C5H   LINE      CODE     ---       #1122
      ---         BLOCKEND  ---      ---       LVL=0
      0000000AH   SYMBOL    DATA     BYTE      localTips_Count
      00000024H.3 SYMBOL    BIT      BIT       count_FLG
      0000000BH   SYMBOL    DATA     BYTE      tipsStep
      01006BA9H   SYMBOL    CODE     BYTE      speed
      01006BAAH   SYMBOL    CODE     BYTE      step_period
      0000000CH   SYMBOL    DATA     BYTE      localTips_Count
      00000024H.4 SYMBOL    BIT      BIT       count_FLG
      0000000DH   SYMBOL    DATA     BYTE      tipsStep
      0000000EH   SYMBOL    DATA     BYTE      pwmType_A
      0000000FH   SYMBOL    DATA     BYTE      pwmType_B
      00000010H   SYMBOL    DATA     BYTE      pwmType_C
      00000011H   SYMBOL    DATA     BYTE      pwmType_D
      01006BABH   SYMBOL    CODE     BYTE      speed
      01006BACH   SYMBOL    CODE     BYTE      step_period

      01004F19H   BLOCK     CODE     ---       LVL=0
      00000005H   SYMBOL    DATA     BYTE      tips_Type
      01004F1BH   BLOCK     CODE     NEAR LAB  LVL=1
      00000012H   SYMBOL    DATA     BYTE      localTips_Count
      00000024H.5 SYMBOL    BIT      BIT       count_FLG
      00000013H   SYMBOL    DATA     BYTE      tipsStep
      00000014H   SYMBOL    DATA     BYTE      pwmType_A
      00000015H   SYMBOL    DATA     BYTE      pwmType_B
      00000016H   SYMBOL    DATA     BYTE      pwmType_C
      00000017H   SYMBOL    DATA     BYTE      pwmType_D
      01006BADH   SYMBOL    CODE     BYTE      speed_Mol
      01006BAEH   SYMBOL    CODE     BYTE      speed_Den
      01006BAFH   SYMBOL    CODE     BYTE      step_period
      ---         BLOCKEND  ---      ---       LVL=1
      01004F19H   LINE      CODE     ---       #1265
      01004F1BH   LINE      CODE     ---       #1279
      01004F22H   LINE      CODE     ---       #1281
      01004F31H   LINE      CODE     ---       #1282
      01004F31H   LINE      CODE     ---       #1284
      01004F34H   LINE      CODE     ---       #1286
      01004F3CH   LINE      CODE     ---       #1287
      01004F3CH   LINE      CODE     ---       #1288
      01004F3CH   LINE      CODE     ---       #1289
      01004F44H   LINE      CODE     ---       #1291
      01004F4BH   LINE      CODE     ---       #1293
      01004F4DH   LINE      CODE     ---       #1297
      01004F4DH   LINE      CODE     ---       #1299
      01004F57H   LINE      CODE     ---       #1301
      01004F74H   LINE      CODE     ---       #1303
      01004F84H   LINE      CODE     ---       #1304
      01004F97H   LINE      CODE     ---       #1305
      01004FAAH   LINE      CODE     ---       #1306
      01004FBDH   LINE      CODE     ---       #1307
LX51 LINKER/LOCATER V4.66.41.0                                                        01/11/2019  12:04:15  PAGE 52


      01004FBDH   LINE      CODE     ---       #1309
      01004FCAH   LINE      CODE     ---       #1311
      01004FCAH   LINE      CODE     ---       #1313
      01004FD1H   LINE      CODE     ---       #1315
      01004FD1H   LINE      CODE     ---       #1317
      01004FD4H   LINE      CODE     ---       #1319
      01004FDBH   LINE      CODE     ---       #1321
      01004FE3H   LINE      CODE     ---       #1323
      01004FE3H   LINE      CODE     ---       #1324
      01004FE3H   LINE      CODE     ---       #1326
      01004FE5H   LINE      CODE     ---       #1328
      01004FE8H   LINE      CODE     ---       #1329
      01004FEAH   LINE      CODE     ---       #1330
      01004FEAH   LINE      CODE     ---       #1332
      01004FEDH   LINE      CODE     ---       #1334
      01004FFAH   LINE      CODE     ---       #1335
      01005007H   LINE      CODE     ---       #1336
      01005014H   LINE      CODE     ---       #1337
      01005025H   LINE      CODE     ---       #1338
      01005025H   LINE      CODE     ---       #1340
      01005026H   LINE      CODE     ---       #1342
      0100502BH   LINE      CODE     ---       #1343
      01005030H   LINE      CODE     ---       #1344
      01005035H   LINE      CODE     ---       #1345
      0100503AH   LINE      CODE     ---       #1347
      01005042H   LINE      CODE     ---       #1348
      01005047H   LINE      CODE     ---       #1349
      01005050H   LINE      CODE     ---       #1350
      01005059H   LINE      CODE     ---       #1351
      01005059H   LINE      CODE     ---       #1353
      0100505BH   LINE      CODE     ---       #1355
      0100505BH   LINE      CODE     ---       #1356
      0100505BH   LINE      CODE     ---       #1358
      0100505BH   LINE      CODE     ---       #1360
      0100505BH   LINE      CODE     ---       #1362
      0100505FH   LINE      CODE     ---       #1364
      0100505FH   LINE      CODE     ---       #1366
      01005062H   LINE      CODE     ---       #1368
      01005069H   LINE      CODE     ---       #1371
      01005076H   LINE      CODE     ---       #1373
      01005077H   LINE      CODE     ---       #1380
      01005085H   LINE      CODE     ---       #1381
      01005093H   LINE      CODE     ---       #1382
      010050A1H   LINE      CODE     ---       #1383
      010050AFH   LINE      CODE     ---       #1384
      010050AFH   LINE      CODE     ---       #1386
      010050B0H   LINE      CODE     ---       #1393
      010050B8H   LINE      CODE     ---       #1394
      010050BDH   LINE      CODE     ---       #1395
      010050C2H   LINE      CODE     ---       #1396
      010050CFH   LINE      CODE     ---       #1397
      010050CFH   LINE      CODE     ---       #1399
      010050CFH   LINE      CODE     ---       #1401
      010050CFH   LINE      CODE     ---       #1402
      010050CFH   LINE      CODE     ---       #1404
      010050CFH   LINE      CODE     ---       #1406
      010050CFH   LINE      CODE     ---       #1407
      010050CFH   LINE      CODE     ---       #1408
      ---         BLOCKEND  ---      ---       LVL=0

      01006FDFH   BLOCK     CODE     ---       LVL=0
      01006FDFH   BLOCK     CODE     NEAR LAB  LVL=1
      00000024H.6 SYMBOL    BIT      BIT       tipsStep
      ---         BLOCKEND  ---      ---       LVL=1
      01006FDFH   LINE      CODE     ---       #1410
LX51 LINKER/LOCATER V4.66.41.0                                                        01/11/2019  12:04:15  PAGE 53


      01006FDFH   LINE      CODE     ---       #1414
      01006FE9H   LINE      CODE     ---       #1416
      01006FF0H   LINE      CODE     ---       #1418
      01006FF3H   LINE      CODE     ---       #1419
      01006FF3H   LINE      CODE     ---       #1420
      01006FF3H   LINE      CODE     ---       #1421
      01006FF7H   LINE      CODE     ---       #1423
      01006FF8H   LINE      CODE     ---       #1425
      01006FF8H   LINE      CODE     ---       #1426
      01006FF8H   LINE      CODE     ---       #1427
      01006FF8H   LINE      CODE     ---       #1428
      01006FFBH   LINE      CODE     ---       #1429
      01006FFBH   LINE      CODE     ---       #1431
      01006FFCH   LINE      CODE     ---       #1433
      01007006H   LINE      CODE     ---       #1434
      01007008H   LINE      CODE     ---       #1435
      01007008H   LINE      CODE     ---       #1436
      ---         BLOCKEND  ---      ---       LVL=0

      01000003H   BLOCK     CODE     ---       LVL=0
      01000003H   LINE      CODE     ---       #1438
      01000003H   LINE      CODE     ---       #1440
      01000007H   LINE      CODE     ---       #1441
      01000007H   LINE      CODE     ---       #1442
      01000007H   LINE      CODE     ---       #1443
      0100000AH   LINE      CODE     ---       #1444
      ---         BLOCKEND  ---      ---       LVL=0

      01004B29H   BLOCK     CODE     ---       LVL=0
      01004B29H   BLOCK     CODE     NEAR LAB  LVL=1
      00000018H   SYMBOL    DATA     BYTE      localTips_Count
      01006BB0H   SYMBOL    CODE     BYTE      localTips_Period
      00000019H   SYMBOL    DATA     BYTE      tipsStep
      0000001AH   SYMBOL    DATA     BYTE      pwmType_A
      0000001BH   SYMBOL    DATA     BYTE      pwmType_B
      0000001CH   SYMBOL    DATA     BYTE      pwmType_C
      0000001DH   SYMBOL    DATA     BYTE      pwmType_D
      ---         BLOCKEND  ---      ---       LVL=1
      01004B29H   LINE      CODE     ---       #1446
      01004B29H   LINE      CODE     ---       #1459
      01004B33H   LINE      CODE     ---       #1461
      01004B3BH   LINE      CODE     ---       #1463
      01004B47H   LINE      CODE     ---       #1465
      01004B4AH   LINE      CODE     ---       #1466
      01004B58H   LINE      CODE     ---       #1467
      01004B61H   LINE      CODE     ---       #1468
      01004B63H   LINE      CODE     ---       #1469
      01004B63H   LINE      CODE     ---       #1471
      01004B65H   LINE      CODE     ---       #1473
      01004B75H   LINE      CODE     ---       #1474
      01004B88H   LINE      CODE     ---       #1475
      01004B9BH   LINE      CODE     ---       #1476
      01004BAEH   LINE      CODE     ---       #1477
      01004BAEH   LINE      CODE     ---       #1478
      01004BAEH   LINE      CODE     ---       #1480
      01004BD4H   LINE      CODE     ---       #1599
      01004BD4H   LINE      CODE     ---       #1601
      01004BDAH   LINE      CODE     ---       #1602
      01004BE3H   LINE      CODE     ---       #1603
      01004BECH   LINE      CODE     ---       #1604
      01004BF2H   LINE      CODE     ---       #1606
      01004BF4H   LINE      CODE     ---       #1608
      01004BF4H   LINE      CODE     ---       #1610
      01004BF9H   LINE      CODE     ---       #1611
      01004BFEH   LINE      CODE     ---       #1612
LX51 LINKER/LOCATER V4.66.41.0                                                        01/11/2019  12:04:15  PAGE 54


      01004C03H   LINE      CODE     ---       #1613
      01004C05H   LINE      CODE     ---       #1615
      01004C07H   LINE      CODE     ---       #1617
      01004C07H   LINE      CODE     ---       #1619
      01004C0FH   LINE      CODE     ---       #1620
      01004C17H   LINE      CODE     ---       #1621
      01004C1FH   LINE      CODE     ---       #1622
      01004C27H   LINE      CODE     ---       #1624
      01004C2AH   LINE      CODE     ---       #1626
      01004C2AH   LINE      CODE     ---       #1628
      01004C30H   LINE      CODE     ---       #1629
      01004C36H   LINE      CODE     ---       #1630
      01004C3CH   LINE      CODE     ---       #1631
      01004C46H   LINE      CODE     ---       #1633
      01004C49H   LINE      CODE     ---       #1635
      01004C49H   LINE      CODE     ---       #1637
      01004C51H   LINE      CODE     ---       #1638
      01004C59H   LINE      CODE     ---       #1639
      01004C61H   LINE      CODE     ---       #1640
      01004C69H   LINE      CODE     ---       #1642
      01004C6CH   LINE      CODE     ---       #1644
      01004C6CH   LINE      CODE     ---       #1646
      01004C72H   LINE      CODE     ---       #1647
      01004C77H   LINE      CODE     ---       #1648
      01004C80H   LINE      CODE     ---       #1649
      01004C8EH   LINE      CODE     ---       #1651
      01004C94H   LINE      CODE     ---       #1652
      01004C9AH   LINE      CODE     ---       #1653
      01004CA0H   LINE      CODE     ---       #1654
      01004CA7H   LINE      CODE     ---       #1656
      01004CA9H   LINE      CODE     ---       #1658
      01004CA9H   LINE      CODE     ---       #1660
      01004CB7H   LINE      CODE     ---       #1661
      01004CC5H   LINE      CODE     ---       #1662
      01004CD3H   LINE      CODE     ---       #1663
      01004CE1H   LINE      CODE     ---       #1665
      01004CEBH   LINE      CODE     ---       #1666
      01004CF5H   LINE      CODE     ---       #1667
      01004CFFH   LINE      CODE     ---       #1668
      01004D08H   LINE      CODE     ---       #1670
      01004D0CH   LINE      CODE     ---       #1671
      01004D11H   LINE      CODE     ---       #1672
      01004D19H   LINE      CODE     ---       #1673
      01004D21H   LINE      CODE     ---       #1675
      01004D21H   LINE      CODE     ---       #1677
      01004D21H   LINE      CODE     ---       #1678
      01004D21H   LINE      CODE     ---       #1679
      ---         BLOCKEND  ---      ---       LVL=0

      ---         MODULE    ---      ---       DEVLOPEDEBUG
      020006F0H   PUBLIC    XDATA    ---       dev_debugInfoLog
      0100643FH   PUBLIC    CODE     ---       thread_devlopeDebug
      000000D8H.2 SFRSYM    DATA     BIT       CCF2
      000000E0H.7 SFRSYM    DATA     BIT       ACC7
      00000093H   SFRSYM    DATA     BYTE      P0M1
      00000092H   SFRSYM    DATA     BYTE      P1M0
      00000096H   SFRSYM    DATA     BYTE      P2M0
      00000091H   SFRSYM    DATA     BYTE      P1M1
      00000080H   SFRSYM    DATA     BYTE      P0
      000000B2H   SFRSYM    DATA     BYTE      P3M0
      00000095H   SFRSYM    DATA     BYTE      P2M1
      00000090H   SFRSYM    DATA     BYTE      P1
      000000B4H   SFRSYM    DATA     BYTE      P4M0
      000000B1H   SFRSYM    DATA     BYTE      P3M1
      000000A0H   SFRSYM    DATA     BYTE      P2
LX51 LINKER/LOCATER V4.66.41.0                                                        01/11/2019  12:04:15  PAGE 55


      000000CAH   SFRSYM    DATA     BYTE      P5M0
      000000B3H   SFRSYM    DATA     BYTE      P4M1
      000000B0H   SFRSYM    DATA     BYTE      P3
      000000ABH   SFRSYM    DATA     BYTE      WKTCH
      000000B0H.4 SFRSYM    DATA     BIT       T0
      000000D0H.6 SFRSYM    DATA     BIT       AC
      000000CCH   SFRSYM    DATA     BYTE      P6M0
      000000C9H   SFRSYM    DATA     BYTE      P5M1
      000000C0H   SFRSYM    DATA     BYTE      P4
      000000B0H.5 SFRSYM    DATA     BIT       CLKOUT0
      000000B0H.5 SFRSYM    DATA     BIT       T1
      000000E2H   SFRSYM    DATA     BYTE      P7M0
      000000CBH   SFRSYM    DATA     BYTE      P6M1
      000000C8H   SFRSYM    DATA     BYTE      P5
      000000C6H   SFRSYM    DATA     BYTE      ISP_TRIG
      000000A8H.7 SFRSYM    DATA     BIT       EA
      000000B0H.4 SFRSYM    DATA     BIT       CLKOUT1
      000000A0H.4 SFRSYM    DATA     BIT       SPI_SS_2
      000000E8H   SFRSYM    DATA     BYTE      P6
      000000E1H   SFRSYM    DATA     BYTE      P7M1
      000000C8H.4 SFRSYM    DATA     BIT       SPI_SS_3
      00000090H.4 SFRSYM    DATA     BIT       SPI_MISO
      00000090H.3 SFRSYM    DATA     BIT       SPI_MOSI
      00000090H.1 SFRSYM    DATA     BIT       CCP0
      000000F8H   SFRSYM    DATA     BYTE      P7
      000000AAH   SFRSYM    DATA     BYTE      WKTCL
      00000090H   SFRSYM    DATA     BIT       CCP1
      000000CEH   SFRSYM    DATA     BYTE      SPCTL
      000000D8H.7 SFRSYM    DATA     BIT       CF
      000000B0H.7 SFRSYM    DATA     BIT       CCP2
      000000F9H   SFRSYM    DATA     BYTE      CH
      000000A2H   SFRSYM    DATA     BYTE      P_SW1
      000000BAH   SFRSYM    DATA     BYTE      P_SW2
      000000A8H.5 SFRSYM    DATA     BIT       EADC
      000000A0H.1 SFRSYM    DATA     BIT       SPI_SCLK_2
      000000A8H   SFRSYM    DATA     BYTE      IE
      000000C0H.3 SFRSYM    DATA     BIT       SPI_SCLK_3
      000000E9H   SFRSYM    DATA     BYTE      CL
      000000C5H   SFRSYM    DATA     BYTE      IAP_CMD
      000000FAH   SFRSYM    DATA     BYTE      CCAP0H
      000000FBH   SFRSYM    DATA     BYTE      CCAP1H
      000000FCH   SFRSYM    DATA     BYTE      CCAP2H
      000000BDH   SFRSYM    DATA     BYTE      ADC_RES
      000000B6H   SFRSYM    DATA     BYTE      IPH2
      000000D8H.6 SFRSYM    DATA     BIT       CR
      000000EAH   SFRSYM    DATA     BYTE      CCAP0L
      000000B0H.7 SFRSYM    DATA     BIT       RD
      000000EBH   SFRSYM    DATA     BYTE      CCAP1L
      000000DAH   SFRSYM    DATA     BYTE      CCAPM0
      000000ECH   SFRSYM    DATA     BYTE      CCAP2L
      000000DBH   SFRSYM    DATA     BYTE      CCAPM1
      000000A8H.4 SFRSYM    DATA     BIT       ES
      000000DCH   SFRSYM    DATA     BYTE      CCAPM2
      000000B8H.5 SFRSYM    DATA     BIT       PADC
      000000A0H.2 SFRSYM    DATA     BIT       SPI_MISO_2
      000000A0H.3 SFRSYM    DATA     BIT       SPI_MOSI_2
      000000B8H   SFRSYM    DATA     BYTE      IP
      000000C0H.1 SFRSYM    DATA     BIT       SPI_MISO_3
      000000C0H   SFRSYM    DATA     BIT       SPI_MOSI_3
      00000098H   SFRSYM    DATA     BIT       RI
      000000B0H.2 SFRSYM    DATA     BIT       INT0
      000000D0H.7 SFRSYM    DATA     BIT       CY
      00000098H.1 SFRSYM    DATA     BIT       TI
      000000B0H.3 SFRSYM    DATA     BIT       INT1
      00000097H   SFRSYM    DATA     BYTE      CLK_DIV
LX51 LINKER/LOCATER V4.66.41.0                                                        01/11/2019  12:04:15  PAGE 56


      000000C3H   SFRSYM    DATA     BYTE      IAP_ADDRH
      00000090H   SFRSYM    DATA     BIT       RXD2
      000000C5H   SFRSYM    DATA     BYTE      ISP_CMD
      000000B8H.4 SFRSYM    DATA     BIT       PS
      00000090H.1 SFRSYM    DATA     BIT       TXD2
      00000081H   SFRSYM    DATA     BYTE      SP
      000000D9H   SFRSYM    DATA     BYTE      CMOD
      000000D8H   SFRSYM    DATA     BYTE      CCON
      000000C4H   SFRSYM    DATA     BYTE      IAP_ADDRL
      000000B8H.7 SFRSYM    DATA     BIT       PPCA
      000000D0H.2 SFRSYM    DATA     BIT       OV
      000000B0H.6 SFRSYM    DATA     BIT       WR
      000000A8H.6 SFRSYM    DATA     BIT       ELVD
      00000080H   SFRSYM    DATA     BIT       P00
      00000090H   SFRSYM    DATA     BIT       P10
      00000080H.1 SFRSYM    DATA     BIT       P01
      000000BCH   SFRSYM    DATA     BYTE      ADC_CONTR
      00000099H   SFRSYM    DATA     BYTE      SBUF
      00000087H   SFRSYM    DATA     BYTE      PCON
      000000A0H   SFRSYM    DATA     BIT       P20
      00000090H.1 SFRSYM    DATA     BIT       P11
      00000080H.2 SFRSYM    DATA     BIT       P02
      000000C3H   SFRSYM    DATA     BYTE      ISP_ADDRH
      000000B0H   SFRSYM    DATA     BIT       P30
      000000A0H.1 SFRSYM    DATA     BIT       P21
      00000090H.2 SFRSYM    DATA     BIT       P12
      00000080H.3 SFRSYM    DATA     BIT       P03
      000000C0H   SFRSYM    DATA     BIT       P40
      000000B0H.1 SFRSYM    DATA     BIT       P31
      000000A0H.2 SFRSYM    DATA     BIT       P22
      00000090H.3 SFRSYM    DATA     BIT       P13
      00000080H.4 SFRSYM    DATA     BIT       P04
      00000098H   SFRSYM    DATA     BYTE      SCON
      0000008FH   SFRSYM    DATA     BYTE      WAKE_CLKO
      000000C8H   SFRSYM    DATA     BIT       P50
      000000C0H.1 SFRSYM    DATA     BIT       P41
      000000B0H.2 SFRSYM    DATA     BIT       P32
      000000A0H.3 SFRSYM    DATA     BIT       P23
      00000090H.4 SFRSYM    DATA     BIT       P14
      00000080H.5 SFRSYM    DATA     BIT       P05
      00000089H   SFRSYM    DATA     BYTE      TMOD
      00000088H   SFRSYM    DATA     BYTE      TCON
      000000C8H.1 SFRSYM    DATA     BIT       P51
      000000C0H.2 SFRSYM    DATA     BIT       P42
      000000B0H.3 SFRSYM    DATA     BIT       P33
      000000A0H.4 SFRSYM    DATA     BIT       P24
      00000090H.5 SFRSYM    DATA     BIT       P15
      00000080H.6 SFRSYM    DATA     BIT       P06
      000000C4H   SFRSYM    DATA     BYTE      ISP_ADDRL
      000000B8H.6 SFRSYM    DATA     BIT       PLVD
      000000C8H.2 SFRSYM    DATA     BIT       P52
      000000C0H.3 SFRSYM    DATA     BIT       P43
      000000B0H.4 SFRSYM    DATA     BIT       P34
      000000A0H.5 SFRSYM    DATA     BIT       P25
      00000090H.6 SFRSYM    DATA     BIT       P16
      00000080H.7 SFRSYM    DATA     BIT       P07
      000000C8H.3 SFRSYM    DATA     BIT       P53
      000000C0H.4 SFRSYM    DATA     BIT       P44
      000000B0H.5 SFRSYM    DATA     BIT       P35
      000000A0H.6 SFRSYM    DATA     BIT       P26
      00000090H.7 SFRSYM    DATA     BIT       P17
      000000C8H.4 SFRSYM    DATA     BIT       P54
      000000C0H.5 SFRSYM    DATA     BIT       P45
      000000B0H.6 SFRSYM    DATA     BIT       P36
      000000A0H.7 SFRSYM    DATA     BIT       P27
LX51 LINKER/LOCATER V4.66.41.0                                                        01/11/2019  12:04:15  PAGE 57


      000000C8H.5 SFRSYM    DATA     BIT       P55
      000000C0H.6 SFRSYM    DATA     BIT       P46
      000000B0H.7 SFRSYM    DATA     BIT       P37
      000000C8H.6 SFRSYM    DATA     BIT       P56
      000000C0H.7 SFRSYM    DATA     BIT       P47
      000000C8H.7 SFRSYM    DATA     BIT       P57
      00000088H.1 SFRSYM    DATA     BIT       IE0
      000000A1H   SFRSYM    DATA     BYTE      BUS_SPEED
      00000088H.3 SFRSYM    DATA     BIT       IE1
      000000AFH   SFRSYM    DATA     BYTE      IE2
      000000F0H   SFRSYM    DATA     BYTE      B
      0000008EH   SFRSYM    DATA     BYTE      AUXR
      000000C7H   SFRSYM    DATA     BYTE      IAP_CONTR
      000000E0H   SFRSYM    DATA     BYTE      ACC
      000000A8H.1 SFRSYM    DATA     BIT       ET0
      000000A8H.3 SFRSYM    DATA     BIT       ET1
      00000088H.5 SFRSYM    DATA     BIT       TF0
      00000088H.7 SFRSYM    DATA     BIT       TF1
      000000B5H   SFRSYM    DATA     BYTE      IP2
      0000008CH   SFRSYM    DATA     BYTE      RL_TH0
      00000098H.2 SFRSYM    DATA     BIT       RB8
      0000008DH   SFRSYM    DATA     BYTE      RL_TH1
      0000008CH   SFRSYM    DATA     BYTE      TH0
      000000A8H   SFRSYM    DATA     BIT       EX0
      00000088H   SFRSYM    DATA     BIT       IT0
      000000D6H   SFRSYM    DATA     BYTE      RL_T2H
      0000008DH   SFRSYM    DATA     BYTE      TH1
      000000A8H.2 SFRSYM    DATA     BIT       EX1
      00000098H.3 SFRSYM    DATA     BIT       TB8
      00000088H.2 SFRSYM    DATA     BIT       IT1
      000000D4H   SFRSYM    DATA     BYTE      RL_T3H
      000000D6H   SFRSYM    DATA     BYTE      TH2
      000000D6H   SFRSYM    DATA     BYTE      T2H
      000000D0H   SFRSYM    DATA     BIT       P
      000000D2H   SFRSYM    DATA     BYTE      RL_T4H
      000000D4H   SFRSYM    DATA     BYTE      TH3
      000000D4H   SFRSYM    DATA     BYTE      T3H
      0000008AH   SFRSYM    DATA     BYTE      RL_TL0
      00000098H.7 SFRSYM    DATA     BIT       SM0
      000000D2H   SFRSYM    DATA     BYTE      TH4
      000000D2H   SFRSYM    DATA     BYTE      T4H
      0000008BH   SFRSYM    DATA     BYTE      RL_TL1
      0000008AH   SFRSYM    DATA     BYTE      TL0
      00000098H.6 SFRSYM    DATA     BIT       SM1
      000000D7H   SFRSYM    DATA     BYTE      RL_T2L
      0000008BH   SFRSYM    DATA     BYTE      TL1
      00000098H.5 SFRSYM    DATA     BIT       SM2
      000000D5H   SFRSYM    DATA     BYTE      RL_T3L
      000000D7H   SFRSYM    DATA     BYTE      TL2
      000000D7H   SFRSYM    DATA     BYTE      T2L
      000000D3H   SFRSYM    DATA     BYTE      RL_T4L
      000000D5H   SFRSYM    DATA     BYTE      TL3
      000000D5H   SFRSYM    DATA     BYTE      T3L
      000000B8H.1 SFRSYM    DATA     BIT       PT0
      000000D3H   SFRSYM    DATA     BYTE      TL4
      000000D3H   SFRSYM    DATA     BYTE      T4L
      000000B8H.3 SFRSYM    DATA     BIT       PT1
      000000D0H.3 SFRSYM    DATA     BIT       RS0
      000000C7H   SFRSYM    DATA     BYTE      ISP_CONTR
      00000088H.4 SFRSYM    DATA     BIT       TR0
      000000D0H.4 SFRSYM    DATA     BIT       RS1
      000000C2H   SFRSYM    DATA     BYTE      IAP_DATA
      00000088H.6 SFRSYM    DATA     BIT       TR1
      000000B8H   SFRSYM    DATA     BIT       PX0
      000000C1H   SFRSYM    DATA     BYTE      WDT_CONTR
LX51 LINKER/LOCATER V4.66.41.0                                                        01/11/2019  12:04:15  PAGE 58


      000000B8H.2 SFRSYM    DATA     BIT       PX1
      000000F2H   SFRSYM    DATA     BYTE      PCA_PWM0
      000000F3H   SFRSYM    DATA     BYTE      PCA_PWM1
      000000F4H   SFRSYM    DATA     BYTE      PCA_PWM2
      0000009DH   SFRSYM    DATA     BYTE      P1ASF
      00000083H   SFRSYM    DATA     BYTE      DPH
      000000D1H   SFRSYM    DATA     BYTE      T4T3M
      000000BEH   SFRSYM    DATA     BYTE      ADC_RESL
      00000082H   SFRSYM    DATA     BYTE      DPL
      000000CDH   SFRSYM    DATA     BYTE      SPSTAT
      000000B7H   SFRSYM    DATA     BYTE      IPH
      0000009BH   SFRSYM    DATA     BYTE      S2BUF
      00000097H   SFRSYM    DATA     BYTE      PCON2
      000000ADH   SFRSYM    DATA     BYTE      S3BUF
      00000098H.4 SFRSYM    DATA     BIT       REN
      00000085H   SFRSYM    DATA     BYTE      S4BUF
      0000009AH   SFRSYM    DATA     BYTE      S2CON
      000000ACH   SFRSYM    DATA     BYTE      S3CON
      000000C2H   SFRSYM    DATA     BYTE      ISP_DATA
      00000084H   SFRSYM    DATA     BYTE      S4CON
      000000B9H   SFRSYM    DATA     BYTE      SADEN
      000000B0H   SFRSYM    DATA     BIT       RXD
      000000A9H   SFRSYM    DATA     BYTE      SADDR
      000000B0H.1 SFRSYM    DATA     BIT       TXD
      000000F0H   SFRSYM    DATA     BIT       B0
      000000F0H.1 SFRSYM    DATA     BIT       B1
      000000C6H   SFRSYM    DATA     BYTE      IAP_TRIG
      000000A2H   SFRSYM    DATA     BYTE      AUXR1
      000000F0H.2 SFRSYM    DATA     BIT       B2
      00000090H.2 SFRSYM    DATA     BIT       SPI_SS
      0000008FH   SFRSYM    DATA     BYTE      AUXR2
      000000F0H.3 SFRSYM    DATA     BIT       B3
      000000F0H.4 SFRSYM    DATA     BIT       B4
      000000D0H.5 SFRSYM    DATA     BIT       F0
      000000F0H.5 SFRSYM    DATA     BIT       B5
      000000D0H.1 SFRSYM    DATA     BIT       F1
      0000008FH   SFRSYM    DATA     BYTE      INT_CLKO
      000000F0H.6 SFRSYM    DATA     BIT       B6
      000000E0H   SFRSYM    DATA     BIT       ACC0
      000000F0H.7 SFRSYM    DATA     BIT       B7
      000000E0H.1 SFRSYM    DATA     BIT       ACC1
      000000E0H.2 SFRSYM    DATA     BIT       ACC2
      000000E0H.3 SFRSYM    DATA     BIT       ACC3
      000000D0H   SFRSYM    DATA     BYTE      PSW
      000000E0H.4 SFRSYM    DATA     BIT       ACC4
      00000090H.5 SFRSYM    DATA     BIT       SPI_SCLK
      000000D8H   SFRSYM    DATA     BIT       CCF0
      000000E0H.5 SFRSYM    DATA     BIT       ACC5
      000000D8H.1 SFRSYM    DATA     BIT       CCF1
      000000E0H.6 SFRSYM    DATA     BIT       ACC6
      000000CFH   SFRSYM    DATA     BYTE      SPDAT
      00000094H   SFRSYM    DATA     BYTE      P0M0

      01007235H   BLOCK     CODE     ---       LVL=0
      ---         BLOCKEND  ---      ---       LVL=0

      0100643FH   BLOCK     CODE     ---       LVL=0
      0100643FH   LINE      CODE     ---       #16
      0100643FH   LINE      CODE     ---       #21
      0100643FH   LINE      CODE     ---       #23
      01006448H   LINE      CODE     ---       #25
      01006453H   LINE      CODE     ---       #27
      01006453H   LINE      CODE     ---       #29
      0100645AH   LINE      CODE     ---       #31
      0100645AH   LINE      CODE     ---       #33
LX51 LINKER/LOCATER V4.66.41.0                                                        01/11/2019  12:04:15  PAGE 59


      0100645AH   LINE      CODE     ---       #37
      0100648AH   LINE      CODE     ---       #38
      0100648AH   LINE      CODE     ---       #39
      0100648AH   LINE      CODE     ---       #41
      0100648CH   LINE      CODE     ---       #43
      0100648CH   LINE      CODE     ---       #45
      01006493H   LINE      CODE     ---       #47
      01006493H   LINE      CODE     ---       #49
      01006493H   LINE      CODE     ---       #50
      0100649CH   LINE      CODE     ---       #51
      0100649CH   LINE      CODE     ---       #52
      0100649CH   LINE      CODE     ---       #54
      0100649EH   LINE      CODE     ---       #56
      0100649EH   LINE      CODE     ---       #58
      0100649EH   LINE      CODE     ---       #59
      010064B9H   LINE      CODE     ---       #60
      010064C2H   LINE      CODE     ---       #61
      010064C2H   LINE      CODE     ---       #63
      010064C2H   LINE      CODE     ---       #64
      010064C2H   LINE      CODE     ---       #66
      010064C7H   LINE      CODE     ---       #67
      010064C7H   LINE      CODE     ---       #68
      010064C7H   LINE      CODE     ---       #70
      ---         BLOCKEND  ---      ---       LVL=0

      ---         MODULE    ---      ---       DATATRANS
      02000548H   PUBLIC    XDATA    BYTE      heartBeatPeriod
      00000024H.1 PUBLIC    BIT      BIT       uartRX_toutFLG
      020004AEH   PUBLIC    XDATA    ---       datsRcv_ZIGB
      02000481H   PUBLIC    XDATA    ---       datsSend_requestEx
      02000480H   PUBLIC    XDATA    BYTE      timeCounter_coordinatorLost_detecting
      0200047EH   PUBLIC    XDATA    ---       devNwkHoldTime_Param
      0200047DH   PUBLIC    XDATA    BYTE      factoryRecover_HoldTimeCount
      0000005FH   PUBLIC    DATA     BYTE      dtModeKeepAcess_currentCmd
      0200047CH   PUBLIC    XDATA    BYTE      colonyCtrlGet_queryCounter
      0200047BH   PUBLIC    XDATA    BYTE      heartBeatHang_timeCnt
      02000475H   PUBLIC    XDATA    ---       dev_agingCmd_rcvPassive
      00000024H.0 PUBLIC    BIT      BIT       factoryRecover_standBy_FLG
      00000023H.7 PUBLIC    BIT      BIT       reConnectAfterDatsReq_IF
      00000023H.6 PUBLIC    BIT      BIT       heartBeatCycle_FLG
      0000005EH   PUBLIC    DATA     BYTE      datsRcv_length
      02000473H   PUBLIC    XDATA    ---       devStatus_switch
      02000471H   PUBLIC    XDATA    ---       devRemoteDataReqMethod
      020003EDH   PUBLIC    XDATA    ---       datsRcv_respond
      020003ECH   PUBLIC    XDATA    BYTE      colonyCtrlGet_statusLocalScene
      020003AEH   PUBLIC    XDATA    ---       dev_currentDataPoint
      020003ABH   PUBLIC    XDATA    ---       localDataRecord_eaCtrl
      02000327H   PUBLIC    XDATA    ---       datsSend_request
      02000325H   PUBLIC    XDATA    WORD      zigbNwkAction_counter
      02000323H   PUBLIC    XDATA    WORD      dtReqEx_counter
      0000005DH   PUBLIC    DATA     BYTE      rxTout_count
      02000322H   PUBLIC    XDATA    BYTE      heartBeatCount
      0200031CH   PUBLIC    XDATA    ---       dev_agingCmd_sndInitative
      00000023H.5 PUBLIC    BIT      BIT       rxTout_count_EN
      0000005CH   PUBLIC    DATA     BYTE      devRunning_Status
      0200031BH   PUBLIC    XDATA    BYTE      colonyCtrlGetHang_timeCnt
      02000318H   PUBLIC    XDATA    ---       colonyCtrlGet_statusLocalEaCtrl
      00000023H.4 PUBLIC    BIT      BIT       coordinatorOnline_IF
      01001DC8H   PUBLIC    CODE     ---       thread_dataTrans
      010072E5H   PUBLIC    CODE     ---       fun_factoryRecoverOpreat
      0100735EH   PUBLIC    CODE     ---       devHoldStop_makeInAdvance
      00000020H.4 PUBLIC    BIT      BIT       ?devStatusChangeTo_devHold?BIT
      01006F4BH   PUBLIC    CODE     ---       devStatusChangeTo_devHold
      00000020H.4 PUBLIC    BIT      BIT       ?ZigB_nwkOpen?BIT
      0000002EH   PUBLIC    DATA     BYTE      ?ZigB_nwkOpen?BYTE
LX51 LINKER/LOCATER V4.66.41.0                                                        01/11/2019  12:04:15  PAGE 60


      01006C00H   PUBLIC    CODE     ---       ZigB_nwkOpen
      00000036H   PUBLIC    DATA     BYTE      ?_zigb_VALIDA_INPUT?BYTE
      0100620EH   PUBLIC    CODE     ---       _zigb_VALIDA_INPUT
      010072D4H   PUBLIC    CODE     ---       _periodDataTrans_momentHang
      0100617CH   PUBLIC    CODE     ---       UART1_Rountine
      010067C6H   PUBLIC    CODE     ---       uartObjZigb_Init
      0100729BH   PUBLIC    CODE     ---       zigbUart_pinInit
      000000D8H.2 SFRSYM    DATA     BIT       CCF2
      000000E0H.7 SFRSYM    DATA     BIT       ACC7
      00000093H   SFRSYM    DATA     BYTE      P0M1
      00000092H   SFRSYM    DATA     BYTE      P1M0
      00000096H   SFRSYM    DATA     BYTE      P2M0
      00000091H   SFRSYM    DATA     BYTE      P1M1
      00000080H   SFRSYM    DATA     BYTE      P0
      000000B2H   SFRSYM    DATA     BYTE      P3M0
      00000095H   SFRSYM    DATA     BYTE      P2M1
      00000090H   SFRSYM    DATA     BYTE      P1
      000000B4H   SFRSYM    DATA     BYTE      P4M0
      000000B1H   SFRSYM    DATA     BYTE      P3M1
      000000A0H   SFRSYM    DATA     BYTE      P2
      000000CAH   SFRSYM    DATA     BYTE      P5M0
      000000B3H   SFRSYM    DATA     BYTE      P4M1
      000000B0H   SFRSYM    DATA     BYTE      P3
      000000ABH   SFRSYM    DATA     BYTE      WKTCH
      000000B0H.4 SFRSYM    DATA     BIT       T0
      000000D0H.6 SFRSYM    DATA     BIT       AC
      000000CCH   SFRSYM    DATA     BYTE      P6M0
      000000C9H   SFRSYM    DATA     BYTE      P5M1
      000000C0H   SFRSYM    DATA     BYTE      P4
      000000B0H.5 SFRSYM    DATA     BIT       CLKOUT0
      000000B0H.5 SFRSYM    DATA     BIT       T1
      000000E2H   SFRSYM    DATA     BYTE      P7M0
      000000CBH   SFRSYM    DATA     BYTE      P6M1
      000000C8H   SFRSYM    DATA     BYTE      P5
      000000C6H   SFRSYM    DATA     BYTE      ISP_TRIG
      000000A8H.7 SFRSYM    DATA     BIT       EA
      000000B0H.4 SFRSYM    DATA     BIT       CLKOUT1
      000000A0H.4 SFRSYM    DATA     BIT       SPI_SS_2
      000000E8H   SFRSYM    DATA     BYTE      P6
      000000E1H   SFRSYM    DATA     BYTE      P7M1
      000000C8H.4 SFRSYM    DATA     BIT       SPI_SS_3
      00000090H.4 SFRSYM    DATA     BIT       SPI_MISO
      00000090H.3 SFRSYM    DATA     BIT       SPI_MOSI
      00000090H.1 SFRSYM    DATA     BIT       CCP0
      000000F8H   SFRSYM    DATA     BYTE      P7
      000000AAH   SFRSYM    DATA     BYTE      WKTCL
      00000090H   SFRSYM    DATA     BIT       CCP1
      000000CEH   SFRSYM    DATA     BYTE      SPCTL
      000000D8H.7 SFRSYM    DATA     BIT       CF
      000000B0H.7 SFRSYM    DATA     BIT       CCP2
      000000F9H   SFRSYM    DATA     BYTE      CH
      000000A2H   SFRSYM    DATA     BYTE      P_SW1
      000000BAH   SFRSYM    DATA     BYTE      P_SW2
      000000A8H.5 SFRSYM    DATA     BIT       EADC
      000000A0H.1 SFRSYM    DATA     BIT       SPI_SCLK_2
      000000A8H   SFRSYM    DATA     BYTE      IE
      000000C0H.3 SFRSYM    DATA     BIT       SPI_SCLK_3
      000000E9H   SFRSYM    DATA     BYTE      CL
      000000C5H   SFRSYM    DATA     BYTE      IAP_CMD
      000000FAH   SFRSYM    DATA     BYTE      CCAP0H
      00000090H   SFRSYM    DATA     BIT       Dcode0
      000000FBH   SFRSYM    DATA     BYTE      CCAP1H
      00000090H.1 SFRSYM    DATA     BIT       Dcode1
      000000FCH   SFRSYM    DATA     BYTE      CCAP2H
      00000090H.2 SFRSYM    DATA     BIT       Dcode2
LX51 LINKER/LOCATER V4.66.41.0                                                        01/11/2019  12:04:15  PAGE 61


      000000BDH   SFRSYM    DATA     BYTE      ADC_RES
      000000B6H   SFRSYM    DATA     BYTE      IPH2
      00000090H.3 SFRSYM    DATA     BIT       Dcode3
      000000D8H.6 SFRSYM    DATA     BIT       CR
      000000EAH   SFRSYM    DATA     BYTE      CCAP0L
      00000090H.4 SFRSYM    DATA     BIT       Dcode4
      000000B0H.7 SFRSYM    DATA     BIT       RD
      000000EBH   SFRSYM    DATA     BYTE      CCAP1L
      000000DAH   SFRSYM    DATA     BYTE      CCAPM0
      00000090H.3 SFRSYM    DATA     BIT       Dcode5
      000000ECH   SFRSYM    DATA     BYTE      CCAP2L
      000000DBH   SFRSYM    DATA     BYTE      CCAPM1
      000000A8H.4 SFRSYM    DATA     BIT       ES
      000000DCH   SFRSYM    DATA     BYTE      CCAPM2
      000000B8H.5 SFRSYM    DATA     BIT       PADC
      000000A0H.2 SFRSYM    DATA     BIT       SPI_MISO_2
      000000A0H.3 SFRSYM    DATA     BIT       SPI_MOSI_2
      000000B8H   SFRSYM    DATA     BYTE      IP
      000000C0H.1 SFRSYM    DATA     BIT       SPI_MISO_3
      000000C0H   SFRSYM    DATA     BIT       SPI_MOSI_3
      00000098H   SFRSYM    DATA     BIT       RI
      000000B0H.2 SFRSYM    DATA     BIT       INT0
      000000D0H.7 SFRSYM    DATA     BIT       CY
      00000098H.1 SFRSYM    DATA     BIT       TI
      000000B0H.3 SFRSYM    DATA     BIT       INT1
      00000097H   SFRSYM    DATA     BYTE      CLK_DIV
      000000C3H   SFRSYM    DATA     BYTE      IAP_ADDRH
      00000090H   SFRSYM    DATA     BIT       RXD2
      000000C5H   SFRSYM    DATA     BYTE      ISP_CMD
      000000B8H.4 SFRSYM    DATA     BIT       PS
      00000090H.1 SFRSYM    DATA     BIT       TXD2
      00000081H   SFRSYM    DATA     BYTE      SP
      000000D9H   SFRSYM    DATA     BYTE      CMOD
      000000D8H   SFRSYM    DATA     BYTE      CCON
      000000C4H   SFRSYM    DATA     BYTE      IAP_ADDRL
      000000B8H.7 SFRSYM    DATA     BIT       PPCA
      000000D0H.2 SFRSYM    DATA     BIT       OV
      000000B0H.6 SFRSYM    DATA     BIT       WR
      000000A8H.6 SFRSYM    DATA     BIT       ELVD
      00000080H   SFRSYM    DATA     BIT       P00
      00000090H   SFRSYM    DATA     BIT       P10
      00000080H.1 SFRSYM    DATA     BIT       P01
      000000BCH   SFRSYM    DATA     BYTE      ADC_CONTR
      00000099H   SFRSYM    DATA     BYTE      SBUF
      00000087H   SFRSYM    DATA     BYTE      PCON
      000000A0H   SFRSYM    DATA     BIT       P20
      00000090H.1 SFRSYM    DATA     BIT       P11
      00000080H.2 SFRSYM    DATA     BIT       P02
      000000C3H   SFRSYM    DATA     BYTE      ISP_ADDRH
      000000B0H   SFRSYM    DATA     BIT       P30
      000000A0H.1 SFRSYM    DATA     BIT       P21
      00000090H.2 SFRSYM    DATA     BIT       P12
      00000080H.3 SFRSYM    DATA     BIT       P03
      000000C0H   SFRSYM    DATA     BIT       P40
      000000B0H.1 SFRSYM    DATA     BIT       P31
      000000A0H.2 SFRSYM    DATA     BIT       P22
      00000090H.3 SFRSYM    DATA     BIT       P13
      00000080H.4 SFRSYM    DATA     BIT       P04
      00000098H   SFRSYM    DATA     BYTE      SCON
      0000008FH   SFRSYM    DATA     BYTE      WAKE_CLKO
      000000C8H   SFRSYM    DATA     BIT       P50
      000000C0H.1 SFRSYM    DATA     BIT       P41
      000000B0H.2 SFRSYM    DATA     BIT       P32
      000000A0H.3 SFRSYM    DATA     BIT       P23
      00000090H.4 SFRSYM    DATA     BIT       P14
LX51 LINKER/LOCATER V4.66.41.0                                                        01/11/2019  12:04:15  PAGE 62


      00000080H.5 SFRSYM    DATA     BIT       P05
      00000089H   SFRSYM    DATA     BYTE      TMOD
      00000088H   SFRSYM    DATA     BYTE      TCON
      000000C8H.1 SFRSYM    DATA     BIT       P51
      000000C0H.2 SFRSYM    DATA     BIT       P42
      000000B0H.3 SFRSYM    DATA     BIT       P33
      000000A0H.4 SFRSYM    DATA     BIT       P24
      00000090H.5 SFRSYM    DATA     BIT       P15
      00000080H.6 SFRSYM    DATA     BIT       P06
      000000C4H   SFRSYM    DATA     BYTE      ISP_ADDRL
      000000B8H.6 SFRSYM    DATA     BIT       PLVD
      000000C8H.2 SFRSYM    DATA     BIT       P52
      000000C0H.3 SFRSYM    DATA     BIT       P43
      000000B0H.4 SFRSYM    DATA     BIT       P34
      000000A0H.5 SFRSYM    DATA     BIT       P25
      00000090H.6 SFRSYM    DATA     BIT       P16
      00000080H.7 SFRSYM    DATA     BIT       P07
      000000C8H.3 SFRSYM    DATA     BIT       P53
      000000C0H.4 SFRSYM    DATA     BIT       P44
      000000B0H.5 SFRSYM    DATA     BIT       P35
      000000A0H.6 SFRSYM    DATA     BIT       P26
      00000090H.7 SFRSYM    DATA     BIT       P17
      000000C8H.4 SFRSYM    DATA     BIT       P54
      000000C0H.5 SFRSYM    DATA     BIT       P45
      000000B0H.6 SFRSYM    DATA     BIT       P36
      000000A0H.7 SFRSYM    DATA     BIT       P27
      000000C8H.5 SFRSYM    DATA     BIT       P55
      000000C0H.6 SFRSYM    DATA     BIT       P46
      000000B0H.7 SFRSYM    DATA     BIT       P37
      000000C8H.6 SFRSYM    DATA     BIT       P56
      000000C0H.7 SFRSYM    DATA     BIT       P47
      000000C8H.7 SFRSYM    DATA     BIT       P57
      00000088H.1 SFRSYM    DATA     BIT       IE0
      000000A1H   SFRSYM    DATA     BYTE      BUS_SPEED
      00000088H.3 SFRSYM    DATA     BIT       IE1
      000000AFH   SFRSYM    DATA     BYTE      IE2
      000000F0H   SFRSYM    DATA     BYTE      B
      0000008EH   SFRSYM    DATA     BYTE      AUXR
      000000C7H   SFRSYM    DATA     BYTE      IAP_CONTR
      000000E0H   SFRSYM    DATA     BYTE      ACC
      000000A8H.1 SFRSYM    DATA     BIT       ET0
      000000A8H.3 SFRSYM    DATA     BIT       ET1
      00000088H.5 SFRSYM    DATA     BIT       TF0
      00000088H.7 SFRSYM    DATA     BIT       TF1
      000000B5H   SFRSYM    DATA     BYTE      IP2
      0000008CH   SFRSYM    DATA     BYTE      RL_TH0
      00000098H.2 SFRSYM    DATA     BIT       RB8
      0000008DH   SFRSYM    DATA     BYTE      RL_TH1
      0000008CH   SFRSYM    DATA     BYTE      TH0
      000000A8H   SFRSYM    DATA     BIT       EX0
      00000088H   SFRSYM    DATA     BIT       IT0
      000000D6H   SFRSYM    DATA     BYTE      RL_T2H
      0000008DH   SFRSYM    DATA     BYTE      TH1
      00000090H.6 SFRSYM    DATA     BIT       touchPad_1
      000000A8H.2 SFRSYM    DATA     BIT       EX1
      00000098H.3 SFRSYM    DATA     BIT       TB8
      00000088H.2 SFRSYM    DATA     BIT       IT1
      000000D4H   SFRSYM    DATA     BYTE      RL_T3H
      000000D6H   SFRSYM    DATA     BYTE      TH2
      000000D6H   SFRSYM    DATA     BYTE      T2H
      00000090H.7 SFRSYM    DATA     BIT       touchPad_2
      000000D0H   SFRSYM    DATA     BIT       P
      000000D2H   SFRSYM    DATA     BYTE      RL_T4H
      000000D4H   SFRSYM    DATA     BYTE      TH3
      000000D4H   SFRSYM    DATA     BYTE      T3H
LX51 LINKER/LOCATER V4.66.41.0                                                        01/11/2019  12:04:15  PAGE 63


      0000008AH   SFRSYM    DATA     BYTE      RL_TL0
      00000090H.5 SFRSYM    DATA     BIT       touchPad_3
      00000098H.7 SFRSYM    DATA     BIT       SM0
      000000D2H   SFRSYM    DATA     BYTE      TH4
      000000D2H   SFRSYM    DATA     BYTE      T4H
      0000008BH   SFRSYM    DATA     BYTE      RL_TL1
      0000008AH   SFRSYM    DATA     BYTE      TL0
      00000098H.6 SFRSYM    DATA     BIT       SM1
      000000D7H   SFRSYM    DATA     BYTE      RL_T2L
      0000008BH   SFRSYM    DATA     BYTE      TL1
      00000098H.5 SFRSYM    DATA     BIT       SM2
      000000D5H   SFRSYM    DATA     BYTE      RL_T3L
      000000D7H   SFRSYM    DATA     BYTE      TL2
      000000D7H   SFRSYM    DATA     BYTE      T2L
      000000D3H   SFRSYM    DATA     BYTE      RL_T4L
      000000D5H   SFRSYM    DATA     BYTE      TL3
      000000D5H   SFRSYM    DATA     BYTE      T3L
      000000B8H.1 SFRSYM    DATA     BIT       PT0
      000000D3H   SFRSYM    DATA     BYTE      TL4
      000000D3H   SFRSYM    DATA     BYTE      T4L
      000000B8H.3 SFRSYM    DATA     BIT       PT1
      000000D0H.3 SFRSYM    DATA     BIT       RS0
      000000C7H   SFRSYM    DATA     BYTE      ISP_CONTR
      00000088H.4 SFRSYM    DATA     BIT       TR0
      000000D0H.4 SFRSYM    DATA     BIT       RS1
      000000C2H   SFRSYM    DATA     BYTE      IAP_DATA
      00000088H.6 SFRSYM    DATA     BIT       TR1
      000000B8H   SFRSYM    DATA     BIT       PX0
      000000C1H   SFRSYM    DATA     BYTE      WDT_CONTR
      000000B8H.2 SFRSYM    DATA     BIT       PX1
      000000F2H   SFRSYM    DATA     BYTE      PCA_PWM0
      000000F3H   SFRSYM    DATA     BYTE      PCA_PWM1
      000000F4H   SFRSYM    DATA     BYTE      PCA_PWM2
      0000009DH   SFRSYM    DATA     BYTE      P1ASF
      00000083H   SFRSYM    DATA     BYTE      DPH
      000000D1H   SFRSYM    DATA     BYTE      T4T3M
      000000BEH   SFRSYM    DATA     BYTE      ADC_RESL
      00000082H   SFRSYM    DATA     BYTE      DPL
      000000CDH   SFRSYM    DATA     BYTE      SPSTAT
      000000B7H   SFRSYM    DATA     BYTE      IPH
      0000009BH   SFRSYM    DATA     BYTE      S2BUF
      00000097H   SFRSYM    DATA     BYTE      PCON2
      000000ADH   SFRSYM    DATA     BYTE      S3BUF
      00000098H.4 SFRSYM    DATA     BIT       REN
      00000085H   SFRSYM    DATA     BYTE      S4BUF
      00000080H.2 SFRSYM    DATA     BIT       Usr_key
      0000009AH   SFRSYM    DATA     BYTE      S2CON
      000000ACH   SFRSYM    DATA     BYTE      S3CON
      000000C2H   SFRSYM    DATA     BYTE      ISP_DATA
      00000084H   SFRSYM    DATA     BYTE      S4CON
      000000B9H   SFRSYM    DATA     BYTE      SADEN
      000000B0H   SFRSYM    DATA     BIT       RXD
      000000A9H   SFRSYM    DATA     BYTE      SADDR
      000000B0H.1 SFRSYM    DATA     BIT       TXD
      000000F0H   SFRSYM    DATA     BIT       B0
      000000F0H.1 SFRSYM    DATA     BIT       B1
      000000C6H   SFRSYM    DATA     BYTE      IAP_TRIG
      000000A2H   SFRSYM    DATA     BYTE      AUXR1
      000000F0H.2 SFRSYM    DATA     BIT       B2
      00000090H.2 SFRSYM    DATA     BIT       SPI_SS
      0000008FH   SFRSYM    DATA     BYTE      AUXR2
      000000F0H.3 SFRSYM    DATA     BIT       B3
      000000F0H.4 SFRSYM    DATA     BIT       B4
      000000D0H.5 SFRSYM    DATA     BIT       F0
      000000F0H.5 SFRSYM    DATA     BIT       B5
LX51 LINKER/LOCATER V4.66.41.0                                                        01/11/2019  12:04:15  PAGE 64


      000000D0H.1 SFRSYM    DATA     BIT       F1
      0000008FH   SFRSYM    DATA     BYTE      INT_CLKO
      000000F0H.6 SFRSYM    DATA     BIT       B6
      000000E0H   SFRSYM    DATA     BIT       ACC0
      000000F0H.7 SFRSYM    DATA     BIT       B7
      000000E0H.1 SFRSYM    DATA     BIT       ACC1
      000000E0H.2 SFRSYM    DATA     BIT       ACC2
      000000E0H.3 SFRSYM    DATA     BIT       ACC3
      000000D0H   SFRSYM    DATA     BYTE      PSW
      000000E0H.4 SFRSYM    DATA     BIT       ACC4
      00000090H.5 SFRSYM    DATA     BIT       SPI_SCLK
      000000D8H   SFRSYM    DATA     BIT       CCF0
      000000E0H.5 SFRSYM    DATA     BIT       ACC5
      000000D8H.1 SFRSYM    DATA     BIT       CCF1
      000000E0H.6 SFRSYM    DATA     BIT       ACC6
      000000CFH   SFRSYM    DATA     BYTE      SPDAT
      00000094H   SFRSYM    DATA     BYTE      P0M0
      0100540BH   SYMBOL    CODE     ---       _zigB_sysTimeSet
      01006CE1H   SYMBOL    CODE     ---       ZigB_getPanIDCurrent
      010069E6H   SYMBOL    CODE     ---       _zigb_datsRequest
      0100464AH   SYMBOL    CODE     ---       dataTransRequest_datsSend
      0100588EH   SYMBOL    CODE     ---       getSystemTime_reales
      0100430BH   SYMBOL    CODE     ---       zigB_nwkJoinRequest
      0100066FH   SYMBOL    CODE     ---       _?ix1000
      01000F47H   SYMBOL    CODE     ---       _?ix1010
      010006AFH   SYMBOL    CODE     ---       _?ix1001
      01001265H   SYMBOL    CODE     ---       _?ix1020
      01000FE0H   SYMBOL    CODE     ---       _?ix1011
      01000795H   SYMBOL    CODE     ---       _?ix1002
      01001020H   SYMBOL    CODE     ---       _?ix1012
      01000798H   SYMBOL    CODE     ---       _?ix1003
      01001025H   SYMBOL    CODE     ---       _?ix1013
      010007C0H   SYMBOL    CODE     ---       _?ix1004
      01001028H   SYMBOL    CODE     ---       _?ix1014
      0100086DH   SYMBOL    CODE     ---       _?ix1005
      0100104AH   SYMBOL    CODE     ---       _?ix1015
      01005D28H   SYMBOL    CODE     ---       function_devNwkHold
      01000DC3H   SYMBOL    CODE     ---       _?ix1006
      010010E9H   SYMBOL    CODE     ---       _?ix1016
      01000E03H   SYMBOL    CODE     ---       _?ix1007
      01001127H   SYMBOL    CODE     ---       _?ix1017
      01000E15H   SYMBOL    CODE     ---       _?ix1008
      01001131H   SYMBOL    CODE     ---       _?ix1018
      01000EAEH   SYMBOL    CODE     ---       _?ix1009
      010011CAH   SYMBOL    CODE     ---       _?ix1019
      010070CFH   SYMBOL    CODE     ---       _frame_Check
      01006DACH   SYMBOL    CODE     ---       _dataParing_scenarioCtrl
      0100126BH   SYMBOL    CODE     ---       _dataParing_Nomal
      01006658H   SYMBOL    CODE     ---       _zigb_datsLoad_datsSend
      01006DEBH   SYMBOL    CODE     ---       _dataSendRemote_straightforward
      01005B7AH   SYMBOL    CODE     ---       dtasTX_loadBasic_CUST
      01004D22H   SYMBOL    CODE     ---       _dataParing_zigbSysCtrl
      010063B5H   SYMBOL    CODE     ---       _ZigB_TXFrameLoad

      01003545H   BLOCK     CODE     ---       LVL=0
      ---         BLOCKEND  ---      ---       LVL=0

      0100729BH   BLOCK     CODE     ---       LVL=0
      0100729BH   LINE      CODE     ---       #76
      0100729BH   LINE      CODE     ---       #79
      0100729EH   LINE      CODE     ---       #80
      010072A1H   LINE      CODE     ---       #83
      010072A4H   LINE      CODE     ---       #84
      010072A7H   LINE      CODE     ---       #94
      010072AAH   LINE      CODE     ---       #95
LX51 LINKER/LOCATER V4.66.41.0                                                        01/11/2019  12:04:15  PAGE 65


      010072ADH   LINE      CODE     ---       #97
      ---         BLOCKEND  ---      ---       LVL=0

      010067C6H   BLOCK     CODE     ---       LVL=0
      010067D2H   BLOCK     CODE     NEAR LAB  LVL=1
      00000027H   SYMBOL    DATA     DWORD     j
      ---         BLOCKEND  ---      ---       LVL=1
      010067C6H   LINE      CODE     ---       #100
      010067C6H   LINE      CODE     ---       #102
      010067C8H   LINE      CODE     ---       #104
      010067CAH   LINE      CODE     ---       #105
      010067D2H   LINE      CODE     ---       #107
      010067D2H   LINE      CODE     ---       #108
      010067DCH   LINE      CODE     ---       #109
      010067F1H   LINE      CODE     ---       #111
      010067FFH   LINE      CODE     ---       #112
      01006802H   LINE      CODE     ---       #113
      01006802H   LINE      CODE     ---       #114
      01006805H   LINE      CODE     ---       #115
      01006808H   LINE      CODE     ---       #116
      0100680BH   LINE      CODE     ---       #117
      0100680EH   LINE      CODE     ---       #119
      01006811H   LINE      CODE     ---       #120
      01006814H   LINE      CODE     ---       #121
      01006817H   LINE      CODE     ---       #123
      01006819H   LINE      CODE     ---       #124
      0100681BH   LINE      CODE     ---       #125
      0100681EH   LINE      CODE     ---       #127
      01006825H   LINE      CODE     ---       #129
      01006827H   LINE      CODE     ---       #131
      01006830H   LINE      CODE     ---       #132
      ---         BLOCKEND  ---      ---       LVL=0

      0100617CH   BLOCK     CODE     ---       LVL=0
      0100617CH   LINE      CODE     ---       #155
      01006199H   LINE      CODE     ---       #158
      0100619CH   LINE      CODE     ---       #159
      0100619CH   LINE      CODE     ---       #160
      0100619EH   LINE      CODE     ---       #161
      010061A2H   LINE      CODE     ---       #162
      010061A2H   LINE      CODE     ---       #168
      010061A5H   LINE      CODE     ---       #170
      010061A7H   LINE      CODE     ---       #171
      010061A9H   LINE      CODE     ---       #172
      010061ABH   LINE      CODE     ---       #174
      010061B5H   LINE      CODE     ---       #175
      010061B5H   LINE      CODE     ---       #177
      010061C6H   LINE      CODE     ---       #178
      010061C9H   LINE      CODE     ---       #179
      010061C9H   LINE      CODE     ---       #180
      010061C9H   LINE      CODE     ---       #182
      010061CCH   LINE      CODE     ---       #183
      010061CCH   LINE      CODE     ---       #184
      010061CEH   LINE      CODE     ---       #185
      010061D4H   LINE      CODE     ---       #186
      010061D4H   LINE      CODE     ---       #187
      010061E2H   LINE      CODE     ---       #188
      010061EEH   LINE      CODE     ---       #189
      010061F0H   LINE      CODE     ---       #190
      010061F3H   LINE      CODE     ---       #191
      010061F3H   LINE      CODE     ---       #192
      ---         BLOCKEND  ---      ---       LVL=0

      010070CFH   BLOCK     CODE     ---       LVL=0
      00000039H   SYMBOL    DATA     ---       frame_temp
LX51 LINKER/LOCATER V4.66.41.0                                                        01/11/2019  12:04:15  PAGE 66


      00000005H   SYMBOL    DATA     BYTE      check_num
      010070D5H   BLOCK     CODE     NEAR LAB  LVL=1
      00000007H   SYMBOL    DATA     BYTE      loop
      00000006H   SYMBOL    DATA     BYTE      val_Check
      ---         BLOCKEND  ---      ---       LVL=1
      010070CFH   LINE      CODE     ---       #196
      010070D5H   LINE      CODE     ---       #198
      010070D7H   LINE      CODE     ---       #199
      010070D8H   LINE      CODE     ---       #201
      010070DDH   LINE      CODE     ---       #203
      010070E8H   LINE      CODE     ---       #204
      010070EBH   LINE      CODE     ---       #206
      010070EEH   LINE      CODE     ---       #207
      010070F1H   LINE      CODE     ---       #209
      010070F3H   LINE      CODE     ---       #210
      ---         BLOCKEND  ---      ---       LVL=0

      01005B7AH   BLOCK     CODE     ---       LVL=0
      00000020H.6 SYMBOL    BIT      BIT       ifRemoteDats
      00000033H   SYMBOL    DATA     ---       dats_Tx
      00000036H   SYMBOL    DATA     BYTE      datsLen_TX
      00000037H   SYMBOL    DATA     BYTE      frame_Type
      00000038H   SYMBOL    DATA     BYTE      frame_CMD
      00000020H.7 SYMBOL    BIT      BIT       ifSpecial_CMD
      01005BC5H   BLOCK     CODE     NEAR LAB  LVL=1
      02000213H   SYMBOL    XDATA    ---       dats_Temp
      ---         BLOCKEND  ---      ---       LVL=1
      01005B7AH   LINE      CODE     ---       #214
      01005B7AH   LINE      CODE     ---       #219
      01005B7AH   LINE      CODE     ---       #221
      01005B85H   LINE      CODE     ---       #222
      01005B8DH   LINE      CODE     ---       #224
      01005B9BH   LINE      CODE     ---       #226
      01005BA8H   LINE      CODE     ---       #228
      01005BC2H   LINE      CODE     ---       #230
      01005BC5H   LINE      CODE     ---       #232
      01005BD2H   LINE      CODE     ---       #234
      01005BDAH   LINE      CODE     ---       #235
      01005BE7H   LINE      CODE     ---       #237
      01005BF4H   LINE      CODE     ---       #238
      01005C0DH   LINE      CODE     ---       #239
      01005C20H   LINE      CODE     ---       #240
      01005C30H   LINE      CODE     ---       #241
      01005C3AH   LINE      CODE     ---       #243
      01005C3DH   LINE      CODE     ---       #245
      01005C3DH   LINE      CODE     ---       #247
      01005C45H   LINE      CODE     ---       #248
      01005C50H   LINE      CODE     ---       #250
      01005C52H   LINE      CODE     ---       #251
      01005C52H   LINE      CODE     ---       #252
      ---         BLOCKEND  ---      ---       LVL=0
      00000005H   SYMBOL    DATA     BYTE      length
      00000007H   SYMBOL    DATA     BYTE      loop
      00000006H   SYMBOL    DATA     BYTE      valXOR

      010063B5H   BLOCK     CODE     ---       LVL=0
      00000046H   SYMBOL    DATA     ---       frame
      00000049H   SYMBOL    DATA     ---       cmd
      0000004CH   SYMBOL    DATA     BYTE      cmdLen
      0000004DH   SYMBOL    DATA     ---       dats
      00000050H   SYMBOL    DATA     BYTE      datsLen
      010063BBH   BLOCK     CODE     NEAR LAB  LVL=1
      00000007H   SYMBOL    DATA     BYTE      frameHead
      00000051H   SYMBOL    DATA     BYTE      xor_check
      00000006H   SYMBOL    DATA     BYTE      loop
LX51 LINKER/LOCATER V4.66.41.0                                                        01/11/2019  12:04:15  PAGE 67


      00000052H   SYMBOL    DATA     BYTE      ptr
      ---         BLOCKEND  ---      ---       LVL=1
      010063B5H   LINE      CODE     ---       #268
      010063BBH   LINE      CODE     ---       #270
      010063BBH   LINE      CODE     ---       #271
      010063BEH   LINE      CODE     ---       #272
      010063BFH   LINE      CODE     ---       #273
      010063C1H   LINE      CODE     ---       #275
      010063CEH   LINE      CODE     ---       #276
      010063D6H   LINE      CODE     ---       #278
      010063E4H   LINE      CODE     ---       #279
      010063EAH   LINE      CODE     ---       #280
      01006402H   LINE      CODE     ---       #282
      01006410H   LINE      CODE     ---       #283
      01006416H   LINE      CODE     ---       #284
      0100642EH   LINE      CODE     ---       #286
      0100643CH   LINE      CODE     ---       #288
      0100643EH   LINE      CODE     ---       #289
      ---         BLOCKEND  ---      ---       LVL=0

      010072D4H   BLOCK     CODE     ---       LVL=0
      00000007H   SYMBOL    DATA     BYTE      hangTime
      010072D4H   LINE      CODE     ---       #292
      010072D4H   LINE      CODE     ---       #294
      010072D8H   LINE      CODE     ---       #295
      010072DBH   LINE      CODE     ---       #297
      010072E4H   LINE      CODE     ---       #298
      ---         BLOCKEND  ---      ---       LVL=0

      010069E6H   BLOCK     CODE     ---       LVL=0
      0000003AH   SYMBOL    DATA     ---       frameREQ
      0000003DH   SYMBOL    DATA     BYTE      frameREQ_Len
      0000003EH   SYMBOL    DATA     ---       resp_cmd
      00000041H   SYMBOL    DATA     ---       resp_dats
      00000044H   SYMBOL    DATA     BYTE      loopReapt
      00000045H   SYMBOL    DATA     WORD      timeWait
      010069EEH   BLOCK     CODE     NEAR LAB  LVL=1
      00000047H   SYMBOL    DATA     WORD      Local_Delay
      00000049H   SYMBOL    DATA     BYTE      loop
      ---         BLOCKEND  ---      ---       LVL=1
      010069E6H   LINE      CODE     ---       #302
      010069EEH   LINE      CODE     ---       #306
      010069EEH   LINE      CODE     ---       #308
      010069F4H   LINE      CODE     ---       #309
      010069F7H   LINE      CODE     ---       #311
      01006A00H   LINE      CODE     ---       #313
      01006A02H   LINE      CODE     ---       #314
      01006A0CH   LINE      CODE     ---       #315
      01006A17H   LINE      CODE     ---       #317
      01006A21H   LINE      CODE     ---       #319
      01006A24H   LINE      CODE     ---       #321
      01006A26H   LINE      CODE     ---       #323
      01006A31H   LINE      CODE     ---       #325
      01006A41H   LINE      CODE     ---       #326
      01006A47H   LINE      CODE     ---       #328
      01006A47H   LINE      CODE     ---       #329
      01006A47H   LINE      CODE     ---       #330
      01006A47H   LINE      CODE     ---       #331
      01006A4BH   LINE      CODE     ---       #333
      01006A4DH   LINE      CODE     ---       #334
      ---         BLOCKEND  ---      ---       LVL=0

      0100620EH   BLOCK     CODE     ---       LVL=0
      00000036H   SYMBOL    DATA     ---       REQ_CMD
      00000039H   SYMBOL    DATA     ---       REQ_DATS
LX51 LINKER/LOCATER V4.66.41.0                                                        01/11/2019  12:04:15  PAGE 68


      0000003CH   SYMBOL    DATA     BYTE      REQdatsLen
      0000003DH   SYMBOL    DATA     ---       ANSR_frame
      00000040H   SYMBOL    DATA     BYTE      ANSRdatsLen
      00000041H   SYMBOL    DATA     BYTE      times
      00000042H   SYMBOL    DATA     WORD      timeDelay
      01006214H   BLOCK     CODE     NEAR LAB  LVL=1
      02000168H   SYMBOL    XDATA    ---       dataTXBUF
      00000044H   SYMBOL    DATA     BYTE      loop
      00000045H   SYMBOL    DATA     BYTE      datsTX_Len
      ---         BLOCKEND  ---      ---       LVL=1
      0100620EH   LINE      CODE     ---       #337
      01006214H   LINE      CODE     ---       #342
      01006214H   LINE      CODE     ---       #345
      01006221H   LINE      CODE     ---       #346
      01006224H   LINE      CODE     ---       #349
      01006247H   LINE      CODE     ---       #351
      01006251H   LINE      CODE     ---       #353
      01006253H   LINE      CODE     ---       #354
      0100625DH   LINE      CODE     ---       #355
      01006268H   LINE      CODE     ---       #357
      01006272H   LINE      CODE     ---       #359
      01006275H   LINE      CODE     ---       #361
      01006277H   LINE      CODE     ---       #363
      0100628EH   LINE      CODE     ---       #365
      01006295H   LINE      CODE     ---       #366
      01006297H   LINE      CODE     ---       #367
      01006297H   LINE      CODE     ---       #368
      01006297H   LINE      CODE     ---       #369
      01006297H   LINE      CODE     ---       #370
      0100629BH   LINE      CODE     ---       #372
      0100629CH   LINE      CODE     ---       #373
      ---         BLOCKEND  ---      ---       LVL=0

      01006C00H   BLOCK     CODE     ---       LVL=0
      00000020H.4 SYMBOL    BIT      BIT       openIF
      0000002EH   SYMBOL    DATA     BYTE      openTime
      01006C00H   BLOCK     CODE     NEAR LAB  LVL=1
      0100070FH   SYMBOL    CODE     ---       default_param
      00000020H.5 SYMBOL    BIT      BIT       resultSet
      0000002FH   SYMBOL    DATA     BYTE      openTime_temp
      0200015DH   SYMBOL    XDATA    ---       paramTX_temp
      ---         BLOCKEND  ---      ---       LVL=1
      01006C00H   LINE      CODE     ---       #488
      01006C00H   LINE      CODE     ---       #492
      01006C02H   LINE      CODE     ---       #494
      01006C05H   LINE      CODE     ---       #497
      01006C13H   LINE      CODE     ---       #499
      01006C23H   LINE      CODE     ---       #504
      01006C4BH   LINE      CODE     ---       #518
      01006C4DH   LINE      CODE     ---       #519
      ---         BLOCKEND  ---      ---       LVL=0

      01006CE1H   BLOCK     CODE     ---       LVL=0
      01006CE1H   BLOCK     CODE     NEAR LAB  LVL=1
      00000038H   SYMBOL    DATA     WORD      PANID_temp
      0200017CH   SYMBOL    XDATA    ---       paramTX_temp
      010007B8H   SYMBOL    CODE     ---       frameREQ_zigbPanIDGet
      010007BEH   SYMBOL    CODE     ---       cmdResp_zigbPanIDGet
      00000007H   SYMBOL    DATA     BYTE      datsResp_Len
      ---         BLOCKEND  ---      ---       LVL=1
      01006CE1H   LINE      CODE     ---       #522
      01006CE1H   LINE      CODE     ---       #524
      01006CE6H   LINE      CODE     ---       #527
      01006CF3H   LINE      CODE     ---       #531
      01006CF5H   LINE      CODE     ---       #533
LX51 LINKER/LOCATER V4.66.41.0                                                        01/11/2019  12:04:15  PAGE 69


      01006D13H   LINE      CODE     ---       #535
      01006D16H   LINE      CODE     ---       #537
      01006D1CH   LINE      CODE     ---       #538
      01006D22H   LINE      CODE     ---       #541
      01006D22H   LINE      CODE     ---       #543
      01006D26H   LINE      CODE     ---       #544
      ---         BLOCKEND  ---      ---       LVL=0

      0100588EH   BLOCK     CODE     ---       LVL=0
      0100588EH   BLOCK     CODE     NEAR LAB  LVL=1
      00000020H.2 SYMBOL    BIT      BIT       resultOpreat
      0200013BH   SYMBOL    XDATA    ---       paramTX_temp
      010007E0H   SYMBOL    CODE     ---       frameREQ_zigbSystimeGet
      010007E5H   SYMBOL    CODE     ---       cmdResp_zigbSystimeGet
      00000007H   SYMBOL    DATA     BYTE      datsResp_Len
      010058C5H   BLOCK     CODE     NEAR LAB  LVL=2
      00000027H   SYMBOL    DATA     WORD      Y_temp16
      00000029H   SYMBOL    DATA     BYTE      Y_temp8
      0000002AH   SYMBOL    DATA     BYTE      M_temp8
      0000002BH   SYMBOL    DATA     BYTE      Y
      0000002CH   SYMBOL    DATA     BYTE      M
      0000002DH   SYMBOL    DATA     BYTE      D
      0000002EH   SYMBOL    DATA     BYTE      W
      ---         BLOCKEND  ---      ---       LVL=2
      ---         BLOCKEND  ---      ---       LVL=1
      0100588EH   LINE      CODE     ---       #547
      0100588EH   LINE      CODE     ---       #549
      01005890H   LINE      CODE     ---       #552
      0100589DH   LINE      CODE     ---       #556
      0100589FH   LINE      CODE     ---       #558
      010058BDH   LINE      CODE     ---       #560
      010058C5H   LINE      CODE     ---       #561
      010058C5H   LINE      CODE     ---       #563
      010058D5H   LINE      CODE     ---       #564
      010058D8H   LINE      CODE     ---       #565
      010058DAH   LINE      CODE     ---       #567
      010058E7H   LINE      CODE     ---       #568
      010058EDH   LINE      CODE     ---       #569
      010058F1H   LINE      CODE     ---       #570
      010058F4H   LINE      CODE     ---       #573
      010058F7H   LINE      CODE     ---       #574
      01005902H   LINE      CODE     ---       #576
      01005908H   LINE      CODE     ---       #577
      0100590AH   LINE      CODE     ---       #578
      0100590CH   LINE      CODE     ---       #579
      0100590FH   LINE      CODE     ---       #582
      01005932H   LINE      CODE     ---       #583
      01005939H   LINE      CODE     ---       #586
      01005946H   LINE      CODE     ---       #588
      0100594CH   LINE      CODE     ---       #589
      01005952H   LINE      CODE     ---       #590
      01005958H   LINE      CODE     ---       #592
      01005960H   LINE      CODE     ---       #593
      01005968H   LINE      CODE     ---       #594
      01005971H   LINE      CODE     ---       #597
      01005985H   LINE      CODE     ---       #599
      01005987H   LINE      CODE     ---       #600
      01005987H   LINE      CODE     ---       #611
      01005989H   LINE      CODE     ---       #612
      ---         BLOCKEND  ---      ---       LVL=0

      0100540BH   BLOCK     CODE     ---       LVL=0
      0000002EH   SYMBOL    DATA     DWORD     timeStamp
      00000020H.4 SYMBOL    BIT      BIT       timeZoneAdjust_IF
      01005413H   BLOCK     CODE     NEAR LAB  LVL=1
LX51 LINKER/LOCATER V4.66.41.0                                                        01/11/2019  12:04:15  PAGE 70


      010007E7H   SYMBOL    CODE     ---       default_param
      0200015DH   SYMBOL    XDATA    ---       timeStampArray
      00000020H.5 SYMBOL    BIT      BIT       resultSet
      00000032H   SYMBOL    DATA     DWORD     timeStamp_temp
      ---         BLOCKEND  ---      ---       LVL=1
      0100540BH   LINE      CODE     ---       #616
      01005413H   LINE      CODE     ---       #619
      01005420H   LINE      CODE     ---       #620
      01005422H   LINE      CODE     ---       #621
      0100542EH   LINE      CODE     ---       #623
      01005434H   LINE      CODE     ---       #625
      0100543DH   LINE      CODE     ---       #627
      01005467H   LINE      CODE     ---       #629
      01005469H   LINE      CODE     ---       #630
      01005479H   LINE      CODE     ---       #632
      010054B3H   LINE      CODE     ---       #634
      010054B5H   LINE      CODE     ---       #635
      010054BFH   LINE      CODE     ---       #637
      010054F8H   LINE      CODE     ---       #638
      010054F8H   LINE      CODE     ---       #639
      010054F8H   LINE      CODE     ---       #641
      01005500H   LINE      CODE     ---       #642
      0100550CH   LINE      CODE     ---       #643
      01005518H   LINE      CODE     ---       #644
      01005524H   LINE      CODE     ---       #649
      0100554CH   LINE      CODE     ---       #663
      0100554EH   LINE      CODE     ---       #664
      ---         BLOCKEND  ---      ---       LVL=0

      0100430BH   BLOCK     CODE     ---       LVL=0
      00000020H.2 SYMBOL    BIT      BIT       reJoin_IF
      0100430BH   BLOCK     CODE     NEAR LAB  LVL=1
      01000878H   SYMBOL    CODE     ---       ZigbInit_dats
      01000D2EH   SYMBOL    CODE     ---       defaultParam_clusterRegister
      01000DB4H   SYMBOL    CODE     ---       frameResponseSubs_clusterRegister
      01000DBAH   SYMBOL    CODE     ---       cluster_Default
      0200013BH   SYMBOL    XDATA    ---       paramTX_temp
      02000314H   SYMBOL    XDATA    BYTE      step_CortexA
      02000315H   SYMBOL    XDATA    BYTE      step_CortexB
      02000316H   SYMBOL    XDATA    BYTE      reactionLoop
      0200017BH   SYMBOL    XDATA    BYTE      actionReaptDefine_normal
      00000027H   SYMBOL    DATA     BYTE      datsTX_Len
      0100438BH   BLOCK     CODE     NEAR LAB  LVL=2
      02000313H   SYMBOL    XDATA    BYTE      stepDisp_CortexA
      00000028H   SYMBOL    DATA     ---       datsREG_cluster
      ---         BLOCKEND  ---      ---       LVL=2
      01004501H   BLOCK     CODE     NEAR LAB  LVL=2
      00000028H   SYMBOL    DATA     ---       datsREG_cluster
      ---         BLOCKEND  ---      ---       LVL=2
      ---         BLOCKEND  ---      ---       LVL=1
      0100430BH   LINE      CODE     ---       #733
      0100430BH   LINE      CODE     ---       #769
      01004318H   LINE      CODE     ---       #774
      0100431EH   LINE      CODE     ---       #776
      01004321H   LINE      CODE     ---       #778
      01004329H   LINE      CODE     ---       #780
      01004329H   LINE      CODE     ---       #781
      0100432CH   LINE      CODE     ---       #783
      01004331H   LINE      CODE     ---       #784
      01004333H   LINE      CODE     ---       #785
      01004335H   LINE      CODE     ---       #786
      01004338H   LINE      CODE     ---       #789
      01004338H   LINE      CODE     ---       #791
      01004341H   LINE      CODE     ---       #793
      01004343H   LINE      CODE     ---       #794
LX51 LINKER/LOCATER V4.66.41.0                                                        01/11/2019  12:04:15  PAGE 71


      01004345H   LINE      CODE     ---       #795
      01004347H   LINE      CODE     ---       #796
      01004349H   LINE      CODE     ---       #798
      0100434FH   LINE      CODE     ---       #800
      01004352H   LINE      CODE     ---       #801
      01004355H   LINE      CODE     ---       #803
      01004358H   LINE      CODE     ---       #806
      01004358H   LINE      CODE     ---       #807
      01004358H   LINE      CODE     ---       #808
      01004367H   LINE      CODE     ---       #809
      0100436DH   LINE      CODE     ---       #810
      0100436DH   LINE      CODE     ---       #814
      0100436DH   LINE      CODE     ---       #816
      01004379H   LINE      CODE     ---       #817
      0100438BH   LINE      CODE     ---       #820
      0100438BH   LINE      CODE     ---       #824
      01004392H   LINE      CODE     ---       #826
      01004398H   LINE      CODE     ---       #827
      01004398H   LINE      CODE     ---       #828
      010043B6H   LINE      CODE     ---       #829
      010043BCH   LINE      CODE     ---       #830
      010043BCH   LINE      CODE     ---       #831
      010043BCH   LINE      CODE     ---       #834
      010043C3H   LINE      CODE     ---       #836
      010043C9H   LINE      CODE     ---       #838
      010043C9H   LINE      CODE     ---       #840
      010043DAH   LINE      CODE     ---       #842
      010043DAH   LINE      CODE     ---       #844
      010043DAH   LINE      CODE     ---       #845
      010043DDH   LINE      CODE     ---       #846
      010043DDH   LINE      CODE     ---       #848
      010043E0H   LINE      CODE     ---       #850
      010043E0H   LINE      CODE     ---       #852
      010043EDH   LINE      CODE     ---       #854
      010043EDH   LINE      CODE     ---       #855
      010043F0H   LINE      CODE     ---       #856
      010043F6H   LINE      CODE     ---       #857
      010043F6H   LINE      CODE     ---       #859
      010043F7H   LINE      CODE     ---       #861
      010043F7H   LINE      CODE     ---       #863
      01004405H   LINE      CODE     ---       #865
      0100440BH   LINE      CODE     ---       #867
      0100440DH   LINE      CODE     ---       #869
      01004421H   LINE      CODE     ---       #871
      01004421H   LINE      CODE     ---       #872
      01004421H   LINE      CODE     ---       #873
      01004421H   LINE      CODE     ---       #874
      01004421H   LINE      CODE     ---       #875
      01004421H   LINE      CODE     ---       #877
      01004424H   LINE      CODE     ---       #878
      01004424H   LINE      CODE     ---       #880
      01004424H   LINE      CODE     ---       #881
      01004424H   LINE      CODE     ---       #882
      01004424H   LINE      CODE     ---       #883
      01004439H   LINE      CODE     ---       #887
      01004444H   LINE      CODE     ---       #889
      01004444H   LINE      CODE     ---       #891
      01004457H   LINE      CODE     ---       #893
      01004464H   LINE      CODE     ---       #895
      01004464H   LINE      CODE     ---       #896
      01004464H   LINE      CODE     ---       #897
      01004467H   LINE      CODE     ---       #898
      01004467H   LINE      CODE     ---       #900
      0100449AH   LINE      CODE     ---       #906
      010044A2H   LINE      CODE     ---       #908
LX51 LINKER/LOCATER V4.66.41.0                                                        01/11/2019  12:04:15  PAGE 72


      010044B2H   LINE      CODE     ---       #909
      010044B2H   LINE      CODE     ---       #911
      010044B5H   LINE      CODE     ---       #913
      010044B5H   LINE      CODE     ---       #915
      010044BFH   LINE      CODE     ---       #917
      010044BFH   LINE      CODE     ---       #918
      010044BFH   LINE      CODE     ---       #919
      010044C2H   LINE      CODE     ---       #921
      010044C8H   LINE      CODE     ---       #923
      010044CAH   LINE      CODE     ---       #925
      010044F2H   LINE      CODE     ---       #927
      010044F2H   LINE      CODE     ---       #928
      010044F2H   LINE      CODE     ---       #929
      010044F2H   LINE      CODE     ---       #930
      010044F2H   LINE      CODE     ---       #931
      010044F2H   LINE      CODE     ---       #933
      010044F5H   LINE      CODE     ---       #934
      010044F5H   LINE      CODE     ---       #936
      010044F5H   LINE      CODE     ---       #937
      01004501H   LINE      CODE     ---       #939
      0100450EH   LINE      CODE     ---       #940
      01004525H   LINE      CODE     ---       #941
      0100452FH   LINE      CODE     ---       #943
      01004542H   LINE      CODE     ---       #944
      01004558H   LINE      CODE     ---       #945
      0100455BH   LINE      CODE     ---       #947
      0100455DH   LINE      CODE     ---       #949
      01004573H   LINE      CODE     ---       #951
      01004575H   LINE      CODE     ---       #952
      01004578H   LINE      CODE     ---       #953
      0100457BH   LINE      CODE     ---       #955
      0100457BH   LINE      CODE     ---       #959
      0100457BH   LINE      CODE     ---       #960
      0100457BH   LINE      CODE     ---       #962
      01004588H   LINE      CODE     ---       #964
      01004588H   LINE      CODE     ---       #966
      01004591H   LINE      CODE     ---       #968
      01004593H   LINE      CODE     ---       #969
      01004597H   LINE      CODE     ---       #970
      01004598H   LINE      CODE     ---       #971
      01004598H   LINE      CODE     ---       #973
      010045B0H   LINE      CODE     ---       #979
      010045B8H   LINE      CODE     ---       #981
      010045BFH   LINE      CODE     ---       #982
      010045C5H   LINE      CODE     ---       #984
      010045C6H   LINE      CODE     ---       #986
      010045C6H   LINE      CODE     ---       #988
      010045D0H   LINE      CODE     ---       #990
      010045D6H   LINE      CODE     ---       #991
      010045DBH   LINE      CODE     ---       #992
      010045DCH   LINE      CODE     ---       #994
      010045DFH   LINE      CODE     ---       #996
      010045E1H   LINE      CODE     ---       #998
      01004613H   LINE      CODE     ---       #999
      01004613H   LINE      CODE     ---       #1001
      01004618H   LINE      CODE     ---       #1002
      0100461AH   LINE      CODE     ---       #1003
      01004620H   LINE      CODE     ---       #1004
      01004620H   LINE      CODE     ---       #1005
      01004620H   LINE      CODE     ---       #1007
      01004620H   LINE      CODE     ---       #1008
      01004620H   LINE      CODE     ---       #1009
      01004620H   LINE      CODE     ---       #1010
      ---         BLOCKEND  ---      ---       LVL=0

LX51 LINKER/LOCATER V4.66.41.0                                                        01/11/2019  12:04:15  PAGE 73


      01006658H   BLOCK     CODE     ---       LVL=0
      00000032H   SYMBOL    DATA     ---       frame_Temp
      00000035H   SYMBOL    DATA     WORD      DstAddr
      00000037H   SYMBOL    DATA     BYTE      portPoint
      00000038H   SYMBOL    DATA     ---       dats
      0000003BH   SYMBOL    DATA     BYTE      datsLen
      01006662H   BLOCK     CODE     NEAR LAB  LVL=1
      01000E13H   SYMBOL    CODE     ---       zigbCMD_DatsSend
      02000215H   SYMBOL    XDATA    ---       buf_datsLOAD
      0000003CH   SYMBOL    DATA     BYTE      datsTX_Len
      ---         BLOCKEND  ---      ---       LVL=1
      01006658H   LINE      CODE     ---       #1014
      01006662H   LINE      CODE     ---       #1018
      01006662H   LINE      CODE     ---       #1023
      0100666DH   LINE      CODE     ---       #1024
      01006670H   LINE      CODE     ---       #1026
      0100667DH   LINE      CODE     ---       #1029
      01006683H   LINE      CODE     ---       #1030
      01006687H   LINE      CODE     ---       #1031
      0100668BH   LINE      CODE     ---       #1032
      0100668DH   LINE      CODE     ---       #1033
      01006691H   LINE      CODE     ---       #1034
      01006695H   LINE      CODE     ---       #1035
      01006698H   LINE      CODE     ---       #1036
      0100669CH   LINE      CODE     ---       #1037
      010066A0H   LINE      CODE     ---       #1038
      010066B2H   LINE      CODE     ---       #1040
      010066D6H   LINE      CODE     ---       #1041
      ---         BLOCKEND  ---      ---       LVL=0

      01006DEBH   BLOCK     CODE     ---       LVL=0
      0000002BH   SYMBOL    DATA     WORD      DstAddr
      0000002DH   SYMBOL    DATA     BYTE      port
      0000002EH   SYMBOL    DATA     ---       dats
      00000031H   SYMBOL    DATA     BYTE      datsLen
      01006DF7H   BLOCK     CODE     NEAR LAB  LVL=1
      0200013EH   SYMBOL    XDATA    ---       buf_datsTX
      00000005H   SYMBOL    DATA     BYTE      datsTX_Len
      ---         BLOCKEND  ---      ---       LVL=1
      01006DEBH   LINE      CODE     ---       #1045
      01006DF7H   LINE      CODE     ---       #1048
      01006DF7H   LINE      CODE     ---       #1050
      01006E02H   LINE      CODE     ---       #1051
      01006E02H   LINE      CODE     ---       #1053
      01006E20H   LINE      CODE     ---       #1055
      ---         BLOCKEND  ---      ---       LVL=0

      0100464AH   BLOCK     CODE     ---       LVL=0
      0100464AH   BLOCK     CODE     NEAR LAB  LVL=1
      0200013CH   SYMBOL    XDATA    ---       buf_datsTX
      00000027H   SYMBOL    DATA     BYTE      datsTX_Len
      020001D5H   SYMBOL    XDATA    ---       buf_datsRX
      00000028H   SYMBOL    DATA     BYTE      datsRX_Len
      00000029H   SYMBOL    DATA     ---       ASR_dats
      01001023H   SYMBOL    CODE     ---       ASR_cmd
      00000056H   SYMBOL    DATA     BYTE      datsTrans_respondCode
      00000057H   SYMBOL    DATA     BYTE      step
      00000058H   SYMBOL    DATA     BYTE      reactionLoop
      0100472DH   BLOCK     CODE     NEAR LAB  LVL=2
      02000317H   SYMBOL    XDATA    BYTE      local_funRecord
      0200013BH   SYMBOL    XDATA    BYTE      funRecord_temp
      ---         BLOCKEND  ---      ---       LVL=2
      010047E6H   BLOCK     CODE     NEAR LAB  LVL=2
      000000C8H   SYMBOL    IDATA    WORD      datsFrom_addr
      000000CAH   SYMBOL    IDATA    BYTE      dstPoint
LX51 LINKER/LOCATER V4.66.41.0                                                        01/11/2019  12:04:15  PAGE 74


      ---         BLOCKEND  ---      ---       LVL=2
      ---         BLOCKEND  ---      ---       LVL=1
      0100464AH   LINE      CODE     ---       #1060
      0100464AH   LINE      CODE     ---       #1062
      01004659H   LINE      CODE     ---       #1063
      0100465CH   LINE      CODE     ---       #1066
      01004669H   LINE      CODE     ---       #1067
      0100466CH   LINE      CODE     ---       #1070
      0100467DH   LINE      CODE     ---       #1082
      01004685H   LINE      CODE     ---       #1084
      01004685H   LINE      CODE     ---       #1085
      01004688H   LINE      CODE     ---       #1087
      0100468BH   LINE      CODE     ---       #1088
      0100468EH   LINE      CODE     ---       #1091
      0100468EH   LINE      CODE     ---       #1094
      01004691H   LINE      CODE     ---       #1095
      01004697H   LINE      CODE     ---       #1096
      0100469AH   LINE      CODE     ---       #1097
      010046BDH   LINE      CODE     ---       #1099
      010046E5H   LINE      CODE     ---       #1101
      01004703H   LINE      CODE     ---       #1103
      01004703H   LINE      CODE     ---       #1105
      0100470AH   LINE      CODE     ---       #1107
      0100470DH   LINE      CODE     ---       #1109
      01004710H   LINE      CODE     ---       #1110
      01004710H   LINE      CODE     ---       #1112
      01004713H   LINE      CODE     ---       #1113
      01004713H   LINE      CODE     ---       #1115
      01004715H   LINE      CODE     ---       #1116
      0100471FH   LINE      CODE     ---       #1117
      01004729H   LINE      CODE     ---       #1118
      0100472CH   LINE      CODE     ---       #1120
      0100472DH   LINE      CODE     ---       #1122
      0100472DH   LINE      CODE     ---       #1125
      01004751H   LINE      CODE     ---       #1127
      01004755H   LINE      CODE     ---       #1129
      01004757H   LINE      CODE     ---       #1130
      01004759H   LINE      CODE     ---       #1131
      01004759H   LINE      CODE     ---       #1132
      0100475BH   LINE      CODE     ---       #1133
      0100475BH   LINE      CODE     ---       #1135
      01004762H   LINE      CODE     ---       #1137
      0100476EH   LINE      CODE     ---       #1139
      01004770H   LINE      CODE     ---       #1141
      01004773H   LINE      CODE     ---       #1142
      01004773H   LINE      CODE     ---       #1143
      01004773H   LINE      CODE     ---       #1145
      01004779H   LINE      CODE     ---       #1147
      0100477BH   LINE      CODE     ---       #1149
      01004792H   LINE      CODE     ---       #1151
      01004798H   LINE      CODE     ---       #1153
      0100479BH   LINE      CODE     ---       #1155
      0100479DH   LINE      CODE     ---       #1157
      010047A0H   LINE      CODE     ---       #1158
      010047AAH   LINE      CODE     ---       #1159
      010047AAH   LINE      CODE     ---       #1161
      010047AFH   LINE      CODE     ---       #1163
      010047B0H   LINE      CODE     ---       #1165
      010047BEH   LINE      CODE     ---       #1167
      010047C4H   LINE      CODE     ---       #1169
      010047CEH   LINE      CODE     ---       #1173
      010047CEH   LINE      CODE     ---       #1175
      010047CEH   LINE      CODE     ---       #1176
      010047CEH   LINE      CODE     ---       #1177
      010047CEH   LINE      CODE     ---       #1187
LX51 LINKER/LOCATER V4.66.41.0                                                        01/11/2019  12:04:15  PAGE 75


      010047CEH   LINE      CODE     ---       #1188
      010047CEH   LINE      CODE     ---       #1189
      010047CEH   LINE      CODE     ---       #1191
      010047D1H   LINE      CODE     ---       #1193
      010047D1H   LINE      CODE     ---       #1195
      010047DBH   LINE      CODE     ---       #1197
      010047DDH   LINE      CODE     ---       #1198
      010047DFH   LINE      CODE     ---       #1199
      010047E0H   LINE      CODE     ---       #1200
      010047E0H   LINE      CODE     ---       #1202
      010047E6H   LINE      CODE     ---       #1204
      010047F3H   LINE      CODE     ---       #1205
      010047F9H   LINE      CODE     ---       #1207
      010047F9H   LINE      CODE     ---       #1209
      010047FEH   LINE      CODE     ---       #1212
      010047FEH   LINE      CODE     ---       #1213
      010047FEH   LINE      CODE     ---       #1214
      01004810H   LINE      CODE     ---       #1215
      01004816H   LINE      CODE     ---       #1216
      01004816H   LINE      CODE     ---       #1218
      01004816H   LINE      CODE     ---       #1220
      01004847H   LINE      CODE     ---       #1222
      01004847H   LINE      CODE     ---       #1224
      0100484AH   LINE      CODE     ---       #1226
      0100484BH   LINE      CODE     ---       #1229
      0100484BH   LINE      CODE     ---       #1230
      0100484BH   LINE      CODE     ---       #1232
      01004869H   LINE      CODE     ---       #1234
      0100486FH   LINE      CODE     ---       #1235
      0100486FH   LINE      CODE     ---       #1237
      0100486FH   LINE      CODE     ---       #1238
      0100486FH   LINE      CODE     ---       #1239
      0100486FH   LINE      CODE     ---       #1241
      0100486FH   LINE      CODE     ---       #1243
      0100486FH   LINE      CODE     ---       #1245
      01004872H   LINE      CODE     ---       #1247
      01004874H   LINE      CODE     ---       #1248
      01004877H   LINE      CODE     ---       #1250
      01004879H   LINE      CODE     ---       #1252
      0100487CH   LINE      CODE     ---       #1253
      0100487CH   LINE      CODE     ---       #1255
      0100487CH   LINE      CODE     ---       #1256
      0100487CH   LINE      CODE     ---       #1259
      0100487CH   LINE      CODE     ---       #1260
      0100487CH   LINE      CODE     ---       #1262
      0100487EH   LINE      CODE     ---       #1264
      0100487EH   LINE      CODE     ---       #1266
      01004881H   LINE      CODE     ---       #1268
      01004883H   LINE      CODE     ---       #1269
      01004886H   LINE      CODE     ---       #1271
      01004888H   LINE      CODE     ---       #1273
      0100488BH   LINE      CODE     ---       #1274
      0100488BH   LINE      CODE     ---       #1277
      0100488FH   LINE      CODE     ---       #1280
      0100488FH   LINE      CODE     ---       #1281
      0100488FH   LINE      CODE     ---       #1282
      010048A4H   LINE      CODE     ---       #1283
      010048AAH   LINE      CODE     ---       #1284
      010048AAH   LINE      CODE     ---       #1286
      010048AFH   LINE      CODE     ---       #1288
      010048BDH   LINE      CODE     ---       #1290
      010048BDH   LINE      CODE     ---       #1291
      010048BDH   LINE      CODE     ---       #1292
      010048BDH   LINE      CODE     ---       #1294
      010048BDH   LINE      CODE     ---       #1296
LX51 LINKER/LOCATER V4.66.41.0                                                        01/11/2019  12:04:15  PAGE 76


      010048BFH   LINE      CODE     ---       #1298
      010048BFH   LINE      CODE     ---       #1300
      010048C2H   LINE      CODE     ---       #1302
      010048C2H   LINE      CODE     ---       #1303
      010048C2H   LINE      CODE     ---       #1305
      010048C5H   LINE      CODE     ---       #1306
      010048C5H   LINE      CODE     ---       #1308
      010048C8H   LINE      CODE     ---       #1309
      010048CAH   LINE      CODE     ---       #1312
      010048D1H   LINE      CODE     ---       #1313
      010048DBH   LINE      CODE     ---       #1315
      010048DCH   LINE      CODE     ---       #1317
      010048DCH   LINE      CODE     ---       #1319
      010048DFH   LINE      CODE     ---       #1321
      010048DFH   LINE      CODE     ---       #1322
      010048DFH   LINE      CODE     ---       #1323
      ---         BLOCKEND  ---      ---       LVL=0

      01006F4BH   BLOCK     CODE     ---       LVL=0
      00000020H.4 SYMBOL    BIT      BIT       zigbNwkSysNote_IF
      01006F4BH   LINE      CODE     ---       #1326
      01006F4BH   LINE      CODE     ---       #1328
      01006F51H   LINE      CODE     ---       #1329
      01006F5BH   LINE      CODE     ---       #1331
      01006F5DH   LINE      CODE     ---       #1332
      01006F60H   LINE      CODE     ---       #1334
      01006F63H   LINE      CODE     ---       #1335
      01006F68H   LINE      CODE     ---       #1338
      01006F68H   LINE      CODE     ---       #1339
      01006F68H   LINE      CODE     ---       #1340
      01006F77H   LINE      CODE     ---       #1341
      ---         BLOCKEND  ---      ---       LVL=0

      0100735EH   BLOCK     CODE     ---       LVL=0
      0100735EH   LINE      CODE     ---       #1347
      0100735EH   LINE      CODE     ---       #1349
      01007366H   LINE      CODE     ---       #1350
      ---         BLOCKEND  ---      ---       LVL=0

      01005D28H   BLOCK     CODE     ---       LVL=0
      01005D28H   BLOCK     CODE     NEAR LAB  LVL=1
      00000059H   SYMBOL    DATA     INT       status_Step
      01005D50H   BLOCK     CODE     NEAR LAB  LVL=2
      0200013BH   SYMBOL    XDATA    ---       dats_Note
      ---         BLOCKEND  ---      ---       LVL=2
      ---         BLOCKEND  ---      ---       LVL=1
      01005D28H   LINE      CODE     ---       #1354
      01005D28H   LINE      CODE     ---       #1358
      01005D2FH   LINE      CODE     ---       #1360
      01005D2FH   LINE      CODE     ---       #1361
      01005D32H   LINE      CODE     ---       #1363
      01005D37H   LINE      CODE     ---       #1364
      01005D3DH   LINE      CODE     ---       #1366
      01005D40H   LINE      CODE     ---       #1369
      01005D40H   LINE      CODE     ---       #1371
      01005D49H   LINE      CODE     ---       #1373
      01005D50H   LINE      CODE     ---       #1375
      01005D5DH   LINE      CODE     ---       #1377
      01005D64H   LINE      CODE     ---       #1379
      01005D76H   LINE      CODE     ---       #1384
      01005D7DH   LINE      CODE     ---       #1385
      01005D7DH   LINE      CODE     ---       #1387
      01005D7DH   LINE      CODE     ---       #1389
      01005D8DH   LINE      CODE     ---       #1391
      01005D8DH   LINE      CODE     ---       #1393
LX51 LINKER/LOCATER V4.66.41.0                                                        01/11/2019  12:04:15  PAGE 77


      01005D8DH   LINE      CODE     ---       #1394
      01005D91H   LINE      CODE     ---       #1395
      01005D97H   LINE      CODE     ---       #1397
      01005D98H   LINE      CODE     ---       #1399
      01005D98H   LINE      CODE     ---       #1401
      01005DA2H   LINE      CODE     ---       #1403
      01005DA2H   LINE      CODE     ---       #1404
      01005DA5H   LINE      CODE     ---       #1405
      01005DABH   LINE      CODE     ---       #1406
      01005DABH   LINE      CODE     ---       #1408
      01005DACH   LINE      CODE     ---       #1410
      01005DACH   LINE      CODE     ---       #1412
      01005DB6H   LINE      CODE     ---       #1414
      01005DBAH   LINE      CODE     ---       #1417
      01005DBAH   LINE      CODE     ---       #1418
      01005DBDH   LINE      CODE     ---       #1419
      01005DCCH   LINE      CODE     ---       #1420
      01005DCCH   LINE      CODE     ---       #1421
      01005DCCH   LINE      CODE     ---       #1423
      01005DCCH   LINE      CODE     ---       #1425
      01005DCEH   LINE      CODE     ---       #1427
      01005DCEH   LINE      CODE     ---       #1429
      01005DD3H   LINE      CODE     ---       #1431
      01005DD4H   LINE      CODE     ---       #1432
      01005DD4H   LINE      CODE     ---       #1433
      01005DD4H   LINE      CODE     ---       #1435
      01005DD4H   LINE      CODE     ---       #1438
      01005DD9H   LINE      CODE     ---       #1439
      01005DDBH   LINE      CODE     ---       #1441
      01005DDEH   LINE      CODE     ---       #1442
      01005DE1H   LINE      CODE     ---       #1445
      01005DE1H   LINE      CODE     ---       #1446
      01005DE6H   LINE      CODE     ---       #1447
      01005DF5H   LINE      CODE     ---       #1448
      01005DFBH   LINE      CODE     ---       #1449
      01005DFBH   LINE      CODE     ---       #1451
      01005DFBH   LINE      CODE     ---       #1452
      ---         BLOCKEND  ---      ---       LVL=0

      01006DACH   BLOCK     CODE     ---       LVL=0
      00000027H   SYMBOL    DATA     ---       datsFrame
      01006DB2H   BLOCK     CODE     NEAR LAB  LVL=1
      0000002AH   SYMBOL    DATA     BYTE      dataTX_temp
      ---         BLOCKEND  ---      ---       LVL=1
      01006DACH   LINE      CODE     ---       #1456
      01006DB2H   LINE      CODE     ---       #1458
      01006DB5H   LINE      CODE     ---       #1460
      01006DBCH   LINE      CODE     ---       #1462
      01006DCDH   LINE      CODE     ---       #1472
      01006DD0H   LINE      CODE     ---       #1473
      01006DD3H   LINE      CODE     ---       #1478
      01006DD3H   LINE      CODE     ---       #1479
      01006DD3H   LINE      CODE     ---       #1480
      01006DE5H   LINE      CODE     ---       #1481
      ---         BLOCKEND  ---      ---       LVL=0

      01004D22H   BLOCK     CODE     ---       LVL=0
      00000027H   SYMBOL    DATA     ---       datsFrame
      01004D28H   BLOCK     CODE     NEAR LAB  LVL=1
      0200013BH   SYMBOL    XDATA    ---       dats
      01004D89H   BLOCK     CODE     NEAR LAB  LVL=2
      00000020H.2 SYMBOL    BIT      BIT       resultSet
      00000020H.2 SYMBOL    BIT      BIT       resultSet
      00000020H.3 SYMBOL    BIT      BIT       timeZoneAdjust_needIF
      0000002AH   SYMBOL    DATA     DWORD     time_Temp
LX51 LINKER/LOCATER V4.66.41.0                                                        01/11/2019  12:04:15  PAGE 78


      000000C8H   SYMBOL    IDATA    BYTE      statusRelay_temp
      ---         BLOCKEND  ---      ---       LVL=2
      01004DB2H   BLOCK     CODE     NEAR LAB  LVL=2
      00000020H.2 SYMBOL    BIT      BIT       resultSet
      00000020H.3 SYMBOL    BIT      BIT       timeZoneAdjust_needIF
      0000002AH   SYMBOL    DATA     DWORD     time_Temp
      000000C8H   SYMBOL    IDATA    BYTE      statusRelay_temp
      ---         BLOCKEND  ---      ---       LVL=2
      01004ED5H   BLOCK     CODE     NEAR LAB  LVL=2
      000000C8H   SYMBOL    IDATA    BYTE      statusRelay_temp
      ---         BLOCKEND  ---      ---       LVL=2
      ---         BLOCKEND  ---      ---       LVL=1
      01004D22H   LINE      CODE     ---       #1488
      01004D28H   LINE      CODE     ---       #1497
      01004D37H   LINE      CODE     ---       #1499
      01004D44H   LINE      CODE     ---       #1500
      01004D57H   LINE      CODE     ---       #1501
      01004D67H   LINE      CODE     ---       #1503
      01004D89H   LINE      CODE     ---       #1505
      01004D89H   LINE      CODE     ---       #1507
      01004D8BH   LINE      CODE     ---       #1509
      01004D98H   LINE      CODE     ---       #1510
      01004DA0H   LINE      CODE     ---       #1513
      01004DA0H   LINE      CODE     ---       #1514
      01004DA0H   LINE      CODE     ---       #1515
      01004DAFH   LINE      CODE     ---       #1516
      01004DAFH   LINE      CODE     ---       #1517
      01004DAFH   LINE      CODE     ---       #1520
      01004DB2H   LINE      CODE     ---       #1522
      01004DB2H   LINE      CODE     ---       #1524
      01004DB4H   LINE      CODE     ---       #1525
      01004DB6H   LINE      CODE     ---       #1526
      01004DBFH   LINE      CODE     ---       #1528
      01004DD5H   LINE      CODE     ---       #1529
      01004DD7H   LINE      CODE     ---       #1530
      01004DF7H   LINE      CODE     ---       #1531
      01004DF9H   LINE      CODE     ---       #1532
      01004E0FH   LINE      CODE     ---       #1534
      01004E14H   LINE      CODE     ---       #1535
      01004E18H   LINE      CODE     ---       #1536
      01004E22H   LINE      CODE     ---       #1537
      01004E30H   LINE      CODE     ---       #1538
      01004E30H   LINE      CODE     ---       #1540
      01004E38H   LINE      CODE     ---       #1541
      01004E6BH   LINE      CODE     ---       #1544
      01004E6BH   LINE      CODE     ---       #1546
      01004E6BH   LINE      CODE     ---       #1547
      01004E95H   LINE      CODE     ---       #1548
      01004E9BH   LINE      CODE     ---       #1549
      01004E9BH   LINE      CODE     ---       #1551
      01004E9BH   LINE      CODE     ---       #1553
      01004E9BH   LINE      CODE     ---       #1556
      01004E9BH   LINE      CODE     ---       #1557
      01004E9BH   LINE      CODE     ---       #1558
      01004EAAH   LINE      CODE     ---       #1559
      01004EB0H   LINE      CODE     ---       #1560
      01004EB0H   LINE      CODE     ---       #1562
      01004EB5H   LINE      CODE     ---       #1564
      01004EB5H   LINE      CODE     ---       #1566
      01004EB5H   LINE      CODE     ---       #1569
      01004EB5H   LINE      CODE     ---       #1571
      01004EB5H   LINE      CODE     ---       #1572
      01004EC7H   LINE      CODE     ---       #1573
      01004ECDH   LINE      CODE     ---       #1574
      01004ECDH   LINE      CODE     ---       #1576
LX51 LINKER/LOCATER V4.66.41.0                                                        01/11/2019  12:04:15  PAGE 79


      01004ECDH   LINE      CODE     ---       #1581
      01004ECDH   LINE      CODE     ---       #1591
      01004ECDH   LINE      CODE     ---       #1593
      01004ED5H   LINE      CODE     ---       #1595
      01004ED5H   LINE      CODE     ---       #1670
      01004ED5H   LINE      CODE     ---       #1672
      01004EDCH   LINE      CODE     ---       #1674
      01004EE8H   LINE      CODE     ---       #1677
      01004EE8H   LINE      CODE     ---       #1678
      01004EE8H   LINE      CODE     ---       #1679
      01004EF7H   LINE      CODE     ---       #1680
      01004EFDH   LINE      CODE     ---       #1681
      01004EFDH   LINE      CODE     ---       #1685
      01004F05H   LINE      CODE     ---       #1687
      01004F0AH   LINE      CODE     ---       #1689
      01004F10H   LINE      CODE     ---       #1690
      01004F18H   LINE      CODE     ---       #1691
      01004F18H   LINE      CODE     ---       #1692
      01004F18H   LINE      CODE     ---       #1694
      01004F18H   LINE      CODE     ---       #1696
      01004F18H   LINE      CODE     ---       #1697
      01004F18H   LINE      CODE     ---       #1698
      ---         BLOCKEND  ---      ---       LVL=0

      0100126BH   BLOCK     CODE     ---       LVL=0
      00000027H   SYMBOL    DATA     ---       datsParam
      0000002AH   SYMBOL    DATA     WORD      nwkAddr_from
      0000002CH   SYMBOL    DATA     BYTE      port_from
      01001275H   BLOCK     CODE     NEAR LAB  LVL=1
      0200017AH   SYMBOL    XDATA    ---       paramTX_temp
      00000020H.2 SYMBOL    BIT      BIT       dataFromRemote_IF
      010012DFH   BLOCK     CODE     NEAR LAB  LVL=2
      00000020H.3 SYMBOL    BIT      BIT       frameCheck_Done
      010010E3H   SYMBOL    CODE     ---       agingCmd_Temp
      0200013CH   SYMBOL    XDATA    ---       dev_dataPointTemp
      00000020H.3 SYMBOL    BIT      BIT       frameCodeCheck_PASS
      00000020H.4 SYMBOL    BIT      BIT       frameMacCheck_PASS
      00000020H.5 SYMBOL    BIT      BIT       frameDataOnceReserve_PASS
      0000005BH   SYMBOL    DATA     BYTE      dataTrans_oncePword
      010012DFH   BLOCK     CODE     NEAR LAB  LVL=3
      00000020H.4 SYMBOL    BIT      BIT       frameCodeCheck_PASS
      00000020H.5 SYMBOL    BIT      BIT       frameMacCheck_PASS
      00000020H.4 SYMBOL    BIT      BIT       respond_IF
      00000020H.5 SYMBOL    BIT      BIT       specialCmd_IF
      ---         BLOCKEND  ---      ---       LVL=3
      01001337H   BLOCK     CODE     NEAR LAB  LVL=3
      00000020H.4 SYMBOL    BIT      BIT       respond_IF
      00000020H.5 SYMBOL    BIT      BIT       specialCmd_IF
      010014B2H   BLOCK     CODE     NEAR LAB  LVL=4
      0000002DH   SYMBOL    DATA     BYTE      deviceLock_IF
      0000002DH   SYMBOL    DATA     BYTE      deviceLock_IF
      ---         BLOCKEND  ---      ---       LVL=4
      010014C3H   BLOCK     CODE     NEAR LAB  LVL=4
      0000002DH   SYMBOL    DATA     BYTE      deviceLock_IF
      ---         BLOCKEND  ---      ---       LVL=4
      010014F8H   BLOCK     CODE     NEAR LAB  LVL=4
      0000002DH   SYMBOL    DATA     BYTE      loop
      ---         BLOCKEND  ---      ---       LVL=4
      010015C3H   BLOCK     CODE     NEAR LAB  LVL=4
      0000002DH   SYMBOL    DATA     BYTE      datsTemp
      0000002DH   SYMBOL    DATA     BYTE      datsTemp
      0000002DH   SYMBOL    DATA     BYTE      loop
      0000002DH   SYMBOL    DATA     BYTE      loop
      0000002EH   SYMBOL    DATA     BYTE      effective_oprate
      0000002DH   SYMBOL    DATA     BYTE      loop
LX51 LINKER/LOCATER V4.66.41.0                                                        01/11/2019  12:04:15  PAGE 80


      00000023H.1 SYMBOL    BIT      BIT       local_ftyRecover_standbyFLG
      ---         BLOCKEND  ---      ---       LVL=4
      010015CBH   BLOCK     CODE     NEAR LAB  LVL=4
      0000002DH   SYMBOL    DATA     BYTE      datsTemp
      0000002DH   SYMBOL    DATA     BYTE      loop
      0000002DH   SYMBOL    DATA     BYTE      loop
      0000002EH   SYMBOL    DATA     BYTE      effective_oprate
      0000002DH   SYMBOL    DATA     BYTE      loop
      00000023H.1 SYMBOL    BIT      BIT       local_ftyRecover_standbyFLG
      ---         BLOCKEND  ---      ---       LVL=4
      010015E7H   BLOCK     CODE     NEAR LAB  LVL=4
      0000002DH   SYMBOL    DATA     BYTE      loop
      0000002DH   SYMBOL    DATA     BYTE      loop
      0000002EH   SYMBOL    DATA     BYTE      effective_oprate
      0000002DH   SYMBOL    DATA     BYTE      loop
      00000023H.1 SYMBOL    BIT      BIT       local_ftyRecover_standbyFLG
      ---         BLOCKEND  ---      ---       LVL=4
      01001708H   BLOCK     CODE     NEAR LAB  LVL=4
      0000002DH   SYMBOL    DATA     BYTE      loop
      0000002EH   SYMBOL    DATA     BYTE      effective_oprate
      0000002DH   SYMBOL    DATA     BYTE      loop
      00000023H.1 SYMBOL    BIT      BIT       local_ftyRecover_standbyFLG
      ---         BLOCKEND  ---      ---       LVL=4
      0100176EH   BLOCK     CODE     NEAR LAB  LVL=4
      0000002DH   SYMBOL    DATA     BYTE      loop
      00000023H.1 SYMBOL    BIT      BIT       local_ftyRecover_standbyFLG
      ---         BLOCKEND  ---      ---       LVL=4
      010017CEH   BLOCK     CODE     NEAR LAB  LVL=4
      0000002DH   SYMBOL    DATA     BYTE      datsTX_Len
      ---         BLOCKEND  ---      ---       LVL=4
      ---         BLOCKEND  ---      ---       LVL=3
      ---         BLOCKEND  ---      ---       LVL=2
      0100183CH   BLOCK     CODE     NEAR LAB  LVL=2
      010010E3H   SYMBOL    CODE     ---       agingCmd_Temp
      0200013CH   SYMBOL    XDATA    ---       dev_dataPointTemp
      00000020H.3 SYMBOL    BIT      BIT       frameCodeCheck_PASS
      00000020H.4 SYMBOL    BIT      BIT       frameMacCheck_PASS
      00000020H.5 SYMBOL    BIT      BIT       frameDataOnceReserve_PASS
      0000005BH   SYMBOL    DATA     BYTE      dataTrans_oncePword
      010018C5H   BLOCK     CODE     NEAR LAB  LVL=3
      00000023H.1 SYMBOL    BIT      BIT       local_ftyRecover_standbyFLG
      01001A05H   BLOCK     CODE     NEAR LAB  LVL=4
      0000002DH   SYMBOL    DATA     BYTE      deviceLock_IF
      0000002DH   SYMBOL    DATA     BYTE      loop
      0000002DH   SYMBOL    DATA     ---       dataTemp
      0200013BH   SYMBOL    XDATA    BYTE      loop
      ---         BLOCKEND  ---      ---       LVL=4
      01001A49H   BLOCK     CODE     NEAR LAB  LVL=4
      0000002DH   SYMBOL    DATA     BYTE      loop
      0000002DH   SYMBOL    DATA     ---       dataTemp
      0200013BH   SYMBOL    XDATA    BYTE      loop
      ---         BLOCKEND  ---      ---       LVL=4
      01001B09H   BLOCK     CODE     NEAR LAB  LVL=4
      0000002DH   SYMBOL    DATA     ---       dataTemp
      0200013BH   SYMBOL    XDATA    BYTE      loop
      ---         BLOCKEND  ---      ---       LVL=4
      01001BEAH   BLOCK     CODE     NEAR LAB  LVL=4
      0200013BH   SYMBOL    XDATA    BYTE      loop
      ---         BLOCKEND  ---      ---       LVL=4
      ---         BLOCKEND  ---      ---       LVL=3
      ---         BLOCKEND  ---      ---       LVL=2
      ---         BLOCKEND  ---      ---       LVL=1
      0100126BH   LINE      CODE     ---       #1702
      01001275H   LINE      CODE     ---       #1705
      01001284H   LINE      CODE     ---       #1707
LX51 LINKER/LOCATER V4.66.41.0                                                        01/11/2019  12:04:15  PAGE 81


      01001286H   LINE      CODE     ---       #1710
      010012A4H   LINE      CODE     ---       #1713
      010012A4H   LINE      CODE     ---       #1715
      010012A6H   LINE      CODE     ---       #1717
      010012B5H   LINE      CODE     ---       #1718
      010012DFH   LINE      CODE     ---       #1719
      010012DFH   LINE      CODE     ---       #1722
      010012DFH   LINE      CODE     ---       #1724
      010012DFH   LINE      CODE     ---       #1727
      010012DFH   LINE      CODE     ---       #1728
      010012DFH   LINE      CODE     ---       #1730
      010012FBH   LINE      CODE     ---       #1731
      01001313H   LINE      CODE     ---       #1733
      0100131AH   LINE      CODE     ---       #1735
      0100131CH   LINE      CODE     ---       #1737
      0100131EH   LINE      CODE     ---       #1738
      01001327H   LINE      CODE     ---       #1739
      01001327H   LINE      CODE     ---       #1741
      01001329H   LINE      CODE     ---       #1742
      01001329H   LINE      CODE     ---       #1744
      01001331H   LINE      CODE     ---       #1745
      01001331H   LINE      CODE     ---       #1747
      01001337H   LINE      CODE     ---       #1749
      01001339H   LINE      CODE     ---       #1750
      0100133BH   LINE      CODE     ---       #1754
      0100133BH   LINE      CODE     ---       #1755
      0100134DH   LINE      CODE     ---       #1756
      01001353H   LINE      CODE     ---       #1757
      01001353H   LINE      CODE     ---       #1759
      0100135AH   LINE      CODE     ---       #1761
      0100139AH   LINE      CODE     ---       #1763
      0100139AH   LINE      CODE     ---       #1765
      010013A0H   LINE      CODE     ---       #1767
      010013A3H   LINE      CODE     ---       #1768
      010013A8H   LINE      CODE     ---       #1770
      010013B0H   LINE      CODE     ---       #1771
      010013B4H   LINE      CODE     ---       #1773
      010013BAH   LINE      CODE     ---       #1774
      010013BEH   LINE      CODE     ---       #1776
      010013C8H   LINE      CODE     ---       #1777
      010013CEH   LINE      CODE     ---       #1778
      010013D8H   LINE      CODE     ---       #1779
      010013E8H   LINE      CODE     ---       #1781
      010013EDH   LINE      CODE     ---       #1783
      010013EDH   LINE      CODE     ---       #1784
      010013EDH   LINE      CODE     ---       #1786
      010013F0H   LINE      CODE     ---       #1789
      010013F0H   LINE      CODE     ---       #1791
      010013F0H   LINE      CODE     ---       #1793
      010013F0H   LINE      CODE     ---       #1795
      010013F5H   LINE      CODE     ---       #1796
      01001402H   LINE      CODE     ---       #1797
      01001419H   LINE      CODE     ---       #1798
      01001432H   LINE      CODE     ---       #1799
      01001446H   LINE      CODE     ---       #1801
      0100144CH   LINE      CODE     ---       #1802
      0100144FH   LINE      CODE     ---       #1816
      01001472H   LINE      CODE     ---       #1818
      0100147DH   LINE      CODE     ---       #1822
      0100147DH   LINE      CODE     ---       #1823
      0100147DH   LINE      CODE     ---       #1825
      0100147FH   LINE      CODE     ---       #1827
      0100147FH   LINE      CODE     ---       #1829
      01001489H   LINE      CODE     ---       #1830
      0100148CH   LINE      CODE     ---       #1831
LX51 LINKER/LOCATER V4.66.41.0                                                        01/11/2019  12:04:15  PAGE 82


      0100149CH   LINE      CODE     ---       #1832
      010014ABH   LINE      CODE     ---       #1834
      010014ADH   LINE      CODE     ---       #1835
      010014AFH   LINE      CODE     ---       #1837
      010014B2H   LINE      CODE     ---       #1839
      010014B2H   LINE      CODE     ---       #1841
      010014B2H   LINE      CODE     ---       #1843
      010014B2H   LINE      CODE     ---       #1846
      010014B2H   LINE      CODE     ---       #1847
      010014B5H   LINE      CODE     ---       #1849
      010014B7H   LINE      CODE     ---       #1850
      010014C1H   LINE      CODE     ---       #1851
      010014C1H   LINE      CODE     ---       #1853
      010014C3H   LINE      CODE     ---       #1855
      010014C3H   LINE      CODE     ---       #1858
      010014C3H   LINE      CODE     ---       #1859
      010014C6H   LINE      CODE     ---       #1861
      010014C8H   LINE      CODE     ---       #1862
      010014D8H   LINE      CODE     ---       #1863
      010014D8H   LINE      CODE     ---       #1865
      010014DBH   LINE      CODE     ---       #1867
      010014DBH   LINE      CODE     ---       #1870
      010014F8H   LINE      CODE     ---       #1872
      010014F8H   LINE      CODE     ---       #1873
      010014F8H   LINE      CODE     ---       #1875
      010014FBH   LINE      CODE     ---       #1878
      0100150CH   LINE      CODE     ---       #1881
      0100150FH   LINE      CODE     ---       #1883
      01001528H   LINE      CODE     ---       #1885
      0100153BH   LINE      CODE     ---       #1886
      0100153BH   LINE      CODE     ---       #1887
      01001542H   LINE      CODE     ---       #1889
      01001544H   LINE      CODE     ---       #1892
      01001544H   LINE      CODE     ---       #1893
      01001544H   LINE      CODE     ---       #1894
      01001550H   LINE      CODE     ---       #1895
      01001556H   LINE      CODE     ---       #1896
      01001556H   LINE      CODE     ---       #1899
      01001558H   LINE      CODE     ---       #1901
      01001558H   LINE      CODE     ---       #1903
      01001564H   LINE      CODE     ---       #1904
      01001574H   LINE      CODE     ---       #1905
      0100157BH   LINE      CODE     ---       #1907
      0100157DH   LINE      CODE     ---       #1909
      0100157DH   LINE      CODE     ---       #1911
      01001584H   LINE      CODE     ---       #1913
      01001586H   LINE      CODE     ---       #1915
      01001586H   LINE      CODE     ---       #1917
      01001599H   LINE      CODE     ---       #1919
      010015A8H   LINE      CODE     ---       #1920
      010015B7H   LINE      CODE     ---       #1922
      010015B7H   LINE      CODE     ---       #1924
      010015B7H   LINE      CODE     ---       #1925
      010015B7H   LINE      CODE     ---       #1927
      010015BEH   LINE      CODE     ---       #1929
      010015C0H   LINE      CODE     ---       #1931
      010015C3H   LINE      CODE     ---       #1933
      010015C3H   LINE      CODE     ---       #1935
      010015C3H   LINE      CODE     ---       #1937
      010015C3H   LINE      CODE     ---       #1939
      010015C6H   LINE      CODE     ---       #1940
      010015C9H   LINE      CODE     ---       #1941
      010015C9H   LINE      CODE     ---       #1943
      010015C9H   LINE      CODE     ---       #1945
      010015CBH   LINE      CODE     ---       #1947
LX51 LINKER/LOCATER V4.66.41.0                                                        01/11/2019  12:04:15  PAGE 83


      010015CBH   LINE      CODE     ---       #1949
      010015CBH   LINE      CODE     ---       #1951
      010015CEH   LINE      CODE     ---       #1952
      010015D1H   LINE      CODE     ---       #1953
      010015D9H   LINE      CODE     ---       #1955
      010015D9H   LINE      CODE     ---       #1957
      010015DCH   LINE      CODE     ---       #1959
      010015DCH   LINE      CODE     ---       #1961
      010015DEH   LINE      CODE     ---       #1963
      010015E1H   LINE      CODE     ---       #1965
      010015E1H   LINE      CODE     ---       #1967
      010015E4H   LINE      CODE     ---       #1969
      010015E7H   LINE      CODE     ---       #1971
      010015E7H   LINE      CODE     ---       #1973
      010015EAH   LINE      CODE     ---       #1975
      01001607H   LINE      CODE     ---       #1977
      01001607H   LINE      CODE     ---       #1979
      0100160AH   LINE      CODE     ---       #1981
      01001617H   LINE      CODE     ---       #1983
      01001627H   LINE      CODE     ---       #1984
      01001646H   LINE      CODE     ---       #1986
      01001648H   LINE      CODE     ---       #1988
      0100165AH   LINE      CODE     ---       #1989
      0100165AH   LINE      CODE     ---       #1990
      01001662H   LINE      CODE     ---       #1991
      0100166BH   LINE      CODE     ---       #1992
      0100166EH   LINE      CODE     ---       #1994
      0100166EH   LINE      CODE     ---       #1995
      0100166EH   LINE      CODE     ---       #1996
      0100169EH   LINE      CODE     ---       #1997
      010016A4H   LINE      CODE     ---       #1998
      010016A4H   LINE      CODE     ---       #2001
      010016A6H   LINE      CODE     ---       #2003
      010016A6H   LINE      CODE     ---       #2005
      010016AEH   LINE      CODE     ---       #2007
      010016B2H   LINE      CODE     ---       #2008
      010016B6H   LINE      CODE     ---       #2010
      010016BFH   LINE      CODE     ---       #2012
      010016C0H   LINE      CODE     ---       #2014
      010016C2H   LINE      CODE     ---       #2016
      010016C6H   LINE      CODE     ---       #2017
      010016CAH   LINE      CODE     ---       #2018
      010016CFH   LINE      CODE     ---       #2019
      010016CFH   LINE      CODE     ---       #2021
      010016D1H   LINE      CODE     ---       #2023
      010016D1H   LINE      CODE     ---       #2025
      010016D9H   LINE      CODE     ---       #2027
      010016DDH   LINE      CODE     ---       #2028
      010016E1H   LINE      CODE     ---       #2029
      010016E2H   LINE      CODE     ---       #2031
      010016E4H   LINE      CODE     ---       #2033
      010016E8H   LINE      CODE     ---       #2034
      010016ECH   LINE      CODE     ---       #2035
      010016F1H   LINE      CODE     ---       #2036
      010016F1H   LINE      CODE     ---       #2038
      010016F1H   LINE      CODE     ---       #2039
      010016FBH   LINE      CODE     ---       #2041
      010016FDH   LINE      CODE     ---       #2043
      010016FDH   LINE      CODE     ---       #2045
      01001700H   LINE      CODE     ---       #2046
      01001703H   LINE      CODE     ---       #2048
      01001703H   LINE      CODE     ---       #2050
      01001703H   LINE      CODE     ---       #2051
      01001703H   LINE      CODE     ---       #2053
      01001705H   LINE      CODE     ---       #2055
LX51 LINKER/LOCATER V4.66.41.0                                                        01/11/2019  12:04:15  PAGE 84


      01001708H   LINE      CODE     ---       #2057
      01001708H   LINE      CODE     ---       #2059
      0100170BH   LINE      CODE     ---       #2060
      01001713H   LINE      CODE     ---       #2062
      01001716H   LINE      CODE     ---       #2064
      01001726H   LINE      CODE     ---       #2066
      01001748H   LINE      CODE     ---       #2067
      0100175FH   LINE      CODE     ---       #2068
      01001761H   LINE      CODE     ---       #2069
      01001761H   LINE      CODE     ---       #2070
      0100176AH   LINE      CODE     ---       #2072
      0100176CH   LINE      CODE     ---       #2074
      0100176EH   LINE      CODE     ---       #2076
      0100176EH   LINE      CODE     ---       #2078
      01001771H   LINE      CODE     ---       #2080
      01001773H   LINE      CODE     ---       #2082
      0100178FH   LINE      CODE     ---       #2083
      01001798H   LINE      CODE     ---       #2085
      0100179AH   LINE      CODE     ---       #2087
      0100179CH   LINE      CODE     ---       #2089
      0100179CH   LINE      CODE     ---       #2091
      010017ADH   LINE      CODE     ---       #2092
      010017B5H   LINE      CODE     ---       #2094
      010017B7H   LINE      CODE     ---       #2096
      010017B9H   LINE      CODE     ---       #2098
      010017B9H   LINE      CODE     ---       #2100
      010017C2H   LINE      CODE     ---       #2102
      010017C4H   LINE      CODE     ---       #2104
      010017C6H   LINE      CODE     ---       #2149
      010017C6H   LINE      CODE     ---       #2151
      010017C8H   LINE      CODE     ---       #2153
      010017C8H   LINE      CODE     ---       #2154
      010017C8H   LINE      CODE     ---       #2157
      010017CEH   LINE      CODE     ---       #2159
      010017D1H   LINE      CODE     ---       #2161
      010017D3H   LINE      CODE     ---       #2163
      010017F4H   LINE      CODE     ---       #2170
      010017FAH   LINE      CODE     ---       #2172
      01001804H   LINE      CODE     ---       #2173
      01001806H   LINE      CODE     ---       #2174
      01001809H   LINE      CODE     ---       #2175
      01001812H   LINE      CODE     ---       #2176
      01001817H   LINE      CODE     ---       #2177
      01001817H   LINE      CODE     ---       #2178
      01001817H   LINE      CODE     ---       #2179
      0100181EH   LINE      CODE     ---       #2180
      01001821H   LINE      CODE     ---       #2189
      01001821H   LINE      CODE     ---       #2190
      01001821H   LINE      CODE     ---       #2191
      01001822H   LINE      CODE     ---       #2194
      01001822H   LINE      CODE     ---       #2198
      01001822H   LINE      CODE     ---       #2201
      01001822H   LINE      CODE     ---       #2205
      01001822H   LINE      CODE     ---       #2209
      01001822H   LINE      CODE     ---       #2211
      01001827H   LINE      CODE     ---       #2213
      01001827H   LINE      CODE     ---       #2215
      01001827H   LINE      CODE     ---       #2216
      01001836H   LINE      CODE     ---       #2217
      0100183CH   LINE      CODE     ---       #2218
      0100183CH   LINE      CODE     ---       #2220
      0100183CH   LINE      CODE     ---       #2223
      0100183CH   LINE      CODE     ---       #2226
      01001849H   LINE      CODE     ---       #2228
      01001849H   LINE      CODE     ---       #2229
LX51 LINKER/LOCATER V4.66.41.0                                                        01/11/2019  12:04:15  PAGE 85


      01001849H   LINE      CODE     ---       #2230
      01001849H   LINE      CODE     ---       #2242
      0100187AH   LINE      CODE     ---       #2243
      01001890H   LINE      CODE     ---       #2245
      0100189CH   LINE      CODE     ---       #2247
      010018AFH   LINE      CODE     ---       #2259
      010018C5H   LINE      CODE     ---       #2261
      010018C5H   LINE      CODE     ---       #2321
      010018D3H   LINE      CODE     ---       #2323
      010018D9H   LINE      CODE     ---       #2325
      010018E6H   LINE      CODE     ---       #2327
      010018FCH   LINE      CODE     ---       #2329
      010018FEH   LINE      CODE     ---       #2330
      01001900H   LINE      CODE     ---       #2331
      01001900H   LINE      CODE     ---       #2333
      01001906H   LINE      CODE     ---       #2335
      0100190FH   LINE      CODE     ---       #2338
      01001916H   LINE      CODE     ---       #2367
      01001927H   LINE      CODE     ---       #2369
      0100192AH   LINE      CODE     ---       #2370
      0100192DH   LINE      CODE     ---       #2372
      0100193EH   LINE      CODE     ---       #2374
      0100193EH   LINE      CODE     ---       #2376
      01001949H   LINE      CODE     ---       #2377
      01001950H   LINE      CODE     ---       #2379
      01001952H   LINE      CODE     ---       #2381
      0100195DH   LINE      CODE     ---       #2382
      0100195DH   LINE      CODE     ---       #2386
      0100195DH   LINE      CODE     ---       #2388
      0100195DH   LINE      CODE     ---       #2389
      01001982H   LINE      CODE     ---       #2390
      01001988H   LINE      CODE     ---       #2391
      01001988H   LINE      CODE     ---       #2393
      01001988H   LINE      CODE     ---       #2395
      0100198FH   LINE      CODE     ---       #2397
      01001997H   LINE      CODE     ---       #2399
      0100199BH   LINE      CODE     ---       #2400
      0100199FH   LINE      CODE     ---       #2401
      010019A4H   LINE      CODE     ---       #2402
      010019AAH   LINE      CODE     ---       #2404
      010019AAH   LINE      CODE     ---       #2406
      010019AFH   LINE      CODE     ---       #2407
      010019CBH   LINE      CODE     ---       #2408
      010019D1H   LINE      CODE     ---       #2409
      010019D1H   LINE      CODE     ---       #2412
      010019D3H   LINE      CODE     ---       #2414
      010019D7H   LINE      CODE     ---       #2415
      010019DBH   LINE      CODE     ---       #2416
      010019E0H   LINE      CODE     ---       #2417
      010019E0H   LINE      CODE     ---       #2418
      010019E0H   LINE      CODE     ---       #2420
      010019E7H   LINE      CODE     ---       #2422
      010019E9H   LINE      CODE     ---       #2424
      010019E9H   LINE      CODE     ---       #2426
      010019E9H   LINE      CODE     ---       #2427
      010019F8H   LINE      CODE     ---       #2428
      010019FEH   LINE      CODE     ---       #2429
      010019FEH   LINE      CODE     ---       #2431
      010019FEH   LINE      CODE     ---       #2433
      01001A05H   LINE      CODE     ---       #2435
      01001A08H   LINE      CODE     ---       #2440
      01001A0DH   LINE      CODE     ---       #2441
      01001A1CH   LINE      CODE     ---       #2442
      01001A22H   LINE      CODE     ---       #2443
      01001A22H   LINE      CODE     ---       #2446
LX51 LINKER/LOCATER V4.66.41.0                                                        01/11/2019  12:04:15  PAGE 86


      01001A29H   LINE      CODE     ---       #2448
      01001A2EH   LINE      CODE     ---       #2450
      01001A30H   LINE      CODE     ---       #2452
      01001A35H   LINE      CODE     ---       #2453
      01001A35H   LINE      CODE     ---       #2454
      01001A42H   LINE      CODE     ---       #2455
      01001A42H   LINE      CODE     ---       #2457
      01001A49H   LINE      CODE     ---       #2459
      01001A4CH   LINE      CODE     ---       #2463
      01001A51H   LINE      CODE     ---       #2466
      01001A5DH   LINE      CODE     ---       #2467
      01001A63H   LINE      CODE     ---       #2468
      01001A63H   LINE      CODE     ---       #2470
      01001A66H   LINE      CODE     ---       #2472
      01001A6EH   LINE      CODE     ---       #2474
      01001A7EH   LINE      CODE     ---       #2475
      01001A95H   LINE      CODE     ---       #2477
      01001A97H   LINE      CODE     ---       #2479
      01001AA9H   LINE      CODE     ---       #2480
      01001AA9H   LINE      CODE     ---       #2481
      01001AB1H   LINE      CODE     ---       #2482
      01001ABDH   LINE      CODE     ---       #2483
      01001AC0H   LINE      CODE     ---       #2497
      01001AC0H   LINE      CODE     ---       #2499
      01001AC7H   LINE      CODE     ---       #2502
      01001AC7H   LINE      CODE     ---       #2504
      01001AC7H   LINE      CODE     ---       #2505
      01001AD9H   LINE      CODE     ---       #2506
      01001ADFH   LINE      CODE     ---       #2507
      01001ADFH   LINE      CODE     ---       #2510
      01001AF1H   LINE      CODE     ---       #2511
      01001AF8H   LINE      CODE     ---       #2512
      01001AF8H   LINE      CODE     ---       #2513
      01001B02H   LINE      CODE     ---       #2514
      01001B02H   LINE      CODE     ---       #2516
      01001B09H   LINE      CODE     ---       #2518
      01001B16H   LINE      CODE     ---       #2522
      01001B16H   LINE      CODE     ---       #2525
      01001B22H   LINE      CODE     ---       #2526
      01001B28H   LINE      CODE     ---       #2528
      01001B28H   LINE      CODE     ---       #2531
      01001B34H   LINE      CODE     ---       #2532
      01001B3AH   LINE      CODE     ---       #2533
      01001B3AH   LINE      CODE     ---       #2535
      01001B48H   LINE      CODE     ---       #2536
      01001B56H   LINE      CODE     ---       #2537
      01001B5CH   LINE      CODE     ---       #2538
      01001B60H   LINE      CODE     ---       #2539
      01001B64H   LINE      CODE     ---       #2540
      01001B68H   LINE      CODE     ---       #2542
      01001B6BH   LINE      CODE     ---       #2543
      01001B6EH   LINE      CODE     ---       #2544
      01001B6EH   LINE      CODE     ---       #2546
      01001B75H   LINE      CODE     ---       #2549
      01001B75H   LINE      CODE     ---       #2551
      01001B75H   LINE      CODE     ---       #2552
      01001B8EH   LINE      CODE     ---       #2553
      01001B94H   LINE      CODE     ---       #2554
      01001B94H   LINE      CODE     ---       #2557
      01001BA0H   LINE      CODE     ---       #2558
      01001BA8H   LINE      CODE     ---       #2559
      01001BA8H   LINE      CODE     ---       #2561
      01001BAFH   LINE      CODE     ---       #2564
      01001BAFH   LINE      CODE     ---       #2566
      01001BAFH   LINE      CODE     ---       #2567
LX51 LINKER/LOCATER V4.66.41.0                                                        01/11/2019  12:04:15  PAGE 87


      01001BBEH   LINE      CODE     ---       #2568
      01001BC4H   LINE      CODE     ---       #2569
      01001BC4H   LINE      CODE     ---       #2572
      01001BD0H   LINE      CODE     ---       #2573
      01001BDAH   LINE      CODE     ---       #2574
      01001BDDH   LINE      CODE     ---       #2575
      01001BDDH   LINE      CODE     ---       #2577
      01001BEAH   LINE      CODE     ---       #2579
      01001BEFH   LINE      CODE     ---       #2583
      01001BF4H   LINE      CODE     ---       #2587
      01001C1EH   LINE      CODE     ---       #2588
      01001C24H   LINE      CODE     ---       #2589
      01001C24H   LINE      CODE     ---       #2592
      01001C33H   LINE      CODE     ---       #2594
      01001C4DH   LINE      CODE     ---       #2596
      01001C66H   LINE      CODE     ---       #2597
      01001C7CH   LINE      CODE     ---       #2598
      01001C7CH   LINE      CODE     ---       #2599
      01001C84H   LINE      CODE     ---       #2601
      01001C86H   LINE      CODE     ---       #2602
      01001C86H   LINE      CODE     ---       #2689
      01001C90H   LINE      CODE     ---       #2692
      01001C90H   LINE      CODE     ---       #2694
      01001C90H   LINE      CODE     ---       #2695
      01001CA2H   LINE      CODE     ---       #2696
      01001CA8H   LINE      CODE     ---       #2697
      01001CA8H   LINE      CODE     ---       #2700
      01001CB1H   LINE      CODE     ---       #2701
      01001CB6H   LINE      CODE     ---       #2702
      01001CC6H   LINE      CODE     ---       #2705
      01001CCCH   LINE      CODE     ---       #2706
      01001CCFH   LINE      CODE     ---       #2708
      01001CCFH   LINE      CODE     ---       #2710
      01001CCFH   LINE      CODE     ---       #2712
      01001CD0H   LINE      CODE     ---       #2714
      01001CD9H   LINE      CODE     ---       #2716
      01001CDCH   LINE      CODE     ---       #2719
      01001CDCH   LINE      CODE     ---       #2721
      01001CDCH   LINE      CODE     ---       #2722
      01001CEBH   LINE      CODE     ---       #2723
      01001CF1H   LINE      CODE     ---       #2724
      01001CF1H   LINE      CODE     ---       #2726
      01001CF3H   LINE      CODE     ---       #2727
      01001CF6H   LINE      CODE     ---       #2728
      01001CF6H   LINE      CODE     ---       #2729
      01001CF6H   LINE      CODE     ---       #2731
      01001CF6H   LINE      CODE     ---       #2733
      01001CF6H   LINE      CODE     ---       #2735
      01001D01H   LINE      CODE     ---       #2737
      01001D04H   LINE      CODE     ---       #2739
      01001D05H   LINE      CODE     ---       #2741
      01001D0BH   LINE      CODE     ---       #2742
      01001D14H   LINE      CODE     ---       #2743
      01001D17H   LINE      CODE     ---       #2744
      01001D17H   LINE      CODE     ---       #2746
      01001D17H   LINE      CODE     ---       #2748
      01001D17H   LINE      CODE     ---       #2749
      01001D17H   LINE      CODE     ---       #2750
      01001D17H   LINE      CODE     ---       #2752
      01001D17H   LINE      CODE     ---       #2756
      01001D17H   LINE      CODE     ---       #2757
      01001D17H   LINE      CODE     ---       #2758
      ---         BLOCKEND  ---      ---       LVL=0

      010072E5H   BLOCK     CODE     ---       LVL=0
LX51 LINKER/LOCATER V4.66.41.0                                                        01/11/2019  12:04:15  PAGE 88


      010072E5H   LINE      CODE     ---       #2761
      010072E5H   LINE      CODE     ---       #2763
      010072E7H   LINE      CODE     ---       #2764
      010072EAH   LINE      CODE     ---       #2766
      010072F0H   LINE      CODE     ---       #2767
      010072F2H   LINE      CODE     ---       #2768
      ---         BLOCKEND  ---      ---       LVL=0

      01001DC8H   BLOCK     CODE     ---       LVL=0
      01001DC8H   BLOCK     CODE     NEAR LAB  LVL=1
      0100112DH   SYMBOL    CODE     ---       cmd_datsComing
      0100112FH   SYMBOL    CODE     ---       cmd_nwkOpenNote
      02000009H   SYMBOL    XDATA    ---       paramTX_temp
      020000A2H   SYMBOL    XDATA    ---       paramRX_temp
      00000023H.3 SYMBOL    BIT      BIT       heartBeat_cmdFLG
      01001E25H   BLOCK     CODE     NEAR LAB  LVL=2
      00000023H.2 SYMBOL    BIT      BIT       FLG_timeSetInit
      01001263H   SYMBOL    CODE     WORD      DTREQ_EXATTR_ONCEPERIOD
      000000BFH   SYMBOL    IDATA    WORD      constandLoop_reserve
      02000007H   SYMBOL    XDATA    BYTE      frame_dataLen
      00000020H.0 SYMBOL    BIT      BIT       dataFromRemote_IF
      00000020H.1 SYMBOL    BIT      BIT       specialCmd_IF
      02000008H   SYMBOL    XDATA    BYTE      datsTX_Len
      ---         BLOCKEND  ---      ---       LVL=2
      01001E6BH   BLOCK     CODE     NEAR LAB  LVL=2
      01001263H   SYMBOL    CODE     WORD      DTREQ_EXATTR_ONCEPERIOD
      000000BFH   SYMBOL    IDATA    WORD      constandLoop_reserve
      02000007H   SYMBOL    XDATA    BYTE      frame_dataLen
      00000020H.0 SYMBOL    BIT      BIT       dataFromRemote_IF
      00000020H.1 SYMBOL    BIT      BIT       specialCmd_IF
      02000008H   SYMBOL    XDATA    BYTE      datsTX_Len
      01001E9DH   BLOCK     CODE     NEAR LAB  LVL=3
      000000BDH   SYMBOL    IDATA    WORD      current_Insert
      000000C2H   SYMBOL    IDATA    BYTE      statusRelay_temp
      000000C3H   SYMBOL    IDATA    BYTE      localActLoop
      ---         BLOCKEND  ---      ---       LVL=3
      ---         BLOCKEND  ---      ---       LVL=2
      01001F9CH   BLOCK     CODE     NEAR LAB  LVL=2
      02000007H   SYMBOL    XDATA    BYTE      frame_dataLen
      00000020H.0 SYMBOL    BIT      BIT       dataFromRemote_IF
      00000020H.1 SYMBOL    BIT      BIT       specialCmd_IF
      02000008H   SYMBOL    XDATA    BYTE      datsTX_Len
      0100204FH   BLOCK     CODE     NEAR LAB  LVL=3
      02000000H   SYMBOL    XDATA    BYTE      loop
      02000001H   SYMBOL    XDATA    ---       nightDatsTemp_CalibrateTab
      000000C1H   SYMBOL    IDATA    BYTE      loop
      000000C4H   SYMBOL    IDATA    WORD      datsFrom_addr
      000000C6H   SYMBOL    IDATA    BYTE      srcPoint
      000000C7H   SYMBOL    IDATA    BYTE      dstPoint
      ---         BLOCKEND  ---      ---       LVL=3
      010020BFH   BLOCK     CODE     NEAR LAB  LVL=3
      02000001H   SYMBOL    XDATA    ---       nightDatsTemp_CalibrateTab
      000000C1H   SYMBOL    IDATA    BYTE      loop
      000000C4H   SYMBOL    IDATA    WORD      datsFrom_addr
      000000C6H   SYMBOL    IDATA    BYTE      srcPoint
      000000C7H   SYMBOL    IDATA    BYTE      dstPoint
      ---         BLOCKEND  ---      ---       LVL=3
      ---         BLOCKEND  ---      ---       LVL=2
      0100224BH   BLOCK     CODE     NEAR LAB  LVL=2
      00000020H.0 SYMBOL    BIT      BIT       dataFromRemote_IF
      00000020H.1 SYMBOL    BIT      BIT       specialCmd_IF
      02000008H   SYMBOL    XDATA    BYTE      datsTX_Len
      ---         BLOCKEND  ---      ---       LVL=2
      01002297H   BLOCK     CODE     NEAR LAB  LVL=2
      000000C1H   SYMBOL    IDATA    BYTE      loop
LX51 LINKER/LOCATER V4.66.41.0                                                        01/11/2019  12:04:15  PAGE 89


      000000C4H   SYMBOL    IDATA    WORD      datsFrom_addr
      000000C6H   SYMBOL    IDATA    BYTE      srcPoint
      000000C7H   SYMBOL    IDATA    BYTE      dstPoint
      ---         BLOCKEND  ---      ---       LVL=2
      0100242FH   BLOCK     CODE     NEAR LAB  LVL=2
      000000C4H   SYMBOL    IDATA    WORD      datsFrom_addr
      000000C6H   SYMBOL    IDATA    BYTE      srcPoint
      000000C7H   SYMBOL    IDATA    BYTE      dstPoint
      01002489H   BLOCK     CODE     NEAR LAB  LVL=3
      000000C2H   SYMBOL    IDATA    BYTE      statusRelay_temp
      000000C3H   SYMBOL    IDATA    BYTE      localActLoop
      ---         BLOCKEND  ---      ---       LVL=3
      ---         BLOCKEND  ---      ---       LVL=2
      ---         BLOCKEND  ---      ---       LVL=1
      01001DC8H   LINE      CODE     ---       #2772
      01001DC8H   LINE      CODE     ---       #2778
      01001DD7H   LINE      CODE     ---       #2779
      01001DE6H   LINE      CODE     ---       #2784
      01001DECH   LINE      CODE     ---       #2786
      01001DEFH   LINE      CODE     ---       #2787
      01001DF2H   LINE      CODE     ---       #2788
      01001DF2H   LINE      CODE     ---       #2791
      01001E1AH   LINE      CODE     ---       #2793
      01001E1AH   LINE      CODE     ---       #2795
      01001E22H   LINE      CODE     ---       #2797
      01001E22H   LINE      CODE     ---       #2798
      01001E22H   LINE      CODE     ---       #2800
      01001E25H   LINE      CODE     ---       #2801
      01001E25H   LINE      CODE     ---       #2803
      01001E25H   LINE      CODE     ---       #2806
      01001E28H   LINE      CODE     ---       #2808
      01001E2AH   LINE      CODE     ---       #2809
      01001E37H   LINE      CODE     ---       #2811
      01001E3AH   LINE      CODE     ---       #2813
      01001E3AH   LINE      CODE     ---       #2815
      01001E3AH   LINE      CODE     ---       #2816
      01001E4FH   LINE      CODE     ---       #2817
      01001E55H   LINE      CODE     ---       #2818
      01001E55H   LINE      CODE     ---       #2820
      01001E55H   LINE      CODE     ---       #2821
      01001E55H   LINE      CODE     ---       #2823
      01001E55H   LINE      CODE     ---       #2825
      01001E5DH   LINE      CODE     ---       #2827
      01001E63H   LINE      CODE     ---       #2829
      01001E66H   LINE      CODE     ---       #2830
      01001E6BH   LINE      CODE     ---       #2831
      01001E6BH   LINE      CODE     ---       #2832
      01001E6BH   LINE      CODE     ---       #2835
      01001E6BH   LINE      CODE     ---       #2838
      01001E8AH   LINE      CODE     ---       #2840
      01001E90H   LINE      CODE     ---       #2842
      01001E9DH   LINE      CODE     ---       #2844
      01001EABH   LINE      CODE     ---       #2847
      01001EAFH   LINE      CODE     ---       #2849
      01001EB4H   LINE      CODE     ---       #2852
      01001ED5H   LINE      CODE     ---       #2853
      01001EDBH   LINE      CODE     ---       #2854
      01001EDBH   LINE      CODE     ---       #2857
      01001EECH   LINE      CODE     ---       #2859
      01001EF2H   LINE      CODE     ---       #2860
      01001F04H   LINE      CODE     ---       #2861
      01001F06H   LINE      CODE     ---       #2863
      01001F14H   LINE      CODE     ---       #2865
      01001F35H   LINE      CODE     ---       #2866
      01001F7CH   LINE      CODE     ---       #2868
LX51 LINKER/LOCATER V4.66.41.0                                                        01/11/2019  12:04:15  PAGE 90


      01001F8DH   LINE      CODE     ---       #2869
      01001F8DH   LINE      CODE     ---       #2870
      01001F8DH   LINE      CODE     ---       #2871
      01001F8DH   LINE      CODE     ---       #2927
      01001F9CH   LINE      CODE     ---       #2929
      01001FA0H   LINE      CODE     ---       #2931
      01001FA2H   LINE      CODE     ---       #2932
      01001FA4H   LINE      CODE     ---       #2934
      01001FADH   LINE      CODE     ---       #2964
      01001FBCH   LINE      CODE     ---       #2965
      01001FC3H   LINE      CODE     ---       #2967
      01001FC6H   LINE      CODE     ---       #2968
      01001FCEH   LINE      CODE     ---       #2969
      01001FECH   LINE      CODE     ---       #2970
      01001FECH   LINE      CODE     ---       #2979
      01001FFCH   LINE      CODE     ---       #2980
      0100200BH   LINE      CODE     ---       #2981
      01002020H   LINE      CODE     ---       #2982
      0100202FH   LINE      CODE     ---       #2983
      0100203FH   LINE      CODE     ---       #2984
      0100204FH   LINE      CODE     ---       #2987
      0100204FH   LINE      CODE     ---       #2988
      01002054H   LINE      CODE     ---       #2989
      01002065H   LINE      CODE     ---       #2990
      01002074H   LINE      CODE     ---       #2992
      0100209DH   LINE      CODE     ---       #2993
      010020A5H   LINE      CODE     ---       #2994
      010020A5H   LINE      CODE     ---       #2995
      010020B5H   LINE      CODE     ---       #2996
      010020BAH   LINE      CODE     ---       #2997
      010020BFH   LINE      CODE     ---       #2998
      010020BFH   LINE      CODE     ---       #3000
      010020CCH   LINE      CODE     ---       #3002
      010020D5H   LINE      CODE     ---       #3003
      010020EDH   LINE      CODE     ---       #3004
      01002104H   LINE      CODE     ---       #3005
      01002111H   LINE      CODE     ---       #3006
      01002119H   LINE      CODE     ---       #3007
      01002126H   LINE      CODE     ---       #3008
      0100212EH   LINE      CODE     ---       #3033
      0100212EH   LINE      CODE     ---       #3034
      0100213AH   LINE      CODE     ---       #3035
      0100213FH   LINE      CODE     ---       #3036
      01002150H   LINE      CODE     ---       #3037
      01002150H   LINE      CODE     ---       #3039
      01002156H   LINE      CODE     ---       #3114
      01002156H   LINE      CODE     ---       #3116
      0100215EH   LINE      CODE     ---       #3118
      0100215EH   LINE      CODE     ---       #3120
      0100215EH   LINE      CODE     ---       #3121
      0100215EH   LINE      CODE     ---       #3122
      0100215EH   LINE      CODE     ---       #3125
      01002167H   LINE      CODE     ---       #3127
      01002167H   LINE      CODE     ---       #3129
      01002173H   LINE      CODE     ---       #3131
      01002175H   LINE      CODE     ---       #3133
      01002175H   LINE      CODE     ---       #3135
      01002188H   LINE      CODE     ---       #3137
      01002188H   LINE      CODE     ---       #3139
      01002188H   LINE      CODE     ---       #3140
      01002188H   LINE      CODE     ---       #3143
      0100218DH   LINE      CODE     ---       #3144
      01002192H   LINE      CODE     ---       #3145
      01002196H   LINE      CODE     ---       #3146
      0100219EH   LINE      CODE     ---       #3147
LX51 LINKER/LOCATER V4.66.41.0                                                        01/11/2019  12:04:15  PAGE 91


      010021A5H   LINE      CODE     ---       #3148
      010021AAH   LINE      CODE     ---       #3149
      010021B0H   LINE      CODE     ---       #3150
      010021BAH   LINE      CODE     ---       #3151
      010021C2H   LINE      CODE     ---       #3152
      010021C8H   LINE      CODE     ---       #3153
      010021D3H   LINE      CODE     ---       #3154
      010021DDH   LINE      CODE     ---       #3155
      010021ECH   LINE      CODE     ---       #3156
      010021F3H   LINE      CODE     ---       #3157
      010021F6H   LINE      CODE     ---       #3158
      010021FBH   LINE      CODE     ---       #3159
      01002216H   LINE      CODE     ---       #3171
      0100221DH   LINE      CODE     ---       #3172
      0100221FH   LINE      CODE     ---       #3173
      01002222H   LINE      CODE     ---       #3174
      0100222EH   LINE      CODE     ---       #3175
      01002235H   LINE      CODE     ---       #3176
      01002235H   LINE      CODE     ---       #3177
      01002235H   LINE      CODE     ---       #3178
      0100223FH   LINE      CODE     ---       #3179
      01002243H   LINE      CODE     ---       #3182
      01002243H   LINE      CODE     ---       #3216
      0100224BH   LINE      CODE     ---       #3218
      0100224DH   LINE      CODE     ---       #3219
      0100224FH   LINE      CODE     ---       #3221
      01002254H   LINE      CODE     ---       #3223
      0100225BH   LINE      CODE     ---       #3256
      01002270H   LINE      CODE     ---       #3257
      01002277H   LINE      CODE     ---       #3258
      0100227AH   LINE      CODE     ---       #3260
      01002280H   LINE      CODE     ---       #3261
      01002285H   LINE      CODE     ---       #3265
      01002285H   LINE      CODE     ---       #3268
      0100228EH   LINE      CODE     ---       #3270
      01002297H   LINE      CODE     ---       #3302
      010022A9H   LINE      CODE     ---       #3304
      010022A9H   LINE      CODE     ---       #3305
      010022A9H   LINE      CODE     ---       #3306
      010022A9H   LINE      CODE     ---       #3308
      010022B9H   LINE      CODE     ---       #3310
      010022D3H   LINE      CODE     ---       #3312
      010022E8H   LINE      CODE     ---       #3314
      010022FCH   LINE      CODE     ---       #3316
      01002314H   LINE      CODE     ---       #3318
      01002328H   LINE      CODE     ---       #3319
      01002336H   LINE      CODE     ---       #3320
      01002339H   LINE      CODE     ---       #3323
      0100234CH   LINE      CODE     ---       #3324
      01002362H   LINE      CODE     ---       #3325
      0100237AH   LINE      CODE     ---       #3327
      01002391H   LINE      CODE     ---       #3328
      010023A1H   LINE      CODE     ---       #3329
      010023B2H   LINE      CODE     ---       #3330
      010023B9H   LINE      CODE     ---       #3348
      010023B9H   LINE      CODE     ---       #3349
      010023B9H   LINE      CODE     ---       #3350
      010023BFH   LINE      CODE     ---       #3351
      010023BFH   LINE      CODE     ---       #3353
      010023BFH   LINE      CODE     ---       #3355
      010023C7H   LINE      CODE     ---       #3357
      010023C8H   LINE      CODE     ---       #3359
      010023D5H   LINE      CODE     ---       #3361
      010023DDH   LINE      CODE     ---       #3362
      010023E1H   LINE      CODE     ---       #3363
LX51 LINKER/LOCATER V4.66.41.0                                                        01/11/2019  12:04:15  PAGE 92


      010023E4H   LINE      CODE     ---       #3364
      010023E7H   LINE      CODE     ---       #3367
      010023EFH   LINE      CODE     ---       #3368
      010023F5H   LINE      CODE     ---       #3369
      010023FFH   LINE      CODE     ---       #3371
      01002406H   LINE      CODE     ---       #3372
      01002409H   LINE      CODE     ---       #3373
      0100240FH   LINE      CODE     ---       #3374
      01002415H   LINE      CODE     ---       #3375
      01002415H   LINE      CODE     ---       #3376
      01002415H   LINE      CODE     ---       #3378
      01002415H   LINE      CODE     ---       #3380
      01002415H   LINE      CODE     ---       #3381
      01002415H   LINE      CODE     ---       #3383
      01002415H   LINE      CODE     ---       #3384
      01002415H   LINE      CODE     ---       #3436
      0100241BH   LINE      CODE     ---       #3438
      0100241BH   LINE      CODE     ---       #3453
      0100242FH   LINE      CODE     ---       #3454
      0100242FH   LINE      CODE     ---       #3456
      01002441H   LINE      CODE     ---       #3457
      01002445H   LINE      CODE     ---       #3458
      01002449H   LINE      CODE     ---       #3460
      0100244DH   LINE      CODE     ---       #3462
      01002453H   LINE      CODE     ---       #3463
      0100245CH   LINE      CODE     ---       #3464
      0100245CH   LINE      CODE     ---       #3466
      01002465H   LINE      CODE     ---       #3467
      01002475H   LINE      CODE     ---       #3469
      01002489H   LINE      CODE     ---       #3471
      01002490H   LINE      CODE     ---       #3472
      01002493H   LINE      CODE     ---       #3474
      01002496H   LINE      CODE     ---       #3477
      01002496H   LINE      CODE     ---       #3478
      01002496H   LINE      CODE     ---       #3479
      010024B0H   LINE      CODE     ---       #3480
      010024B6H   LINE      CODE     ---       #3481
      010024B6H   LINE      CODE     ---       #3506
      010024C8H   LINE      CODE     ---       #3508
      010024C8H   LINE      CODE     ---       #3509
      010024C8H   LINE      CODE     ---       #3510
      010024C8H   LINE      CODE     ---       #3513
      010024D8H   LINE      CODE     ---       #3515
      010024E6H   LINE      CODE     ---       #3517
      010024F6H   LINE      CODE     ---       #3519
      01002507H   LINE      CODE     ---       #3520
      01002516H   LINE      CODE     ---       #3521
      01002519H   LINE      CODE     ---       #3522
      0100252CH   LINE      CODE     ---       #3524
      01002531H   LINE      CODE     ---       #3526
      01002542H   LINE      CODE     ---       #3527
      01002542H   LINE      CODE     ---       #3529
      01002544H   LINE      CODE     ---       #3530
      01002544H   LINE      CODE     ---       #3531
      01002549H   LINE      CODE     ---       #3533
      01002549H   LINE      CODE     ---       #3535
      01002549H   LINE      CODE     ---       #3537
      01002553H   LINE      CODE     ---       #3539
      01002560H   LINE      CODE     ---       #3541
      01002565H   LINE      CODE     ---       #3542
      01002568H   LINE      CODE     ---       #3544
      0100256DH   LINE      CODE     ---       #3546
      01002572H   LINE      CODE     ---       #3548
      01002577H   LINE      CODE     ---       #3549
      01002577H   LINE      CODE     ---       #3550
LX51 LINKER/LOCATER V4.66.41.0                                                        01/11/2019  12:04:15  PAGE 93


      01002577H   LINE      CODE     ---       #3552
      01002577H   LINE      CODE     ---       #3554
      01002577H   LINE      CODE     ---       #3556
      0100257EH   LINE      CODE     ---       #3557
      01002585H   LINE      CODE     ---       #3559
      01002586H   LINE      CODE     ---       #3561
      01002594H   LINE      CODE     ---       #3564
      01002594H   LINE      CODE     ---       #3566
      0100259AH   LINE      CODE     ---       #3568
      0100259AH   LINE      CODE     ---       #3571
      0100259AH   LINE      CODE     ---       #3573
      010025A4H   LINE      CODE     ---       #3575
      010025AEH   LINE      CODE     ---       #3576
      010025AEH   LINE      CODE     ---       #3578
      010025AEH   LINE      CODE     ---       #3581
      010025AEH   LINE      CODE     ---       #3583
      010025B4H   LINE      CODE     ---       #3585
      010025B4H   LINE      CODE     ---       #3587
      010025B4H   LINE      CODE     ---       #3591
      010025B4H   LINE      CODE     ---       #3592
      010025B4H   LINE      CODE     ---       #3593
      010025B4H   LINE      CODE     ---       #3595
      010025B4H   LINE      CODE     ---       #3596
      010025C2H   LINE      CODE     ---       #3597
      010025C2H   LINE      CODE     ---       #3599
      010025CAH   LINE      CODE     ---       #3600
      010025CAH   LINE      CODE     ---       #3601
      010025CAH   LINE      CODE     ---       #3603
      010025CAH   LINE      CODE     ---       #3605
      010025CAH   LINE      CODE     ---       #3608
      010025CDH   LINE      CODE     ---       #3609
      010025CFH   LINE      CODE     ---       #3611
      010025D1H   LINE      CODE     ---       #3613
      010025D1H   LINE      CODE     ---       #3616
      010025D4H   LINE      CODE     ---       #3617
      010025D9H   LINE      CODE     ---       #3619
      010025D9H   LINE      CODE     ---       #3621
      010025D9H   LINE      CODE     ---       #3624
      010025DCH   LINE      CODE     ---       #3626
      010025DCH   LINE      CODE     ---       #3628
      010025DCH   LINE      CODE     ---       #3631
      010025DFH   LINE      CODE     ---       #3632
      010025E2H   LINE      CODE     ---       #3634
      010025E2H   LINE      CODE     ---       #3636
      010025E2H   LINE      CODE     ---       #3639
      010025E5H   LINE      CODE     ---       #3640
      010025EBH   LINE      CODE     ---       #3642
      010025F1H   LINE      CODE     ---       #3643
      010025F1H   LINE      CODE     ---       #3645
      010025F1H   LINE      CODE     ---       #3647
      010025F1H   LINE      CODE     ---       #3649
      010025F8H   LINE      CODE     ---       #3651
      010025F8H   LINE      CODE     ---       #3652
      010025FBH   LINE      CODE     ---       #3654
      010025FBH   LINE      CODE     ---       #3655
      010025FBH   LINE      CODE     ---       #3657
      010025FBH   LINE      CODE     ---       #3658
      010025FBH   LINE      CODE     ---       #3659
      ---         BLOCKEND  ---      ---       LVL=0

      ---         MODULE    ---      ---       USRKIN
      020006EEH   PUBLIC    XDATA    WORD      combinationFunFLG_3S5S_cancel_counter
      020006ECH   PUBLIC    XDATA    WORD      touchPadActCounter
      020006EBH   PUBLIC    XDATA    BYTE      touchKeepCnt_record
      020006E9H   PUBLIC    XDATA    WORD      touchPadContinueCnt
LX51 LINKER/LOCATER V4.66.41.0                                                        01/11/2019  12:04:15  PAGE 94


      00000023H.0 PUBLIC    BIT      BIT       ledBackground_method
      000000D8H   PUBLIC    IDATA    BYTE      val_DcodeCfm
      00000065H   PUBLIC    DATA     WORD      usrKeyCount
      00000022H.7 PUBLIC    BIT      BIT       usrKeyCount_EN
      0100724BH   PUBLIC    CODE     ---       usrKeyFun_zigbNwkRejoin
      0100734AH   PUBLIC    CODE     ---       fun_touchReset
      01005ECDH   PUBLIC    CODE     ---       _touchPad_functionTrigContinue
      01005684H   PUBLIC    CODE     ---       _touchPad_functionTrigNormal
      0100554FH   PUBLIC    CODE     ---       touchPad_Scan
      010072AEH   PUBLIC    CODE     ---       touchPadScan_oneShoot
      010068A8H   PUBLIC    CODE     ---       DcodeScan
      01006D27H   PUBLIC    CODE     ---       DcodeScan_oneShoot
      00000027H   PUBLIC    DATA     BYTE      ?_UsrKEYScan?BYTE
      01006839H   PUBLIC    CODE     ---       _UsrKEYScan
      0100738DH   PUBLIC    CODE     ---       UsrKEYScan_oneShoot
      0100705BH   PUBLIC    CODE     ---       usrKin_pinInit
      01007139H   PUBLIC    CODE     ---       _devTypeComfirm_byDcode
      01006E29H   PUBLIC    CODE     ---       usrZigbNwkOpen
      000000D8H.2 SFRSYM    DATA     BIT       CCF2
      000000E0H.7 SFRSYM    DATA     BIT       ACC7
      00000093H   SFRSYM    DATA     BYTE      P0M1
      00000092H   SFRSYM    DATA     BYTE      P1M0
      00000096H   SFRSYM    DATA     BYTE      P2M0
      00000091H   SFRSYM    DATA     BYTE      P1M1
      00000080H   SFRSYM    DATA     BYTE      P0
      000000B2H   SFRSYM    DATA     BYTE      P3M0
      00000095H   SFRSYM    DATA     BYTE      P2M1
      00000090H   SFRSYM    DATA     BYTE      P1
      000000B4H   SFRSYM    DATA     BYTE      P4M0
      000000B1H   SFRSYM    DATA     BYTE      P3M1
      000000A0H   SFRSYM    DATA     BYTE      P2
      000000CAH   SFRSYM    DATA     BYTE      P5M0
      000000B3H   SFRSYM    DATA     BYTE      P4M1
      000000B0H   SFRSYM    DATA     BYTE      P3
      000000ABH   SFRSYM    DATA     BYTE      WKTCH
      000000B0H.4 SFRSYM    DATA     BIT       T0
      000000D0H.6 SFRSYM    DATA     BIT       AC
      000000CCH   SFRSYM    DATA     BYTE      P6M0
      000000C9H   SFRSYM    DATA     BYTE      P5M1
      000000C0H   SFRSYM    DATA     BYTE      P4
      000000B0H.5 SFRSYM    DATA     BIT       CLKOUT0
      000000B0H.5 SFRSYM    DATA     BIT       T1
      000000E2H   SFRSYM    DATA     BYTE      P7M0
      000000CBH   SFRSYM    DATA     BYTE      P6M1
      000000C8H   SFRSYM    DATA     BYTE      P5
      000000C6H   SFRSYM    DATA     BYTE      ISP_TRIG
      000000A8H.7 SFRSYM    DATA     BIT       EA
      000000B0H.4 SFRSYM    DATA     BIT       CLKOUT1
      000000A0H.4 SFRSYM    DATA     BIT       SPI_SS_2
      000000E8H   SFRSYM    DATA     BYTE      P6
      000000E1H   SFRSYM    DATA     BYTE      P7M1
      000000C8H.4 SFRSYM    DATA     BIT       SPI_SS_3
      00000090H.4 SFRSYM    DATA     BIT       SPI_MISO
      00000090H.3 SFRSYM    DATA     BIT       SPI_MOSI
      00000090H.1 SFRSYM    DATA     BIT       CCP0
      000000F8H   SFRSYM    DATA     BYTE      P7
      000000AAH   SFRSYM    DATA     BYTE      WKTCL
      00000090H   SFRSYM    DATA     BIT       CCP1
      000000CEH   SFRSYM    DATA     BYTE      SPCTL
      000000D8H.7 SFRSYM    DATA     BIT       CF
      000000B0H.7 SFRSYM    DATA     BIT       CCP2
      000000F9H   SFRSYM    DATA     BYTE      CH
      000000A2H   SFRSYM    DATA     BYTE      P_SW1
      000000BAH   SFRSYM    DATA     BYTE      P_SW2
      000000A8H.5 SFRSYM    DATA     BIT       EADC
LX51 LINKER/LOCATER V4.66.41.0                                                        01/11/2019  12:04:15  PAGE 95


      000000A0H.1 SFRSYM    DATA     BIT       SPI_SCLK_2
      000000A8H   SFRSYM    DATA     BYTE      IE
      000000C0H.3 SFRSYM    DATA     BIT       SPI_SCLK_3
      000000E9H   SFRSYM    DATA     BYTE      CL
      000000C5H   SFRSYM    DATA     BYTE      IAP_CMD
      000000FAH   SFRSYM    DATA     BYTE      CCAP0H
      00000090H   SFRSYM    DATA     BIT       Dcode0
      000000FBH   SFRSYM    DATA     BYTE      CCAP1H
      00000090H.1 SFRSYM    DATA     BIT       Dcode1
      000000FCH   SFRSYM    DATA     BYTE      CCAP2H
      00000090H.2 SFRSYM    DATA     BIT       Dcode2
      000000BDH   SFRSYM    DATA     BYTE      ADC_RES
      000000B6H   SFRSYM    DATA     BYTE      IPH2
      00000090H.3 SFRSYM    DATA     BIT       Dcode3
      000000D8H.6 SFRSYM    DATA     BIT       CR
      000000EAH   SFRSYM    DATA     BYTE      CCAP0L
      00000090H.4 SFRSYM    DATA     BIT       Dcode4
      000000B0H.7 SFRSYM    DATA     BIT       RD
      000000EBH   SFRSYM    DATA     BYTE      CCAP1L
      000000DAH   SFRSYM    DATA     BYTE      CCAPM0
      00000090H.3 SFRSYM    DATA     BIT       Dcode5
      000000ECH   SFRSYM    DATA     BYTE      CCAP2L
      000000DBH   SFRSYM    DATA     BYTE      CCAPM1
      000000A8H.4 SFRSYM    DATA     BIT       ES
      000000DCH   SFRSYM    DATA     BYTE      CCAPM2
      000000B8H.5 SFRSYM    DATA     BIT       PADC
      000000A0H.2 SFRSYM    DATA     BIT       SPI_MISO_2
      000000A0H.3 SFRSYM    DATA     BIT       SPI_MOSI_2
      000000B8H   SFRSYM    DATA     BYTE      IP
      000000C0H.1 SFRSYM    DATA     BIT       SPI_MISO_3
      000000C0H   SFRSYM    DATA     BIT       SPI_MOSI_3
      00000098H   SFRSYM    DATA     BIT       RI
      000000B0H.2 SFRSYM    DATA     BIT       INT0
      000000D0H.7 SFRSYM    DATA     BIT       CY
      00000098H.1 SFRSYM    DATA     BIT       TI
      000000B0H.3 SFRSYM    DATA     BIT       INT1
      00000097H   SFRSYM    DATA     BYTE      CLK_DIV
      000000C3H   SFRSYM    DATA     BYTE      IAP_ADDRH
      00000090H   SFRSYM    DATA     BIT       RXD2
      000000C5H   SFRSYM    DATA     BYTE      ISP_CMD
      000000B8H.4 SFRSYM    DATA     BIT       PS
      00000090H.1 SFRSYM    DATA     BIT       TXD2
      00000081H   SFRSYM    DATA     BYTE      SP
      000000D9H   SFRSYM    DATA     BYTE      CMOD
      000000D8H   SFRSYM    DATA     BYTE      CCON
      000000C4H   SFRSYM    DATA     BYTE      IAP_ADDRL
      000000B8H.7 SFRSYM    DATA     BIT       PPCA
      000000D0H.2 SFRSYM    DATA     BIT       OV
      000000B0H.6 SFRSYM    DATA     BIT       WR
      000000A8H.6 SFRSYM    DATA     BIT       ELVD
      00000080H   SFRSYM    DATA     BIT       P00
      00000090H   SFRSYM    DATA     BIT       P10
      00000080H.1 SFRSYM    DATA     BIT       P01
      000000BCH   SFRSYM    DATA     BYTE      ADC_CONTR
      00000099H   SFRSYM    DATA     BYTE      SBUF
      00000087H   SFRSYM    DATA     BYTE      PCON
      000000A0H   SFRSYM    DATA     BIT       P20
      00000090H.1 SFRSYM    DATA     BIT       P11
      00000080H.2 SFRSYM    DATA     BIT       P02
      000000C3H   SFRSYM    DATA     BYTE      ISP_ADDRH
      000000B0H   SFRSYM    DATA     BIT       P30
      000000A0H.1 SFRSYM    DATA     BIT       P21
      00000090H.2 SFRSYM    DATA     BIT       P12
      00000080H.3 SFRSYM    DATA     BIT       P03
      000000C0H   SFRSYM    DATA     BIT       P40
LX51 LINKER/LOCATER V4.66.41.0                                                        01/11/2019  12:04:15  PAGE 96


      000000B0H.1 SFRSYM    DATA     BIT       P31
      000000A0H.2 SFRSYM    DATA     BIT       P22
      00000090H.3 SFRSYM    DATA     BIT       P13
      00000080H.4 SFRSYM    DATA     BIT       P04
      00000098H   SFRSYM    DATA     BYTE      SCON
      0000008FH   SFRSYM    DATA     BYTE      WAKE_CLKO
      000000C8H   SFRSYM    DATA     BIT       P50
      000000C0H.1 SFRSYM    DATA     BIT       P41
      000000B0H.2 SFRSYM    DATA     BIT       P32
      000000A0H.3 SFRSYM    DATA     BIT       P23
      00000090H.4 SFRSYM    DATA     BIT       P14
      00000080H.5 SFRSYM    DATA     BIT       P05
      00000089H   SFRSYM    DATA     BYTE      TMOD
      00000088H   SFRSYM    DATA     BYTE      TCON
      000000C8H.1 SFRSYM    DATA     BIT       P51
      000000C0H.2 SFRSYM    DATA     BIT       P42
      000000B0H.3 SFRSYM    DATA     BIT       P33
      000000A0H.4 SFRSYM    DATA     BIT       P24
      00000090H.5 SFRSYM    DATA     BIT       P15
      00000080H.6 SFRSYM    DATA     BIT       P06
      000000C4H   SFRSYM    DATA     BYTE      ISP_ADDRL
      000000B8H.6 SFRSYM    DATA     BIT       PLVD
      000000C8H.2 SFRSYM    DATA     BIT       P52
      000000C0H.3 SFRSYM    DATA     BIT       P43
      000000B0H.4 SFRSYM    DATA     BIT       P34
      000000A0H.5 SFRSYM    DATA     BIT       P25
      00000090H.6 SFRSYM    DATA     BIT       P16
      00000080H.7 SFRSYM    DATA     BIT       P07
      000000C8H.3 SFRSYM    DATA     BIT       P53
      000000C0H.4 SFRSYM    DATA     BIT       P44
      000000B0H.5 SFRSYM    DATA     BIT       P35
      000000A0H.6 SFRSYM    DATA     BIT       P26
      00000090H.7 SFRSYM    DATA     BIT       P17
      000000C8H.4 SFRSYM    DATA     BIT       P54
      000000C0H.5 SFRSYM    DATA     BIT       P45
      000000B0H.6 SFRSYM    DATA     BIT       P36
      000000A0H.7 SFRSYM    DATA     BIT       P27
      000000C8H.5 SFRSYM    DATA     BIT       P55
      000000C0H.6 SFRSYM    DATA     BIT       P46
      000000B0H.7 SFRSYM    DATA     BIT       P37
      000000C8H.6 SFRSYM    DATA     BIT       P56
      000000C0H.7 SFRSYM    DATA     BIT       P47
      000000C8H.7 SFRSYM    DATA     BIT       P57
      00000088H.1 SFRSYM    DATA     BIT       IE0
      000000A1H   SFRSYM    DATA     BYTE      BUS_SPEED
      00000088H.3 SFRSYM    DATA     BIT       IE1
      000000AFH   SFRSYM    DATA     BYTE      IE2
      000000F0H   SFRSYM    DATA     BYTE      B
      0000008EH   SFRSYM    DATA     BYTE      AUXR
      000000C7H   SFRSYM    DATA     BYTE      IAP_CONTR
      000000E0H   SFRSYM    DATA     BYTE      ACC
      000000A8H.1 SFRSYM    DATA     BIT       ET0
      000000A8H.3 SFRSYM    DATA     BIT       ET1
      00000088H.5 SFRSYM    DATA     BIT       TF0
      00000088H.7 SFRSYM    DATA     BIT       TF1
      000000B5H   SFRSYM    DATA     BYTE      IP2
      0000008CH   SFRSYM    DATA     BYTE      RL_TH0
      00000098H.2 SFRSYM    DATA     BIT       RB8
      0000008DH   SFRSYM    DATA     BYTE      RL_TH1
      0000008CH   SFRSYM    DATA     BYTE      TH0
      000000A8H   SFRSYM    DATA     BIT       EX0
      00000088H   SFRSYM    DATA     BIT       IT0
      000000D6H   SFRSYM    DATA     BYTE      RL_T2H
      0000008DH   SFRSYM    DATA     BYTE      TH1
      00000090H.6 SFRSYM    DATA     BIT       touchPad_1
LX51 LINKER/LOCATER V4.66.41.0                                                        01/11/2019  12:04:15  PAGE 97


      000000A8H.2 SFRSYM    DATA     BIT       EX1
      00000098H.3 SFRSYM    DATA     BIT       TB8
      00000088H.2 SFRSYM    DATA     BIT       IT1
      000000D4H   SFRSYM    DATA     BYTE      RL_T3H
      000000D6H   SFRSYM    DATA     BYTE      TH2
      000000D6H   SFRSYM    DATA     BYTE      T2H
      00000090H.7 SFRSYM    DATA     BIT       touchPad_2
      000000D0H   SFRSYM    DATA     BIT       P
      000000D2H   SFRSYM    DATA     BYTE      RL_T4H
      000000D4H   SFRSYM    DATA     BYTE      TH3
      000000D4H   SFRSYM    DATA     BYTE      T3H
      0000008AH   SFRSYM    DATA     BYTE      RL_TL0
      00000090H.5 SFRSYM    DATA     BIT       touchPad_3
      00000098H.7 SFRSYM    DATA     BIT       SM0
      000000D2H   SFRSYM    DATA     BYTE      TH4
      000000D2H   SFRSYM    DATA     BYTE      T4H
      0000008BH   SFRSYM    DATA     BYTE      RL_TL1
      0000008AH   SFRSYM    DATA     BYTE      TL0
      00000098H.6 SFRSYM    DATA     BIT       SM1
      000000D7H   SFRSYM    DATA     BYTE      RL_T2L
      0000008BH   SFRSYM    DATA     BYTE      TL1
      00000098H.5 SFRSYM    DATA     BIT       SM2
      000000D5H   SFRSYM    DATA     BYTE      RL_T3L
      000000D7H   SFRSYM    DATA     BYTE      TL2
      000000D7H   SFRSYM    DATA     BYTE      T2L
      000000D3H   SFRSYM    DATA     BYTE      RL_T4L
      000000D5H   SFRSYM    DATA     BYTE      TL3
      000000D5H   SFRSYM    DATA     BYTE      T3L
      000000B8H.1 SFRSYM    DATA     BIT       PT0
      000000D3H   SFRSYM    DATA     BYTE      TL4
      000000D3H   SFRSYM    DATA     BYTE      T4L
      000000B8H.3 SFRSYM    DATA     BIT       PT1
      000000D0H.3 SFRSYM    DATA     BIT       RS0
      000000C7H   SFRSYM    DATA     BYTE      ISP_CONTR
      00000088H.4 SFRSYM    DATA     BIT       TR0
      000000D0H.4 SFRSYM    DATA     BIT       RS1
      000000C2H   SFRSYM    DATA     BYTE      IAP_DATA
      00000088H.6 SFRSYM    DATA     BIT       TR1
      000000B8H   SFRSYM    DATA     BIT       PX0
      000000C1H   SFRSYM    DATA     BYTE      WDT_CONTR
      000000B8H.2 SFRSYM    DATA     BIT       PX1
      000000F2H   SFRSYM    DATA     BYTE      PCA_PWM0
      000000F3H   SFRSYM    DATA     BYTE      PCA_PWM1
      000000F4H   SFRSYM    DATA     BYTE      PCA_PWM2
      0000009DH   SFRSYM    DATA     BYTE      P1ASF
      00000083H   SFRSYM    DATA     BYTE      DPH
      000000D1H   SFRSYM    DATA     BYTE      T4T3M
      000000BEH   SFRSYM    DATA     BYTE      ADC_RESL
      00000082H   SFRSYM    DATA     BYTE      DPL
      000000CDH   SFRSYM    DATA     BYTE      SPSTAT
      000000B7H   SFRSYM    DATA     BYTE      IPH
      0000009BH   SFRSYM    DATA     BYTE      S2BUF
      00000097H   SFRSYM    DATA     BYTE      PCON2
      000000ADH   SFRSYM    DATA     BYTE      S3BUF
      00000098H.4 SFRSYM    DATA     BIT       REN
      00000085H   SFRSYM    DATA     BYTE      S4BUF
      00000080H.2 SFRSYM    DATA     BIT       Usr_key
      0000009AH   SFRSYM    DATA     BYTE      S2CON
      000000ACH   SFRSYM    DATA     BYTE      S3CON
      000000C2H   SFRSYM    DATA     BYTE      ISP_DATA
      00000084H   SFRSYM    DATA     BYTE      S4CON
      000000B9H   SFRSYM    DATA     BYTE      SADEN
      000000B0H   SFRSYM    DATA     BIT       RXD
      000000A9H   SFRSYM    DATA     BYTE      SADDR
      000000B0H.1 SFRSYM    DATA     BIT       TXD
LX51 LINKER/LOCATER V4.66.41.0                                                        01/11/2019  12:04:15  PAGE 98


      000000F0H   SFRSYM    DATA     BIT       B0
      000000F0H.1 SFRSYM    DATA     BIT       B1
      000000C6H   SFRSYM    DATA     BYTE      IAP_TRIG
      000000A2H   SFRSYM    DATA     BYTE      AUXR1
      000000F0H.2 SFRSYM    DATA     BIT       B2
      00000090H.2 SFRSYM    DATA     BIT       SPI_SS
      0000008FH   SFRSYM    DATA     BYTE      AUXR2
      000000F0H.3 SFRSYM    DATA     BIT       B3
      000000F0H.4 SFRSYM    DATA     BIT       B4
      000000D0H.5 SFRSYM    DATA     BIT       F0
      000000F0H.5 SFRSYM    DATA     BIT       B5
      000000D0H.1 SFRSYM    DATA     BIT       F1
      0000008FH   SFRSYM    DATA     BYTE      INT_CLKO
      000000F0H.6 SFRSYM    DATA     BIT       B6
      000000E0H   SFRSYM    DATA     BIT       ACC0
      000000F0H.7 SFRSYM    DATA     BIT       B7
      000000E0H.1 SFRSYM    DATA     BIT       ACC1
      000000E0H.2 SFRSYM    DATA     BIT       ACC2
      000000E0H.3 SFRSYM    DATA     BIT       ACC3
      000000D0H   SFRSYM    DATA     BYTE      PSW
      000000E0H.4 SFRSYM    DATA     BIT       ACC4
      00000090H.5 SFRSYM    DATA     BIT       SPI_SCLK
      000000D8H   SFRSYM    DATA     BIT       CCF0
      000000E0H.5 SFRSYM    DATA     BIT       ACC5
      000000D8H.1 SFRSYM    DATA     BIT       CCF1
      000000E0H.6 SFRSYM    DATA     BIT       ACC6
      000000CFH   SFRSYM    DATA     BYTE      SPDAT
      00000094H   SFRSYM    DATA     BYTE      P0M0
      00000064H   SYMBOL    DATA     ---       param_combinationFunTrigger_3S5S
      010050D0H   SYMBOL    CODE     ---       _normalBussiness_shortTouchTrig
      01005684H   SYMBOL    CODE     ---       _touchPad_functionTrigNormal
      010071EFH   SYMBOL    CODE     ---       _normalBussiness_longA_touchKeepTrig
      01005ECDH   SYMBOL    CODE     ---       _touchPad_functionTrigContinue
      00000067H   SYMBOL    DATA     ---       param_combinationFunTrigger_3S1L

      010065D4H   BLOCK     CODE     ---       LVL=0
      ---         BLOCKEND  ---      ---       LVL=0

      01006E29H   BLOCK     CODE     ---       LVL=0
      01006E29H   LINE      CODE     ---       #108
      01006E29H   LINE      CODE     ---       #110
      01006E3BH   LINE      CODE     ---       #112
      01006E3BH   LINE      CODE     ---       #114
      01006E43H   LINE      CODE     ---       #115
      01006E48H   LINE      CODE     ---       #117
      01006E48H   LINE      CODE     ---       #118
      01006E4BH   LINE      CODE     ---       #119
      01006E60H   LINE      CODE     ---       #120
      01006E66H   LINE      CODE     ---       #121
      01006E66H   LINE      CODE     ---       #123
      01006E66H   LINE      CODE     ---       #124
      ---         BLOCKEND  ---      ---       LVL=0

      01007139H   BLOCK     CODE     ---       LVL=0
      00000007H   SYMBOL    DATA     BYTE      valDcode
      01007139H   LINE      CODE     ---       #126
      01007139H   LINE      CODE     ---       #128
      01007139H   LINE      CODE     ---       #156
      01007147H   LINE      CODE     ---       #158
      01007147H   LINE      CODE     ---       #160
      0100714AH   LINE      CODE     ---       #162
      0100714BH   LINE      CODE     ---       #164
      0100714BH   LINE      CODE     ---       #166
      0100714EH   LINE      CODE     ---       #168
      0100714FH   LINE      CODE     ---       #170
LX51 LINKER/LOCATER V4.66.41.0                                                        01/11/2019  12:04:15  PAGE 99


      0100714FH   LINE      CODE     ---       #172
      01007152H   LINE      CODE     ---       #174
      01007153H   LINE      CODE     ---       #176
      01007153H   LINE      CODE     ---       #178
      01007156H   LINE      CODE     ---       #180
      01007156H   LINE      CODE     ---       #182
      01007156H   LINE      CODE     ---       #183
      01007156H   LINE      CODE     ---       #185
      ---         BLOCKEND  ---      ---       LVL=0

      0100705BH   BLOCK     CODE     ---       LVL=0
      01007067H   BLOCK     CODE     NEAR LAB  LVL=1
      00000027H   SYMBOL    DATA     BYTE      touchVal_temp
      ---         BLOCKEND  ---      ---       LVL=1
      0100705BH   LINE      CODE     ---       #187
      0100705BH   LINE      CODE     ---       #198
      0100705EH   LINE      CODE     ---       #199
      01007061H   LINE      CODE     ---       #201
      01007064H   LINE      CODE     ---       #202
      01007067H   LINE      CODE     ---       #204
      01007067H   LINE      CODE     ---       #206
      0100706CH   LINE      CODE     ---       #208
      01007077H   LINE      CODE     ---       #209
      ---         BLOCKEND  ---      ---       LVL=0

      0100738DH   BLOCK     CODE     ---       LVL=0
      0100738DH   LINE      CODE     ---       #215
      0100738DH   LINE      CODE     ---       #217
      0100738FH   LINE      CODE     ---       #218
      ---         BLOCKEND  ---      ---       LVL=0

      01006839H   BLOCK     CODE     ---       LVL=0
      00000027H   SYMBOL    DATA     ---       funCB_Short
      0000002AH   SYMBOL    DATA     ---       funCB_LongA
      0000002DH   SYMBOL    DATA     ---       funCB_LongB
      0100683FH   BLOCK     CODE     NEAR LAB  LVL=1
      0100587DH   SYMBOL    CODE     WORD      keyCfrmLoop_Short
      0100587FH   SYMBOL    CODE     WORD      keyCfrmLoop_LongA
      01005881H   SYMBOL    CODE     WORD      keyCfrmLoop_LongB
      01005883H   SYMBOL    CODE     WORD      keyCfrmLoop_MAX
      00000021H.7 SYMBOL    BIT      BIT       LongA_FLG
      00000022H.0 SYMBOL    BIT      BIT       LongB_FLG
      00000022H.1 SYMBOL    BIT      BIT       keyPress_FLG
      ---         BLOCKEND  ---      ---       LVL=1
      01006839H   LINE      CODE     ---       #220
      0100683FH   LINE      CODE     ---       #232
      01006844H   LINE      CODE     ---       #234
      01006846H   LINE      CODE     ---       #238
      0100684BH   LINE      CODE     ---       #240
      0100685CH   LINE      CODE     ---       #242
      01006863H   LINE      CODE     ---       #244
      01006865H   LINE      CODE     ---       #245
      01006865H   LINE      CODE     ---       #247
      01006879H   LINE      CODE     ---       #249
      01006880H   LINE      CODE     ---       #251
      01006882H   LINE      CODE     ---       #252
      01006882H   LINE      CODE     ---       #254
      01006883H   LINE      CODE     ---       #256
      01006885H   LINE      CODE     ---       #258
      01006888H   LINE      CODE     ---       #260
      0100688AH   LINE      CODE     ---       #262
      01006897H   LINE      CODE     ---       #269
      0100689EH   LINE      CODE     ---       #270
      0100689EH   LINE      CODE     ---       #272
      010068A3H   LINE      CODE     ---       #273
LX51 LINKER/LOCATER V4.66.41.0                                                        01/11/2019  12:04:15  PAGE 100


      010068A5H   LINE      CODE     ---       #274
      010068A7H   LINE      CODE     ---       #275
      010068A7H   LINE      CODE     ---       #276
      010068A7H   LINE      CODE     ---       #277
      ---         BLOCKEND  ---      ---       LVL=0

      01006D27H   BLOCK     CODE     ---       LVL=0
      01006D27H   BLOCK     CODE     NEAR LAB  LVL=1
      00000007H   SYMBOL    DATA     BYTE      val_Dcode
      ---         BLOCKEND  ---      ---       LVL=1
      01006D27H   LINE      CODE     ---       #282
      01006D27H   LINE      CODE     ---       #284
      01006D29H   LINE      CODE     ---       #286
      01006D2FH   LINE      CODE     ---       #287
      01006D32H   LINE      CODE     ---       #289
      01006D3AH   LINE      CODE     ---       #290
      01006D3DH   LINE      CODE     ---       #292
      01006D45H   LINE      CODE     ---       #293
      01006D48H   LINE      CODE     ---       #295
      01006D50H   LINE      CODE     ---       #296
      01006D53H   LINE      CODE     ---       #298
      01006D5BH   LINE      CODE     ---       #299
      01006D5EH   LINE      CODE     ---       #301
      01006D66H   LINE      CODE     ---       #302
      01006D69H   LINE      CODE     ---       #304
      01006D69H   LINE      CODE     ---       #305
      ---         BLOCKEND  ---      ---       LVL=0

      010068A8H   BLOCK     CODE     ---       LVL=0
      010068A8H   BLOCK     CODE     NEAR LAB  LVL=1
      00000060H   SYMBOL    DATA     BYTE      val_Dcode_Local
      00000061H   SYMBOL    DATA     BYTE      comfirm_Cnt
      00000027H   SYMBOL    DATA     BYTE      comfirm_Period
      00000028H   SYMBOL    DATA     BYTE      val_Dcode_differ
      00000020H.0 SYMBOL    BIT      BIT       val_CHG
      ---         BLOCKEND  ---      ---       LVL=1
      010068A8H   LINE      CODE     ---       #307
      010068A8H   LINE      CODE     ---       #311
      010068ABH   LINE      CODE     ---       #313
      010068AEH   LINE      CODE     ---       #315
      010068B0H   LINE      CODE     ---       #317
      010068B7H   LINE      CODE     ---       #319
      010068BCH   LINE      CODE     ---       #321
      010068C4H   LINE      CODE     ---       #323
      010068CFH   LINE      CODE     ---       #324
      010068CFH   LINE      CODE     ---       #326
      010068D2H   LINE      CODE     ---       #327
      010068D4H   LINE      CODE     ---       #328
      010068D4H   LINE      CODE     ---       #329
      010068D4H   LINE      CODE     ---       #331
      010068D7H   LINE      CODE     ---       #333
      010068D9H   LINE      CODE     ---       #335
      010068DEH   LINE      CODE     ---       #336
      010068E0H   LINE      CODE     ---       #338
      010068E9H   LINE      CODE     ---       #339
      010068ECH   LINE      CODE     ---       #341
      010068ECH   LINE      CODE     ---       #343
      010068ECH   LINE      CODE     ---       #346
      010068ECH   LINE      CODE     ---       #349
      010068ECH   LINE      CODE     ---       #350
      010068ECH   LINE      CODE     ---       #352
      010068ECH   LINE      CODE     ---       #354
      010068ECH   LINE      CODE     ---       #357
      010068ECH   LINE      CODE     ---       #360
      010068ECH   LINE      CODE     ---       #361
LX51 LINKER/LOCATER V4.66.41.0                                                        01/11/2019  12:04:15  PAGE 101


      010068ECH   LINE      CODE     ---       #363
      010068F1H   LINE      CODE     ---       #365
      010068F9H   LINE      CODE     ---       #367
      010068FCH   LINE      CODE     ---       #369
      010068FEH   LINE      CODE     ---       #371
      01006901H   LINE      CODE     ---       #372
      01006901H   LINE      CODE     ---       #373
      01006901H   LINE      CODE     ---       #375
      01006907H   LINE      CODE     ---       #377
      01006912H   LINE      CODE     ---       #378
      01006912H   LINE      CODE     ---       #379
      01006912H   LINE      CODE     ---       #380
      ---         BLOCKEND  ---      ---       LVL=0

      010071EFH   BLOCK     CODE     ---       LVL=0
      00000007H   SYMBOL    DATA     BYTE      statusPad
      010071EFH   BLOCK     CODE     NEAR LAB  LVL=1
      020006E8H   SYMBOL    XDATA    BYTE      trigCount_Loop
      01005885H   SYMBOL    CODE     BYTE      trigCount_Period
      ---         BLOCKEND  ---      ---       LVL=1
      010071EFH   LINE      CODE     ---       #382
      010071EFH   LINE      CODE     ---       #387
      01007201H   LINE      CODE     ---       #388
      01007201H   LINE      CODE     ---       #390
      01007206H   LINE      CODE     ---       #415
      01007206H   LINE      CODE     ---       #417
      01007206H   LINE      CODE     ---       #418
      ---         BLOCKEND  ---      ---       LVL=0

      010072AEH   BLOCK     CODE     ---       LVL=0
      010072AEH   BLOCK     CODE     NEAR LAB  LVL=1
      00000007H   SYMBOL    DATA     BYTE      valKey_Temp
      ---         BLOCKEND  ---      ---       LVL=1
      010072AEH   LINE      CODE     ---       #420
      010072AEH   LINE      CODE     ---       #422
      010072B0H   LINE      CODE     ---       #424
      010072B4H   LINE      CODE     ---       #425
      010072BAH   LINE      CODE     ---       #426
      010072C0H   LINE      CODE     ---       #428
      010072C0H   LINE      CODE     ---       #429
      ---         BLOCKEND  ---      ---       LVL=0

      0100554FH   BLOCK     CODE     ---       LVL=0
      0100554FH   BLOCK     CODE     NEAR LAB  LVL=1
      00000062H   SYMBOL    DATA     BYTE      touchPad_temp
      00000022H.2 SYMBOL    BIT      BIT       keyPress_FLG
      00000022H.3 SYMBOL    BIT      BIT       funTrigFLG_LongA
      00000022H.4 SYMBOL    BIT      BIT       funTrigFLG_LongB
      01005886H   SYMBOL    CODE     WORD      touchCfrmLoop_Short
      01005888H   SYMBOL    CODE     WORD      touchCfrmLoop_LongA
      0100588AH   SYMBOL    CODE     WORD      touchCfrmLoop_LongB
      0100588CH   SYMBOL    CODE     WORD      touchCfrmLoop_MAX
      00000063H   SYMBOL    DATA     BYTE      pressContinueGet
      00000027H   SYMBOL    DATA     BYTE      pressContinueCfm
      00000028H   SYMBOL    DATA     WORD      conterTemp
      ---         BLOCKEND  ---      ---       LVL=1
      0100554FH   LINE      CODE     ---       #431
      0100554FH   LINE      CODE     ---       #445
      01005552H   LINE      CODE     ---       #447
      01005556H   LINE      CODE     ---       #449
      01005566H   LINE      CODE     ---       #451
      0100556FH   LINE      CODE     ---       #453
      01005572H   LINE      CODE     ---       #455
      01005574H   LINE      CODE     ---       #456
      01005584H   LINE      CODE     ---       #457
LX51 LINKER/LOCATER V4.66.41.0                                                        01/11/2019  12:04:15  PAGE 102


      01005584H   LINE      CODE     ---       #458
      01005584H   LINE      CODE     ---       #459
      01005587H   LINE      CODE     ---       #460
      01005587H   LINE      CODE     ---       #462
      0100558FH   LINE      CODE     ---       #464
      01005592H   LINE      CODE     ---       #479
      0100559FH   LINE      CODE     ---       #481
      010055A4H   LINE      CODE     ---       #483
      010055A7H   LINE      CODE     ---       #485
      010055A9H   LINE      CODE     ---       #486
      010055B0H   LINE      CODE     ---       #487
      010055B0H   LINE      CODE     ---       #488
      010055B0H   LINE      CODE     ---       #489
      010055C8H   LINE      CODE     ---       #491
      010055CEH   LINE      CODE     ---       #493
      010055D0H   LINE      CODE     ---       #494
      010055D7H   LINE      CODE     ---       #495
      010055D7H   LINE      CODE     ---       #496
      010055D7H   LINE      CODE     ---       #498
      010055D7H   LINE      CODE     ---       #500
      010055FFH   LINE      CODE     ---       #502
      01005607H   LINE      CODE     ---       #503
      01005611H   LINE      CODE     ---       #504
      01005616H   LINE      CODE     ---       #505
      01005616H   LINE      CODE     ---       #506
      01005616H   LINE      CODE     ---       #507
      01005616H   LINE      CODE     ---       #509
      01005617H   LINE      CODE     ---       #511
      0100561AH   LINE      CODE     ---       #513
      0100561DH   LINE      CODE     ---       #514
      0100562BH   LINE      CODE     ---       #516
      01005637H   LINE      CODE     ---       #517
      01005642H   LINE      CODE     ---       #518
      01005649H   LINE      CODE     ---       #519
      01005649H   LINE      CODE     ---       #520
      01005649H   LINE      CODE     ---       #522
      01005657H   LINE      CODE     ---       #524
      01005659H   LINE      CODE     ---       #525
      0100565CH   LINE      CODE     ---       #527
      01005663H   LINE      CODE     ---       #536
      0100566AH   LINE      CODE     ---       #537
      0100566DH   LINE      CODE     ---       #538
      0100566DH   LINE      CODE     ---       #540
      01005670H   LINE      CODE     ---       #541
      01005670H   LINE      CODE     ---       #543
      01005673H   LINE      CODE     ---       #545
      01005675H   LINE      CODE     ---       #556
      01005675H   LINE      CODE     ---       #558
      0100567AH   LINE      CODE     ---       #560
      01005681H   LINE      CODE     ---       #561
      01005683H   LINE      CODE     ---       #562
      01005683H   LINE      CODE     ---       #563
      ---         BLOCKEND  ---      ---       LVL=0

      010050D0H   BLOCK     CODE     ---       LVL=0
      00000005H   SYMBOL    DATA     BYTE      statusPad
      00000020H.0 SYMBOL    BIT      BIT       shortPressCnt_IF
      010050D2H   BLOCK     CODE     NEAR LAB  LVL=1
      00000022H.5 SYMBOL    BIT      BIT       tipsBeep_IF
      ---         BLOCKEND  ---      ---       LVL=1
      010050D0H   LINE      CODE     ---       #565
      010050D2H   LINE      CODE     ---       #567
      010050D4H   LINE      CODE     ---       #707
      010050E7H   LINE      CODE     ---       #709
      010050E7H   LINE      CODE     ---       #711
LX51 LINKER/LOCATER V4.66.41.0                                                        01/11/2019  12:04:15  PAGE 103


      010050ECH   LINE      CODE     ---       #713
      010050F1H   LINE      CODE     ---       #714
      010050F3H   LINE      CODE     ---       #715
      010050F8H   LINE      CODE     ---       #717
      010050FEH   LINE      CODE     ---       #718
      01005100H   LINE      CODE     ---       #719
      01005105H   LINE      CODE     ---       #721
      01005114H   LINE      CODE     ---       #722
      01005116H   LINE      CODE     ---       #723
      01005116H   LINE      CODE     ---       #725
      0100511BH   LINE      CODE     ---       #726
      0100511BH   LINE      CODE     ---       #728
      01005125H   LINE      CODE     ---       #730
      01005128H   LINE      CODE     ---       #732
      01005128H   LINE      CODE     ---       #734
      0100512DH   LINE      CODE     ---       #736
      01005130H   LINE      CODE     ---       #737
      01005132H   LINE      CODE     ---       #738
      01005137H   LINE      CODE     ---       #740
      01005137H   LINE      CODE     ---       #741
      01005139H   LINE      CODE     ---       #742
      0100513EH   LINE      CODE     ---       #744
      01005144H   LINE      CODE     ---       #745
      01005146H   LINE      CODE     ---       #746
      0100514BH   LINE      CODE     ---       #748
      0100515EH   LINE      CODE     ---       #749
      01005160H   LINE      CODE     ---       #750
      01005160H   LINE      CODE     ---       #752
      01005165H   LINE      CODE     ---       #753
      01005165H   LINE      CODE     ---       #755
      0100516FH   LINE      CODE     ---       #757
      01005172H   LINE      CODE     ---       #759
      01005172H   LINE      CODE     ---       #761
      01005177H   LINE      CODE     ---       #763
      0100517DH   LINE      CODE     ---       #764
      0100517FH   LINE      CODE     ---       #765
      01005184H   LINE      CODE     ---       #767
      01005187H   LINE      CODE     ---       #768
      01005189H   LINE      CODE     ---       #769
      0100518EH   LINE      CODE     ---       #771
      0100519DH   LINE      CODE     ---       #772
      0100519FH   LINE      CODE     ---       #773
      0100519FH   LINE      CODE     ---       #775
      010051A4H   LINE      CODE     ---       #776
      010051A4H   LINE      CODE     ---       #778
      010051ABH   LINE      CODE     ---       #780
      010051ADH   LINE      CODE     ---       #782
      010051ADH   LINE      CODE     ---       #784
      010051BDH   LINE      CODE     ---       #786
      010051BDH   LINE      CODE     ---       #788
      010051C4H   LINE      CODE     ---       #789
      010051CBH   LINE      CODE     ---       #791
      010051CDH   LINE      CODE     ---       #793
      010051CDH   LINE      CODE     ---       #795
      010051D4H   LINE      CODE     ---       #796
      010051DFH   LINE      CODE     ---       #798
      010051E7H   LINE      CODE     ---       #800
      010051E9H   LINE      CODE     ---       #802
      010051E9H   LINE      CODE     ---       #804
      010051F0H   LINE      CODE     ---       #805
      010051FBH   LINE      CODE     ---       #806
      01005206H   LINE      CODE     ---       #808
      0100520EH   LINE      CODE     ---       #810
      0100520EH   LINE      CODE     ---       #812
      0100520EH   LINE      CODE     ---       #816
LX51 LINKER/LOCATER V4.66.41.0                                                        01/11/2019  12:04:15  PAGE 104


      0100520EH   LINE      CODE     ---       #817
      0100520EH   LINE      CODE     ---       #819
      0100520EH   LINE      CODE     ---       #820
      0100520EH   LINE      CODE     ---       #822
      0100521FH   LINE      CODE     ---       #824
      01005225H   LINE      CODE     ---       #826
      01005227H   LINE      CODE     ---       #828
      0100522DH   LINE      CODE     ---       #829
      0100522DH   LINE      CODE     ---       #831
      01005230H   LINE      CODE     ---       #833
      01005259H   LINE      CODE     ---       #835
      01005264H   LINE      CODE     ---       #836
      01005264H   LINE      CODE     ---       #838
      0100526DH   LINE      CODE     ---       #839
      01005279H   LINE      CODE     ---       #841
      ---         BLOCKEND  ---      ---       LVL=0

      01005684H   BLOCK     CODE     ---       LVL=0
      0000002AH   SYMBOL    DATA     BYTE      statusPad
      0000002BH   SYMBOL    DATA     BYTE      statusCfm
      0100569EH   BLOCK     CODE     NEAR LAB  LVL=1
      00000022H.6 SYMBOL    BIT      BIT       tipsBeep_IF
      ---         BLOCKEND  ---      ---       LVL=1
      01005684H   LINE      CODE     ---       #843
      01005688H   LINE      CODE     ---       #845
      0100569EH   LINE      CODE     ---       #847
      0100569EH   LINE      CODE     ---       #849
      010056A0H   LINE      CODE     ---       #853
      010056A3H   LINE      CODE     ---       #854
      010056ACH   LINE      CODE     ---       #855
      010056B2H   LINE      CODE     ---       #856
      010056B2H   LINE      CODE     ---       #858
      010056B4H   LINE      CODE     ---       #860
      010056B6H   LINE      CODE     ---       #862
      010056B6H   LINE      CODE     ---       #865
      010056B6H   LINE      CODE     ---       #866
      010056B9H   LINE      CODE     ---       #867
      010056C2H   LINE      CODE     ---       #868
      010056C8H   LINE      CODE     ---       #869
      010056C8H   LINE      CODE     ---       #871
      010056CEH   LINE      CODE     ---       #873
      010056D2H   LINE      CODE     ---       #875
      010056D5H   LINE      CODE     ---       #876
      010056E3H   LINE      CODE     ---       #878
      010056E5H   LINE      CODE     ---       #880
      010056EEH   LINE      CODE     ---       #881
      010056EEH   LINE      CODE     ---       #883
      010056F5H   LINE      CODE     ---       #885
      010056F7H   LINE      CODE     ---       #887
      010056F7H   LINE      CODE     ---       #889
      01005704H   LINE      CODE     ---       #891
      0100570CH   LINE      CODE     ---       #893
      0100570FH   LINE      CODE     ---       #896
      0100570FH   LINE      CODE     ---       #897
      01005712H   LINE      CODE     ---       #898
      0100571BH   LINE      CODE     ---       #899
      0100571BH   LINE      CODE     ---       #900
      0100571BH   LINE      CODE     ---       #902
      0100571DH   LINE      CODE     ---       #905
      0100571DH   LINE      CODE     ---       #906
      01005720H   LINE      CODE     ---       #907
      01005735H   LINE      CODE     ---       #908
      0100573BH   LINE      CODE     ---       #909
      0100573BH   LINE      CODE     ---       #911
      0100573DH   LINE      CODE     ---       #913
LX51 LINKER/LOCATER V4.66.41.0                                                        01/11/2019  12:04:15  PAGE 105


      0100573DH   LINE      CODE     ---       #916
      0100573DH   LINE      CODE     ---       #918
      0100573DH   LINE      CODE     ---       #921
      0100573DH   LINE      CODE     ---       #923
      0100573DH   LINE      CODE     ---       #926
      0100573DH   LINE      CODE     ---       #928
      0100573DH   LINE      CODE     ---       #929
      0100573DH   LINE      CODE     ---       #930
      0100573DH   LINE      CODE     ---       #932
      0100573DH   LINE      CODE     ---       #934
      0100573DH   LINE      CODE     ---       #937
      0100573DH   LINE      CODE     ---       #938
      01005740H   LINE      CODE     ---       #939
      01005755H   LINE      CODE     ---       #940
      0100575BH   LINE      CODE     ---       #941
      0100575BH   LINE      CODE     ---       #943
      01005760H   LINE      CODE     ---       #945
      01005760H   LINE      CODE     ---       #947
      01005760H   LINE      CODE     ---       #949
      01005760H   LINE      CODE     ---       #951
      01005760H   LINE      CODE     ---       #953
      01005760H   LINE      CODE     ---       #954
      01005760H   LINE      CODE     ---       #956
      01005760H   LINE      CODE     ---       #958
      01005760H   LINE      CODE     ---       #959
      01005760H   LINE      CODE     ---       #961
      01005760H   LINE      CODE     ---       #963
      01005766H   LINE      CODE     ---       #965
      01005766H   LINE      CODE     ---       #966
      01005769H   LINE      CODE     ---       #968
      01005772H   LINE      CODE     ---       #969
      01005772H   LINE      CODE     ---       #970
      01005772H   LINE      CODE     ---       #971
      ---         BLOCKEND  ---      ---       LVL=0

      01005ECDH   BLOCK     CODE     ---       LVL=0
      0000002AH   SYMBOL    DATA     BYTE      statusPad
      0000002BH   SYMBOL    DATA     BYTE      loopCount
      01005ECDH   LINE      CODE     ---       #973
      01005ED1H   LINE      CODE     ---       #975
      01005EEAH   LINE      CODE     ---       #977
      01005EF5H   LINE      CODE     ---       #978
      01005EF8H   LINE      CODE     ---       #981
      01005EF8H   LINE      CODE     ---       #982
      01005EFBH   LINE      CODE     ---       #983
      01005F16H   LINE      CODE     ---       #984
      01005F1CH   LINE      CODE     ---       #985
      01005F1CH   LINE      CODE     ---       #988
      01005F2CH   LINE      CODE     ---       #990
      01005F2CH   LINE      CODE     ---       #992
      01005F2EH   LINE      CODE     ---       #994
      01005F2EH   LINE      CODE     ---       #997
      01005F2EH   LINE      CODE     ---       #999
      01005F2EH   LINE      CODE     ---       #1002
      01005F2EH   LINE      CODE     ---       #1004
      01005F2EH   LINE      CODE     ---       #1007
      01005F2EH   LINE      CODE     ---       #1009
      01005F2EH   LINE      CODE     ---       #1010
      01005F2EH   LINE      CODE     ---       #1012
      01005F2EH   LINE      CODE     ---       #1014
      01005F2EH   LINE      CODE     ---       #1016
      01005F31H   LINE      CODE     ---       #1017
      01005F3FH   LINE      CODE     ---       #1018
      01005F49H   LINE      CODE     ---       #1020
      01005F4BH   LINE      CODE     ---       #1022
LX51 LINKER/LOCATER V4.66.41.0                                                        01/11/2019  12:04:15  PAGE 106


      01005F4BH   LINE      CODE     ---       #1024
      01005F58H   LINE      CODE     ---       #1026
      01005F60H   LINE      CODE     ---       #1028
      01005F63H   LINE      CODE     ---       #1031
      01005F63H   LINE      CODE     ---       #1032
      01005F66H   LINE      CODE     ---       #1033
      01005F75H   LINE      CODE     ---       #1034
      01005F7BH   LINE      CODE     ---       #1035
      01005F7BH   LINE      CODE     ---       #1037
      01005F7BH   LINE      CODE     ---       #1039
      01005F7DH   LINE      CODE     ---       #1041
      01005F7DH   LINE      CODE     ---       #1044
      01005F7DH   LINE      CODE     ---       #1046
      01005F7DH   LINE      CODE     ---       #1048
      01005F80H   LINE      CODE     ---       #1050
      01005F80H   LINE      CODE     ---       #1052
      01005F80H   LINE      CODE     ---       #1053
      01005F80H   LINE      CODE     ---       #1055
      01005F80H   LINE      CODE     ---       #1057
      01005F80H   LINE      CODE     ---       #1058
      01005F83H   LINE      CODE     ---       #1059
      01005F89H   LINE      CODE     ---       #1061
      01005F8CH   LINE      CODE     ---       #1062
      01005F8CH   LINE      CODE     ---       #1063
      01005F8CH   LINE      CODE     ---       #1064
      ---         BLOCKEND  ---      ---       LVL=0

      0100734AH   BLOCK     CODE     ---       LVL=0
      0100734AH   LINE      CODE     ---       #1144
      0100734AH   LINE      CODE     ---       #1146
      0100734FH   LINE      CODE     ---       #1147
      ---         BLOCKEND  ---      ---       LVL=0

      0100724BH   BLOCK     CODE     ---       LVL=0
      0100724BH   LINE      CODE     ---       #1161
      0100724BH   LINE      CODE     ---       #1163
      01007250H   LINE      CODE     ---       #1165
      01007256H   LINE      CODE     ---       #1166
      0100725DH   LINE      CODE     ---       #1168
      ---         BLOCKEND  ---      ---       LVL=0

      ---         MODULE    ---      ---       DS18B20
      000000D8H.2 SFRSYM    DATA     BIT       CCF2
      000000E0H.7 SFRSYM    DATA     BIT       ACC7
      00000093H   SFRSYM    DATA     BYTE      P0M1
      00000092H   SFRSYM    DATA     BYTE      P1M0
      00000096H   SFRSYM    DATA     BYTE      P2M0
      00000091H   SFRSYM    DATA     BYTE      P1M1
      00000080H   SFRSYM    DATA     BYTE      P0
      000000B2H   SFRSYM    DATA     BYTE      P3M0
      00000095H   SFRSYM    DATA     BYTE      P2M1
      00000090H   SFRSYM    DATA     BYTE      P1
      000000B4H   SFRSYM    DATA     BYTE      P4M0
      000000B1H   SFRSYM    DATA     BYTE      P3M1
      000000A0H   SFRSYM    DATA     BYTE      P2
      000000CAH   SFRSYM    DATA     BYTE      P5M0
      000000B3H   SFRSYM    DATA     BYTE      P4M1
      000000B0H   SFRSYM    DATA     BYTE      P3
      000000ABH   SFRSYM    DATA     BYTE      WKTCH
      000000B0H.4 SFRSYM    DATA     BIT       T0
      000000D0H.6 SFRSYM    DATA     BIT       AC
      000000CCH   SFRSYM    DATA     BYTE      P6M0
      000000C9H   SFRSYM    DATA     BYTE      P5M1
      000000C0H   SFRSYM    DATA     BYTE      P4
      000000B0H.5 SFRSYM    DATA     BIT       CLKOUT0
LX51 LINKER/LOCATER V4.66.41.0                                                        01/11/2019  12:04:15  PAGE 107


      000000B0H.5 SFRSYM    DATA     BIT       T1
      000000E2H   SFRSYM    DATA     BYTE      P7M0
      000000CBH   SFRSYM    DATA     BYTE      P6M1
      000000C8H   SFRSYM    DATA     BYTE      P5
      000000C6H   SFRSYM    DATA     BYTE      ISP_TRIG
      000000A8H.7 SFRSYM    DATA     BIT       EA
      000000B0H.4 SFRSYM    DATA     BIT       CLKOUT1
      000000A0H.4 SFRSYM    DATA     BIT       SPI_SS_2
      000000E8H   SFRSYM    DATA     BYTE      P6
      000000E1H   SFRSYM    DATA     BYTE      P7M1
      000000C8H.4 SFRSYM    DATA     BIT       SPI_SS_3
      00000090H.4 SFRSYM    DATA     BIT       SPI_MISO
      00000090H.3 SFRSYM    DATA     BIT       SPI_MOSI
      00000090H.1 SFRSYM    DATA     BIT       CCP0
      000000F8H   SFRSYM    DATA     BYTE      P7
      000000AAH   SFRSYM    DATA     BYTE      WKTCL
      00000090H   SFRSYM    DATA     BIT       CCP1
      000000CEH   SFRSYM    DATA     BYTE      SPCTL
      000000D8H.7 SFRSYM    DATA     BIT       CF
      000000B0H.7 SFRSYM    DATA     BIT       CCP2
      000000F9H   SFRSYM    DATA     BYTE      CH
      000000A2H   SFRSYM    DATA     BYTE      P_SW1
      000000BAH   SFRSYM    DATA     BYTE      P_SW2
      000000A8H.5 SFRSYM    DATA     BIT       EADC
      000000A0H.1 SFRSYM    DATA     BIT       SPI_SCLK_2
      000000A8H   SFRSYM    DATA     BYTE      IE
      000000C0H.3 SFRSYM    DATA     BIT       SPI_SCLK_3
      000000E9H   SFRSYM    DATA     BYTE      CL
      000000C5H   SFRSYM    DATA     BYTE      IAP_CMD
      000000FAH   SFRSYM    DATA     BYTE      CCAP0H
      000000FBH   SFRSYM    DATA     BYTE      CCAP1H
      000000FCH   SFRSYM    DATA     BYTE      CCAP2H
      000000BDH   SFRSYM    DATA     BYTE      ADC_RES
      000000B6H   SFRSYM    DATA     BYTE      IPH2
      000000D8H.6 SFRSYM    DATA     BIT       CR
      000000EAH   SFRSYM    DATA     BYTE      CCAP0L
      000000B0H.7 SFRSYM    DATA     BIT       RD
      000000EBH   SFRSYM    DATA     BYTE      CCAP1L
      000000DAH   SFRSYM    DATA     BYTE      CCAPM0
      000000ECH   SFRSYM    DATA     BYTE      CCAP2L
      000000DBH   SFRSYM    DATA     BYTE      CCAPM1
      000000A8H.4 SFRSYM    DATA     BIT       ES
      000000DCH   SFRSYM    DATA     BYTE      CCAPM2
      000000B8H.5 SFRSYM    DATA     BIT       PADC
      000000A0H.2 SFRSYM    DATA     BIT       SPI_MISO_2
      000000A0H.3 SFRSYM    DATA     BIT       SPI_MOSI_2
      000000B8H   SFRSYM    DATA     BYTE      IP
      000000C0H.1 SFRSYM    DATA     BIT       SPI_MISO_3
      000000C0H   SFRSYM    DATA     BIT       SPI_MOSI_3
      00000098H   SFRSYM    DATA     BIT       RI
      000000B0H.2 SFRSYM    DATA     BIT       INT0
      000000D0H.7 SFRSYM    DATA     BIT       CY
      00000098H.1 SFRSYM    DATA     BIT       TI
      000000B0H.3 SFRSYM    DATA     BIT       INT1
      00000097H   SFRSYM    DATA     BYTE      CLK_DIV
      000000C3H   SFRSYM    DATA     BYTE      IAP_ADDRH
      00000090H   SFRSYM    DATA     BIT       RXD2
      000000C5H   SFRSYM    DATA     BYTE      ISP_CMD
      000000B8H.4 SFRSYM    DATA     BIT       PS
      00000090H.1 SFRSYM    DATA     BIT       TXD2
      00000081H   SFRSYM    DATA     BYTE      SP
      000000D9H   SFRSYM    DATA     BYTE      CMOD
      000000D8H   SFRSYM    DATA     BYTE      CCON
      000000C4H   SFRSYM    DATA     BYTE      IAP_ADDRL
      000000B8H.7 SFRSYM    DATA     BIT       PPCA
LX51 LINKER/LOCATER V4.66.41.0                                                        01/11/2019  12:04:15  PAGE 108


      000000D0H.2 SFRSYM    DATA     BIT       OV
      000000B0H.6 SFRSYM    DATA     BIT       WR
      000000A8H.6 SFRSYM    DATA     BIT       ELVD
      00000080H   SFRSYM    DATA     BIT       P00
      00000090H   SFRSYM    DATA     BIT       P10
      00000080H.1 SFRSYM    DATA     BIT       P01
      000000BCH   SFRSYM    DATA     BYTE      ADC_CONTR
      00000099H   SFRSYM    DATA     BYTE      SBUF
      00000087H   SFRSYM    DATA     BYTE      PCON
      000000A0H   SFRSYM    DATA     BIT       P20
      00000090H.1 SFRSYM    DATA     BIT       P11
      00000080H.2 SFRSYM    DATA     BIT       P02
      000000C3H   SFRSYM    DATA     BYTE      ISP_ADDRH
      000000B0H   SFRSYM    DATA     BIT       P30
      000000A0H.1 SFRSYM    DATA     BIT       P21
      00000090H.2 SFRSYM    DATA     BIT       P12
      00000080H.3 SFRSYM    DATA     BIT       P03
      000000C0H   SFRSYM    DATA     BIT       P40
      000000B0H.1 SFRSYM    DATA     BIT       P31
      000000A0H.2 SFRSYM    DATA     BIT       P22
      00000090H.3 SFRSYM    DATA     BIT       P13
      00000080H.4 SFRSYM    DATA     BIT       P04
      00000098H   SFRSYM    DATA     BYTE      SCON
      0000008FH   SFRSYM    DATA     BYTE      WAKE_CLKO
      000000C8H   SFRSYM    DATA     BIT       P50
      000000C0H.1 SFRSYM    DATA     BIT       P41
      000000B0H.2 SFRSYM    DATA     BIT       P32
      000000A0H.3 SFRSYM    DATA     BIT       P23
      00000090H.4 SFRSYM    DATA     BIT       P14
      00000080H.5 SFRSYM    DATA     BIT       P05
      00000089H   SFRSYM    DATA     BYTE      TMOD
      00000088H   SFRSYM    DATA     BYTE      TCON
      000000C8H.1 SFRSYM    DATA     BIT       P51
      000000C0H.2 SFRSYM    DATA     BIT       P42
      000000B0H.3 SFRSYM    DATA     BIT       P33
      000000A0H.4 SFRSYM    DATA     BIT       P24
      00000090H.5 SFRSYM    DATA     BIT       P15
      00000080H.6 SFRSYM    DATA     BIT       P06
      000000C4H   SFRSYM    DATA     BYTE      ISP_ADDRL
      000000B8H.6 SFRSYM    DATA     BIT       PLVD
      000000C8H.2 SFRSYM    DATA     BIT       P52
      000000C0H.3 SFRSYM    DATA     BIT       P43
      000000B0H.4 SFRSYM    DATA     BIT       P34
      000000A0H.5 SFRSYM    DATA     BIT       P25
      00000090H.6 SFRSYM    DATA     BIT       P16
      00000080H.7 SFRSYM    DATA     BIT       P07
      000000C8H.3 SFRSYM    DATA     BIT       P53
      000000C0H.4 SFRSYM    DATA     BIT       P44
      000000B0H.5 SFRSYM    DATA     BIT       P35
      000000A0H.6 SFRSYM    DATA     BIT       P26
      00000090H.7 SFRSYM    DATA     BIT       P17
      000000C8H.4 SFRSYM    DATA     BIT       P54
      000000C0H.5 SFRSYM    DATA     BIT       P45
      000000B0H.6 SFRSYM    DATA     BIT       P36
      000000A0H.7 SFRSYM    DATA     BIT       P27
      000000C8H.5 SFRSYM    DATA     BIT       P55
      000000C0H.6 SFRSYM    DATA     BIT       P46
      000000B0H.7 SFRSYM    DATA     BIT       P37
      000000C8H.6 SFRSYM    DATA     BIT       P56
      000000C0H.7 SFRSYM    DATA     BIT       P47
      000000C8H.7 SFRSYM    DATA     BIT       P57
      00000088H.1 SFRSYM    DATA     BIT       IE0
      000000A1H   SFRSYM    DATA     BYTE      BUS_SPEED
      00000088H.3 SFRSYM    DATA     BIT       IE1
      000000AFH   SFRSYM    DATA     BYTE      IE2
LX51 LINKER/LOCATER V4.66.41.0                                                        01/11/2019  12:04:15  PAGE 109


      000000F0H   SFRSYM    DATA     BYTE      B
      0000008EH   SFRSYM    DATA     BYTE      AUXR
      000000C7H   SFRSYM    DATA     BYTE      IAP_CONTR
      000000E0H   SFRSYM    DATA     BYTE      ACC
      000000A8H.1 SFRSYM    DATA     BIT       ET0
      000000A8H.3 SFRSYM    DATA     BIT       ET1
      00000088H.5 SFRSYM    DATA     BIT       TF0
      00000088H.7 SFRSYM    DATA     BIT       TF1
      000000B5H   SFRSYM    DATA     BYTE      IP2
      0000008CH   SFRSYM    DATA     BYTE      RL_TH0
      00000098H.2 SFRSYM    DATA     BIT       RB8
      0000008DH   SFRSYM    DATA     BYTE      RL_TH1
      0000008CH   SFRSYM    DATA     BYTE      TH0
      000000A8H   SFRSYM    DATA     BIT       EX0
      00000088H   SFRSYM    DATA     BIT       IT0
      000000D6H   SFRSYM    DATA     BYTE      RL_T2H
      0000008DH   SFRSYM    DATA     BYTE      TH1
      000000A8H.2 SFRSYM    DATA     BIT       EX1
      00000098H.3 SFRSYM    DATA     BIT       TB8
      00000088H.2 SFRSYM    DATA     BIT       IT1
      000000D4H   SFRSYM    DATA     BYTE      RL_T3H
      000000D6H   SFRSYM    DATA     BYTE      TH2
      000000D6H   SFRSYM    DATA     BYTE      T2H
      000000D0H   SFRSYM    DATA     BIT       P
      000000D2H   SFRSYM    DATA     BYTE      RL_T4H
      000000D4H   SFRSYM    DATA     BYTE      TH3
      000000D4H   SFRSYM    DATA     BYTE      T3H
      0000008AH   SFRSYM    DATA     BYTE      RL_TL0
      00000098H.7 SFRSYM    DATA     BIT       SM0
      000000D2H   SFRSYM    DATA     BYTE      TH4
      000000D2H   SFRSYM    DATA     BYTE      T4H
      0000008BH   SFRSYM    DATA     BYTE      RL_TL1
      0000008AH   SFRSYM    DATA     BYTE      TL0
      00000098H.6 SFRSYM    DATA     BIT       SM1
      000000D7H   SFRSYM    DATA     BYTE      RL_T2L
      0000008BH   SFRSYM    DATA     BYTE      TL1
      00000098H.5 SFRSYM    DATA     BIT       SM2
      000000D5H   SFRSYM    DATA     BYTE      RL_T3L
      000000D7H   SFRSYM    DATA     BYTE      TL2
      000000D7H   SFRSYM    DATA     BYTE      T2L
      000000D3H   SFRSYM    DATA     BYTE      RL_T4L
      000000D5H   SFRSYM    DATA     BYTE      TL3
      000000D5H   SFRSYM    DATA     BYTE      T3L
      000000B8H.1 SFRSYM    DATA     BIT       PT0
      000000D3H   SFRSYM    DATA     BYTE      TL4
      000000D3H   SFRSYM    DATA     BYTE      T4L
      000000B8H.3 SFRSYM    DATA     BIT       PT1
      000000D0H.3 SFRSYM    DATA     BIT       RS0
      000000C7H   SFRSYM    DATA     BYTE      ISP_CONTR
      00000088H.4 SFRSYM    DATA     BIT       TR0
      000000D0H.4 SFRSYM    DATA     BIT       RS1
      000000C2H   SFRSYM    DATA     BYTE      IAP_DATA
      00000088H.6 SFRSYM    DATA     BIT       TR1
      000000B8H   SFRSYM    DATA     BIT       PX0
      000000C1H   SFRSYM    DATA     BYTE      WDT_CONTR
      000000B8H.2 SFRSYM    DATA     BIT       PX1
      000000F2H   SFRSYM    DATA     BYTE      PCA_PWM0
      000000F3H   SFRSYM    DATA     BYTE      PCA_PWM1
      000000F4H   SFRSYM    DATA     BYTE      PCA_PWM2
      0000009DH   SFRSYM    DATA     BYTE      P1ASF
      00000083H   SFRSYM    DATA     BYTE      DPH
      000000D1H   SFRSYM    DATA     BYTE      T4T3M
      000000BEH   SFRSYM    DATA     BYTE      ADC_RESL
      00000082H   SFRSYM    DATA     BYTE      DPL
      000000CDH   SFRSYM    DATA     BYTE      SPSTAT
LX51 LINKER/LOCATER V4.66.41.0                                                        01/11/2019  12:04:15  PAGE 110


      000000B7H   SFRSYM    DATA     BYTE      IPH
      0000009BH   SFRSYM    DATA     BYTE      S2BUF
      00000097H   SFRSYM    DATA     BYTE      PCON2
      000000ADH   SFRSYM    DATA     BYTE      S3BUF
      00000098H.4 SFRSYM    DATA     BIT       REN
      00000085H   SFRSYM    DATA     BYTE      S4BUF
      0000009AH   SFRSYM    DATA     BYTE      S2CON
      000000ACH   SFRSYM    DATA     BYTE      S3CON
      000000C2H   SFRSYM    DATA     BYTE      ISP_DATA
      00000084H   SFRSYM    DATA     BYTE      S4CON
      000000B9H   SFRSYM    DATA     BYTE      SADEN
      000000B0H   SFRSYM    DATA     BIT       RXD
      000000A9H   SFRSYM    DATA     BYTE      SADDR
      000000B0H.1 SFRSYM    DATA     BIT       TXD
      000000F0H   SFRSYM    DATA     BIT       B0
      000000F0H.1 SFRSYM    DATA     BIT       B1
      000000C6H   SFRSYM    DATA     BYTE      IAP_TRIG
      000000A2H   SFRSYM    DATA     BYTE      AUXR1
      000000F0H.2 SFRSYM    DATA     BIT       B2
      00000090H.2 SFRSYM    DATA     BIT       SPI_SS
      0000008FH   SFRSYM    DATA     BYTE      AUXR2
      000000F0H.3 SFRSYM    DATA     BIT       B3
      000000F0H.4 SFRSYM    DATA     BIT       B4
      000000D0H.5 SFRSYM    DATA     BIT       F0
      000000F0H.5 SFRSYM    DATA     BIT       B5
      000000D0H.1 SFRSYM    DATA     BIT       F1
      0000008FH   SFRSYM    DATA     BYTE      INT_CLKO
      000000F0H.6 SFRSYM    DATA     BIT       B6
      000000E0H   SFRSYM    DATA     BIT       ACC0
      000000F0H.7 SFRSYM    DATA     BIT       B7
      000000E0H.1 SFRSYM    DATA     BIT       ACC1
      000000E0H.2 SFRSYM    DATA     BIT       ACC2
      000000E0H.3 SFRSYM    DATA     BIT       ACC3
      000000D0H   SFRSYM    DATA     BYTE      PSW
      000000E0H.4 SFRSYM    DATA     BIT       ACC4
      00000090H.5 SFRSYM    DATA     BIT       SPI_SCLK
      000000D8H   SFRSYM    DATA     BIT       CCF0
      000000E0H.5 SFRSYM    DATA     BIT       ACC5
      000000D8H.1 SFRSYM    DATA     BIT       CCF1
      000000E0H.6 SFRSYM    DATA     BIT       ACC6
      000000CFH   SFRSYM    DATA     BYTE      SPDAT
      00000094H   SFRSYM    DATA     BYTE      P0M0

      ---         MODULE    ---      ---       RELAY
      00000025H.6 PUBLIC    BIT      BIT       statusRelay_saveEn
      020006E7H   PUBLIC    XDATA    BYTE      relayStatus_ifSave
      020006E4H   PUBLIC    XDATA    ---       curtainAct_Param
      020006E2H   PUBLIC    XDATA    ---       devActionPush_IF
      00000025H.5 PUBLIC    BIT      BIT       EACHCTRL_reportFLG
      020006E1H   PUBLIC    XDATA    BYTE      status_Relay
      020006E0H   PUBLIC    XDATA    BYTE      EACHCTRL_realesFLG
      020006DEH   PUBLIC    XDATA    ---       swCommand_fromUsr
      01006D6AH   PUBLIC    CODE     ---       thread_Relay
      00000027H   PUBLIC    DATA     BYTE      ?relay_Act?BYTE
      01005C53H   PUBLIC    CODE     ---       relay_Act
      01006036H   PUBLIC    CODE     ---       relay_pinInit
      01005DFCH   PUBLIC    CODE     ---       relay_statusReales
      000000D8H.2 SFRSYM    DATA     BIT       CCF2
      000000E0H.7 SFRSYM    DATA     BIT       ACC7
      00000093H   SFRSYM    DATA     BYTE      P0M1
      00000092H   SFRSYM    DATA     BYTE      P1M0
      00000096H   SFRSYM    DATA     BYTE      P2M0
      00000091H   SFRSYM    DATA     BYTE      P1M1
      00000080H   SFRSYM    DATA     BYTE      P0
      000000B2H   SFRSYM    DATA     BYTE      P3M0
LX51 LINKER/LOCATER V4.66.41.0                                                        01/11/2019  12:04:15  PAGE 111


      00000095H   SFRSYM    DATA     BYTE      P2M1
      00000090H   SFRSYM    DATA     BYTE      P1
      000000B4H   SFRSYM    DATA     BYTE      P4M0
      000000B1H   SFRSYM    DATA     BYTE      P3M1
      000000A0H   SFRSYM    DATA     BYTE      P2
      000000CAH   SFRSYM    DATA     BYTE      P5M0
      000000B3H   SFRSYM    DATA     BYTE      P4M1
      000000B0H   SFRSYM    DATA     BYTE      P3
      000000ABH   SFRSYM    DATA     BYTE      WKTCH
      000000B0H.4 SFRSYM    DATA     BIT       T0
      000000D0H.6 SFRSYM    DATA     BIT       AC
      000000CCH   SFRSYM    DATA     BYTE      P6M0
      000000C9H   SFRSYM    DATA     BYTE      P5M1
      000000C0H   SFRSYM    DATA     BYTE      P4
      000000B0H.5 SFRSYM    DATA     BIT       CLKOUT0
      000000B0H.5 SFRSYM    DATA     BIT       T1
      000000E2H   SFRSYM    DATA     BYTE      P7M0
      000000CBH   SFRSYM    DATA     BYTE      P6M1
      000000C8H   SFRSYM    DATA     BYTE      P5
      000000C6H   SFRSYM    DATA     BYTE      ISP_TRIG
      000000A8H.7 SFRSYM    DATA     BIT       EA
      000000B0H.4 SFRSYM    DATA     BIT       CLKOUT1
      000000A0H.4 SFRSYM    DATA     BIT       SPI_SS_2
      000000E8H   SFRSYM    DATA     BYTE      P6
      000000E1H   SFRSYM    DATA     BYTE      P7M1
      000000C8H.4 SFRSYM    DATA     BIT       SPI_SS_3
      00000090H.4 SFRSYM    DATA     BIT       SPI_MISO
      00000090H.3 SFRSYM    DATA     BIT       SPI_MOSI
      00000090H.1 SFRSYM    DATA     BIT       CCP0
      000000F8H   SFRSYM    DATA     BYTE      P7
      000000AAH   SFRSYM    DATA     BYTE      WKTCL
      00000090H   SFRSYM    DATA     BIT       CCP1
      000000CEH   SFRSYM    DATA     BYTE      SPCTL
      000000D8H.7 SFRSYM    DATA     BIT       CF
      000000B0H.7 SFRSYM    DATA     BIT       CCP2
      000000F9H   SFRSYM    DATA     BYTE      CH
      000000A2H   SFRSYM    DATA     BYTE      P_SW1
      000000BAH   SFRSYM    DATA     BYTE      P_SW2
      000000A8H.5 SFRSYM    DATA     BIT       EADC
      000000A0H.1 SFRSYM    DATA     BIT       SPI_SCLK_2
      000000A8H   SFRSYM    DATA     BYTE      IE
      000000C0H.3 SFRSYM    DATA     BIT       SPI_SCLK_3
      000000E9H   SFRSYM    DATA     BYTE      CL
      000000C5H   SFRSYM    DATA     BYTE      IAP_CMD
      000000FAH   SFRSYM    DATA     BYTE      CCAP0H
      000000FBH   SFRSYM    DATA     BYTE      CCAP1H
      000000FCH   SFRSYM    DATA     BYTE      CCAP2H
      000000BDH   SFRSYM    DATA     BYTE      ADC_RES
      000000B6H   SFRSYM    DATA     BYTE      IPH2
      000000D8H.6 SFRSYM    DATA     BIT       CR
      000000EAH   SFRSYM    DATA     BYTE      CCAP0L
      000000B0H.7 SFRSYM    DATA     BIT       RD
      000000EBH   SFRSYM    DATA     BYTE      CCAP1L
      000000DAH   SFRSYM    DATA     BYTE      CCAPM0
      000000ECH   SFRSYM    DATA     BYTE      CCAP2L
      000000DBH   SFRSYM    DATA     BYTE      CCAPM1
      000000A8H.4 SFRSYM    DATA     BIT       ES
      000000DCH   SFRSYM    DATA     BYTE      CCAPM2
      000000B8H.5 SFRSYM    DATA     BIT       PADC
      000000A0H.2 SFRSYM    DATA     BIT       SPI_MISO_2
      000000A0H.3 SFRSYM    DATA     BIT       SPI_MOSI_2
      000000B8H   SFRSYM    DATA     BYTE      IP
      000000C0H.1 SFRSYM    DATA     BIT       SPI_MISO_3
      000000C0H   SFRSYM    DATA     BIT       SPI_MOSI_3
      00000098H   SFRSYM    DATA     BIT       RI
LX51 LINKER/LOCATER V4.66.41.0                                                        01/11/2019  12:04:15  PAGE 112


      000000B0H.2 SFRSYM    DATA     BIT       INT0
      000000D0H.7 SFRSYM    DATA     BIT       CY
      00000098H.1 SFRSYM    DATA     BIT       TI
      000000B0H.3 SFRSYM    DATA     BIT       INT1
      00000097H   SFRSYM    DATA     BYTE      CLK_DIV
      000000C3H   SFRSYM    DATA     BYTE      IAP_ADDRH
      00000090H   SFRSYM    DATA     BIT       RXD2
      000000C5H   SFRSYM    DATA     BYTE      ISP_CMD
      000000B8H.4 SFRSYM    DATA     BIT       PS
      00000090H.1 SFRSYM    DATA     BIT       TXD2
      00000081H   SFRSYM    DATA     BYTE      SP
      000000D9H   SFRSYM    DATA     BYTE      CMOD
      000000D8H   SFRSYM    DATA     BYTE      CCON
      000000C4H   SFRSYM    DATA     BYTE      IAP_ADDRL
      000000B8H.7 SFRSYM    DATA     BIT       PPCA
      000000D0H.2 SFRSYM    DATA     BIT       OV
      000000B0H.6 SFRSYM    DATA     BIT       WR
      000000A8H.6 SFRSYM    DATA     BIT       ELVD
      00000080H   SFRSYM    DATA     BIT       P00
      00000090H   SFRSYM    DATA     BIT       P10
      00000080H.1 SFRSYM    DATA     BIT       P01
      000000BCH   SFRSYM    DATA     BYTE      ADC_CONTR
      00000099H   SFRSYM    DATA     BYTE      SBUF
      00000087H   SFRSYM    DATA     BYTE      PCON
      000000A0H   SFRSYM    DATA     BIT       P20
      00000090H.1 SFRSYM    DATA     BIT       P11
      00000080H.2 SFRSYM    DATA     BIT       P02
      000000C3H   SFRSYM    DATA     BYTE      ISP_ADDRH
      000000B0H   SFRSYM    DATA     BIT       P30
      000000A0H.1 SFRSYM    DATA     BIT       P21
      00000090H.2 SFRSYM    DATA     BIT       P12
      00000080H.3 SFRSYM    DATA     BIT       P03
      000000C0H   SFRSYM    DATA     BIT       P40
      000000B0H.1 SFRSYM    DATA     BIT       P31
      000000A0H.2 SFRSYM    DATA     BIT       P22
      00000090H.3 SFRSYM    DATA     BIT       P13
      00000080H.4 SFRSYM    DATA     BIT       P04
      00000098H   SFRSYM    DATA     BYTE      SCON
      0000008FH   SFRSYM    DATA     BYTE      WAKE_CLKO
      000000C8H   SFRSYM    DATA     BIT       P50
      000000C0H.1 SFRSYM    DATA     BIT       P41
      000000B0H.2 SFRSYM    DATA     BIT       P32
      000000A0H.3 SFRSYM    DATA     BIT       P23
      00000090H.4 SFRSYM    DATA     BIT       P14
      00000080H.5 SFRSYM    DATA     BIT       P05
      00000089H   SFRSYM    DATA     BYTE      TMOD
      00000088H   SFRSYM    DATA     BYTE      TCON
      000000C8H.1 SFRSYM    DATA     BIT       P51
      000000C0H.2 SFRSYM    DATA     BIT       P42
      000000B0H.3 SFRSYM    DATA     BIT       P33
      000000A0H.4 SFRSYM    DATA     BIT       P24
      00000090H.5 SFRSYM    DATA     BIT       P15
      00000080H.6 SFRSYM    DATA     BIT       P06
      000000C4H   SFRSYM    DATA     BYTE      ISP_ADDRL
      000000B8H.6 SFRSYM    DATA     BIT       PLVD
      000000C8H.2 SFRSYM    DATA     BIT       P52
      000000C0H.3 SFRSYM    DATA     BIT       P43
      000000B0H.4 SFRSYM    DATA     BIT       P34
      000000A0H.5 SFRSYM    DATA     BIT       P25
      00000090H.6 SFRSYM    DATA     BIT       P16
      00000080H.7 SFRSYM    DATA     BIT       P07
      000000C8H.3 SFRSYM    DATA     BIT       P53
      000000C0H.4 SFRSYM    DATA     BIT       P44
      000000B0H.5 SFRSYM    DATA     BIT       P35
      000000A0H.6 SFRSYM    DATA     BIT       P26
LX51 LINKER/LOCATER V4.66.41.0                                                        01/11/2019  12:04:15  PAGE 113


      00000090H.7 SFRSYM    DATA     BIT       P17
      000000C8H.4 SFRSYM    DATA     BIT       P54
      000000C0H.5 SFRSYM    DATA     BIT       P45
      000000B0H.6 SFRSYM    DATA     BIT       P36
      000000A0H.7 SFRSYM    DATA     BIT       P27
      000000C8H.5 SFRSYM    DATA     BIT       P55
      000000C0H.6 SFRSYM    DATA     BIT       P46
      000000B0H.7 SFRSYM    DATA     BIT       P37
      000000C8H.6 SFRSYM    DATA     BIT       P56
      000000C0H.7 SFRSYM    DATA     BIT       P47
      000000C8H.7 SFRSYM    DATA     BIT       P57
      00000088H.1 SFRSYM    DATA     BIT       IE0
      000000A1H   SFRSYM    DATA     BYTE      BUS_SPEED
      00000088H.3 SFRSYM    DATA     BIT       IE1
      000000AFH   SFRSYM    DATA     BYTE      IE2
      000000F0H   SFRSYM    DATA     BYTE      B
      0000008EH   SFRSYM    DATA     BYTE      AUXR
      000000C7H   SFRSYM    DATA     BYTE      IAP_CONTR
      000000E0H   SFRSYM    DATA     BYTE      ACC
      000000A8H.1 SFRSYM    DATA     BIT       ET0
      000000A8H.3 SFRSYM    DATA     BIT       ET1
      00000088H.5 SFRSYM    DATA     BIT       TF0
      00000088H.7 SFRSYM    DATA     BIT       TF1
      000000B5H   SFRSYM    DATA     BYTE      IP2
      0000008CH   SFRSYM    DATA     BYTE      RL_TH0
      00000098H.2 SFRSYM    DATA     BIT       RB8
      0000008DH   SFRSYM    DATA     BYTE      RL_TH1
      0000008CH   SFRSYM    DATA     BYTE      TH0
      000000A8H   SFRSYM    DATA     BIT       EX0
      00000088H   SFRSYM    DATA     BIT       IT0
      000000D6H   SFRSYM    DATA     BYTE      RL_T2H
      0000008DH   SFRSYM    DATA     BYTE      TH1
      000000A8H.2 SFRSYM    DATA     BIT       EX1
      00000098H.3 SFRSYM    DATA     BIT       TB8
      00000088H.2 SFRSYM    DATA     BIT       IT1
      000000D4H   SFRSYM    DATA     BYTE      RL_T3H
      000000D6H   SFRSYM    DATA     BYTE      TH2
      000000D6H   SFRSYM    DATA     BYTE      T2H
      000000D0H   SFRSYM    DATA     BIT       P
      000000D2H   SFRSYM    DATA     BYTE      RL_T4H
      000000D4H   SFRSYM    DATA     BYTE      TH3
      000000D4H   SFRSYM    DATA     BYTE      T3H
      0000008AH   SFRSYM    DATA     BYTE      RL_TL0
      00000098H.7 SFRSYM    DATA     BIT       SM0
      000000D2H   SFRSYM    DATA     BYTE      TH4
      000000D2H   SFRSYM    DATA     BYTE      T4H
      0000008BH   SFRSYM    DATA     BYTE      RL_TL1
      0000008AH   SFRSYM    DATA     BYTE      TL0
      00000098H.6 SFRSYM    DATA     BIT       SM1
      000000D7H   SFRSYM    DATA     BYTE      RL_T2L
      0000008BH   SFRSYM    DATA     BYTE      TL1
      00000098H.5 SFRSYM    DATA     BIT       SM2
      000000D5H   SFRSYM    DATA     BYTE      RL_T3L
      000000D7H   SFRSYM    DATA     BYTE      TL2
      000000D7H   SFRSYM    DATA     BYTE      T2L
      000000D3H   SFRSYM    DATA     BYTE      RL_T4L
      000000D5H   SFRSYM    DATA     BYTE      TL3
      000000D5H   SFRSYM    DATA     BYTE      T3L
      000000B8H.1 SFRSYM    DATA     BIT       PT0
      000000D3H   SFRSYM    DATA     BYTE      TL4
      000000D3H   SFRSYM    DATA     BYTE      T4L
      000000B8H.3 SFRSYM    DATA     BIT       PT1
      000000D0H.3 SFRSYM    DATA     BIT       RS0
      000000C7H   SFRSYM    DATA     BYTE      ISP_CONTR
      00000088H.4 SFRSYM    DATA     BIT       TR0
LX51 LINKER/LOCATER V4.66.41.0                                                        01/11/2019  12:04:15  PAGE 114


      000000D0H.4 SFRSYM    DATA     BIT       RS1
      000000C2H   SFRSYM    DATA     BYTE      IAP_DATA
      00000088H.6 SFRSYM    DATA     BIT       TR1
      000000B8H   SFRSYM    DATA     BIT       PX0
      000000C1H   SFRSYM    DATA     BYTE      WDT_CONTR
      000000B8H.2 SFRSYM    DATA     BIT       PX1
      000000F2H   SFRSYM    DATA     BYTE      PCA_PWM0
      000000F3H   SFRSYM    DATA     BYTE      PCA_PWM1
      000000F4H   SFRSYM    DATA     BYTE      PCA_PWM2
      0000009DH   SFRSYM    DATA     BYTE      P1ASF
      00000083H   SFRSYM    DATA     BYTE      DPH
      000000D1H   SFRSYM    DATA     BYTE      T4T3M
      000000BEH   SFRSYM    DATA     BYTE      ADC_RESL
      00000082H   SFRSYM    DATA     BYTE      DPL
      000000CDH   SFRSYM    DATA     BYTE      SPSTAT
      000000B7H   SFRSYM    DATA     BYTE      IPH
      0000009BH   SFRSYM    DATA     BYTE      S2BUF
      00000097H   SFRSYM    DATA     BYTE      PCON2
      000000ADH   SFRSYM    DATA     BYTE      S3BUF
      00000098H.4 SFRSYM    DATA     BIT       REN
      00000085H   SFRSYM    DATA     BYTE      S4BUF
      0000009AH   SFRSYM    DATA     BYTE      S2CON
      000000ACH   SFRSYM    DATA     BYTE      S3CON
      000000C2H   SFRSYM    DATA     BYTE      ISP_DATA
      00000084H   SFRSYM    DATA     BYTE      S4CON
      000000B9H   SFRSYM    DATA     BYTE      SADEN
      000000B0H   SFRSYM    DATA     BIT       RXD
      000000A9H   SFRSYM    DATA     BYTE      SADDR
      000000B0H.1 SFRSYM    DATA     BIT       TXD
      000000F0H   SFRSYM    DATA     BIT       B0
      000000F0H.1 SFRSYM    DATA     BIT       B1
      000000C6H   SFRSYM    DATA     BYTE      IAP_TRIG
      000000A2H   SFRSYM    DATA     BYTE      AUXR1
      000000F0H.2 SFRSYM    DATA     BIT       B2
      00000090H.2 SFRSYM    DATA     BIT       SPI_SS
      0000008FH   SFRSYM    DATA     BYTE      AUXR2
      000000F0H.3 SFRSYM    DATA     BIT       B3
      000000F0H.4 SFRSYM    DATA     BIT       B4
      000000D0H.5 SFRSYM    DATA     BIT       F0
      000000F0H.5 SFRSYM    DATA     BIT       B5
      000000D0H.1 SFRSYM    DATA     BIT       F1
      0000008FH   SFRSYM    DATA     BYTE      INT_CLKO
      000000F0H.6 SFRSYM    DATA     BIT       B6
      000000E0H   SFRSYM    DATA     BIT       ACC0
      000000F0H.7 SFRSYM    DATA     BIT       B7
      000000E0H.1 SFRSYM    DATA     BIT       ACC1
      000000E0H.2 SFRSYM    DATA     BIT       ACC2
      000000E0H.3 SFRSYM    DATA     BIT       ACC3
      000000D0H   SFRSYM    DATA     BYTE      PSW
      000000E0H.4 SFRSYM    DATA     BIT       ACC4
      00000090H.5 SFRSYM    DATA     BIT       SPI_SCLK
      000000D8H   SFRSYM    DATA     BIT       CCF0
      000000E0H.5 SFRSYM    DATA     BIT       ACC5
      000000D8H.1 SFRSYM    DATA     BIT       CCF1
      000000E0H.6 SFRSYM    DATA     BIT       ACC6
      000000CFH   SFRSYM    DATA     BYTE      SPDAT
      00000094H   SFRSYM    DATA     BYTE      P0M0

      01007380H   BLOCK     CODE     ---       LVL=0
      ---         BLOCKEND  ---      ---       LVL=0

      01005DFCH   BLOCK     CODE     ---       LVL=0
      01005DFCH   LINE      CODE     ---       #40
      01005DFCH   LINE      CODE     ---       #142
      01005E12H   LINE      CODE     ---       #144
LX51 LINKER/LOCATER V4.66.41.0                                                        01/11/2019  12:04:15  PAGE 115


      01005E12H   LINE      CODE     ---       #146
      01005E1EH   LINE      CODE     ---       #148
      01005E1EH   LINE      CODE     ---       #150
      01005E20H   LINE      CODE     ---       #151
      01005E24H   LINE      CODE     ---       #152
      01005E2AH   LINE      CODE     ---       #154
      01005E2DH   LINE      CODE     ---       #156
      01005E2DH   LINE      CODE     ---       #158
      01005E2FH   LINE      CODE     ---       #159
      01005E33H   LINE      CODE     ---       #160
      01005E39H   LINE      CODE     ---       #162
      01005E3CH   LINE      CODE     ---       #164
      01005E3CH   LINE      CODE     ---       #165
      01005E3CH   LINE      CODE     ---       #167
      01005E42H   LINE      CODE     ---       #168
      01005E47H   LINE      CODE     ---       #170
      01005E58H   LINE      CODE     ---       #172
      01005E5AH   LINE      CODE     ---       #173
      01005E5AH   LINE      CODE     ---       #175
      01005E5AH   LINE      CODE     ---       #177
      01005E5AH   LINE      CODE     ---       #179
      01005E6CH   LINE      CODE     ---       #181
      01005E6EH   LINE      CODE     ---       #183
      01005E6EH   LINE      CODE     ---       #185
      01005E80H   LINE      CODE     ---       #186
      01005E92H   LINE      CODE     ---       #188
      01005E94H   LINE      CODE     ---       #190
      01005E94H   LINE      CODE     ---       #192
      01005EA6H   LINE      CODE     ---       #193
      01005EB8H   LINE      CODE     ---       #194
      01005ECAH   LINE      CODE     ---       #196
      01005ECAH   LINE      CODE     ---       #198
      01005ECAH   LINE      CODE     ---       #199
      01005ECAH   LINE      CODE     ---       #202
      ---         BLOCKEND  ---      ---       LVL=0

      01006036H   BLOCK     CODE     ---       LVL=0
      01006036H   BLOCK     CODE     NEAR LAB  LVL=1
      000000BDH   SYMBOL    IDATA    BYTE      statusTemp
      ---         BLOCKEND  ---      ---       LVL=1
      01006036H   LINE      CODE     ---       #206
      01006036H   LINE      CODE     ---       #208
      0100603AH   LINE      CODE     ---       #250
      0100603DH   LINE      CODE     ---       #251
      01006040H   LINE      CODE     ---       #252
      01006046H   LINE      CODE     ---       #255
      01006057H   LINE      CODE     ---       #256
      01006060H   LINE      CODE     ---       #257
      01006073H   LINE      CODE     ---       #258
      0100607CH   LINE      CODE     ---       #261
      0100607CH   LINE      CODE     ---       #263
      01006088H   LINE      CODE     ---       #264
      010060A9H   LINE      CODE     ---       #265
      010060AFH   LINE      CODE     ---       #266
      010060AFH   LINE      CODE     ---       #272
      010060B6H   LINE      CODE     ---       #275
      010060BEH   LINE      CODE     ---       #280
      010060C2H   LINE      CODE     ---       #282
      010060C3H   LINE      CODE     ---       #284
      010060C7H   LINE      CODE     ---       #285
      010060D7H   LINE      CODE     ---       #286
      010060DAH   LINE      CODE     ---       #287
      010060DAH   LINE      CODE     ---       #288
      ---         BLOCKEND  ---      ---       LVL=0

LX51 LINKER/LOCATER V4.66.41.0                                                        01/11/2019  12:04:15  PAGE 116


      01005C53H   BLOCK     CODE     ---       LVL=0
      00000027H   SYMBOL    DATA     ---       dats
      01005C53H   BLOCK     CODE     NEAR LAB  LVL=1
      00000029H   SYMBOL    DATA     BYTE      statusTemp
      ---         BLOCKEND  ---      ---       LVL=1
      01005C53H   LINE      CODE     ---       #312
      01005C53H   LINE      CODE     ---       #314
      01005C56H   LINE      CODE     ---       #329
      01005C5DH   LINE      CODE     ---       #331
      01005C66H   LINE      CODE     ---       #333
      01005C66H   LINE      CODE     ---       #335
      01005C72H   LINE      CODE     ---       #336
      01005C7EH   LINE      CODE     ---       #337
      01005C8AH   LINE      CODE     ---       #339
      01005C8CH   LINE      CODE     ---       #341
      01005C8CH   LINE      CODE     ---       #343
      01005C9EH   LINE      CODE     ---       #344
      01005CB0H   LINE      CODE     ---       #345
      01005CC2H   LINE      CODE     ---       #347
      01005CC2H   LINE      CODE     ---       #349
      01005CC2H   LINE      CODE     ---       #351
      01005CC5H   LINE      CODE     ---       #353
      01005CCAH   LINE      CODE     ---       #354
      01005CD5H   LINE      CODE     ---       #361
      01005CE4H   LINE      CODE     ---       #362
      01005CF9H   LINE      CODE     ---       #363
      01005D0FH   LINE      CODE     ---       #365
      01005D18H   LINE      CODE     ---       #367
      01005D1FH   LINE      CODE     ---       #370
      01005D27H   LINE      CODE     ---       #375
      01005D27H   LINE      CODE     ---       #378
      ---         BLOCKEND  ---      ---       LVL=0

      01006D6AH   BLOCK     CODE     ---       LVL=0
      01006D96H   BLOCK     CODE     NEAR LAB  LVL=1
      000000BDH   SYMBOL    IDATA    BYTE      statusTemp
      ---         BLOCKEND  ---      ---       LVL=1
      01006D6AH   LINE      CODE     ---       #381
      01006D6AH   LINE      CODE     ---       #383
      01006D72H   LINE      CODE     ---       #385
      01006D88H   LINE      CODE     ---       #387
      01006D8EH   LINE      CODE     ---       #388
      01006D93H   LINE      CODE     ---       #389
      01006D93H   LINE      CODE     ---       #391
      01006D96H   LINE      CODE     ---       #393
      01006D9AH   LINE      CODE     ---       #395
      01006D9CH   LINE      CODE     ---       #406
      01006DA3H   LINE      CODE     ---       #409
      01006DABH   LINE      CODE     ---       #414
      01006DABH   LINE      CODE     ---       #415
      01006DABH   LINE      CODE     ---       #426
      ---         BLOCKEND  ---      ---       LVL=0

      ---         MODULE    ---      ---       TIMERACT
      000000D7H   PUBLIC    IDATA    BYTE      delayPeriod_onoff
      000000D6H   PUBLIC    IDATA    BYTE      delayUp_act
      000000D5H   PUBLIC    IDATA    BYTE      ifDelay_sw_running_FLAG
      000000D3H   PUBLIC    IDATA    WORD      sysTimeKeep_counter
      000000D1H   PUBLIC    IDATA    WORD      delayCnt_closeLoop
      000000D0H   PUBLIC    IDATA    BYTE      swTim_oneShoot_FLAG
      02000686H   PUBLIC    XDATA    BYTE      sysTimeZone_M
      02000685H   PUBLIC    XDATA    BYTE      sysTimeZone_H
      02000684H   PUBLIC    XDATA    BYTE      sysTimeReales_counter
      000000CEH   PUBLIC    IDATA    WORD      delayCnt_onoff
      00000025H.4 PUBLIC    BIT      BIT       ifTim_sw_running_FLAG
LX51 LINKER/LOCATER V4.66.41.0                                                        01/11/2019  12:04:15  PAGE 117


      0200067DH   PUBLIC    XDATA    ---       systemTime_current
      000000CDH   PUBLIC    IDATA    BYTE      delayPeriod_closeLoop
      00000025H.3 PUBLIC    BIT      BIT       ifNightMode_sw_running_FLAG
      01003FB9H   PUBLIC    CODE     ---       thread_Timing
      00000028H   PUBLIC    DATA     BYTE      ?time_Logout?BYTE
      01005F8DH   PUBLIC    CODE     ---       time_Logout
      01007009H   PUBLIC    CODE     ---       _weekend_judge
      01007370H   PUBLIC    CODE     ---       itrf_datsTimNight_read_eeprom
      0100654EH   PUBLIC    CODE     ---       _datsTimNight_read_eeprom
      01007367H   PUBLIC    CODE     ---       itrf_datsTiming_read_eeprom
      010064C8H   PUBLIC    CODE     ---       _datsTiming_read_eeprom
      01007157H   PUBLIC    CODE     ---       timeZone_Reales
      000000D8H.2 SFRSYM    DATA     BIT       CCF2
      000000E0H.7 SFRSYM    DATA     BIT       ACC7
      00000093H   SFRSYM    DATA     BYTE      P0M1
      00000092H   SFRSYM    DATA     BYTE      P1M0
      00000096H   SFRSYM    DATA     BYTE      P2M0
      00000091H   SFRSYM    DATA     BYTE      P1M1
      00000080H   SFRSYM    DATA     BYTE      P0
      000000B2H   SFRSYM    DATA     BYTE      P3M0
      00000095H   SFRSYM    DATA     BYTE      P2M1
      00000090H   SFRSYM    DATA     BYTE      P1
      000000B4H   SFRSYM    DATA     BYTE      P4M0
      000000B1H   SFRSYM    DATA     BYTE      P3M1
      000000A0H   SFRSYM    DATA     BYTE      P2
      000000CAH   SFRSYM    DATA     BYTE      P5M0
      000000B3H   SFRSYM    DATA     BYTE      P4M1
      000000B0H   SFRSYM    DATA     BYTE      P3
      000000ABH   SFRSYM    DATA     BYTE      WKTCH
      000000B0H.4 SFRSYM    DATA     BIT       T0
      000000D0H.6 SFRSYM    DATA     BIT       AC
      000000CCH   SFRSYM    DATA     BYTE      P6M0
      000000C9H   SFRSYM    DATA     BYTE      P5M1
      000000C0H   SFRSYM    DATA     BYTE      P4
      000000B0H.5 SFRSYM    DATA     BIT       CLKOUT0
      000000B0H.5 SFRSYM    DATA     BIT       T1
      000000E2H   SFRSYM    DATA     BYTE      P7M0
      000000CBH   SFRSYM    DATA     BYTE      P6M1
      000000C8H   SFRSYM    DATA     BYTE      P5
      000000C6H   SFRSYM    DATA     BYTE      ISP_TRIG
      000000A8H.7 SFRSYM    DATA     BIT       EA
      000000B0H.4 SFRSYM    DATA     BIT       CLKOUT1
      000000A0H.4 SFRSYM    DATA     BIT       SPI_SS_2
      000000E8H   SFRSYM    DATA     BYTE      P6
      000000E1H   SFRSYM    DATA     BYTE      P7M1
      000000C8H.4 SFRSYM    DATA     BIT       SPI_SS_3
      00000090H.4 SFRSYM    DATA     BIT       SPI_MISO
      00000090H.3 SFRSYM    DATA     BIT       SPI_MOSI
      00000090H.1 SFRSYM    DATA     BIT       CCP0
      000000F8H   SFRSYM    DATA     BYTE      P7
      000000AAH   SFRSYM    DATA     BYTE      WKTCL
      00000090H   SFRSYM    DATA     BIT       CCP1
      000000CEH   SFRSYM    DATA     BYTE      SPCTL
      000000D8H.7 SFRSYM    DATA     BIT       CF
      000000B0H.7 SFRSYM    DATA     BIT       CCP2
      000000F9H   SFRSYM    DATA     BYTE      CH
      000000A2H   SFRSYM    DATA     BYTE      P_SW1
      000000BAH   SFRSYM    DATA     BYTE      P_SW2
      000000A8H.5 SFRSYM    DATA     BIT       EADC
      000000A0H.1 SFRSYM    DATA     BIT       SPI_SCLK_2
      000000A8H   SFRSYM    DATA     BYTE      IE
      000000C0H.3 SFRSYM    DATA     BIT       SPI_SCLK_3
      000000E9H   SFRSYM    DATA     BYTE      CL
      000000C5H   SFRSYM    DATA     BYTE      IAP_CMD
      000000FAH   SFRSYM    DATA     BYTE      CCAP0H
LX51 LINKER/LOCATER V4.66.41.0                                                        01/11/2019  12:04:15  PAGE 118


      00000090H   SFRSYM    DATA     BIT       Dcode0
      000000FBH   SFRSYM    DATA     BYTE      CCAP1H
      00000090H.1 SFRSYM    DATA     BIT       Dcode1
      000000FCH   SFRSYM    DATA     BYTE      CCAP2H
      00000090H.2 SFRSYM    DATA     BIT       Dcode2
      000000BDH   SFRSYM    DATA     BYTE      ADC_RES
      000000B6H   SFRSYM    DATA     BYTE      IPH2
      00000090H.3 SFRSYM    DATA     BIT       Dcode3
      000000D8H.6 SFRSYM    DATA     BIT       CR
      000000EAH   SFRSYM    DATA     BYTE      CCAP0L
      00000090H.4 SFRSYM    DATA     BIT       Dcode4
      000000B0H.7 SFRSYM    DATA     BIT       RD
      000000EBH   SFRSYM    DATA     BYTE      CCAP1L
      000000DAH   SFRSYM    DATA     BYTE      CCAPM0
      00000090H.3 SFRSYM    DATA     BIT       Dcode5
      000000ECH   SFRSYM    DATA     BYTE      CCAP2L
      000000DBH   SFRSYM    DATA     BYTE      CCAPM1
      000000A8H.4 SFRSYM    DATA     BIT       ES
      000000DCH   SFRSYM    DATA     BYTE      CCAPM2
      000000B8H.5 SFRSYM    DATA     BIT       PADC
      000000A0H.2 SFRSYM    DATA     BIT       SPI_MISO_2
      000000A0H.3 SFRSYM    DATA     BIT       SPI_MOSI_2
      000000B8H   SFRSYM    DATA     BYTE      IP
      000000C0H.1 SFRSYM    DATA     BIT       SPI_MISO_3
      000000C0H   SFRSYM    DATA     BIT       SPI_MOSI_3
      00000098H   SFRSYM    DATA     BIT       RI
      000000B0H.2 SFRSYM    DATA     BIT       INT0
      000000D0H.7 SFRSYM    DATA     BIT       CY
      00000098H.1 SFRSYM    DATA     BIT       TI
      000000B0H.3 SFRSYM    DATA     BIT       INT1
      00000097H   SFRSYM    DATA     BYTE      CLK_DIV
      000000C3H   SFRSYM    DATA     BYTE      IAP_ADDRH
      00000090H   SFRSYM    DATA     BIT       RXD2
      000000C5H   SFRSYM    DATA     BYTE      ISP_CMD
      000000B8H.4 SFRSYM    DATA     BIT       PS
      00000090H.1 SFRSYM    DATA     BIT       TXD2
      00000081H   SFRSYM    DATA     BYTE      SP
      000000D9H   SFRSYM    DATA     BYTE      CMOD
      000000D8H   SFRSYM    DATA     BYTE      CCON
      000000C4H   SFRSYM    DATA     BYTE      IAP_ADDRL
      000000B8H.7 SFRSYM    DATA     BIT       PPCA
      000000D0H.2 SFRSYM    DATA     BIT       OV
      000000B0H.6 SFRSYM    DATA     BIT       WR
      000000A8H.6 SFRSYM    DATA     BIT       ELVD
      00000080H   SFRSYM    DATA     BIT       P00
      00000090H   SFRSYM    DATA     BIT       P10
      00000080H.1 SFRSYM    DATA     BIT       P01
      000000BCH   SFRSYM    DATA     BYTE      ADC_CONTR
      00000099H   SFRSYM    DATA     BYTE      SBUF
      00000087H   SFRSYM    DATA     BYTE      PCON
      000000A0H   SFRSYM    DATA     BIT       P20
      00000090H.1 SFRSYM    DATA     BIT       P11
      00000080H.2 SFRSYM    DATA     BIT       P02
      000000C3H   SFRSYM    DATA     BYTE      ISP_ADDRH
      000000B0H   SFRSYM    DATA     BIT       P30
      000000A0H.1 SFRSYM    DATA     BIT       P21
      00000090H.2 SFRSYM    DATA     BIT       P12
      00000080H.3 SFRSYM    DATA     BIT       P03
      000000C0H   SFRSYM    DATA     BIT       P40
      000000B0H.1 SFRSYM    DATA     BIT       P31
      000000A0H.2 SFRSYM    DATA     BIT       P22
      00000090H.3 SFRSYM    DATA     BIT       P13
      00000080H.4 SFRSYM    DATA     BIT       P04
      00000098H   SFRSYM    DATA     BYTE      SCON
      0000008FH   SFRSYM    DATA     BYTE      WAKE_CLKO
LX51 LINKER/LOCATER V4.66.41.0                                                        01/11/2019  12:04:15  PAGE 119


      000000C8H   SFRSYM    DATA     BIT       P50
      000000C0H.1 SFRSYM    DATA     BIT       P41
      000000B0H.2 SFRSYM    DATA     BIT       P32
      000000A0H.3 SFRSYM    DATA     BIT       P23
      00000090H.4 SFRSYM    DATA     BIT       P14
      00000080H.5 SFRSYM    DATA     BIT       P05
      00000089H   SFRSYM    DATA     BYTE      TMOD
      00000088H   SFRSYM    DATA     BYTE      TCON
      000000C8H.1 SFRSYM    DATA     BIT       P51
      000000C0H.2 SFRSYM    DATA     BIT       P42
      000000B0H.3 SFRSYM    DATA     BIT       P33
      000000A0H.4 SFRSYM    DATA     BIT       P24
      00000090H.5 SFRSYM    DATA     BIT       P15
      00000080H.6 SFRSYM    DATA     BIT       P06
      000000C4H   SFRSYM    DATA     BYTE      ISP_ADDRL
      000000B8H.6 SFRSYM    DATA     BIT       PLVD
      000000C8H.2 SFRSYM    DATA     BIT       P52
      000000C0H.3 SFRSYM    DATA     BIT       P43
      000000B0H.4 SFRSYM    DATA     BIT       P34
      000000A0H.5 SFRSYM    DATA     BIT       P25
      00000090H.6 SFRSYM    DATA     BIT       P16
      00000080H.7 SFRSYM    DATA     BIT       P07
      000000C8H.3 SFRSYM    DATA     BIT       P53
      000000C0H.4 SFRSYM    DATA     BIT       P44
      000000B0H.5 SFRSYM    DATA     BIT       P35
      000000A0H.6 SFRSYM    DATA     BIT       P26
      00000090H.7 SFRSYM    DATA     BIT       P17
      000000C8H.4 SFRSYM    DATA     BIT       P54
      000000C0H.5 SFRSYM    DATA     BIT       P45
      000000B0H.6 SFRSYM    DATA     BIT       P36
      000000A0H.7 SFRSYM    DATA     BIT       P27
      000000C8H.5 SFRSYM    DATA     BIT       P55
      000000C0H.6 SFRSYM    DATA     BIT       P46
      000000B0H.7 SFRSYM    DATA     BIT       P37
      000000C8H.6 SFRSYM    DATA     BIT       P56
      000000C0H.7 SFRSYM    DATA     BIT       P47
      000000C8H.7 SFRSYM    DATA     BIT       P57
      00000088H.1 SFRSYM    DATA     BIT       IE0
      000000A1H   SFRSYM    DATA     BYTE      BUS_SPEED
      00000088H.3 SFRSYM    DATA     BIT       IE1
      000000AFH   SFRSYM    DATA     BYTE      IE2
      000000F0H   SFRSYM    DATA     BYTE      B
      0000008EH   SFRSYM    DATA     BYTE      AUXR
      000000C7H   SFRSYM    DATA     BYTE      IAP_CONTR
      000000E0H   SFRSYM    DATA     BYTE      ACC
      000000A8H.1 SFRSYM    DATA     BIT       ET0
      000000A8H.3 SFRSYM    DATA     BIT       ET1
      00000088H.5 SFRSYM    DATA     BIT       TF0
      00000088H.7 SFRSYM    DATA     BIT       TF1
      000000B5H   SFRSYM    DATA     BYTE      IP2
      0000008CH   SFRSYM    DATA     BYTE      RL_TH0
      00000098H.2 SFRSYM    DATA     BIT       RB8
      0000008DH   SFRSYM    DATA     BYTE      RL_TH1
      0000008CH   SFRSYM    DATA     BYTE      TH0
      000000A8H   SFRSYM    DATA     BIT       EX0
      00000088H   SFRSYM    DATA     BIT       IT0
      000000D6H   SFRSYM    DATA     BYTE      RL_T2H
      0000008DH   SFRSYM    DATA     BYTE      TH1
      00000090H.6 SFRSYM    DATA     BIT       touchPad_1
      000000A8H.2 SFRSYM    DATA     BIT       EX1
      00000098H.3 SFRSYM    DATA     BIT       TB8
      00000088H.2 SFRSYM    DATA     BIT       IT1
      000000D4H   SFRSYM    DATA     BYTE      RL_T3H
      000000D6H   SFRSYM    DATA     BYTE      TH2
      000000D6H   SFRSYM    DATA     BYTE      T2H
LX51 LINKER/LOCATER V4.66.41.0                                                        01/11/2019  12:04:15  PAGE 120


      00000090H.7 SFRSYM    DATA     BIT       touchPad_2
      000000D0H   SFRSYM    DATA     BIT       P
      000000D2H   SFRSYM    DATA     BYTE      RL_T4H
      000000D4H   SFRSYM    DATA     BYTE      TH3
      000000D4H   SFRSYM    DATA     BYTE      T3H
      0000008AH   SFRSYM    DATA     BYTE      RL_TL0
      00000090H.5 SFRSYM    DATA     BIT       touchPad_3
      00000098H.7 SFRSYM    DATA     BIT       SM0
      000000D2H   SFRSYM    DATA     BYTE      TH4
      000000D2H   SFRSYM    DATA     BYTE      T4H
      0000008BH   SFRSYM    DATA     BYTE      RL_TL1
      0000008AH   SFRSYM    DATA     BYTE      TL0
      00000098H.6 SFRSYM    DATA     BIT       SM1
      000000D7H   SFRSYM    DATA     BYTE      RL_T2L
      0000008BH   SFRSYM    DATA     BYTE      TL1
      00000098H.5 SFRSYM    DATA     BIT       SM2
      000000D5H   SFRSYM    DATA     BYTE      RL_T3L
      000000D7H   SFRSYM    DATA     BYTE      TL2
      000000D7H   SFRSYM    DATA     BYTE      T2L
      000000D3H   SFRSYM    DATA     BYTE      RL_T4L
      000000D5H   SFRSYM    DATA     BYTE      TL3
      000000D5H   SFRSYM    DATA     BYTE      T3L
      000000B8H.1 SFRSYM    DATA     BIT       PT0
      000000D3H   SFRSYM    DATA     BYTE      TL4
      000000D3H   SFRSYM    DATA     BYTE      T4L
      000000B8H.3 SFRSYM    DATA     BIT       PT1
      000000D0H.3 SFRSYM    DATA     BIT       RS0
      000000C7H   SFRSYM    DATA     BYTE      ISP_CONTR
      00000088H.4 SFRSYM    DATA     BIT       TR0
      000000D0H.4 SFRSYM    DATA     BIT       RS1
      000000C2H   SFRSYM    DATA     BYTE      IAP_DATA
      00000088H.6 SFRSYM    DATA     BIT       TR1
      000000B8H   SFRSYM    DATA     BIT       PX0
      000000C1H   SFRSYM    DATA     BYTE      WDT_CONTR
      000000B8H.2 SFRSYM    DATA     BIT       PX1
      000000F2H   SFRSYM    DATA     BYTE      PCA_PWM0
      000000F3H   SFRSYM    DATA     BYTE      PCA_PWM1
      000000F4H   SFRSYM    DATA     BYTE      PCA_PWM2
      0000009DH   SFRSYM    DATA     BYTE      P1ASF
      00000083H   SFRSYM    DATA     BYTE      DPH
      000000D1H   SFRSYM    DATA     BYTE      T4T3M
      000000BEH   SFRSYM    DATA     BYTE      ADC_RESL
      00000082H   SFRSYM    DATA     BYTE      DPL
      000000CDH   SFRSYM    DATA     BYTE      SPSTAT
      000000B7H   SFRSYM    DATA     BYTE      IPH
      0000009BH   SFRSYM    DATA     BYTE      S2BUF
      00000097H   SFRSYM    DATA     BYTE      PCON2
      000000ADH   SFRSYM    DATA     BYTE      S3BUF
      00000098H.4 SFRSYM    DATA     BIT       REN
      00000085H   SFRSYM    DATA     BYTE      S4BUF
      00000080H.2 SFRSYM    DATA     BIT       Usr_key
      0000009AH   SFRSYM    DATA     BYTE      S2CON
      000000ACH   SFRSYM    DATA     BYTE      S3CON
      000000C2H   SFRSYM    DATA     BYTE      ISP_DATA
      00000084H   SFRSYM    DATA     BYTE      S4CON
      000000B9H   SFRSYM    DATA     BYTE      SADEN
      000000B0H   SFRSYM    DATA     BIT       RXD
      000000A9H   SFRSYM    DATA     BYTE      SADDR
      000000B0H.1 SFRSYM    DATA     BIT       TXD
      000000F0H   SFRSYM    DATA     BIT       B0
      000000F0H.1 SFRSYM    DATA     BIT       B1
      000000C6H   SFRSYM    DATA     BYTE      IAP_TRIG
      000000A2H   SFRSYM    DATA     BYTE      AUXR1
      000000F0H.2 SFRSYM    DATA     BIT       B2
      00000090H.2 SFRSYM    DATA     BIT       SPI_SS
LX51 LINKER/LOCATER V4.66.41.0                                                        01/11/2019  12:04:15  PAGE 121


      0000008FH   SFRSYM    DATA     BYTE      AUXR2
      000000F0H.3 SFRSYM    DATA     BIT       B3
      000000F0H.4 SFRSYM    DATA     BIT       B4
      000000D0H.5 SFRSYM    DATA     BIT       F0
      000000F0H.5 SFRSYM    DATA     BIT       B5
      000000D0H.1 SFRSYM    DATA     BIT       F1
      0000008FH   SFRSYM    DATA     BYTE      INT_CLKO
      000000F0H.6 SFRSYM    DATA     BIT       B6
      000000E0H   SFRSYM    DATA     BIT       ACC0
      000000F0H.7 SFRSYM    DATA     BIT       B7
      000000E0H.1 SFRSYM    DATA     BIT       ACC1
      000000E0H.2 SFRSYM    DATA     BIT       ACC2
      000000E0H.3 SFRSYM    DATA     BIT       ACC3
      000000D0H   SFRSYM    DATA     BYTE      PSW
      000000E0H.4 SFRSYM    DATA     BIT       ACC4
      00000090H.5 SFRSYM    DATA     BIT       SPI_SCLK
      000000D8H   SFRSYM    DATA     BIT       CCF0
      000000E0H.5 SFRSYM    DATA     BIT       ACC5
      000000D8H.1 SFRSYM    DATA     BIT       CCF1
      000000E0H.6 SFRSYM    DATA     BIT       ACC6
      000000CFH   SFRSYM    DATA     BYTE      SPDAT
      00000094H   SFRSYM    DATA     BYTE      P0M0
      01005A10H   SYMBOL    CODE     ---       _?ix1000
      01005A28H   SYMBOL    CODE     ---       _?ix1001
      01005A2EH   SYMBOL    CODE     ---       _?ix1002
      02000687H   SYMBOL    XDATA    ---       nightDatsTemp_CalibrateTab
      0200068DH   SYMBOL    XDATA    ---       timDatsTemp_CalibrateTab

      01005A82H   BLOCK     CODE     ---       LVL=0
      ---         BLOCKEND  ---      ---       LVL=0

      01007157H   BLOCK     CODE     ---       LVL=0
      01007157H   LINE      CODE     ---       #39
      01007157H   LINE      CODE     ---       #41
      01007165H   LINE      CODE     ---       #42
      ---         BLOCKEND  ---      ---       LVL=0

      010064C8H   BLOCK     CODE     ---       LVL=0
      00000033H   SYMBOL    DATA     ---       timDats_tab
      010064CEH   BLOCK     CODE     NEAR LAB  LVL=1
      00000036H   SYMBOL    DATA     ---       dats_Temp
      0000004EH   SYMBOL    DATA     BYTE      loop
      ---         BLOCKEND  ---      ---       LVL=1
      010064C8H   LINE      CODE     ---       #45
      010064CEH   LINE      CODE     ---       #47
      010064DBH   LINE      CODE     ---       #48
      010064DEH   LINE      CODE     ---       #50
      010064EEH   LINE      CODE     ---       #52
      010064F1H   LINE      CODE     ---       #54
      0100650BH   LINE      CODE     ---       #55
      01006513H   LINE      CODE     ---       #56
      01006528H   LINE      CODE     ---       #57
      01006530H   LINE      CODE     ---       #58
      01006545H   LINE      CODE     ---       #59
      0100654DH   LINE      CODE     ---       #60
      ---         BLOCKEND  ---      ---       LVL=0

      01007367H   BLOCK     CODE     ---       LVL=0
      01007367H   LINE      CODE     ---       #62
      01007367H   LINE      CODE     ---       #64
      ---         BLOCKEND  ---      ---       LVL=0

      0100654EH   BLOCK     CODE     ---       LVL=0
      00000033H   SYMBOL    DATA     ---       timDats_tab
      01006554H   BLOCK     CODE     NEAR LAB  LVL=1
LX51 LINKER/LOCATER V4.66.41.0                                                        01/11/2019  12:04:15  PAGE 122


      00000036H   SYMBOL    DATA     ---       dats_Temp
      0000003CH   SYMBOL    DATA     BYTE      loop
      ---         BLOCKEND  ---      ---       LVL=1
      0100654EH   LINE      CODE     ---       #67
      01006554H   LINE      CODE     ---       #69
      01006561H   LINE      CODE     ---       #70
      01006564H   LINE      CODE     ---       #72
      01006574H   LINE      CODE     ---       #74
      01006577H   LINE      CODE     ---       #76
      01006591H   LINE      CODE     ---       #77
      01006599H   LINE      CODE     ---       #78
      010065AEH   LINE      CODE     ---       #79
      010065B6H   LINE      CODE     ---       #80
      010065CBH   LINE      CODE     ---       #81
      010065D3H   LINE      CODE     ---       #82
      ---         BLOCKEND  ---      ---       LVL=0

      01007370H   BLOCK     CODE     ---       LVL=0
      01007370H   LINE      CODE     ---       #84
      01007370H   LINE      CODE     ---       #86
      ---         BLOCKEND  ---      ---       LVL=0

      01007009H   BLOCK     CODE     ---       LVL=0
      00000004H   SYMBOL    DATA     BYTE      weekNum
      00000001H   SYMBOL    DATA     BYTE      HoldNum
      0100700DH   BLOCK     CODE     NEAR LAB  LVL=1
      00000005H   SYMBOL    DATA     BYTE      loop
      ---         BLOCKEND  ---      ---       LVL=1
      01007009H   LINE      CODE     ---       #90
      0100700DH   LINE      CODE     ---       #94
      0100700EH   LINE      CODE     ---       #95
      01007010H   LINE      CODE     ---       #97
      01007027H   LINE      CODE     ---       #99
      0100702DH   LINE      CODE     ---       #100
      0100702DH   LINE      CODE     ---       #101
      01007031H   LINE      CODE     ---       #103
      01007032H   LINE      CODE     ---       #104
      ---         BLOCKEND  ---      ---       LVL=0

      01005F8DH   BLOCK     CODE     ---       LVL=0
      00000028H   SYMBOL    DATA     ---       timeDats
      01005F8DH   BLOCK     CODE     NEAR LAB  LVL=1
      02000006H   SYMBOL    XDATA    ---       Log
      ---         BLOCKEND  ---      ---       LVL=1
      01005F8DH   LINE      CODE     ---       #107
      01005F8DH   LINE      CODE     ---       #109
      01005FA0H   LINE      CODE     ---       #131
      01005FC1H   LINE      CODE     ---       #134
      01005FC4H   LINE      CODE     ---       #140
      01005FDFH   LINE      CODE     ---       #143
      01005FE2H   LINE      CODE     ---       #147
      01005FF4H   LINE      CODE     ---       #149
      01005FFAH   LINE      CODE     ---       #153
      01006009H   LINE      CODE     ---       #155
      0100600FH   LINE      CODE     ---       #156
      ---         BLOCKEND  ---      ---       LVL=0

      01003FB9H   BLOCK     CODE     ---       LVL=0
      01003FB9H   BLOCK     CODE     NEAR LAB  LVL=1
      00000027H   SYMBOL    DATA     BYTE      loop
      000000CBH   SYMBOL    IDATA    INT       timeUp_actionDone_flg
      01003FBCH   BLOCK     CODE     NEAR LAB  LVL=2
      01005A7EH   SYMBOL    CODE     WORD      log_period
      0200067BH   SYMBOL    XDATA    WORD      log_Count
      00000025H.1 SYMBOL    BIT      BIT       read_FLG
LX51 LINKER/LOCATER V4.66.41.0                                                        01/11/2019  12:04:15  PAGE 123


      00000025H.2 SYMBOL    BIT      BIT       timeTab_reserveFLG
      02000000H   SYMBOL    XDATA    WORD      minutesTemp_CalibrateTab_A
      02000002H   SYMBOL    XDATA    WORD      minutesTemp_CalibrateTab_B
      02000004H   SYMBOL    XDATA    WORD      minutesTemp_CalibrateTab_cur
      ---         BLOCKEND  ---      ---       LVL=2
      01003FFBH   BLOCK     CODE     NEAR LAB  LVL=2
      00000025H.1 SYMBOL    BIT      BIT       read_FLG
      00000025H.2 SYMBOL    BIT      BIT       timeTab_reserveFLG
      02000000H   SYMBOL    XDATA    WORD      minutesTemp_CalibrateTab_A
      02000002H   SYMBOL    XDATA    WORD      minutesTemp_CalibrateTab_B
      02000004H   SYMBOL    XDATA    WORD      minutesTemp_CalibrateTab_cur
      ---         BLOCKEND  ---      ---       LVL=2
      01004092H   BLOCK     CODE     NEAR LAB  LVL=2
      00000025H.2 SYMBOL    BIT      BIT       timeTab_reserveFLG
      02000000H   SYMBOL    XDATA    WORD      minutesTemp_CalibrateTab_A
      02000002H   SYMBOL    XDATA    WORD      minutesTemp_CalibrateTab_B
      02000004H   SYMBOL    XDATA    WORD      minutesTemp_CalibrateTab_cur
      ---         BLOCKEND  ---      ---       LVL=2
      0100422CH   BLOCK     CODE     NEAR LAB  LVL=2
      01005A80H   SYMBOL    CODE     BYTE      dats_Temp
      01005A81H   SYMBOL    CODE     BYTE      dats_Temp
      ---         BLOCKEND  ---      ---       LVL=2
      010042CCH   BLOCK     CODE     NEAR LAB  LVL=2
      01005A81H   SYMBOL    CODE     BYTE      dats_Temp
      ---         BLOCKEND  ---      ---       LVL=2
      ---         BLOCKEND  ---      ---       LVL=1
      01003FB9H   LINE      CODE     ---       #159
      01003FB9H   LINE      CODE     ---       #161
      01003FBCH   LINE      CODE     ---       #171
      01003FE0H   LINE      CODE     ---       #172
      01003FE0H   LINE      CODE     ---       #174
      01003FE7H   LINE      CODE     ---       #176
      01003FFBH   LINE      CODE     ---       #177
      01003FFBH   LINE      CODE     ---       #178
      01003FFBH   LINE      CODE     ---       #182
      01003FFBH   LINE      CODE     ---       #186
      01003FFEH   LINE      CODE     ---       #188
      01004000H   LINE      CODE     ---       #190
      01004010H   LINE      CODE     ---       #191
      01004020H   LINE      CODE     ---       #193
      01004029H   LINE      CODE     ---       #194
      01004032H   LINE      CODE     ---       #195
      01004032H   LINE      CODE     ---       #196
      01004032H   LINE      CODE     ---       #199
      01004032H   LINE      CODE     ---       #201
      01004042H   LINE      CODE     ---       #202
      0100404AH   LINE      CODE     ---       #204
      01004056H   LINE      CODE     ---       #206
      01004056H   LINE      CODE     ---       #208
      0100405CH   LINE      CODE     ---       #209
      0100406FH   LINE      CODE     ---       #210
      01004083H   LINE      CODE     ---       #211
      01004083H   LINE      CODE     ---       #217
      01004083H   LINE      CODE     ---       #220
      0100408DH   LINE      CODE     ---       #222
      0100408FH   LINE      CODE     ---       #224
      01004092H   LINE      CODE     ---       #226
      01004094H   LINE      CODE     ---       #227
      010040B1H   LINE      CODE     ---       #228
      010040C9H   LINE      CODE     ---       #229
      010040D6H   LINE      CODE     ---       #231
      010040E9H   LINE      CODE     ---       #233
      010040F0H   LINE      CODE     ---       #235
      010040F3H   LINE      CODE     ---       #237
      0100410CH   LINE      CODE     ---       #241
LX51 LINKER/LOCATER V4.66.41.0                                                        01/11/2019  12:04:15  PAGE 124


      0100410EH   LINE      CODE     ---       #243
      01004128H   LINE      CODE     ---       #246
      01004128H   LINE      CODE     ---       #248
      0100412AH   LINE      CODE     ---       #250
      0100412CH   LINE      CODE     ---       #251
      0100412CH   LINE      CODE     ---       #252
      0100412CH   LINE      CODE     ---       #254
      0100412FH   LINE      CODE     ---       #256
      0100413BH   LINE      CODE     ---       #258
      0100413DH   LINE      CODE     ---       #259
      0100413FH   LINE      CODE     ---       #261
      0100413FH   LINE      CODE     ---       #263
      01004141H   LINE      CODE     ---       #264
      01004141H   LINE      CODE     ---       #265
      01004148H   LINE      CODE     ---       #268
      0100414EH   LINE      CODE     ---       #270
      01004151H   LINE      CODE     ---       #272
      01004164H   LINE      CODE     ---       #274
      01004173H   LINE      CODE     ---       #297
      010041A2H   LINE      CODE     ---       #299
      010041A2H   LINE      CODE     ---       #301
      010041AEH   LINE      CODE     ---       #302
      010041AEH   LINE      CODE     ---       #304
      010041E0H   LINE      CODE     ---       #306
      010041E0H   LINE      CODE     ---       #308
      010041E0H   LINE      CODE     ---       #309
      010041ECH   LINE      CODE     ---       #310
      01004204H   LINE      CODE     ---       #311
      0100420DH   LINE      CODE     ---       #312
      0100420DH   LINE      CODE     ---       #314
      01004223H   LINE      CODE     ---       #317
      0100422CH   LINE      CODE     ---       #321
      0100423EH   LINE      CODE     ---       #322
      01004245H   LINE      CODE     ---       #323
      01004248H   LINE      CODE     ---       #324
      01004248H   LINE      CODE     ---       #334
      0100424EH   LINE      CODE     ---       #335
      01004264H   LINE      CODE     ---       #336
      0100426BH   LINE      CODE     ---       #337
      01004272H   LINE      CODE     ---       #356
      0100429BH   LINE      CODE     ---       #358
      010042A6H   LINE      CODE     ---       #361
      010042A8H   LINE      CODE     ---       #363
      010042B6H   LINE      CODE     ---       #366
      010042CCH   LINE      CODE     ---       #370
      010042DEH   LINE      CODE     ---       #371
      010042E5H   LINE      CODE     ---       #372
      010042E5H   LINE      CODE     ---       #373
      010042E5H   LINE      CODE     ---       #374
      010042E5H   LINE      CODE     ---       #375
      010042E5H   LINE      CODE     ---       #376
      010042F1H   LINE      CODE     ---       #377
      010042F1H   LINE      CODE     ---       #378
      ---         BLOCKEND  ---      ---       LVL=0

      ---         MODULE    ---      ---       TOUCHPAD
      020006F4H   PUBLIC    XDATA    BYTE      touchPad_resetTimeCount
      01007387H   PUBLIC    CODE     ---       _touchPad_resetOpreat
      0100733EH   PUBLIC    CODE     ---       touchPad_processThread
      000000D8H.2 SFRSYM    DATA     BIT       CCF2
      000000E0H.7 SFRSYM    DATA     BIT       ACC7
      00000093H   SFRSYM    DATA     BYTE      P0M1
      00000092H   SFRSYM    DATA     BYTE      P1M0
      00000096H   SFRSYM    DATA     BYTE      P2M0
      00000091H   SFRSYM    DATA     BYTE      P1M1
LX51 LINKER/LOCATER V4.66.41.0                                                        01/11/2019  12:04:15  PAGE 125


      00000080H   SFRSYM    DATA     BYTE      P0
      000000B2H   SFRSYM    DATA     BYTE      P3M0
      00000095H   SFRSYM    DATA     BYTE      P2M1
      00000090H   SFRSYM    DATA     BYTE      P1
      000000B4H   SFRSYM    DATA     BYTE      P4M0
      000000B1H   SFRSYM    DATA     BYTE      P3M1
      000000A0H   SFRSYM    DATA     BYTE      P2
      000000CAH   SFRSYM    DATA     BYTE      P5M0
      000000B3H   SFRSYM    DATA     BYTE      P4M1
      000000B0H   SFRSYM    DATA     BYTE      P3
      000000ABH   SFRSYM    DATA     BYTE      WKTCH
      000000B0H.4 SFRSYM    DATA     BIT       T0
      000000D0H.6 SFRSYM    DATA     BIT       AC
      000000CCH   SFRSYM    DATA     BYTE      P6M0
      000000C9H   SFRSYM    DATA     BYTE      P5M1
      000000C0H   SFRSYM    DATA     BYTE      P4
      000000B0H.5 SFRSYM    DATA     BIT       CLKOUT0
      000000B0H.5 SFRSYM    DATA     BIT       T1
      000000E2H   SFRSYM    DATA     BYTE      P7M0
      000000CBH   SFRSYM    DATA     BYTE      P6M1
      000000C8H   SFRSYM    DATA     BYTE      P5
      000000C6H   SFRSYM    DATA     BYTE      ISP_TRIG
      000000A8H.7 SFRSYM    DATA     BIT       EA
      000000B0H.4 SFRSYM    DATA     BIT       CLKOUT1
      000000A0H.4 SFRSYM    DATA     BIT       SPI_SS_2
      000000E8H   SFRSYM    DATA     BYTE      P6
      000000E1H   SFRSYM    DATA     BYTE      P7M1
      000000C8H.4 SFRSYM    DATA     BIT       SPI_SS_3
      00000090H.4 SFRSYM    DATA     BIT       SPI_MISO
      00000090H.3 SFRSYM    DATA     BIT       SPI_MOSI
      00000090H.1 SFRSYM    DATA     BIT       CCP0
      000000F8H   SFRSYM    DATA     BYTE      P7
      000000AAH   SFRSYM    DATA     BYTE      WKTCL
      00000090H   SFRSYM    DATA     BIT       CCP1
      000000CEH   SFRSYM    DATA     BYTE      SPCTL
      000000D8H.7 SFRSYM    DATA     BIT       CF
      000000B0H.7 SFRSYM    DATA     BIT       CCP2
      000000F9H   SFRSYM    DATA     BYTE      CH
      000000A2H   SFRSYM    DATA     BYTE      P_SW1
      000000BAH   SFRSYM    DATA     BYTE      P_SW2
      000000A8H.5 SFRSYM    DATA     BIT       EADC
      000000A0H.1 SFRSYM    DATA     BIT       SPI_SCLK_2
      000000A8H   SFRSYM    DATA     BYTE      IE
      000000C0H.3 SFRSYM    DATA     BIT       SPI_SCLK_3
      000000E9H   SFRSYM    DATA     BYTE      CL
      000000C5H   SFRSYM    DATA     BYTE      IAP_CMD
      000000FAH   SFRSYM    DATA     BYTE      CCAP0H
      000000FBH   SFRSYM    DATA     BYTE      CCAP1H
      000000FCH   SFRSYM    DATA     BYTE      CCAP2H
      000000BDH   SFRSYM    DATA     BYTE      ADC_RES
      000000B6H   SFRSYM    DATA     BYTE      IPH2
      000000D8H.6 SFRSYM    DATA     BIT       CR
      000000EAH   SFRSYM    DATA     BYTE      CCAP0L
      000000B0H.7 SFRSYM    DATA     BIT       RD
      000000EBH   SFRSYM    DATA     BYTE      CCAP1L
      000000DAH   SFRSYM    DATA     BYTE      CCAPM0
      000000ECH   SFRSYM    DATA     BYTE      CCAP2L
      000000DBH   SFRSYM    DATA     BYTE      CCAPM1
      000000A8H.4 SFRSYM    DATA     BIT       ES
      000000DCH   SFRSYM    DATA     BYTE      CCAPM2
      000000B8H.5 SFRSYM    DATA     BIT       PADC
      000000A0H.2 SFRSYM    DATA     BIT       SPI_MISO_2
      000000A0H.3 SFRSYM    DATA     BIT       SPI_MOSI_2
      000000B8H   SFRSYM    DATA     BYTE      IP
      000000C0H.1 SFRSYM    DATA     BIT       SPI_MISO_3
LX51 LINKER/LOCATER V4.66.41.0                                                        01/11/2019  12:04:15  PAGE 126


      000000C0H   SFRSYM    DATA     BIT       SPI_MOSI_3
      00000098H   SFRSYM    DATA     BIT       RI
      000000B0H.2 SFRSYM    DATA     BIT       INT0
      000000D0H.7 SFRSYM    DATA     BIT       CY
      00000098H.1 SFRSYM    DATA     BIT       TI
      000000B0H.3 SFRSYM    DATA     BIT       INT1
      00000097H   SFRSYM    DATA     BYTE      CLK_DIV
      000000C3H   SFRSYM    DATA     BYTE      IAP_ADDRH
      00000090H   SFRSYM    DATA     BIT       RXD2
      000000C5H   SFRSYM    DATA     BYTE      ISP_CMD
      000000B8H.4 SFRSYM    DATA     BIT       PS
      00000090H.1 SFRSYM    DATA     BIT       TXD2
      00000081H   SFRSYM    DATA     BYTE      SP
      000000D9H   SFRSYM    DATA     BYTE      CMOD
      000000D8H   SFRSYM    DATA     BYTE      CCON
      000000C4H   SFRSYM    DATA     BYTE      IAP_ADDRL
      000000B8H.7 SFRSYM    DATA     BIT       PPCA
      000000D0H.2 SFRSYM    DATA     BIT       OV
      000000B0H.6 SFRSYM    DATA     BIT       WR
      000000A8H.6 SFRSYM    DATA     BIT       ELVD
      00000080H   SFRSYM    DATA     BIT       P00
      00000090H   SFRSYM    DATA     BIT       P10
      00000080H.1 SFRSYM    DATA     BIT       P01
      000000BCH   SFRSYM    DATA     BYTE      ADC_CONTR
      00000099H   SFRSYM    DATA     BYTE      SBUF
      00000087H   SFRSYM    DATA     BYTE      PCON
      000000A0H   SFRSYM    DATA     BIT       P20
      00000090H.1 SFRSYM    DATA     BIT       P11
      00000080H.2 SFRSYM    DATA     BIT       P02
      000000C3H   SFRSYM    DATA     BYTE      ISP_ADDRH
      000000B0H   SFRSYM    DATA     BIT       P30
      000000A0H.1 SFRSYM    DATA     BIT       P21
      00000090H.2 SFRSYM    DATA     BIT       P12
      00000080H.3 SFRSYM    DATA     BIT       P03
      000000C0H   SFRSYM    DATA     BIT       P40
      000000B0H.1 SFRSYM    DATA     BIT       P31
      000000A0H.2 SFRSYM    DATA     BIT       P22
      00000090H.3 SFRSYM    DATA     BIT       P13
      00000080H.4 SFRSYM    DATA     BIT       P04
      00000098H   SFRSYM    DATA     BYTE      SCON
      0000008FH   SFRSYM    DATA     BYTE      WAKE_CLKO
      000000C8H   SFRSYM    DATA     BIT       P50
      000000C0H.1 SFRSYM    DATA     BIT       P41
      000000B0H.2 SFRSYM    DATA     BIT       P32
      000000A0H.3 SFRSYM    DATA     BIT       P23
      00000090H.4 SFRSYM    DATA     BIT       P14
      00000080H.5 SFRSYM    DATA     BIT       P05
      00000089H   SFRSYM    DATA     BYTE      TMOD
      00000088H   SFRSYM    DATA     BYTE      TCON
      000000C8H.1 SFRSYM    DATA     BIT       P51
      000000C0H.2 SFRSYM    DATA     BIT       P42
      000000B0H.3 SFRSYM    DATA     BIT       P33
      000000A0H.4 SFRSYM    DATA     BIT       P24
      00000090H.5 SFRSYM    DATA     BIT       P15
      00000080H.6 SFRSYM    DATA     BIT       P06
      000000C4H   SFRSYM    DATA     BYTE      ISP_ADDRL
      000000B8H.6 SFRSYM    DATA     BIT       PLVD
      000000C8H.2 SFRSYM    DATA     BIT       P52
      000000C0H.3 SFRSYM    DATA     BIT       P43
      000000B0H.4 SFRSYM    DATA     BIT       P34
      000000A0H.5 SFRSYM    DATA     BIT       P25
      00000090H.6 SFRSYM    DATA     BIT       P16
      00000080H.7 SFRSYM    DATA     BIT       P07
      000000C8H.3 SFRSYM    DATA     BIT       P53
      000000C0H.4 SFRSYM    DATA     BIT       P44
LX51 LINKER/LOCATER V4.66.41.0                                                        01/11/2019  12:04:15  PAGE 127


      000000B0H.5 SFRSYM    DATA     BIT       P35
      000000A0H.6 SFRSYM    DATA     BIT       P26
      00000090H.7 SFRSYM    DATA     BIT       P17
      000000C8H.4 SFRSYM    DATA     BIT       P54
      000000C0H.5 SFRSYM    DATA     BIT       P45
      000000B0H.6 SFRSYM    DATA     BIT       P36
      000000A0H.7 SFRSYM    DATA     BIT       P27
      000000C8H.5 SFRSYM    DATA     BIT       P55
      000000C0H.6 SFRSYM    DATA     BIT       P46
      000000B0H.7 SFRSYM    DATA     BIT       P37
      000000C8H.6 SFRSYM    DATA     BIT       P56
      000000C0H.7 SFRSYM    DATA     BIT       P47
      000000C8H.7 SFRSYM    DATA     BIT       P57
      00000088H.1 SFRSYM    DATA     BIT       IE0
      000000A1H   SFRSYM    DATA     BYTE      BUS_SPEED
      00000088H.3 SFRSYM    DATA     BIT       IE1
      000000AFH   SFRSYM    DATA     BYTE      IE2
      000000F0H   SFRSYM    DATA     BYTE      B
      0000008EH   SFRSYM    DATA     BYTE      AUXR
      000000C7H   SFRSYM    DATA     BYTE      IAP_CONTR
      000000E0H   SFRSYM    DATA     BYTE      ACC
      000000A8H.1 SFRSYM    DATA     BIT       ET0
      000000A8H.3 SFRSYM    DATA     BIT       ET1
      00000088H.5 SFRSYM    DATA     BIT       TF0
      00000088H.7 SFRSYM    DATA     BIT       TF1
      000000B5H   SFRSYM    DATA     BYTE      IP2
      0000008CH   SFRSYM    DATA     BYTE      RL_TH0
      00000098H.2 SFRSYM    DATA     BIT       RB8
      0000008DH   SFRSYM    DATA     BYTE      RL_TH1
      0000008CH   SFRSYM    DATA     BYTE      TH0
      000000A8H   SFRSYM    DATA     BIT       EX0
      00000088H   SFRSYM    DATA     BIT       IT0
      000000D6H   SFRSYM    DATA     BYTE      RL_T2H
      0000008DH   SFRSYM    DATA     BYTE      TH1
      000000A8H.2 SFRSYM    DATA     BIT       EX1
      00000098H.3 SFRSYM    DATA     BIT       TB8
      00000088H.2 SFRSYM    DATA     BIT       IT1
      000000D4H   SFRSYM    DATA     BYTE      RL_T3H
      000000D6H   SFRSYM    DATA     BYTE      TH2
      000000D6H   SFRSYM    DATA     BYTE      T2H
      000000D0H   SFRSYM    DATA     BIT       P
      000000D2H   SFRSYM    DATA     BYTE      RL_T4H
      000000D4H   SFRSYM    DATA     BYTE      TH3
      000000D4H   SFRSYM    DATA     BYTE      T3H
      0000008AH   SFRSYM    DATA     BYTE      RL_TL0
      00000098H.7 SFRSYM    DATA     BIT       SM0
      000000D2H   SFRSYM    DATA     BYTE      TH4
      000000D2H   SFRSYM    DATA     BYTE      T4H
      0000008BH   SFRSYM    DATA     BYTE      RL_TL1
      0000008AH   SFRSYM    DATA     BYTE      TL0
      00000098H.6 SFRSYM    DATA     BIT       SM1
      000000D7H   SFRSYM    DATA     BYTE      RL_T2L
      0000008BH   SFRSYM    DATA     BYTE      TL1
      00000098H.5 SFRSYM    DATA     BIT       SM2
      000000D5H   SFRSYM    DATA     BYTE      RL_T3L
      000000D7H   SFRSYM    DATA     BYTE      TL2
      000000D7H   SFRSYM    DATA     BYTE      T2L
      000000D3H   SFRSYM    DATA     BYTE      RL_T4L
      000000D5H   SFRSYM    DATA     BYTE      TL3
      000000D5H   SFRSYM    DATA     BYTE      T3L
      000000B8H.1 SFRSYM    DATA     BIT       PT0
      000000D3H   SFRSYM    DATA     BYTE      TL4
      000000D3H   SFRSYM    DATA     BYTE      T4L
      000000B8H.3 SFRSYM    DATA     BIT       PT1
      000000D0H.3 SFRSYM    DATA     BIT       RS0
LX51 LINKER/LOCATER V4.66.41.0                                                        01/11/2019  12:04:15  PAGE 128


      000000C7H   SFRSYM    DATA     BYTE      ISP_CONTR
      00000088H.4 SFRSYM    DATA     BIT       TR0
      000000D0H.4 SFRSYM    DATA     BIT       RS1
      000000C2H   SFRSYM    DATA     BYTE      IAP_DATA
      00000088H.6 SFRSYM    DATA     BIT       TR1
      000000B8H   SFRSYM    DATA     BIT       PX0
      000000C1H   SFRSYM    DATA     BYTE      WDT_CONTR
      000000B8H.2 SFRSYM    DATA     BIT       PX1
      000000F2H   SFRSYM    DATA     BYTE      PCA_PWM0
      000000F3H   SFRSYM    DATA     BYTE      PCA_PWM1
      000000F4H   SFRSYM    DATA     BYTE      PCA_PWM2
      0000009DH   SFRSYM    DATA     BYTE      P1ASF
      00000083H   SFRSYM    DATA     BYTE      DPH
      000000D1H   SFRSYM    DATA     BYTE      T4T3M
      000000BEH   SFRSYM    DATA     BYTE      ADC_RESL
      00000082H   SFRSYM    DATA     BYTE      DPL
      000000CDH   SFRSYM    DATA     BYTE      SPSTAT
      000000B7H   SFRSYM    DATA     BYTE      IPH
      0000009BH   SFRSYM    DATA     BYTE      S2BUF
      00000097H   SFRSYM    DATA     BYTE      PCON2
      000000ADH   SFRSYM    DATA     BYTE      S3BUF
      00000098H.4 SFRSYM    DATA     BIT       REN
      00000085H   SFRSYM    DATA     BYTE      S4BUF
      0000009AH   SFRSYM    DATA     BYTE      S2CON
      000000ACH   SFRSYM    DATA     BYTE      S3CON
      000000C2H   SFRSYM    DATA     BYTE      ISP_DATA
      00000084H   SFRSYM    DATA     BYTE      S4CON
      000000B9H   SFRSYM    DATA     BYTE      SADEN
      000000B0H   SFRSYM    DATA     BIT       RXD
      000000A9H   SFRSYM    DATA     BYTE      SADDR
      000000B0H.1 SFRSYM    DATA     BIT       TXD
      000000F0H   SFRSYM    DATA     BIT       B0
      000000F0H.1 SFRSYM    DATA     BIT       B1
      000000C6H   SFRSYM    DATA     BYTE      IAP_TRIG
      000000A2H   SFRSYM    DATA     BYTE      AUXR1
      000000F0H.2 SFRSYM    DATA     BIT       B2
      00000090H.2 SFRSYM    DATA     BIT       SPI_SS
      0000008FH   SFRSYM    DATA     BYTE      AUXR2
      000000F0H.3 SFRSYM    DATA     BIT       B3
      000000F0H.4 SFRSYM    DATA     BIT       B4
      000000D0H.5 SFRSYM    DATA     BIT       F0
      000000F0H.5 SFRSYM    DATA     BIT       B5
      000000D0H.1 SFRSYM    DATA     BIT       F1
      0000008FH   SFRSYM    DATA     BYTE      INT_CLKO
      000000F0H.6 SFRSYM    DATA     BIT       B6
      000000E0H   SFRSYM    DATA     BIT       ACC0
      000000F0H.7 SFRSYM    DATA     BIT       B7
      000000E0H.1 SFRSYM    DATA     BIT       ACC1
      000000E0H.2 SFRSYM    DATA     BIT       ACC2
      000000E0H.3 SFRSYM    DATA     BIT       ACC3
      000000D0H   SFRSYM    DATA     BYTE      PSW
      000000E0H.4 SFRSYM    DATA     BIT       ACC4
      00000090H.5 SFRSYM    DATA     BIT       SPI_SCLK
      000000D8H   SFRSYM    DATA     BIT       CCF0
      000000E0H.5 SFRSYM    DATA     BIT       ACC5
      000000D8H.1 SFRSYM    DATA     BIT       CCF1
      000000E0H.6 SFRSYM    DATA     BIT       ACC6
      000000CFH   SFRSYM    DATA     BYTE      SPDAT
      00000094H   SFRSYM    DATA     BYTE      P0M0

      0100733EH   BLOCK     CODE     ---       LVL=0
      0100733EH   LINE      CODE     ---       #10
      0100733EH   LINE      CODE     ---       #12
      01007349H   LINE      CODE     ---       #13
      ---         BLOCKEND  ---      ---       LVL=0
LX51 LINKER/LOCATER V4.66.41.0                                                        01/11/2019  12:04:15  PAGE 129



      01007387H   BLOCK     CODE     ---       LVL=0
      00000007H   SYMBOL    DATA     BYTE      holdTime
      01007387H   LINE      CODE     ---       #15
      01007387H   LINE      CODE     ---       #17
      0100738CH   LINE      CODE     ---       #18
      ---         BLOCKEND  ---      ---       LVL=0

      ---         MODULE    ---      ---       DRIVER_I2C_HXD019D
      000000D8H.2 SFRSYM    DATA     BIT       CCF2
      000000E0H.7 SFRSYM    DATA     BIT       ACC7
      00000093H   SFRSYM    DATA     BYTE      P0M1
      00000092H   SFRSYM    DATA     BYTE      P1M0
      00000096H   SFRSYM    DATA     BYTE      P2M0
      00000091H   SFRSYM    DATA     BYTE      P1M1
      00000080H   SFRSYM    DATA     BYTE      P0
      000000B2H   SFRSYM    DATA     BYTE      P3M0
      00000095H   SFRSYM    DATA     BYTE      P2M1
      00000090H   SFRSYM    DATA     BYTE      P1
      000000B4H   SFRSYM    DATA     BYTE      P4M0
      000000B1H   SFRSYM    DATA     BYTE      P3M1
      000000A0H   SFRSYM    DATA     BYTE      P2
      000000CAH   SFRSYM    DATA     BYTE      P5M0
      000000B3H   SFRSYM    DATA     BYTE      P4M1
      000000B0H   SFRSYM    DATA     BYTE      P3
      000000ABH   SFRSYM    DATA     BYTE      WKTCH
      000000B0H.4 SFRSYM    DATA     BIT       T0
      000000D0H.6 SFRSYM    DATA     BIT       AC
      000000CCH   SFRSYM    DATA     BYTE      P6M0
      000000C9H   SFRSYM    DATA     BYTE      P5M1
      000000C0H   SFRSYM    DATA     BYTE      P4
      000000B0H.5 SFRSYM    DATA     BIT       CLKOUT0
      000000B0H.5 SFRSYM    DATA     BIT       T1
      000000E2H   SFRSYM    DATA     BYTE      P7M0
      000000CBH   SFRSYM    DATA     BYTE      P6M1
      000000C8H   SFRSYM    DATA     BYTE      P5
      000000C6H   SFRSYM    DATA     BYTE      ISP_TRIG
      000000A8H.7 SFRSYM    DATA     BIT       EA
      000000B0H.4 SFRSYM    DATA     BIT       CLKOUT1
      000000A0H.4 SFRSYM    DATA     BIT       SPI_SS_2
      000000E8H   SFRSYM    DATA     BYTE      P6
      000000E1H   SFRSYM    DATA     BYTE      P7M1
      000000C8H.4 SFRSYM    DATA     BIT       SPI_SS_3
      00000090H.4 SFRSYM    DATA     BIT       SPI_MISO
      00000090H.3 SFRSYM    DATA     BIT       SPI_MOSI
      00000090H.1 SFRSYM    DATA     BIT       CCP0
      000000F8H   SFRSYM    DATA     BYTE      P7
      000000AAH   SFRSYM    DATA     BYTE      WKTCL
      00000090H   SFRSYM    DATA     BIT       CCP1
      000000CEH   SFRSYM    DATA     BYTE      SPCTL
      000000D8H.7 SFRSYM    DATA     BIT       CF
      000000B0H.7 SFRSYM    DATA     BIT       CCP2
      000000F9H   SFRSYM    DATA     BYTE      CH
      000000A2H   SFRSYM    DATA     BYTE      P_SW1
      000000BAH   SFRSYM    DATA     BYTE      P_SW2
      000000A8H.5 SFRSYM    DATA     BIT       EADC
      000000A0H.1 SFRSYM    DATA     BIT       SPI_SCLK_2
      000000A8H   SFRSYM    DATA     BYTE      IE
      000000C0H.3 SFRSYM    DATA     BIT       SPI_SCLK_3
      000000E9H   SFRSYM    DATA     BYTE      CL
      000000C5H   SFRSYM    DATA     BYTE      IAP_CMD
      000000FAH   SFRSYM    DATA     BYTE      CCAP0H
      000000FBH   SFRSYM    DATA     BYTE      CCAP1H
      000000FCH   SFRSYM    DATA     BYTE      CCAP2H
      000000BDH   SFRSYM    DATA     BYTE      ADC_RES
LX51 LINKER/LOCATER V4.66.41.0                                                        01/11/2019  12:04:15  PAGE 130


      000000B6H   SFRSYM    DATA     BYTE      IPH2
      000000D8H.6 SFRSYM    DATA     BIT       CR
      000000EAH   SFRSYM    DATA     BYTE      CCAP0L
      000000B0H.7 SFRSYM    DATA     BIT       RD
      000000EBH   SFRSYM    DATA     BYTE      CCAP1L
      000000DAH   SFRSYM    DATA     BYTE      CCAPM0
      000000ECH   SFRSYM    DATA     BYTE      CCAP2L
      000000DBH   SFRSYM    DATA     BYTE      CCAPM1
      000000A8H.4 SFRSYM    DATA     BIT       ES
      000000DCH   SFRSYM    DATA     BYTE      CCAPM2
      000000B8H.5 SFRSYM    DATA     BIT       PADC
      000000A0H.2 SFRSYM    DATA     BIT       SPI_MISO_2
      000000A0H.3 SFRSYM    DATA     BIT       SPI_MOSI_2
      000000B8H   SFRSYM    DATA     BYTE      IP
      000000C0H.1 SFRSYM    DATA     BIT       SPI_MISO_3
      000000C0H   SFRSYM    DATA     BIT       SPI_MOSI_3
      00000098H   SFRSYM    DATA     BIT       RI
      000000B0H.2 SFRSYM    DATA     BIT       INT0
      000000D0H.7 SFRSYM    DATA     BIT       CY
      00000098H.1 SFRSYM    DATA     BIT       TI
      000000B0H.3 SFRSYM    DATA     BIT       INT1
      00000097H   SFRSYM    DATA     BYTE      CLK_DIV
      000000C3H   SFRSYM    DATA     BYTE      IAP_ADDRH
      00000090H   SFRSYM    DATA     BIT       RXD2
      000000C5H   SFRSYM    DATA     BYTE      ISP_CMD
      000000B8H.4 SFRSYM    DATA     BIT       PS
      00000090H.1 SFRSYM    DATA     BIT       TXD2
      00000081H   SFRSYM    DATA     BYTE      SP
      000000D9H   SFRSYM    DATA     BYTE      CMOD
      000000D8H   SFRSYM    DATA     BYTE      CCON
      000000C4H   SFRSYM    DATA     BYTE      IAP_ADDRL
      000000B8H.7 SFRSYM    DATA     BIT       PPCA
      000000D0H.2 SFRSYM    DATA     BIT       OV
      000000B0H.6 SFRSYM    DATA     BIT       WR
      000000A8H.6 SFRSYM    DATA     BIT       ELVD
      00000080H   SFRSYM    DATA     BIT       P00
      00000090H   SFRSYM    DATA     BIT       P10
      00000080H.1 SFRSYM    DATA     BIT       P01
      000000BCH   SFRSYM    DATA     BYTE      ADC_CONTR
      00000099H   SFRSYM    DATA     BYTE      SBUF
      00000087H   SFRSYM    DATA     BYTE      PCON
      000000A0H   SFRSYM    DATA     BIT       P20
      00000090H.1 SFRSYM    DATA     BIT       P11
      00000080H.2 SFRSYM    DATA     BIT       P02
      000000C3H   SFRSYM    DATA     BYTE      ISP_ADDRH
      000000B0H   SFRSYM    DATA     BIT       P30
      000000A0H.1 SFRSYM    DATA     BIT       P21
      00000090H.2 SFRSYM    DATA     BIT       P12
      00000080H.3 SFRSYM    DATA     BIT       P03
      000000C0H   SFRSYM    DATA     BIT       P40
      000000B0H.1 SFRSYM    DATA     BIT       P31
      000000A0H.2 SFRSYM    DATA     BIT       P22
      00000090H.3 SFRSYM    DATA     BIT       P13
      00000080H.4 SFRSYM    DATA     BIT       P04
      00000098H   SFRSYM    DATA     BYTE      SCON
      0000008FH   SFRSYM    DATA     BYTE      WAKE_CLKO
      000000C8H   SFRSYM    DATA     BIT       P50
      000000C0H.1 SFRSYM    DATA     BIT       P41
      000000B0H.2 SFRSYM    DATA     BIT       P32
      000000A0H.3 SFRSYM    DATA     BIT       P23
      00000090H.4 SFRSYM    DATA     BIT       P14
      00000080H.5 SFRSYM    DATA     BIT       P05
      00000089H   SFRSYM    DATA     BYTE      TMOD
      00000088H   SFRSYM    DATA     BYTE      TCON
      000000C8H.1 SFRSYM    DATA     BIT       P51
LX51 LINKER/LOCATER V4.66.41.0                                                        01/11/2019  12:04:15  PAGE 131


      000000C0H.2 SFRSYM    DATA     BIT       P42
      000000B0H.3 SFRSYM    DATA     BIT       P33
      000000A0H.4 SFRSYM    DATA     BIT       P24
      00000090H.5 SFRSYM    DATA     BIT       P15
      00000080H.6 SFRSYM    DATA     BIT       P06
      000000C4H   SFRSYM    DATA     BYTE      ISP_ADDRL
      000000B8H.6 SFRSYM    DATA     BIT       PLVD
      000000C8H.2 SFRSYM    DATA     BIT       P52
      000000C0H.3 SFRSYM    DATA     BIT       P43
      000000B0H.4 SFRSYM    DATA     BIT       P34
      000000A0H.5 SFRSYM    DATA     BIT       P25
      00000090H.6 SFRSYM    DATA     BIT       P16
      00000080H.7 SFRSYM    DATA     BIT       P07
      000000C8H.3 SFRSYM    DATA     BIT       P53
      000000C0H.4 SFRSYM    DATA     BIT       P44
      000000B0H.5 SFRSYM    DATA     BIT       P35
      000000A0H.6 SFRSYM    DATA     BIT       P26
      00000090H.7 SFRSYM    DATA     BIT       P17
      000000C8H.4 SFRSYM    DATA     BIT       P54
      000000C0H.5 SFRSYM    DATA     BIT       P45
      000000B0H.6 SFRSYM    DATA     BIT       P36
      000000A0H.7 SFRSYM    DATA     BIT       P27
      000000C8H.5 SFRSYM    DATA     BIT       P55
      000000C0H.6 SFRSYM    DATA     BIT       P46
      000000B0H.7 SFRSYM    DATA     BIT       P37
      000000C8H.6 SFRSYM    DATA     BIT       P56
      000000C0H.7 SFRSYM    DATA     BIT       P47
      000000C8H.7 SFRSYM    DATA     BIT       P57
      00000088H.1 SFRSYM    DATA     BIT       IE0
      000000A1H   SFRSYM    DATA     BYTE      BUS_SPEED
      00000088H.3 SFRSYM    DATA     BIT       IE1
      000000AFH   SFRSYM    DATA     BYTE      IE2
      000000F0H   SFRSYM    DATA     BYTE      B
      0000008EH   SFRSYM    DATA     BYTE      AUXR
      000000C7H   SFRSYM    DATA     BYTE      IAP_CONTR
      000000E0H   SFRSYM    DATA     BYTE      ACC
      000000A8H.1 SFRSYM    DATA     BIT       ET0
      000000A8H.3 SFRSYM    DATA     BIT       ET1
      00000088H.5 SFRSYM    DATA     BIT       TF0
      00000088H.7 SFRSYM    DATA     BIT       TF1
      000000B5H   SFRSYM    DATA     BYTE      IP2
      0000008CH   SFRSYM    DATA     BYTE      RL_TH0
      00000098H.2 SFRSYM    DATA     BIT       RB8
      0000008DH   SFRSYM    DATA     BYTE      RL_TH1
      0000008CH   SFRSYM    DATA     BYTE      TH0
      000000A8H   SFRSYM    DATA     BIT       EX0
      00000088H   SFRSYM    DATA     BIT       IT0
      000000D6H   SFRSYM    DATA     BYTE      RL_T2H
      0000008DH   SFRSYM    DATA     BYTE      TH1
      000000A8H.2 SFRSYM    DATA     BIT       EX1
      00000098H.3 SFRSYM    DATA     BIT       TB8
      00000088H.2 SFRSYM    DATA     BIT       IT1
      000000D4H   SFRSYM    DATA     BYTE      RL_T3H
      000000D6H   SFRSYM    DATA     BYTE      TH2
      000000D6H   SFRSYM    DATA     BYTE      T2H
      000000D0H   SFRSYM    DATA     BIT       P
      000000D2H   SFRSYM    DATA     BYTE      RL_T4H
      000000D4H   SFRSYM    DATA     BYTE      TH3
      000000D4H   SFRSYM    DATA     BYTE      T3H
      0000008AH   SFRSYM    DATA     BYTE      RL_TL0
      00000098H.7 SFRSYM    DATA     BIT       SM0
      000000D2H   SFRSYM    DATA     BYTE      TH4
      000000D2H   SFRSYM    DATA     BYTE      T4H
      0000008BH   SFRSYM    DATA     BYTE      RL_TL1
      0000008AH   SFRSYM    DATA     BYTE      TL0
LX51 LINKER/LOCATER V4.66.41.0                                                        01/11/2019  12:04:15  PAGE 132


      00000098H.6 SFRSYM    DATA     BIT       SM1
      000000D7H   SFRSYM    DATA     BYTE      RL_T2L
      0000008BH   SFRSYM    DATA     BYTE      TL1
      00000098H.5 SFRSYM    DATA     BIT       SM2
      000000D5H   SFRSYM    DATA     BYTE      RL_T3L
      000000D7H   SFRSYM    DATA     BYTE      TL2
      000000D7H   SFRSYM    DATA     BYTE      T2L
      000000D3H   SFRSYM    DATA     BYTE      RL_T4L
      000000D5H   SFRSYM    DATA     BYTE      TL3
      000000D5H   SFRSYM    DATA     BYTE      T3L
      000000B8H.1 SFRSYM    DATA     BIT       PT0
      000000D3H   SFRSYM    DATA     BYTE      TL4
      000000D3H   SFRSYM    DATA     BYTE      T4L
      000000B8H.3 SFRSYM    DATA     BIT       PT1
      000000D0H.3 SFRSYM    DATA     BIT       RS0
      000000C7H   SFRSYM    DATA     BYTE      ISP_CONTR
      00000088H.4 SFRSYM    DATA     BIT       TR0
      000000D0H.4 SFRSYM    DATA     BIT       RS1
      000000C2H   SFRSYM    DATA     BYTE      IAP_DATA
      00000088H.6 SFRSYM    DATA     BIT       TR1
      000000B8H   SFRSYM    DATA     BIT       PX0
      000000C1H   SFRSYM    DATA     BYTE      WDT_CONTR
      000000B8H.2 SFRSYM    DATA     BIT       PX1
      000000F2H   SFRSYM    DATA     BYTE      PCA_PWM0
      000000F3H   SFRSYM    DATA     BYTE      PCA_PWM1
      000000F4H   SFRSYM    DATA     BYTE      PCA_PWM2
      0000009DH   SFRSYM    DATA     BYTE      P1ASF
      00000083H   SFRSYM    DATA     BYTE      DPH
      000000D1H   SFRSYM    DATA     BYTE      T4T3M
      000000BEH   SFRSYM    DATA     BYTE      ADC_RESL
      00000082H   SFRSYM    DATA     BYTE      DPL
      000000CDH   SFRSYM    DATA     BYTE      SPSTAT
      000000B7H   SFRSYM    DATA     BYTE      IPH
      0000009BH   SFRSYM    DATA     BYTE      S2BUF
      00000097H   SFRSYM    DATA     BYTE      PCON2
      000000ADH   SFRSYM    DATA     BYTE      S3BUF
      00000098H.4 SFRSYM    DATA     BIT       REN
      00000085H   SFRSYM    DATA     BYTE      S4BUF
      0000009AH   SFRSYM    DATA     BYTE      S2CON
      000000ACH   SFRSYM    DATA     BYTE      S3CON
      000000C2H   SFRSYM    DATA     BYTE      ISP_DATA
      00000084H   SFRSYM    DATA     BYTE      S4CON
      000000B9H   SFRSYM    DATA     BYTE      SADEN
      000000B0H   SFRSYM    DATA     BIT       RXD
      000000A9H   SFRSYM    DATA     BYTE      SADDR
      000000B0H.1 SFRSYM    DATA     BIT       TXD
      000000F0H   SFRSYM    DATA     BIT       B0
      000000F0H.1 SFRSYM    DATA     BIT       B1
      000000C6H   SFRSYM    DATA     BYTE      IAP_TRIG
      000000A2H   SFRSYM    DATA     BYTE      AUXR1
      000000F0H.2 SFRSYM    DATA     BIT       B2
      00000090H.2 SFRSYM    DATA     BIT       SPI_SS
      0000008FH   SFRSYM    DATA     BYTE      AUXR2
      000000F0H.3 SFRSYM    DATA     BIT       B3
      000000F0H.4 SFRSYM    DATA     BIT       B4
      000000D0H.5 SFRSYM    DATA     BIT       F0
      000000F0H.5 SFRSYM    DATA     BIT       B5
      000000D0H.1 SFRSYM    DATA     BIT       F1
      0000008FH   SFRSYM    DATA     BYTE      INT_CLKO
      000000F0H.6 SFRSYM    DATA     BIT       B6
      000000E0H   SFRSYM    DATA     BIT       ACC0
      000000F0H.7 SFRSYM    DATA     BIT       B7
      000000E0H.1 SFRSYM    DATA     BIT       ACC1
      000000E0H.2 SFRSYM    DATA     BIT       ACC2
      000000E0H.3 SFRSYM    DATA     BIT       ACC3
LX51 LINKER/LOCATER V4.66.41.0                                                        01/11/2019  12:04:15  PAGE 133


      000000D0H   SFRSYM    DATA     BYTE      PSW
      000000E0H.4 SFRSYM    DATA     BIT       ACC4
      00000090H.5 SFRSYM    DATA     BIT       SPI_SCLK
      000000D8H   SFRSYM    DATA     BIT       CCF0
      000000E0H.5 SFRSYM    DATA     BIT       ACC5
      000000D8H.1 SFRSYM    DATA     BIT       CCF1
      000000E0H.6 SFRSYM    DATA     BIT       ACC6
      000000CFH   SFRSYM    DATA     BYTE      SPDAT
      00000094H   SFRSYM    DATA     BYTE      P0M0

      ---         MODULE    ---      ---       USART
      020005E2H   PUBLIC    XDATA    ---       TX1_Buffer
      02000549H   PUBLIC    XDATA    ---       RX1_Buffer
      00000076H   PUBLIC    DATA     ---       COM1
      010070A9H   PUBLIC    CODE     ---       _uart1_datsSend
      01006F15H   PUBLIC    CODE     ---       _PrintString1_logOut
      010072C1H   PUBLIC    CODE     ---       _PrintString1
      010070F4H   PUBLIC    CODE     ---       _TX1_write2buff
      000000D8H.2 SFRSYM    DATA     BIT       CCF2
      000000E0H.7 SFRSYM    DATA     BIT       ACC7
      00000093H   SFRSYM    DATA     BYTE      P0M1
      00000092H   SFRSYM    DATA     BYTE      P1M0
      00000096H   SFRSYM    DATA     BYTE      P2M0
      00000091H   SFRSYM    DATA     BYTE      P1M1
      00000080H   SFRSYM    DATA     BYTE      P0
      000000B2H   SFRSYM    DATA     BYTE      P3M0
      00000095H   SFRSYM    DATA     BYTE      P2M1
      00000090H   SFRSYM    DATA     BYTE      P1
      000000B4H   SFRSYM    DATA     BYTE      P4M0
      000000B1H   SFRSYM    DATA     BYTE      P3M1
      000000A0H   SFRSYM    DATA     BYTE      P2
      000000CAH   SFRSYM    DATA     BYTE      P5M0
      000000B3H   SFRSYM    DATA     BYTE      P4M1
      000000B0H   SFRSYM    DATA     BYTE      P3
      000000ABH   SFRSYM    DATA     BYTE      WKTCH
      000000B0H.4 SFRSYM    DATA     BIT       T0
      000000D0H.6 SFRSYM    DATA     BIT       AC
      000000CCH   SFRSYM    DATA     BYTE      P6M0
      000000C9H   SFRSYM    DATA     BYTE      P5M1
      000000C0H   SFRSYM    DATA     BYTE      P4
      000000B0H.5 SFRSYM    DATA     BIT       CLKOUT0
      000000B0H.5 SFRSYM    DATA     BIT       T1
      000000E2H   SFRSYM    DATA     BYTE      P7M0
      000000CBH   SFRSYM    DATA     BYTE      P6M1
      000000C8H   SFRSYM    DATA     BYTE      P5
      000000C6H   SFRSYM    DATA     BYTE      ISP_TRIG
      000000A8H.7 SFRSYM    DATA     BIT       EA
      000000B0H.4 SFRSYM    DATA     BIT       CLKOUT1
      000000A0H.4 SFRSYM    DATA     BIT       SPI_SS_2
      000000E8H   SFRSYM    DATA     BYTE      P6
      000000E1H   SFRSYM    DATA     BYTE      P7M1
      000000C8H.4 SFRSYM    DATA     BIT       SPI_SS_3
      00000090H.4 SFRSYM    DATA     BIT       SPI_MISO
      00000090H.3 SFRSYM    DATA     BIT       SPI_MOSI
      00000090H.1 SFRSYM    DATA     BIT       CCP0
      000000F8H   SFRSYM    DATA     BYTE      P7
      000000AAH   SFRSYM    DATA     BYTE      WKTCL
      00000090H   SFRSYM    DATA     BIT       CCP1
      000000CEH   SFRSYM    DATA     BYTE      SPCTL
      000000D8H.7 SFRSYM    DATA     BIT       CF
      000000B0H.7 SFRSYM    DATA     BIT       CCP2
      000000F9H   SFRSYM    DATA     BYTE      CH
      000000A2H   SFRSYM    DATA     BYTE      P_SW1
      000000BAH   SFRSYM    DATA     BYTE      P_SW2
      000000A8H.5 SFRSYM    DATA     BIT       EADC
LX51 LINKER/LOCATER V4.66.41.0                                                        01/11/2019  12:04:15  PAGE 134


      000000A0H.1 SFRSYM    DATA     BIT       SPI_SCLK_2
      000000A8H   SFRSYM    DATA     BYTE      IE
      000000C0H.3 SFRSYM    DATA     BIT       SPI_SCLK_3
      000000E9H   SFRSYM    DATA     BYTE      CL
      000000C5H   SFRSYM    DATA     BYTE      IAP_CMD
      000000FAH   SFRSYM    DATA     BYTE      CCAP0H
      000000FBH   SFRSYM    DATA     BYTE      CCAP1H
      000000FCH   SFRSYM    DATA     BYTE      CCAP2H
      000000BDH   SFRSYM    DATA     BYTE      ADC_RES
      000000B6H   SFRSYM    DATA     BYTE      IPH2
      000000D8H.6 SFRSYM    DATA     BIT       CR
      000000EAH   SFRSYM    DATA     BYTE      CCAP0L
      000000B0H.7 SFRSYM    DATA     BIT       RD
      000000EBH   SFRSYM    DATA     BYTE      CCAP1L
      000000DAH   SFRSYM    DATA     BYTE      CCAPM0
      000000ECH   SFRSYM    DATA     BYTE      CCAP2L
      000000DBH   SFRSYM    DATA     BYTE      CCAPM1
      000000A8H.4 SFRSYM    DATA     BIT       ES
      000000DCH   SFRSYM    DATA     BYTE      CCAPM2
      000000B8H.5 SFRSYM    DATA     BIT       PADC
      000000A0H.2 SFRSYM    DATA     BIT       SPI_MISO_2
      000000A0H.3 SFRSYM    DATA     BIT       SPI_MOSI_2
      000000B8H   SFRSYM    DATA     BYTE      IP
      000000C0H.1 SFRSYM    DATA     BIT       SPI_MISO_3
      000000C0H   SFRSYM    DATA     BIT       SPI_MOSI_3
      00000098H   SFRSYM    DATA     BIT       RI
      000000B0H.2 SFRSYM    DATA     BIT       INT0
      000000D0H.7 SFRSYM    DATA     BIT       CY
      00000098H.1 SFRSYM    DATA     BIT       TI
      000000B0H.3 SFRSYM    DATA     BIT       INT1
      00000097H   SFRSYM    DATA     BYTE      CLK_DIV
      000000C3H   SFRSYM    DATA     BYTE      IAP_ADDRH
      00000090H   SFRSYM    DATA     BIT       RXD2
      000000C5H   SFRSYM    DATA     BYTE      ISP_CMD
      000000B8H.4 SFRSYM    DATA     BIT       PS
      00000090H.1 SFRSYM    DATA     BIT       TXD2
      00000081H   SFRSYM    DATA     BYTE      SP
      000000D9H   SFRSYM    DATA     BYTE      CMOD
      000000D8H   SFRSYM    DATA     BYTE      CCON
      000000C4H   SFRSYM    DATA     BYTE      IAP_ADDRL
      000000B8H.7 SFRSYM    DATA     BIT       PPCA
      000000D0H.2 SFRSYM    DATA     BIT       OV
      000000B0H.6 SFRSYM    DATA     BIT       WR
      000000A8H.6 SFRSYM    DATA     BIT       ELVD
      00000080H   SFRSYM    DATA     BIT       P00
      00000090H   SFRSYM    DATA     BIT       P10
      00000080H.1 SFRSYM    DATA     BIT       P01
      000000BCH   SFRSYM    DATA     BYTE      ADC_CONTR
      00000099H   SFRSYM    DATA     BYTE      SBUF
      00000087H   SFRSYM    DATA     BYTE      PCON
      000000A0H   SFRSYM    DATA     BIT       P20
      00000090H.1 SFRSYM    DATA     BIT       P11
      00000080H.2 SFRSYM    DATA     BIT       P02
      000000C3H   SFRSYM    DATA     BYTE      ISP_ADDRH
      000000B0H   SFRSYM    DATA     BIT       P30
      000000A0H.1 SFRSYM    DATA     BIT       P21
      00000090H.2 SFRSYM    DATA     BIT       P12
      00000080H.3 SFRSYM    DATA     BIT       P03
      000000C0H   SFRSYM    DATA     BIT       P40
      000000B0H.1 SFRSYM    DATA     BIT       P31
      000000A0H.2 SFRSYM    DATA     BIT       P22
      00000090H.3 SFRSYM    DATA     BIT       P13
      00000080H.4 SFRSYM    DATA     BIT       P04
      00000098H   SFRSYM    DATA     BYTE      SCON
      0000008FH   SFRSYM    DATA     BYTE      WAKE_CLKO
LX51 LINKER/LOCATER V4.66.41.0                                                        01/11/2019  12:04:15  PAGE 135


      000000C8H   SFRSYM    DATA     BIT       P50
      000000C0H.1 SFRSYM    DATA     BIT       P41
      000000B0H.2 SFRSYM    DATA     BIT       P32
      000000A0H.3 SFRSYM    DATA     BIT       P23
      00000090H.4 SFRSYM    DATA     BIT       P14
      00000080H.5 SFRSYM    DATA     BIT       P05
      00000089H   SFRSYM    DATA     BYTE      TMOD
      00000088H   SFRSYM    DATA     BYTE      TCON
      000000C8H.1 SFRSYM    DATA     BIT       P51
      000000C0H.2 SFRSYM    DATA     BIT       P42
      000000B0H.3 SFRSYM    DATA     BIT       P33
      000000A0H.4 SFRSYM    DATA     BIT       P24
      00000090H.5 SFRSYM    DATA     BIT       P15
      00000080H.6 SFRSYM    DATA     BIT       P06
      000000C4H   SFRSYM    DATA     BYTE      ISP_ADDRL
      000000B8H.6 SFRSYM    DATA     BIT       PLVD
      000000C8H.2 SFRSYM    DATA     BIT       P52
      000000C0H.3 SFRSYM    DATA     BIT       P43
      000000B0H.4 SFRSYM    DATA     BIT       P34
      000000A0H.5 SFRSYM    DATA     BIT       P25
      00000090H.6 SFRSYM    DATA     BIT       P16
      00000080H.7 SFRSYM    DATA     BIT       P07
      000000C8H.3 SFRSYM    DATA     BIT       P53
      000000C0H.4 SFRSYM    DATA     BIT       P44
      000000B0H.5 SFRSYM    DATA     BIT       P35
      000000A0H.6 SFRSYM    DATA     BIT       P26
      00000090H.7 SFRSYM    DATA     BIT       P17
      000000C8H.4 SFRSYM    DATA     BIT       P54
      000000C0H.5 SFRSYM    DATA     BIT       P45
      000000B0H.6 SFRSYM    DATA     BIT       P36
      000000A0H.7 SFRSYM    DATA     BIT       P27
      000000C8H.5 SFRSYM    DATA     BIT       P55
      000000C0H.6 SFRSYM    DATA     BIT       P46
      000000B0H.7 SFRSYM    DATA     BIT       P37
      000000C8H.6 SFRSYM    DATA     BIT       P56
      000000C0H.7 SFRSYM    DATA     BIT       P47
      000000C8H.7 SFRSYM    DATA     BIT       P57
      00000088H.1 SFRSYM    DATA     BIT       IE0
      000000A1H   SFRSYM    DATA     BYTE      BUS_SPEED
      00000088H.3 SFRSYM    DATA     BIT       IE1
      000000AFH   SFRSYM    DATA     BYTE      IE2
      000000F0H   SFRSYM    DATA     BYTE      B
      0000008EH   SFRSYM    DATA     BYTE      AUXR
      000000C7H   SFRSYM    DATA     BYTE      IAP_CONTR
      000000E0H   SFRSYM    DATA     BYTE      ACC
      000000A8H.1 SFRSYM    DATA     BIT       ET0
      000000A8H.3 SFRSYM    DATA     BIT       ET1
      00000088H.5 SFRSYM    DATA     BIT       TF0
      00000088H.7 SFRSYM    DATA     BIT       TF1
      000000B5H   SFRSYM    DATA     BYTE      IP2
      0000008CH   SFRSYM    DATA     BYTE      RL_TH0
      00000098H.2 SFRSYM    DATA     BIT       RB8
      0000008DH   SFRSYM    DATA     BYTE      RL_TH1
      0000008CH   SFRSYM    DATA     BYTE      TH0
      000000A8H   SFRSYM    DATA     BIT       EX0
      00000088H   SFRSYM    DATA     BIT       IT0
      000000D6H   SFRSYM    DATA     BYTE      RL_T2H
      0000008DH   SFRSYM    DATA     BYTE      TH1
      000000A8H.2 SFRSYM    DATA     BIT       EX1
      00000098H.3 SFRSYM    DATA     BIT       TB8
      00000088H.2 SFRSYM    DATA     BIT       IT1
      000000D4H   SFRSYM    DATA     BYTE      RL_T3H
      000000D6H   SFRSYM    DATA     BYTE      TH2
      000000D6H   SFRSYM    DATA     BYTE      T2H
      000000D0H   SFRSYM    DATA     BIT       P
LX51 LINKER/LOCATER V4.66.41.0                                                        01/11/2019  12:04:15  PAGE 136


      000000D2H   SFRSYM    DATA     BYTE      RL_T4H
      000000D4H   SFRSYM    DATA     BYTE      TH3
      000000D4H   SFRSYM    DATA     BYTE      T3H
      0000008AH   SFRSYM    DATA     BYTE      RL_TL0
      00000098H.7 SFRSYM    DATA     BIT       SM0
      000000D2H   SFRSYM    DATA     BYTE      TH4
      000000D2H   SFRSYM    DATA     BYTE      T4H
      0000008BH   SFRSYM    DATA     BYTE      RL_TL1
      0000008AH   SFRSYM    DATA     BYTE      TL0
      00000098H.6 SFRSYM    DATA     BIT       SM1
      000000D7H   SFRSYM    DATA     BYTE      RL_T2L
      0000008BH   SFRSYM    DATA     BYTE      TL1
      00000098H.5 SFRSYM    DATA     BIT       SM2
      000000D5H   SFRSYM    DATA     BYTE      RL_T3L
      000000D7H   SFRSYM    DATA     BYTE      TL2
      000000D7H   SFRSYM    DATA     BYTE      T2L
      000000D3H   SFRSYM    DATA     BYTE      RL_T4L
      000000D5H   SFRSYM    DATA     BYTE      TL3
      000000D5H   SFRSYM    DATA     BYTE      T3L
      000000B8H.1 SFRSYM    DATA     BIT       PT0
      000000D3H   SFRSYM    DATA     BYTE      TL4
      000000D3H   SFRSYM    DATA     BYTE      T4L
      000000B8H.3 SFRSYM    DATA     BIT       PT1
      000000D0H.3 SFRSYM    DATA     BIT       RS0
      000000C7H   SFRSYM    DATA     BYTE      ISP_CONTR
      00000088H.4 SFRSYM    DATA     BIT       TR0
      000000D0H.4 SFRSYM    DATA     BIT       RS1
      000000C2H   SFRSYM    DATA     BYTE      IAP_DATA
      00000088H.6 SFRSYM    DATA     BIT       TR1
      000000B8H   SFRSYM    DATA     BIT       PX0
      000000C1H   SFRSYM    DATA     BYTE      WDT_CONTR
      000000B8H.2 SFRSYM    DATA     BIT       PX1
      000000F2H   SFRSYM    DATA     BYTE      PCA_PWM0
      000000F3H   SFRSYM    DATA     BYTE      PCA_PWM1
      000000F4H   SFRSYM    DATA     BYTE      PCA_PWM2
      0000009DH   SFRSYM    DATA     BYTE      P1ASF
      00000083H   SFRSYM    DATA     BYTE      DPH
      000000D1H   SFRSYM    DATA     BYTE      T4T3M
      000000BEH   SFRSYM    DATA     BYTE      ADC_RESL
      00000082H   SFRSYM    DATA     BYTE      DPL
      000000CDH   SFRSYM    DATA     BYTE      SPSTAT
      000000B7H   SFRSYM    DATA     BYTE      IPH
      0000009BH   SFRSYM    DATA     BYTE      S2BUF
      00000097H   SFRSYM    DATA     BYTE      PCON2
      000000ADH   SFRSYM    DATA     BYTE      S3BUF
      00000098H.4 SFRSYM    DATA     BIT       REN
      00000085H   SFRSYM    DATA     BYTE      S4BUF
      0000009AH   SFRSYM    DATA     BYTE      S2CON
      000000ACH   SFRSYM    DATA     BYTE      S3CON
      000000C2H   SFRSYM    DATA     BYTE      ISP_DATA
      00000084H   SFRSYM    DATA     BYTE      S4CON
      000000B9H   SFRSYM    DATA     BYTE      SADEN
      000000B0H   SFRSYM    DATA     BIT       RXD
      000000A9H   SFRSYM    DATA     BYTE      SADDR
      000000B0H.1 SFRSYM    DATA     BIT       TXD
      000000F0H   SFRSYM    DATA     BIT       B0
      000000F0H.1 SFRSYM    DATA     BIT       B1
      000000C6H   SFRSYM    DATA     BYTE      IAP_TRIG
      000000A2H   SFRSYM    DATA     BYTE      AUXR1
      000000F0H.2 SFRSYM    DATA     BIT       B2
      00000090H.2 SFRSYM    DATA     BIT       SPI_SS
      0000008FH   SFRSYM    DATA     BYTE      AUXR2
      000000F0H.3 SFRSYM    DATA     BIT       B3
      000000F0H.4 SFRSYM    DATA     BIT       B4
      000000D0H.5 SFRSYM    DATA     BIT       F0
LX51 LINKER/LOCATER V4.66.41.0                                                        01/11/2019  12:04:15  PAGE 137


      000000F0H.5 SFRSYM    DATA     BIT       B5
      000000D0H.1 SFRSYM    DATA     BIT       F1
      0000008FH   SFRSYM    DATA     BYTE      INT_CLKO
      000000F0H.6 SFRSYM    DATA     BIT       B6
      000000E0H   SFRSYM    DATA     BIT       ACC0
      000000F0H.7 SFRSYM    DATA     BIT       B7
      000000E0H.1 SFRSYM    DATA     BIT       ACC1
      000000E0H.2 SFRSYM    DATA     BIT       ACC2
      000000E0H.3 SFRSYM    DATA     BIT       ACC3
      000000D0H   SFRSYM    DATA     BYTE      PSW
      000000E0H.4 SFRSYM    DATA     BIT       ACC4
      00000090H.5 SFRSYM    DATA     BIT       SPI_SCLK
      000000D8H   SFRSYM    DATA     BIT       CCF0
      000000E0H.5 SFRSYM    DATA     BIT       ACC5
      000000D8H.1 SFRSYM    DATA     BIT       CCF1
      000000E0H.6 SFRSYM    DATA     BIT       ACC6
      000000CFH   SFRSYM    DATA     BYTE      SPDAT
      00000094H   SFRSYM    DATA     BYTE      P0M0

      010070F4H   BLOCK     CODE     ---       LVL=0
      00000007H   SYMBOL    DATA     BYTE      dat
      010070F4H   LINE      CODE     ---       #130
      010070F4H   LINE      CODE     ---       #131
      010070F4H   LINE      CODE     ---       #132
      01007101H   LINE      CODE     ---       #133
      0100710DH   LINE      CODE     ---       #135
      01007111H   LINE      CODE     ---       #136
      01007111H   LINE      CODE     ---       #137
      01007114H   LINE      CODE     ---       #138
      01007116H   LINE      CODE     ---       #139
      01007116H   LINE      CODE     ---       #140
      ---         BLOCKEND  ---      ---       LVL=0

      010072C1H   BLOCK     CODE     ---       LVL=0
      00000001H   SYMBOL    DATA     ---       puts
      010072C1H   LINE      CODE     ---       #154
      010072C1H   LINE      CODE     ---       #155
      010072C1H   LINE      CODE     ---       #156
      010072D3H   LINE      CODE     ---       #157
      ---         BLOCKEND  ---      ---       LVL=0

      01006F15H   BLOCK     CODE     ---       LVL=0
      00000038H   SYMBOL    DATA     ---       puts
      01006F15H   LINE      CODE     ---       #159
      01006F1BH   LINE      CODE     ---       #164
      01006F1EH   LINE      CODE     ---       #165
      01006F26H   LINE      CODE     ---       #166
      01006F29H   LINE      CODE     ---       #167
      01006F32H   LINE      CODE     ---       #168
      01006F39H   LINE      CODE     ---       #169
      01006F3CH   LINE      CODE     ---       #170
      01006F43H   LINE      CODE     ---       #172
      ---         BLOCKEND  ---      ---       LVL=0

      010070A9H   BLOCK     CODE     ---       LVL=0
      0000004AH   SYMBOL    DATA     ---       dats
      00000005H   SYMBOL    DATA     BYTE      datsLen
      010070AFH   BLOCK     CODE     NEAR LAB  LVL=1
      00000006H   SYMBOL    DATA     BYTE      loop
      ---         BLOCKEND  ---      ---       LVL=1
      010070A9H   LINE      CODE     ---       #179
      010070AFH   LINE      CODE     ---       #181
      010070B1H   LINE      CODE     ---       #183
      010070B6H   LINE      CODE     ---       #185
      010070CBH   LINE      CODE     ---       #186
LX51 LINKER/LOCATER V4.66.41.0                                                        01/11/2019  12:04:15  PAGE 138


      010070CEH   LINE      CODE     ---       #187
      ---         BLOCKEND  ---      ---       LVL=0

      ---         MODULE    ---      ---       DELAY
      01007260H   PUBLIC    CODE     ---       _delayMs
      01007306H   PUBLIC    CODE     ---       _delay_ms
      000000D8H.2 SFRSYM    DATA     BIT       CCF2
      000000E0H.7 SFRSYM    DATA     BIT       ACC7
      00000093H   SFRSYM    DATA     BYTE      P0M1
      00000092H   SFRSYM    DATA     BYTE      P1M0
      00000096H   SFRSYM    DATA     BYTE      P2M0
      00000091H   SFRSYM    DATA     BYTE      P1M1
      00000080H   SFRSYM    DATA     BYTE      P0
      000000B2H   SFRSYM    DATA     BYTE      P3M0
      00000095H   SFRSYM    DATA     BYTE      P2M1
      00000090H   SFRSYM    DATA     BYTE      P1
      000000B4H   SFRSYM    DATA     BYTE      P4M0
      000000B1H   SFRSYM    DATA     BYTE      P3M1
      000000A0H   SFRSYM    DATA     BYTE      P2
      000000CAH   SFRSYM    DATA     BYTE      P5M0
      000000B3H   SFRSYM    DATA     BYTE      P4M1
      000000B0H   SFRSYM    DATA     BYTE      P3
      000000ABH   SFRSYM    DATA     BYTE      WKTCH
      000000B0H.4 SFRSYM    DATA     BIT       T0
      000000D0H.6 SFRSYM    DATA     BIT       AC
      000000CCH   SFRSYM    DATA     BYTE      P6M0
      000000C9H   SFRSYM    DATA     BYTE      P5M1
      000000C0H   SFRSYM    DATA     BYTE      P4
      000000B0H.5 SFRSYM    DATA     BIT       CLKOUT0
      000000B0H.5 SFRSYM    DATA     BIT       T1
      000000E2H   SFRSYM    DATA     BYTE      P7M0
      000000CBH   SFRSYM    DATA     BYTE      P6M1
      000000C8H   SFRSYM    DATA     BYTE      P5
      000000C6H   SFRSYM    DATA     BYTE      ISP_TRIG
      000000A8H.7 SFRSYM    DATA     BIT       EA
      000000B0H.4 SFRSYM    DATA     BIT       CLKOUT1
      000000A0H.4 SFRSYM    DATA     BIT       SPI_SS_2
      000000E8H   SFRSYM    DATA     BYTE      P6
      000000E1H   SFRSYM    DATA     BYTE      P7M1
      000000C8H.4 SFRSYM    DATA     BIT       SPI_SS_3
      00000090H.4 SFRSYM    DATA     BIT       SPI_MISO
      00000090H.3 SFRSYM    DATA     BIT       SPI_MOSI
      00000090H.1 SFRSYM    DATA     BIT       CCP0
      000000F8H   SFRSYM    DATA     BYTE      P7
      000000AAH   SFRSYM    DATA     BYTE      WKTCL
      00000090H   SFRSYM    DATA     BIT       CCP1
      000000CEH   SFRSYM    DATA     BYTE      SPCTL
      000000D8H.7 SFRSYM    DATA     BIT       CF
      000000B0H.7 SFRSYM    DATA     BIT       CCP2
      000000F9H   SFRSYM    DATA     BYTE      CH
      000000A2H   SFRSYM    DATA     BYTE      P_SW1
      000000BAH   SFRSYM    DATA     BYTE      P_SW2
      000000A8H.5 SFRSYM    DATA     BIT       EADC
      000000A0H.1 SFRSYM    DATA     BIT       SPI_SCLK_2
      000000A8H   SFRSYM    DATA     BYTE      IE
      000000C0H.3 SFRSYM    DATA     BIT       SPI_SCLK_3
      000000E9H   SFRSYM    DATA     BYTE      CL
      000000C5H   SFRSYM    DATA     BYTE      IAP_CMD
      000000FAH   SFRSYM    DATA     BYTE      CCAP0H
      000000FBH   SFRSYM    DATA     BYTE      CCAP1H
      000000FCH   SFRSYM    DATA     BYTE      CCAP2H
      000000BDH   SFRSYM    DATA     BYTE      ADC_RES
      000000B6H   SFRSYM    DATA     BYTE      IPH2
      000000D8H.6 SFRSYM    DATA     BIT       CR
      000000EAH   SFRSYM    DATA     BYTE      CCAP0L
LX51 LINKER/LOCATER V4.66.41.0                                                        01/11/2019  12:04:15  PAGE 139


      000000B0H.7 SFRSYM    DATA     BIT       RD
      000000EBH   SFRSYM    DATA     BYTE      CCAP1L
      000000DAH   SFRSYM    DATA     BYTE      CCAPM0
      000000ECH   SFRSYM    DATA     BYTE      CCAP2L
      000000DBH   SFRSYM    DATA     BYTE      CCAPM1
      000000A8H.4 SFRSYM    DATA     BIT       ES
      000000DCH   SFRSYM    DATA     BYTE      CCAPM2
      000000B8H.5 SFRSYM    DATA     BIT       PADC
      000000A0H.2 SFRSYM    DATA     BIT       SPI_MISO_2
      000000A0H.3 SFRSYM    DATA     BIT       SPI_MOSI_2
      000000B8H   SFRSYM    DATA     BYTE      IP
      000000C0H.1 SFRSYM    DATA     BIT       SPI_MISO_3
      000000C0H   SFRSYM    DATA     BIT       SPI_MOSI_3
      00000098H   SFRSYM    DATA     BIT       RI
      000000B0H.2 SFRSYM    DATA     BIT       INT0
      000000D0H.7 SFRSYM    DATA     BIT       CY
      00000098H.1 SFRSYM    DATA     BIT       TI
      000000B0H.3 SFRSYM    DATA     BIT       INT1
      00000097H   SFRSYM    DATA     BYTE      CLK_DIV
      000000C3H   SFRSYM    DATA     BYTE      IAP_ADDRH
      00000090H   SFRSYM    DATA     BIT       RXD2
      000000C5H   SFRSYM    DATA     BYTE      ISP_CMD
      000000B8H.4 SFRSYM    DATA     BIT       PS
      00000090H.1 SFRSYM    DATA     BIT       TXD2
      00000081H   SFRSYM    DATA     BYTE      SP
      000000D9H   SFRSYM    DATA     BYTE      CMOD
      000000D8H   SFRSYM    DATA     BYTE      CCON
      000000C4H   SFRSYM    DATA     BYTE      IAP_ADDRL
      000000B8H.7 SFRSYM    DATA     BIT       PPCA
      000000D0H.2 SFRSYM    DATA     BIT       OV
      000000B0H.6 SFRSYM    DATA     BIT       WR
      000000A8H.6 SFRSYM    DATA     BIT       ELVD
      00000080H   SFRSYM    DATA     BIT       P00
      00000090H   SFRSYM    DATA     BIT       P10
      00000080H.1 SFRSYM    DATA     BIT       P01
      000000BCH   SFRSYM    DATA     BYTE      ADC_CONTR
      00000099H   SFRSYM    DATA     BYTE      SBUF
      00000087H   SFRSYM    DATA     BYTE      PCON
      000000A0H   SFRSYM    DATA     BIT       P20
      00000090H.1 SFRSYM    DATA     BIT       P11
      00000080H.2 SFRSYM    DATA     BIT       P02
      000000C3H   SFRSYM    DATA     BYTE      ISP_ADDRH
      000000B0H   SFRSYM    DATA     BIT       P30
      000000A0H.1 SFRSYM    DATA     BIT       P21
      00000090H.2 SFRSYM    DATA     BIT       P12
      00000080H.3 SFRSYM    DATA     BIT       P03
      000000C0H   SFRSYM    DATA     BIT       P40
      000000B0H.1 SFRSYM    DATA     BIT       P31
      000000A0H.2 SFRSYM    DATA     BIT       P22
      00000090H.3 SFRSYM    DATA     BIT       P13
      00000080H.4 SFRSYM    DATA     BIT       P04
      00000098H   SFRSYM    DATA     BYTE      SCON
      0000008FH   SFRSYM    DATA     BYTE      WAKE_CLKO
      000000C8H   SFRSYM    DATA     BIT       P50
      000000C0H.1 SFRSYM    DATA     BIT       P41
      000000B0H.2 SFRSYM    DATA     BIT       P32
      000000A0H.3 SFRSYM    DATA     BIT       P23
      00000090H.4 SFRSYM    DATA     BIT       P14
      00000080H.5 SFRSYM    DATA     BIT       P05
      00000089H   SFRSYM    DATA     BYTE      TMOD
      00000088H   SFRSYM    DATA     BYTE      TCON
      000000C8H.1 SFRSYM    DATA     BIT       P51
      000000C0H.2 SFRSYM    DATA     BIT       P42
      000000B0H.3 SFRSYM    DATA     BIT       P33
      000000A0H.4 SFRSYM    DATA     BIT       P24
LX51 LINKER/LOCATER V4.66.41.0                                                        01/11/2019  12:04:15  PAGE 140


      00000090H.5 SFRSYM    DATA     BIT       P15
      00000080H.6 SFRSYM    DATA     BIT       P06
      000000C4H   SFRSYM    DATA     BYTE      ISP_ADDRL
      000000B8H.6 SFRSYM    DATA     BIT       PLVD
      000000C8H.2 SFRSYM    DATA     BIT       P52
      000000C0H.3 SFRSYM    DATA     BIT       P43
      000000B0H.4 SFRSYM    DATA     BIT       P34
      000000A0H.5 SFRSYM    DATA     BIT       P25
      00000090H.6 SFRSYM    DATA     BIT       P16
      00000080H.7 SFRSYM    DATA     BIT       P07
      000000C8H.3 SFRSYM    DATA     BIT       P53
      000000C0H.4 SFRSYM    DATA     BIT       P44
      000000B0H.5 SFRSYM    DATA     BIT       P35
      000000A0H.6 SFRSYM    DATA     BIT       P26
      00000090H.7 SFRSYM    DATA     BIT       P17
      000000C8H.4 SFRSYM    DATA     BIT       P54
      000000C0H.5 SFRSYM    DATA     BIT       P45
      000000B0H.6 SFRSYM    DATA     BIT       P36
      000000A0H.7 SFRSYM    DATA     BIT       P27
      000000C8H.5 SFRSYM    DATA     BIT       P55
      000000C0H.6 SFRSYM    DATA     BIT       P46
      000000B0H.7 SFRSYM    DATA     BIT       P37
      000000C8H.6 SFRSYM    DATA     BIT       P56
      000000C0H.7 SFRSYM    DATA     BIT       P47
      000000C8H.7 SFRSYM    DATA     BIT       P57
      00000088H.1 SFRSYM    DATA     BIT       IE0
      000000A1H   SFRSYM    DATA     BYTE      BUS_SPEED
      00000088H.3 SFRSYM    DATA     BIT       IE1
      000000AFH   SFRSYM    DATA     BYTE      IE2
      000000F0H   SFRSYM    DATA     BYTE      B
      0000008EH   SFRSYM    DATA     BYTE      AUXR
      000000C7H   SFRSYM    DATA     BYTE      IAP_CONTR
      000000E0H   SFRSYM    DATA     BYTE      ACC
      000000A8H.1 SFRSYM    DATA     BIT       ET0
      000000A8H.3 SFRSYM    DATA     BIT       ET1
      00000088H.5 SFRSYM    DATA     BIT       TF0
      00000088H.7 SFRSYM    DATA     BIT       TF1
      000000B5H   SFRSYM    DATA     BYTE      IP2
      0000008CH   SFRSYM    DATA     BYTE      RL_TH0
      00000098H.2 SFRSYM    DATA     BIT       RB8
      0000008DH   SFRSYM    DATA     BYTE      RL_TH1
      0000008CH   SFRSYM    DATA     BYTE      TH0
      000000A8H   SFRSYM    DATA     BIT       EX0
      00000088H   SFRSYM    DATA     BIT       IT0
      000000D6H   SFRSYM    DATA     BYTE      RL_T2H
      0000008DH   SFRSYM    DATA     BYTE      TH1
      000000A8H.2 SFRSYM    DATA     BIT       EX1
      00000098H.3 SFRSYM    DATA     BIT       TB8
      00000088H.2 SFRSYM    DATA     BIT       IT1
      000000D4H   SFRSYM    DATA     BYTE      RL_T3H
      000000D6H   SFRSYM    DATA     BYTE      TH2
      000000D6H   SFRSYM    DATA     BYTE      T2H
      000000D0H   SFRSYM    DATA     BIT       P
      000000D2H   SFRSYM    DATA     BYTE      RL_T4H
      000000D4H   SFRSYM    DATA     BYTE      TH3
      000000D4H   SFRSYM    DATA     BYTE      T3H
      0000008AH   SFRSYM    DATA     BYTE      RL_TL0
      00000098H.7 SFRSYM    DATA     BIT       SM0
      000000D2H   SFRSYM    DATA     BYTE      TH4
      000000D2H   SFRSYM    DATA     BYTE      T4H
      0000008BH   SFRSYM    DATA     BYTE      RL_TL1
      0000008AH   SFRSYM    DATA     BYTE      TL0
      00000098H.6 SFRSYM    DATA     BIT       SM1
      000000D7H   SFRSYM    DATA     BYTE      RL_T2L
      0000008BH   SFRSYM    DATA     BYTE      TL1
LX51 LINKER/LOCATER V4.66.41.0                                                        01/11/2019  12:04:15  PAGE 141


      00000098H.5 SFRSYM    DATA     BIT       SM2
      000000D5H   SFRSYM    DATA     BYTE      RL_T3L
      000000D7H   SFRSYM    DATA     BYTE      TL2
      000000D7H   SFRSYM    DATA     BYTE      T2L
      000000D3H   SFRSYM    DATA     BYTE      RL_T4L
      000000D5H   SFRSYM    DATA     BYTE      TL3
      000000D5H   SFRSYM    DATA     BYTE      T3L
      000000B8H.1 SFRSYM    DATA     BIT       PT0
      000000D3H   SFRSYM    DATA     BYTE      TL4
      000000D3H   SFRSYM    DATA     BYTE      T4L
      000000B8H.3 SFRSYM    DATA     BIT       PT1
      000000D0H.3 SFRSYM    DATA     BIT       RS0
      000000C7H   SFRSYM    DATA     BYTE      ISP_CONTR
      00000088H.4 SFRSYM    DATA     BIT       TR0
      000000D0H.4 SFRSYM    DATA     BIT       RS1
      000000C2H   SFRSYM    DATA     BYTE      IAP_DATA
      00000088H.6 SFRSYM    DATA     BIT       TR1
      000000B8H   SFRSYM    DATA     BIT       PX0
      000000C1H   SFRSYM    DATA     BYTE      WDT_CONTR
      000000B8H.2 SFRSYM    DATA     BIT       PX1
      000000F2H   SFRSYM    DATA     BYTE      PCA_PWM0
      000000F3H   SFRSYM    DATA     BYTE      PCA_PWM1
      000000F4H   SFRSYM    DATA     BYTE      PCA_PWM2
      0000009DH   SFRSYM    DATA     BYTE      P1ASF
      00000083H   SFRSYM    DATA     BYTE      DPH
      000000D1H   SFRSYM    DATA     BYTE      T4T3M
      000000BEH   SFRSYM    DATA     BYTE      ADC_RESL
      00000082H   SFRSYM    DATA     BYTE      DPL
      000000CDH   SFRSYM    DATA     BYTE      SPSTAT
      000000B7H   SFRSYM    DATA     BYTE      IPH
      0000009BH   SFRSYM    DATA     BYTE      S2BUF
      00000097H   SFRSYM    DATA     BYTE      PCON2
      000000ADH   SFRSYM    DATA     BYTE      S3BUF
      00000098H.4 SFRSYM    DATA     BIT       REN
      00000085H   SFRSYM    DATA     BYTE      S4BUF
      0000009AH   SFRSYM    DATA     BYTE      S2CON
      000000ACH   SFRSYM    DATA     BYTE      S3CON
      000000C2H   SFRSYM    DATA     BYTE      ISP_DATA
      00000084H   SFRSYM    DATA     BYTE      S4CON
      000000B9H   SFRSYM    DATA     BYTE      SADEN
      000000B0H   SFRSYM    DATA     BIT       RXD
      000000A9H   SFRSYM    DATA     BYTE      SADDR
      000000B0H.1 SFRSYM    DATA     BIT       TXD
      000000F0H   SFRSYM    DATA     BIT       B0
      000000F0H.1 SFRSYM    DATA     BIT       B1
      000000C6H   SFRSYM    DATA     BYTE      IAP_TRIG
      000000A2H   SFRSYM    DATA     BYTE      AUXR1
      000000F0H.2 SFRSYM    DATA     BIT       B2
      00000090H.2 SFRSYM    DATA     BIT       SPI_SS
      0000008FH   SFRSYM    DATA     BYTE      AUXR2
      000000F0H.3 SFRSYM    DATA     BIT       B3
      000000F0H.4 SFRSYM    DATA     BIT       B4
      000000D0H.5 SFRSYM    DATA     BIT       F0
      000000F0H.5 SFRSYM    DATA     BIT       B5
      000000D0H.1 SFRSYM    DATA     BIT       F1
      0000008FH   SFRSYM    DATA     BYTE      INT_CLKO
      000000F0H.6 SFRSYM    DATA     BIT       B6
      000000E0H   SFRSYM    DATA     BIT       ACC0
      000000F0H.7 SFRSYM    DATA     BIT       B7
      000000E0H.1 SFRSYM    DATA     BIT       ACC1
      000000E0H.2 SFRSYM    DATA     BIT       ACC2
      000000E0H.3 SFRSYM    DATA     BIT       ACC3
      000000D0H   SFRSYM    DATA     BYTE      PSW
      000000E0H.4 SFRSYM    DATA     BIT       ACC4
      00000090H.5 SFRSYM    DATA     BIT       SPI_SCLK
LX51 LINKER/LOCATER V4.66.41.0                                                        01/11/2019  12:04:15  PAGE 142


      000000D8H   SFRSYM    DATA     BIT       CCF0
      000000E0H.5 SFRSYM    DATA     BIT       ACC5
      000000D8H.1 SFRSYM    DATA     BIT       CCF1
      000000E0H.6 SFRSYM    DATA     BIT       ACC6
      000000CFH   SFRSYM    DATA     BYTE      SPDAT
      00000094H   SFRSYM    DATA     BYTE      P0M0

      01007306H   BLOCK     CODE     ---       LVL=0
      00000007H   SYMBOL    DATA     BYTE      ms
      01007306H   BLOCK     CODE     NEAR LAB  LVL=1
      00000004H   SYMBOL    DATA     WORD      i
      ---         BLOCKEND  ---      ---       LVL=1
      01007306H   LINE      CODE     ---       #31
      01007306H   LINE      CODE     ---       #32
      01007306H   LINE      CODE     ---       #34
      01007306H   LINE      CODE     ---       #35
      0100730AH   LINE      CODE     ---       #36
      01007313H   LINE      CODE     ---       #37
      01007315H   LINE      CODE     ---       #38
      ---         BLOCKEND  ---      ---       LVL=0

      01007260H   BLOCK     CODE     ---       LVL=0
      00000002H   SYMBOL    DATA     WORD      ms
      01007260H   LINE      CODE     ---       #40
      01007264H   LINE      CODE     ---       #42
      01007274H   LINE      CODE     ---       #43
      ---         BLOCKEND  ---      ---       LVL=0
      00000007H   SYMBOL    DATA     BYTE      count
      00000006H   SYMBOL    DATA     BYTE      i

      ---         MODULE    ---      ---       EEPROM
      00000033H   PUBLIC    DATA     BYTE      ?_coverEEPROM_write_n?BYTE
      01006B09H   PUBLIC    CODE     ---       _coverEEPROM_write_n
      0000003AH   PUBLIC    DATA     BYTE      ?_EEPROM_write_n?BYTE
      01006EDEH   PUBLIC    CODE     ---       _EEPROM_write_n
      0100718EH   PUBLIC    CODE     ---       _EEPROM_SectorErase
      0000004FH   PUBLIC    DATA     BYTE      ?_EEPROM_read_n?BYTE
      01006F7DH   PUBLIC    CODE     ---       _EEPROM_read_n
      01007324H   PUBLIC    CODE     ---       DisableEEPROM
      000000D8H.2 SFRSYM    DATA     BIT       CCF2
      000000E0H.7 SFRSYM    DATA     BIT       ACC7
      00000093H   SFRSYM    DATA     BYTE      P0M1
      00000092H   SFRSYM    DATA     BYTE      P1M0
      00000096H   SFRSYM    DATA     BYTE      P2M0
      00000091H   SFRSYM    DATA     BYTE      P1M1
      00000080H   SFRSYM    DATA     BYTE      P0
      000000B2H   SFRSYM    DATA     BYTE      P3M0
      00000095H   SFRSYM    DATA     BYTE      P2M1
      00000090H   SFRSYM    DATA     BYTE      P1
      000000B4H   SFRSYM    DATA     BYTE      P4M0
      000000B1H   SFRSYM    DATA     BYTE      P3M1
      000000A0H   SFRSYM    DATA     BYTE      P2
      000000CAH   SFRSYM    DATA     BYTE      P5M0
      000000B3H   SFRSYM    DATA     BYTE      P4M1
      000000B0H   SFRSYM    DATA     BYTE      P3
      000000ABH   SFRSYM    DATA     BYTE      WKTCH
      000000B0H.4 SFRSYM    DATA     BIT       T0
      000000D0H.6 SFRSYM    DATA     BIT       AC
      000000CCH   SFRSYM    DATA     BYTE      P6M0
      000000C9H   SFRSYM    DATA     BYTE      P5M1
      000000C0H   SFRSYM    DATA     BYTE      P4
      000000B0H.5 SFRSYM    DATA     BIT       CLKOUT0
      000000B0H.5 SFRSYM    DATA     BIT       T1
      000000E2H   SFRSYM    DATA     BYTE      P7M0
      000000CBH   SFRSYM    DATA     BYTE      P6M1
LX51 LINKER/LOCATER V4.66.41.0                                                        01/11/2019  12:04:15  PAGE 143


      000000C8H   SFRSYM    DATA     BYTE      P5
      000000C6H   SFRSYM    DATA     BYTE      ISP_TRIG
      000000A8H.7 SFRSYM    DATA     BIT       EA
      000000B0H.4 SFRSYM    DATA     BIT       CLKOUT1
      000000A0H.4 SFRSYM    DATA     BIT       SPI_SS_2
      000000E8H   SFRSYM    DATA     BYTE      P6
      000000E1H   SFRSYM    DATA     BYTE      P7M1
      000000C8H.4 SFRSYM    DATA     BIT       SPI_SS_3
      00000090H.4 SFRSYM    DATA     BIT       SPI_MISO
      00000090H.3 SFRSYM    DATA     BIT       SPI_MOSI
      00000090H.1 SFRSYM    DATA     BIT       CCP0
      000000F8H   SFRSYM    DATA     BYTE      P7
      000000AAH   SFRSYM    DATA     BYTE      WKTCL
      00000090H   SFRSYM    DATA     BIT       CCP1
      000000CEH   SFRSYM    DATA     BYTE      SPCTL
      000000D8H.7 SFRSYM    DATA     BIT       CF
      000000B0H.7 SFRSYM    DATA     BIT       CCP2
      000000F9H   SFRSYM    DATA     BYTE      CH
      000000A2H   SFRSYM    DATA     BYTE      P_SW1
      000000BAH   SFRSYM    DATA     BYTE      P_SW2
      000000A8H.5 SFRSYM    DATA     BIT       EADC
      000000A0H.1 SFRSYM    DATA     BIT       SPI_SCLK_2
      000000A8H   SFRSYM    DATA     BYTE      IE
      000000C0H.3 SFRSYM    DATA     BIT       SPI_SCLK_3
      000000E9H   SFRSYM    DATA     BYTE      CL
      000000C5H   SFRSYM    DATA     BYTE      IAP_CMD
      000000FAH   SFRSYM    DATA     BYTE      CCAP0H
      000000FBH   SFRSYM    DATA     BYTE      CCAP1H
      000000FCH   SFRSYM    DATA     BYTE      CCAP2H
      000000BDH   SFRSYM    DATA     BYTE      ADC_RES
      000000B6H   SFRSYM    DATA     BYTE      IPH2
      000000D8H.6 SFRSYM    DATA     BIT       CR
      000000EAH   SFRSYM    DATA     BYTE      CCAP0L
      000000B0H.7 SFRSYM    DATA     BIT       RD
      000000EBH   SFRSYM    DATA     BYTE      CCAP1L
      000000DAH   SFRSYM    DATA     BYTE      CCAPM0
      000000ECH   SFRSYM    DATA     BYTE      CCAP2L
      000000DBH   SFRSYM    DATA     BYTE      CCAPM1
      000000A8H.4 SFRSYM    DATA     BIT       ES
      000000DCH   SFRSYM    DATA     BYTE      CCAPM2
      000000B8H.5 SFRSYM    DATA     BIT       PADC
      000000A0H.2 SFRSYM    DATA     BIT       SPI_MISO_2
      000000A0H.3 SFRSYM    DATA     BIT       SPI_MOSI_2
      000000B8H   SFRSYM    DATA     BYTE      IP
      000000C0H.1 SFRSYM    DATA     BIT       SPI_MISO_3
      000000C0H   SFRSYM    DATA     BIT       SPI_MOSI_3
      00000098H   SFRSYM    DATA     BIT       RI
      000000B0H.2 SFRSYM    DATA     BIT       INT0
      000000D0H.7 SFRSYM    DATA     BIT       CY
      00000098H.1 SFRSYM    DATA     BIT       TI
      000000B0H.3 SFRSYM    DATA     BIT       INT1
      00000097H   SFRSYM    DATA     BYTE      CLK_DIV
      000000C3H   SFRSYM    DATA     BYTE      IAP_ADDRH
      00000090H   SFRSYM    DATA     BIT       RXD2
      000000C5H   SFRSYM    DATA     BYTE      ISP_CMD
      000000B8H.4 SFRSYM    DATA     BIT       PS
      00000090H.1 SFRSYM    DATA     BIT       TXD2
      00000081H   SFRSYM    DATA     BYTE      SP
      000000D9H   SFRSYM    DATA     BYTE      CMOD
      000000D8H   SFRSYM    DATA     BYTE      CCON
      000000C4H   SFRSYM    DATA     BYTE      IAP_ADDRL
      000000B8H.7 SFRSYM    DATA     BIT       PPCA
      000000D0H.2 SFRSYM    DATA     BIT       OV
      000000B0H.6 SFRSYM    DATA     BIT       WR
      000000A8H.6 SFRSYM    DATA     BIT       ELVD
LX51 LINKER/LOCATER V4.66.41.0                                                        01/11/2019  12:04:15  PAGE 144


      00000080H   SFRSYM    DATA     BIT       P00
      00000090H   SFRSYM    DATA     BIT       P10
      00000080H.1 SFRSYM    DATA     BIT       P01
      000000BCH   SFRSYM    DATA     BYTE      ADC_CONTR
      00000099H   SFRSYM    DATA     BYTE      SBUF
      00000087H   SFRSYM    DATA     BYTE      PCON
      000000A0H   SFRSYM    DATA     BIT       P20
      00000090H.1 SFRSYM    DATA     BIT       P11
      00000080H.2 SFRSYM    DATA     BIT       P02
      000000C3H   SFRSYM    DATA     BYTE      ISP_ADDRH
      000000B0H   SFRSYM    DATA     BIT       P30
      000000A0H.1 SFRSYM    DATA     BIT       P21
      00000090H.2 SFRSYM    DATA     BIT       P12
      00000080H.3 SFRSYM    DATA     BIT       P03
      000000C0H   SFRSYM    DATA     BIT       P40
      000000B0H.1 SFRSYM    DATA     BIT       P31
      000000A0H.2 SFRSYM    DATA     BIT       P22
      00000090H.3 SFRSYM    DATA     BIT       P13
      00000080H.4 SFRSYM    DATA     BIT       P04
      00000098H   SFRSYM    DATA     BYTE      SCON
      0000008FH   SFRSYM    DATA     BYTE      WAKE_CLKO
      000000C8H   SFRSYM    DATA     BIT       P50
      000000C0H.1 SFRSYM    DATA     BIT       P41
      000000B0H.2 SFRSYM    DATA     BIT       P32
      000000A0H.3 SFRSYM    DATA     BIT       P23
      00000090H.4 SFRSYM    DATA     BIT       P14
      00000080H.5 SFRSYM    DATA     BIT       P05
      00000089H   SFRSYM    DATA     BYTE      TMOD
      00000088H   SFRSYM    DATA     BYTE      TCON
      000000C8H.1 SFRSYM    DATA     BIT       P51
      000000C0H.2 SFRSYM    DATA     BIT       P42
      000000B0H.3 SFRSYM    DATA     BIT       P33
      000000A0H.4 SFRSYM    DATA     BIT       P24
      00000090H.5 SFRSYM    DATA     BIT       P15
      00000080H.6 SFRSYM    DATA     BIT       P06
      000000C4H   SFRSYM    DATA     BYTE      ISP_ADDRL
      000000B8H.6 SFRSYM    DATA     BIT       PLVD
      000000C8H.2 SFRSYM    DATA     BIT       P52
      000000C0H.3 SFRSYM    DATA     BIT       P43
      000000B0H.4 SFRSYM    DATA     BIT       P34
      000000A0H.5 SFRSYM    DATA     BIT       P25
      00000090H.6 SFRSYM    DATA     BIT       P16
      00000080H.7 SFRSYM    DATA     BIT       P07
      000000C8H.3 SFRSYM    DATA     BIT       P53
      000000C0H.4 SFRSYM    DATA     BIT       P44
      000000B0H.5 SFRSYM    DATA     BIT       P35
      000000A0H.6 SFRSYM    DATA     BIT       P26
      00000090H.7 SFRSYM    DATA     BIT       P17
      000000C8H.4 SFRSYM    DATA     BIT       P54
      000000C0H.5 SFRSYM    DATA     BIT       P45
      000000B0H.6 SFRSYM    DATA     BIT       P36
      000000A0H.7 SFRSYM    DATA     BIT       P27
      000000C8H.5 SFRSYM    DATA     BIT       P55
      000000C0H.6 SFRSYM    DATA     BIT       P46
      000000B0H.7 SFRSYM    DATA     BIT       P37
      000000C8H.6 SFRSYM    DATA     BIT       P56
      000000C0H.7 SFRSYM    DATA     BIT       P47
      000000C8H.7 SFRSYM    DATA     BIT       P57
      00000088H.1 SFRSYM    DATA     BIT       IE0
      000000A1H   SFRSYM    DATA     BYTE      BUS_SPEED
      00000088H.3 SFRSYM    DATA     BIT       IE1
      000000AFH   SFRSYM    DATA     BYTE      IE2
      000000F0H   SFRSYM    DATA     BYTE      B
      0000008EH   SFRSYM    DATA     BYTE      AUXR
      000000C7H   SFRSYM    DATA     BYTE      IAP_CONTR
LX51 LINKER/LOCATER V4.66.41.0                                                        01/11/2019  12:04:15  PAGE 145


      000000E0H   SFRSYM    DATA     BYTE      ACC
      000000A8H.1 SFRSYM    DATA     BIT       ET0
      000000A8H.3 SFRSYM    DATA     BIT       ET1
      00000088H.5 SFRSYM    DATA     BIT       TF0
      00000088H.7 SFRSYM    DATA     BIT       TF1
      000000B5H   SFRSYM    DATA     BYTE      IP2
      0000008CH   SFRSYM    DATA     BYTE      RL_TH0
      00000098H.2 SFRSYM    DATA     BIT       RB8
      0000008DH   SFRSYM    DATA     BYTE      RL_TH1
      0000008CH   SFRSYM    DATA     BYTE      TH0
      000000A8H   SFRSYM    DATA     BIT       EX0
      00000088H   SFRSYM    DATA     BIT       IT0
      000000D6H   SFRSYM    DATA     BYTE      RL_T2H
      0000008DH   SFRSYM    DATA     BYTE      TH1
      000000A8H.2 SFRSYM    DATA     BIT       EX1
      00000098H.3 SFRSYM    DATA     BIT       TB8
      00000088H.2 SFRSYM    DATA     BIT       IT1
      000000D4H   SFRSYM    DATA     BYTE      RL_T3H
      000000D6H   SFRSYM    DATA     BYTE      TH2
      000000D6H   SFRSYM    DATA     BYTE      T2H
      000000D0H   SFRSYM    DATA     BIT       P
      000000D2H   SFRSYM    DATA     BYTE      RL_T4H
      000000D4H   SFRSYM    DATA     BYTE      TH3
      000000D4H   SFRSYM    DATA     BYTE      T3H
      0000008AH   SFRSYM    DATA     BYTE      RL_TL0
      00000098H.7 SFRSYM    DATA     BIT       SM0
      000000D2H   SFRSYM    DATA     BYTE      TH4
      000000D2H   SFRSYM    DATA     BYTE      T4H
      0000008BH   SFRSYM    DATA     BYTE      RL_TL1
      0000008AH   SFRSYM    DATA     BYTE      TL0
      00000098H.6 SFRSYM    DATA     BIT       SM1
      000000D7H   SFRSYM    DATA     BYTE      RL_T2L
      0000008BH   SFRSYM    DATA     BYTE      TL1
      00000098H.5 SFRSYM    DATA     BIT       SM2
      000000D5H   SFRSYM    DATA     BYTE      RL_T3L
      000000D7H   SFRSYM    DATA     BYTE      TL2
      000000D7H   SFRSYM    DATA     BYTE      T2L
      000000D3H   SFRSYM    DATA     BYTE      RL_T4L
      000000D5H   SFRSYM    DATA     BYTE      TL3
      000000D5H   SFRSYM    DATA     BYTE      T3L
      000000B8H.1 SFRSYM    DATA     BIT       PT0
      000000D3H   SFRSYM    DATA     BYTE      TL4
      000000D3H   SFRSYM    DATA     BYTE      T4L
      000000B8H.3 SFRSYM    DATA     BIT       PT1
      000000D0H.3 SFRSYM    DATA     BIT       RS0
      000000C7H   SFRSYM    DATA     BYTE      ISP_CONTR
      00000088H.4 SFRSYM    DATA     BIT       TR0
      000000D0H.4 SFRSYM    DATA     BIT       RS1
      000000C2H   SFRSYM    DATA     BYTE      IAP_DATA
      00000088H.6 SFRSYM    DATA     BIT       TR1
      000000B8H   SFRSYM    DATA     BIT       PX0
      000000C1H   SFRSYM    DATA     BYTE      WDT_CONTR
      000000B8H.2 SFRSYM    DATA     BIT       PX1
      000000F2H   SFRSYM    DATA     BYTE      PCA_PWM0
      000000F3H   SFRSYM    DATA     BYTE      PCA_PWM1
      000000F4H   SFRSYM    DATA     BYTE      PCA_PWM2
      0000009DH   SFRSYM    DATA     BYTE      P1ASF
      00000083H   SFRSYM    DATA     BYTE      DPH
      000000D1H   SFRSYM    DATA     BYTE      T4T3M
      000000BEH   SFRSYM    DATA     BYTE      ADC_RESL
      00000082H   SFRSYM    DATA     BYTE      DPL
      000000CDH   SFRSYM    DATA     BYTE      SPSTAT
      000000B7H   SFRSYM    DATA     BYTE      IPH
      0000009BH   SFRSYM    DATA     BYTE      S2BUF
      00000097H   SFRSYM    DATA     BYTE      PCON2
LX51 LINKER/LOCATER V4.66.41.0                                                        01/11/2019  12:04:15  PAGE 146


      000000ADH   SFRSYM    DATA     BYTE      S3BUF
      00000098H.4 SFRSYM    DATA     BIT       REN
      00000085H   SFRSYM    DATA     BYTE      S4BUF
      0000009AH   SFRSYM    DATA     BYTE      S2CON
      000000ACH   SFRSYM    DATA     BYTE      S3CON
      000000C2H   SFRSYM    DATA     BYTE      ISP_DATA
      00000084H   SFRSYM    DATA     BYTE      S4CON
      000000B9H   SFRSYM    DATA     BYTE      SADEN
      000000B0H   SFRSYM    DATA     BIT       RXD
      000000A9H   SFRSYM    DATA     BYTE      SADDR
      000000B0H.1 SFRSYM    DATA     BIT       TXD
      000000F0H   SFRSYM    DATA     BIT       B0
      000000F0H.1 SFRSYM    DATA     BIT       B1
      000000C6H   SFRSYM    DATA     BYTE      IAP_TRIG
      000000A2H   SFRSYM    DATA     BYTE      AUXR1
      000000F0H.2 SFRSYM    DATA     BIT       B2
      00000090H.2 SFRSYM    DATA     BIT       SPI_SS
      0000008FH   SFRSYM    DATA     BYTE      AUXR2
      000000F0H.3 SFRSYM    DATA     BIT       B3
      000000F0H.4 SFRSYM    DATA     BIT       B4
      000000D0H.5 SFRSYM    DATA     BIT       F0
      000000F0H.5 SFRSYM    DATA     BIT       B5
      000000D0H.1 SFRSYM    DATA     BIT       F1
      0000008FH   SFRSYM    DATA     BYTE      INT_CLKO
      000000F0H.6 SFRSYM    DATA     BIT       B6
      000000E0H   SFRSYM    DATA     BIT       ACC0
      000000F0H.7 SFRSYM    DATA     BIT       B7
      000000E0H.1 SFRSYM    DATA     BIT       ACC1
      000000E0H.2 SFRSYM    DATA     BIT       ACC2
      000000E0H.3 SFRSYM    DATA     BIT       ACC3
      000000D0H   SFRSYM    DATA     BYTE      PSW
      000000E0H.4 SFRSYM    DATA     BIT       ACC4
      00000090H.5 SFRSYM    DATA     BIT       SPI_SCLK
      000000D8H   SFRSYM    DATA     BIT       CCF0
      000000E0H.5 SFRSYM    DATA     BIT       ACC5
      000000D8H.1 SFRSYM    DATA     BIT       CCF1
      000000E0H.6 SFRSYM    DATA     BIT       ACC6
      000000CFH   SFRSYM    DATA     BYTE      SPDAT
      00000094H   SFRSYM    DATA     BYTE      P0M0
      01007390H   SYMBOL    CONST    ---       _?ix1000

      01007207H   BLOCK     CODE     ---       LVL=0
      ---         BLOCKEND  ---      ---       LVL=0

      01007324H   BLOCK     CODE     ---       LVL=0
      01007324H   LINE      CODE     ---       #17
      01007324H   LINE      CODE     ---       #18
      01007324H   LINE      CODE     ---       #19
      01007327H   LINE      CODE     ---       #20
      01007329H   LINE      CODE     ---       #21
      0100732BH   LINE      CODE     ---       #22
      0100732EH   LINE      CODE     ---       #23
      01007331H   LINE      CODE     ---       #24
      ---         BLOCKEND  ---      ---       LVL=0

      01006F7DH   BLOCK     CODE     ---       LVL=0
      00000004H   SYMBOL    DATA     WORD      EE_address
      00000001H   SYMBOL    DATA     ---       DataAddress
      00000054H   SYMBOL    DATA     WORD      number
      01006F7DH   LINE      CODE     ---       #36
      01006F81H   LINE      CODE     ---       #37
      01006F81H   LINE      CODE     ---       #39
      01006F84H   LINE      CODE     ---       #40
      01006F87H   LINE      CODE     ---       #42
      01006F87H   LINE      CODE     ---       #43
LX51 LINKER/LOCATER V4.66.41.0                                                        01/11/2019  12:04:15  PAGE 147


      01006F87H   LINE      CODE     ---       #44
      01006F8AH   LINE      CODE     ---       #45
      01006F8DH   LINE      CODE     ---       #48
      01006F8EH   LINE      CODE     ---       #49
      01006F93H   LINE      CODE     ---       #50
      01006F98H   LINE      CODE     ---       #51
      01006F9FH   LINE      CODE     ---       #52
      01006FACH   LINE      CODE     ---       #54
      ---         BLOCKEND  ---      ---       LVL=0

      0100718EH   BLOCK     CODE     ---       LVL=0
      00000004H   SYMBOL    DATA     WORD      EE_address
      0100718EH   LINE      CODE     ---       #67
      01007192H   LINE      CODE     ---       #68
      01007192H   LINE      CODE     ---       #69
      01007194H   LINE      CODE     ---       #72
      01007194H   LINE      CODE     ---       #73
      01007197H   LINE      CODE     ---       #74
      0100719AH   LINE      CODE     ---       #75
      0100719DH   LINE      CODE     ---       #76
      010071A0H   LINE      CODE     ---       #77
      010071A1H   LINE      CODE     ---       #78
      010071A4H   LINE      CODE     ---       #79
      010071A6H   LINE      CODE     ---       #80
      ---         BLOCKEND  ---      ---       LVL=0

      01006EDEH   BLOCK     CODE     ---       LVL=0
      00000004H   SYMBOL    DATA     WORD      EE_address
      00000001H   SYMBOL    DATA     ---       DataAddress
      0000003FH   SYMBOL    DATA     WORD      number
      01006EDEH   LINE      CODE     ---       #91
      01006EE2H   LINE      CODE     ---       #92
      01006EE2H   LINE      CODE     ---       #93
      01006EE4H   LINE      CODE     ---       #95
      01006EE7H   LINE      CODE     ---       #96
      01006EEAH   LINE      CODE     ---       #98
      01006EEAH   LINE      CODE     ---       #99
      01006EEAH   LINE      CODE     ---       #100
      01006EEDH   LINE      CODE     ---       #101
      01006EF2H   LINE      CODE     ---       #102
      01006EF5H   LINE      CODE     ---       #103
      01006EF6H   LINE      CODE     ---       #104
      01006EFBH   LINE      CODE     ---       #105
      01006F02H   LINE      CODE     ---       #106
      01006F0FH   LINE      CODE     ---       #108
      01006F12H   LINE      CODE     ---       #109
      01006F14H   LINE      CODE     ---       #110
      ---         BLOCKEND  ---      ---       LVL=0

      01006B09H   BLOCK     CODE     ---       LVL=0
      00000033H   SYMBOL    DATA     WORD      EE_address
      00000035H   SYMBOL    DATA     ---       DataAddress
      00000038H   SYMBOL    DATA     WORD      number
      01006B13H   BLOCK     CODE     NEAR LAB  LVL=1
      02000293H   SYMBOL    XDATA    ---       datsTemp
      ---         BLOCKEND  ---      ---       LVL=1
      01006B09H   LINE      CODE     ---       #122
      01006B13H   LINE      CODE     ---       #124
      01006B23H   LINE      CODE     ---       #126
      01006B32H   LINE      CODE     ---       #127
      01006B37H   LINE      CODE     ---       #129
      01006B4FH   LINE      CODE     ---       #131
      ---         BLOCKEND  ---      ---       LVL=0

      ---         MODULE    ---      ---       PARS_METHOD
LX51 LINKER/LOCATER V4.66.41.0                                                        01/11/2019  12:04:15  PAGE 148


      00000046H   PUBLIC    DATA     BYTE      ?_memmem?BYTE
      01000026H   PUBLIC    CODE     ---       _memmem

      01007354H   BLOCK     CODE     ---       LVL=0
      ---         BLOCKEND  ---      ---       LVL=0

      01000026H   BLOCK     CODE     ---       LVL=0
      00000046H   SYMBOL    DATA     ---       start
      00000049H   SYMBOL    DATA     BYTE      s_len
      0000004AH   SYMBOL    DATA     ---       find
      0000004DH   SYMBOL    DATA     BYTE      f_len
      0100002EH   BLOCK     CODE     NEAR LAB  LVL=1
      0000004EH   SYMBOL    DATA     BYTE      len
      0000004FH   SYMBOL    DATA     ---       p
      00000052H   SYMBOL    DATA     ---       q
      ---         BLOCKEND  ---      ---       LVL=1
      01000026H   LINE      CODE     ---       #4
      0100002EH   LINE      CODE     ---       #6
      01000031H   LINE      CODE     ---       #7
      01000037H   LINE      CODE     ---       #8
      0100003AH   LINE      CODE     ---       #10
      01000059H   LINE      CODE     ---       #12
      0100007FH   LINE      CODE     ---       #14
      01000081H   LINE      CODE     ---       #15
      01000092H   LINE      CODE     ---       #16
      01000092H   LINE      CODE     ---       #18
      01000095H   LINE      CODE     ---       #19
      01000098H   LINE      CODE     ---       #20
      0100009AH   LINE      CODE     ---       #22
      010000A0H   LINE      CODE     ---       #23
      ---         BLOCKEND  ---      ---       LVL=0

      ---         MODULE    ---      ---       ?C_STARTUP
      01000000H   PUBLIC    CODE     ---       ?C_STARTUP

      ---         MODULE    ---      ---       ?C?COPY
      0100319AH   PUBLIC    CODE     ---       ?C?COPY

      ---         MODULE    ---      ---       ?C?CLDPTR
      010031C0H   PUBLIC    CODE     ---       ?C?CLDPTR

      ---         MODULE    ---      ---       ?C?CLDOPTR
      010031D9H   PUBLIC    CODE     ---       ?C?CLDOPTR

      ---         MODULE    ---      ---       ?C?CSTPTR
      01003206H   PUBLIC    CODE     ---       ?C?CSTPTR

      ---         MODULE    ---      ---       ?C?CSTOPTR
      01003218H   PUBLIC    CODE     ---       ?C?CSTOPTR

      ---         MODULE    ---      ---       ?C?IMUL
      0100323AH   PUBLIC    CODE     ---       ?C?IMUL

      ---         MODULE    ---      ---       ?C?UIDIV
      0100324CH   PUBLIC    CODE     ---       ?C?UIDIV

      ---         MODULE    ---      ---       ?C?LMUL
      010032A1H   PUBLIC    CODE     ---       ?C?LMUL

      ---         MODULE    ---      ---       ?C?ULCMP
      010032F0H   PUBLIC    CODE     ---       ?C?ULCMP

      ---         MODULE    ---      ---       ?C?ULSHR
      01003301H   PUBLIC    CODE     ---       ?C?ULSHR

LX51 LINKER/LOCATER V4.66.41.0                                                        01/11/2019  12:04:15  PAGE 149


      ---         MODULE    ---      ---       ?C?LSHL
      01003314H   PUBLIC    CODE     ---       ?C?LSHL

      ---         MODULE    ---      ---       ?C?OFFXADD
      01003327H   PUBLIC    CODE     ---       ?C?OFFXADD

      ---         MODULE    ---      ---       ?C?CCASE
      01003333H   PUBLIC    CODE     ---       ?C?CCASE

      ---         MODULE    ---      ---       ?C?ICALL
      01003359H   PUBLIC    CODE     ---       ?C?ICALL
      0100335DH   PUBLIC    CODE     ---       ?C?ICALL2

      ---         MODULE    ---      ---       PRINTF
      00000038H   PUBLIC    DATA     ---       ?_PRINTF517?BYTE
      00000038H   PUBLIC    DATA     ---       ?_PRINTF?BYTE
      00000038H   PUBLIC    DATA     ---       ?_SPRINTF517?BYTE
      00000038H   PUBLIC    DATA     ---       ?_SPRINTF?BYTE
      01003CBFH   PUBLIC    CODE     ---       _PRINTF
      01003CBFH   PUBLIC    CODE     ---       _PRINTF517
      01003CB9H   PUBLIC    CODE     ---       _SPRINTF
      01003CB9H   PUBLIC    CODE     ---       _SPRINTF517

      ---         MODULE    ---      ---       ?C?MEMCMP
      010034E5H   PUBLIC    CODE     ---       ?C?MEMCMP

      ---         MODULE    ---      ---       ?C?MEMSET
      01003509H   PUBLIC    CODE     ---       ?C?MEMSET

      ---         MODULE    ---      ---       ?C_INIT
      01006370H   PUBLIC    CODE     ---       ?C_START

      ---         MODULE    ---      ---       ?C?PLDIIDATA
      01003535H   PUBLIC    CODE     ---       ?C?PLDIIDATA

      ---         MODULE    ---      ---       PUTCHAR
      01007082H   PUBLIC    CODE     ---       _PUTCHAR

Program Size: data=217.1 xdata=1781 const=135 code=29583
LX51 RUN COMPLETE.  0 WARNING(S),  0 ERROR(S)
