LX51 LINKER/LOCATER V4.66.41.0                                                          12/20/2018  14:37:19  PAGE 1


LX51 LINKER/LOCATER V4.66.41.0, INVOKED BY:
C:\KEIL_V5\C51\BIN\LX51.EXE .\Output\Usr_Main.obj, .\Output\appTimer.obj, .\Output\dataManage.obj, .\Output\Tips.obj, .\
>> Output\devlopeDebug.obj, .\Output\dataTrans.obj, .\Output\usrKin.obj, .\Output\Relay.obj, .\Output\timerAct.obj, .\Ou
>> tput\touchPad.obj, .\Output\USART.obj, .\Output\delay.obj, .\Output\EEPROM.obj, .\Output\pars_Method.obj TO .\Output\
>> swZigbNode_sw3bit PRINT (.\Listings\swZigbNode_sw3bit.map) REMOVEUNUSED


CPU MODE:     8051 MODE
MEMORY MODEL: SMALL


INPUT MODULES INCLUDED:
  .\Output\Usr_Main.obj (USR_MAIN)
         COMMENT TYPE 0: C51 V9.54
  .\Output\appTimer.obj (APPTIMER)
         COMMENT TYPE 0: C51 V9.54
  .\Output\dataManage.obj (DATAMANAGE)
         COMMENT TYPE 0: C51 V9.54
  .\Output\Tips.obj (TIPS)
         COMMENT TYPE 0: C51 V9.54
  .\Output\devlopeDebug.obj (DEVLOPEDEBUG)
         COMMENT TYPE 0: C51 V9.54
  .\Output\dataTrans.obj (DATATRANS)
         COMMENT TYPE 0: C51 V9.54
  .\Output\usrKin.obj (USRKIN)
         COMMENT TYPE 0: C51 V9.54
  .\Output\Relay.obj (RELAY)
         COMMENT TYPE 0: C51 V9.54
  .\Output\timerAct.obj (TIMERACT)
         COMMENT TYPE 0: C51 V9.54
  .\Output\touchPad.obj (TOUCHPAD)
         COMMENT TYPE 0: C51 V9.54
  .\Output\USART.obj (USART)
         COMMENT TYPE 0: C51 V9.54
  .\Output\delay.obj (DELAY)
         COMMENT TYPE 0: C51 V9.54
  .\Output\EEPROM.obj (EEPROM)
         COMMENT TYPE 0: C51 V9.54
  .\Output\pars_Method.obj (PARS_METHOD)
         COMMENT TYPE 0: C51 V9.54
  C:\KEIL_V5\C51\LIB\C51S.LIB (?C_STARTUP)
         COMMENT TYPE 1: A51 / ASM51 Assembler
  C:\KEIL_V5\C51\LIB\C51S.LIB (?C?COPY)
         COMMENT TYPE 1: A51 / ASM51 Assembler
  C:\KEIL_V5\C51\LIB\C51S.LIB (?C?CLDPTR)
         COMMENT TYPE 1: A51 / ASM51 Assembler
  C:\KEIL_V5\C51\LIB\C51S.LIB (?C?CLDOPTR)
         COMMENT TYPE 1: A51 / ASM51 Assembler
  C:\KEIL_V5\C51\LIB\C51S.LIB (?C?CSTPTR)
         COMMENT TYPE 1: A51 / ASM51 Assembler
  C:\KEIL_V5\C51\LIB\C51S.LIB (?C?CSTOPTR)
         COMMENT TYPE 1: A51 / ASM51 Assembler
  C:\KEIL_V5\C51\LIB\C51S.LIB (?C?IMUL)
         COMMENT TYPE 1: A51 / ASM51 Assembler
  C:\KEIL_V5\C51\LIB\C51S.LIB (?C?UIDIV)
         COMMENT TYPE 1: A51 / ASM51 Assembler
  C:\KEIL_V5\C51\LIB\C51S.LIB (?C?LMUL)
         COMMENT TYPE 1: A51 / ASM51 Assembler
  C:\KEIL_V5\C51\LIB\C51S.LIB (?C?ULCMP)
         COMMENT TYPE 1: A51 / ASM51 Assembler
  C:\KEIL_V5\C51\LIB\C51S.LIB (?C?ULSHR)
         COMMENT TYPE 1: A51 / ASM51 Assembler
  C:\KEIL_V5\C51\LIB\C51S.LIB (?C?LSHL)
         COMMENT TYPE 1: A51 / ASM51 Assembler
  C:\KEIL_V5\C51\LIB\C51S.LIB (?C?OFFXADD)
         COMMENT TYPE 1: A51 / ASM51 Assembler
LX51 LINKER/LOCATER V4.66.41.0                                                        12/20/2018  14:37:19  PAGE 2


  C:\KEIL_V5\C51\LIB\C51S.LIB (?C?CCASE)
         COMMENT TYPE 1: A51 / ASM51 Assembler
  C:\KEIL_V5\C51\LIB\C51S.LIB (?C?ICALL)
         COMMENT TYPE 1: A51 / ASM51 Assembler
  C:\KEIL_V5\C51\LIB\C51S.LIB (PRINTF)
         COMMENT TYPE 1: A51 / ASM51 Assembler
  C:\KEIL_V5\C51\LIB\C51S.LIB (?C?MEMCMP)
         COMMENT TYPE 1: A51 / ASM51 Assembler
  C:\KEIL_V5\C51\LIB\C51S.LIB (?C?MEMSET)
         COMMENT TYPE 1: A51 / ASM51 Assembler
  C:\KEIL_V5\C51\LIB\C51S.LIB (?C_INIT)
         COMMENT TYPE 1: A51 / ASM51 Assembler
  C:\KEIL_V5\C51\LIB\C51S.LIB (?C?PLDIIDATA)
         COMMENT TYPE 1: A51 / ASM51 Assembler
  C:\KEIL_V5\C51\LIB\C51S.LIB (PUTCHAR)
         COMMENT TYPE 1: A51 / ASM51 Assembler


ACTIVE MEMORY CLASSES OF MODULE:  .\Output\swZigbNode_sw3bit (USR_MAIN)

BASE        START       END         USED      MEMORY CLASS
==========================================================
C:000000H   C:000000H   C:00FFFFH   00794AH   CODE
X:000000H   X:000000H   X:00FFFFH   000731H   XDATA
I:000020H.0 I:000020H.0 I:00002FH.7 000006H.3 BIT
I:000000H   I:000000H   I:00007FH   000075H   DATA
C:000000H   C:000000H   C:00FFFFH   000087H   CONST
I:000000H   I:000000H   I:0000FFH   00001DH   IDATA


MEMORY MAP OF MODULE:  .\Output\swZigbNode_sw3bit (USR_MAIN)


START     STOP      LENGTH    ALIGN  RELOC    MEMORY CLASS   SEGMENT NAME
=========================================================================

* * * * * * * * * * *   D A T A   M E M O R Y   * * * * * * * * * * * * *
000000H   000007H   000008H   ---    AT..     DATA           "REG BANK 0"
000008H   000010H   000009H   BYTE   UNIT     DATA           ?DT?DATATRANS
000011H   000017H   000007H   BYTE   UNIT     DATA           ?DT?APPTIMER
000018H   00001EH   000007H   BYTE   UNIT     DATA           ?DT?DATAMANAGE
00001FH   00001FH   000001H   BYTE   UNIT     IDATA          ?ID?USRKIN
000020H.0 000021H.6 000001H.7 BIT    UNIT     BIT            _BIT_GROUP_
000021H.7 000023H.2 000001H.4 BIT    UNIT     BIT            ?BI?USRKIN
000023H.3 000024H.3 000001H.1 BIT    UNIT     BIT            ?BI?DATATRANS
000024H.4 000025H.2 000000H.7 BIT    UNIT     BIT            ?BI?TIPS
000025H.3 000025H.6 000000H.4 BIT    UNIT     BIT            ?BI?TIMERACT
000025H.7 000026H.0 000000H.2 BIT    UNIT     BIT            ?BI?RELAY
000026H.1 000026H.1 000000H.1 BIT    UNIT     BIT            ?BI?APPTIMER
000026H.2 000026H.2 000000H.1 BIT    UNIT     BIT            ?BI?DATAMANAGE
000026H.3 000026H   000000H.5 ---    ---      **GAP**
000027H   000055H   00002FH   BYTE   UNIT     DATA           _DATA_GROUP_
000056H   00006FH   00001AH   BYTE   UNIT     DATA           ?DT?TIPS
000070H   000076H   000007H   BYTE   UNIT     DATA           ?DT?USART
000077H   00007CH   000006H   BYTE   UNIT     DATA           ?DT?USRKIN
00007DH   00008AH   00000EH   BYTE   UNIT     IDATA          _IDATA_GROUP_
00008BH   000097H   00000DH   BYTE   UNIT     IDATA          ?ID?TIMERACT
000098H   000098H   000001H   BYTE   UNIT     IDATA          ?STACK

* * * * * * * * * * *   C O D E   M E M O R Y   * * * * * * * * * * * * *
000000H   000002H   000003H   ---    OFFS..   CODE           ?CO??C_STARTUP?0
000003H   000009H   000007H   BYTE   UNIT     CODE           ?PR?PINBEEP_INIT?TIPS
00000AH   00000AH   000001H   BYTE   UNIT     CODE           ?PR?TIMER0_ROUNTINE?APPTIMER
00000BH   00000DH   000003H   BYTE   OFFS..   CODE           ?APPTIMER?0000B
00000EH   000022H   000015H   BYTE   UNIT     CODE           ?PR?APPTIMER0_INIT?APPTIMER
LX51 LINKER/LOCATER V4.66.41.0                                                        12/20/2018  14:37:19  PAGE 3


000023H   000025H   000003H   BYTE   OFFS..   CODE           ?DATATRANS?00023
000026H   0000A0H   00007BH   BYTE   UNIT     CODE           ?PR?UARTOBJZIGB_INIT?DATATRANS
0000A1H   0000A2H   000002H   ---    ---      **GAP**
0000A3H   0000A5H   000003H   BYTE   OFFS..   CODE           ?APPTIMER?000A3
0000A6H   00126BH   0011C6H   BYTE   UNIT     CODE           ?CO?DATATRANS
00126CH   002138H   000ECDH   BYTE   UNIT     CODE           ?PR?_DATAPARING_NOMAL?DATATRANS
002139H   002AB4H   00097CH   BYTE   UNIT     CODE           ?PR?THREAD_DATATRANS?DATATRANS
002AB5H   003121H   00066DH   BYTE   UNIT     CODE           ?PR?TIMER4_ROUNTINE?APPTIMER
003122H   0035E6H   0004C5H   BYTE   UNIT     CODE           ?C_INITSEG
0035E7H   003A61H   00047BH   BYTE   UNIT     CODE           ?C?LIB_CODE
003A62H   003EC0H   00045FH   BYTE   UNIT     CODE           ?PR?THREAD_TIMING?TIMERACT
003EC1H   00429AH   0003DAH   BYTE   UNIT     CODE           ?PR?THREAD_TIPS?TIPS
00429BH   004662H   0003C8H   BYTE   UNIT     CODE           ?PR?ZIGB_NWKJOINREQUEST?DATATRANS
004663H   0049BEH   00035CH   BYTE   UNIT     CODE           ?PR?PRINTF?PRINTF
0049BFH   004CE5H   000327H   BYTE   UNIT     CODE           ?PR?TIPS_SYSBUTTONREALES?TIPS
004CE6H   004FF8H   000313H   BYTE   UNIT     CODE           ?PR?DATATRANSREQUEST_DATSSEND?DATATRANS
004FF9H   0052ADH   0002B5H   BYTE   UNIT     CODE           ?PR?_DATAPARING_ZIGBSYSCTRL?DATATRANS
0052AEH   0054FDH   000250H   BYTE   UNIT     CODE           ?PR?_TIPS_SPECIFIED?TIPS
0054FEH   0056AFH   0001B2H   BYTE   UNIT     CODE           ?PR?_ZIGB_SYSTIMESET?DATATRANS
0056B0H   005840H   000191H   BYTE   UNIT     CODE           ?CO?DATAMANAGE
005841H   005997H   000157H   BYTE   UNIT     CODE           ?PR?TOUCHPAD_SCAN?USRKIN
005998H   005AD0H   000139H   BYTE   UNIT     CODE           ?PR?_TOUCHPAD_FUNCTIONTRIGNORMAL?USRKIN
005AD1H   005C06H   000136H   BYTE   UNIT     CODE           ?PR?DTASTX_LOADBASIC_CUST?DATATRANS
005C07H   005D22H   00011CH   BYTE   UNIT     CODE           ?PR?_NORMALBUSSINESS_SHORTTOUCHTRIG?USRKIN
005D23H   005E2EH   00010CH   BYTE   UNIT     CODE           ?PR?FUNCTION_DEVNWKHOLD?DATATRANS
005E2FH   005F38H   00010AH   BYTE   UNIT     CODE           ?PR?GETSYSTEMTIME_REALES?DATATRANS
005F39H   00603DH   000105H   BYTE   UNIT     CODE           ?CO?USRKIN
00603EH   00612CH   0000EFH   BYTE   UNIT     CODE           ?PR?_DATSTIMING_READ_EEPROM?TIMERACT
00612DH   00621BH   0000EFH   BYTE   UNIT     CODE           ?PR?_DATSTIMNIGHT_READ_EEPROM?TIMERACT
00621CH   006300H   0000E5H   BYTE   UNIT     CODE           ?CO?TIMERACT
006301H   0063D5H   0000D5H   BYTE   UNIT     CODE           ?PR?RELAY_ACT?RELAY
0063D6H   006497H   0000C2H   BYTE   UNIT     CODE           ?PR?THREAD_DEVLOPEDEBUG?DEVLOPEDEBUG
006498H   006559H   0000C2H   BYTE   UNIT     CODE           ?PR?_ZIGB_TXFRAMELOAD?DATATRANS
00655AH   006615H   0000BCH   BYTE   UNIT     CODE           ?PR?RELAY_STATUSREALES?RELAY
006616H   0066CDH   0000B8H   BYTE   UNIT     CODE           ?PR?FACTORY_RECOVER?DATAMANAGE
0066CEH   00677FH   0000B2H   BYTE   UNIT     CODE           ?PR?DEVDATARECOVERY_RELAYSTATUS?DATAMANAGE
006780H   00682EH   0000AFH   BYTE   UNIT     CODE           ?PR?_TOUCHPAD_FUNCTIONTRIGCONTINUE?USRKIN
00682FH   0068CEH   0000A0H   BYTE   UNIT     CODE           ?PR?TIPS_WARNING?TIPS
0068CFH   00696AH   00009CH   BYTE   UNIT     CODE           ?PR?_USRKEYSCAN?USRKIN
00696BH   006A04H   00009AH   BYTE   UNIT     CODE           ?PR?_ZIGB_VALIDA_INPUT?DATATRANS
006A05H   006A9BH   000097H   BYTE   UNIT     CODE           ?PR?TIME_LOGOUT?TIMERACT
006A9CH   006B31H   000096H   BYTE   UNIT     CODE           ?PR?UART1_ROUNTINE?DATATRANS
006B32H   006BC1H   000090H   BYTE   UNIT     CODE           ?PR?MAC_ID_RELAES?DATAMANAGE
006BC2H   006C4DH   00008CH   BYTE   UNIT     CODE           ?C_C51STARTUP
006C4EH   006CD7H   00008AH   BYTE   UNIT     CODE           ?PR?_TIPSLED_COLORSET?TIPS
006CD8H   006D60H   000089H   BYTE   UNIT     CODE           ?PR?RELAY_PININIT?RELAY
006D61H   006DE7H   000087H   BYTE   UNIT     CODE           ?PR?_ZIGB_DATSLOAD_DATSSEND?DATATRANS
006DE8H   006E6EH   000087H   BYTE   UNIT     CODE           ?PR?_MEMMEM?PARS_METHOD
006E6FH   006EE7H   000079H   BYTE   UNIT     CODE           ?CO?DEVLOPEDEBUG
006EE8H   006F60H   000079H   BYTE   UNIT     CODE           ?PR?_ZIGB_DATSREQUEST?DATATRANS
006F61H   006FD5H   000075H   BYTE   UNIT     CODE           ?PR?_THREAD_TIPSGETDARK?TIPS
006FD6H   007040H   00006BH   BYTE   UNIT     CODE           ?PR?DCODESCAN?USRKIN
007041H   0070A3H   000063H   BYTE   UNIT     CODE           ?PR?_DATAPARING_SCENARIOCTRL?DATATRANS
0070A4H   007105H   000062H   BYTE   UNIT     CODE           ?PR?ZIGB_NWKOPEN?DATATRANS
007106H   007166H   000061H   BYTE   UNIT     CODE           ?PR?_COVEREEPROM_WRITE_N?EEPROM
007167H   0071C6H   000060H   BYTE   UNIT     CODE           ?PR?LEDBKGCOLORSW_REALES?TIPS
0071C7H   007219H   000053H   BYTE   UNIT     CODE           ?CO?TIPS
00721AH   00726CH   000053H   BYTE   UNIT     CODE           ?PR?ZIGB_GETPANIDCURRENT?DATATRANS
00726DH   0072BCH   000050H   BYTE   UNIT     CODE           ?PR?_DEVPARAMDTAASAVE_RELAYSTATUSREALTIME?DATAMANAGE
0072BDH   00730CH   000050H   BYTE   UNIT     CODE           ?PR?TIPS_SYSTOUCHRESET?TIPS
00730DH   00735CH   000050H   BYTE   UNIT     CODE           ?PR?USRZIGBNWKOPEN?USRKIN
00735DH   0073ABH   00004FH   BYTE   UNIT     CODE           ?PR?DEVSTATUSCHANGETO_DEVHOLD?DATATRANS
0073ACH   0073F6H   00004BH   BYTE   UNIT     CODE           ?PR?MAIN?USR_MAIN
0073F7H   00743CH   000046H   BYTE   UNIT     CODE           ?PR?_DATASENDREMOTE_STRAIGHTFORWARD?DATATRANS
00743DH   00747FH   000043H   BYTE   UNIT     CODE           ?PR?DCODESCAN_ONESHOOT?USRKIN
LX51 LINKER/LOCATER V4.66.41.0                                                        12/20/2018  14:37:19  PAGE 4


007480H   0074BCH   00003DH   BYTE   UNIT     CODE           ?PR?_EEPROM_WRITE_N?EEPROM
0074BDH   0074F8H   00003CH   BYTE   UNIT     CODE           ?PR?TIPLED_PININIT?TIPS
0074F9H   007533H   00003BH   BYTE   UNIT     CODE           ?PR?THREAD_RELAY?RELAY
007534H   00756BH   000038H   BYTE   UNIT     CODE           ?PR?_EEPROM_READ_N?EEPROM
00756CH   0075A1H   000036H   BYTE   UNIT     CODE           ?PR?_PRINTSTRING1_LOGOUT?USART
0075A2H   0075CBH   00002AH   BYTE   UNIT     CODE           ?PR?_FRAME_CHECK?DATATRANS
0075CCH   0075F5H   00002AH   BYTE   UNIT     CODE           ?CO?RELAY
0075F6H   00761FH   00002AH   BYTE   UNIT     CODE           ?PR?_WEEKEND_JUDGE?TIMERACT
007620H   007648H   000029H   BYTE   UNIT     CODE           ?PR?_BEEPS_USRACTIVE?TIPS
007649H   00766FH   000027H   BYTE   UNIT     CODE           ?PR?USRKIN_PININIT?USRKIN
007670H   007696H   000027H   BYTE   UNIT     CODE           ?PR?PUTCHAR?PUTCHAR
007697H   0076BCH   000026H   BYTE   UNIT     CODE           ?PR?TIMEZONE_REALES?TIMERACT
0076BDH   0076E2H   000026H   BYTE   UNIT     CODE           ?PR?_UART1_DATSSEND?USART
0076E3H   007705H   000023H   BYTE   UNIT     CODE           ?PR?_TX1_WRITE2BUFF?USART
007706H   007727H   000022H   BYTE   UNIT     CODE           ?PR?BIRTHDAY_JUDGE?DATAMANAGE
007728H   007746H   00001FH   BYTE   UNIT     CODE           ?PR?_EEPROM_SECTORERASE?EEPROM
007747H   007764H   00001EH   BYTE   UNIT     CODE           ?PR?SWITCHTYPERESERVE_GET?DATAMANAGE
007765H   007782H   00001EH   BYTE   UNIT     CODE           ?PR?_DEVTYPECOMFIRM_BYDCODE?USRKIN
007783H   00779FH   00001DH   BYTE   UNIT     CODE           ?PR?TIPS_SYSSTANDBY?TIPS
0077A0H   0077B8H   000019H   BYTE   UNIT     CODE           ?PR?FUN_FACTORYRECOVEROPREAT?DATATRANS
0077B9H   0077D0H   000018H   BYTE   UNIT     CODE           ?PR?BSP_INIT?USR_MAIN
0077D1H   0077E8H   000018H   BYTE   UNIT     CODE           ?PR?TIPS_STATUSCHANGETONORMAL?TIPS
0077E9H   007800H   000018H   BYTE   UNIT     CODE           ?PR?_NORMALBUSSINESS_LONGA_TOUCHKEEPTRIG?USRKIN
007801H   007816H   000016H   BYTE   UNIT     CODE           ?PR?_TIPS_STATUSCHANGETOTOUCHRESET?TIPS
007817H   00782CH   000016H   BYTE   UNIT     CODE           ?PR?_TIPS_STATUSCHANGETOFACTORYRECOVER?TIPS
00782DH   007841H   000015H   BYTE   UNIT     CODE           ?PR?_TIPS_STATUSCHANGETOZIGBNWKOPEN?TIPS
007842H   007856H   000015H   BYTE   UNIT     CODE           ?PR?_PERIODDATATRANS_MOMENTHANG?DATATRANS
007857H   00786BH   000015H   BYTE   UNIT     CODE           ?PR?USRKEYFUN_ZIGBNWKREJOIN?USRKIN
00786CH   007880H   000015H   BYTE   UNIT     CODE           ?PR?_DELAYMS?DELAY
007881H   007893H   000013H   BYTE   UNIT     CODE           ?PR?PORTCTRLEACHOTHER_REALES?DATAMANAGE
007894H   0078A6H   000013H   BYTE   UNIT     CODE           ?PR?ZIGBUART_PININIT?DATATRANS
0078A7H   0078B9H   000013H   BYTE   UNIT     CODE           ?PR?TOUCHPADSCAN_ONESHOOT?USRKIN
0078BAH   0078CCH   000013H   BYTE   UNIT     CODE           ?PR?_PRINTSTRING1?USART
0078CDH   0078DCH   000010H   BYTE   UNIT     CODE           ?PR?APPTIMER4_INIT?APPTIMER
0078DDH   0078ECH   000010H   BYTE   UNIT     CODE           ?PR?_DELAY_MS?DELAY
0078EDH   0078FAH   00000EH   BYTE   UNIT     CODE           ?PR?DISABLEEEPROM?EEPROM
0078FBH   007906H   00000CH   BYTE   UNIT     CODE           ?PR?BSP_DATSREALES?USR_MAIN
007907H   007912H   00000CH   BYTE   UNIT     CODE           ?PR?TOUCHPAD_PROCESSTHREAD?TOUCHPAD
007913H   00791DH   00000BH   BYTE   UNIT     CODE           ?PR?TIPS_STATUSCHANGETOZIGBNWKFIND?TIPS
00791EH   007927H   00000AH   BYTE   UNIT     CODE           ?PR?FUN_TOUCHRESET?USRKIN
007928H   007930H   000009H   BYTE   UNIT     CODE           ?PR?DEVHOLDSTOP_MAKEINADVANCE?DATATRANS
007931H   007939H   000009H   BYTE   UNIT     CODE           ?PR?ITRF_DATSTIMING_READ_EEPROM?TIMERACT
00793AH   007942H   000009H   BYTE   UNIT     CODE           ?PR?ITRF_DATSTIMNIGHT_READ_EEPROM?TIMERACT
007943H   007948H   000006H   BYTE   UNIT     CODE           ?PR?_TOUCHPAD_RESETOPREAT?TOUCHPAD
007949H   00794BH   000003H   BYTE   UNIT     CODE           ?PR?USRKEYSCAN_ONESHOOT?USRKIN
00794CH   0079CBH   000080H   BYTE   UNIT     CONST          ?CO?EEPROM
0079CCH   0079D2H   000007H   BYTE   UNIT     CONST          ?CO?APPTIMER

* * * * * * * * * * *  X D A T A   M E M O R Y  * * * * * * * * * * * * *
000000H   000311H   000312H   BYTE   UNIT     XDATA          _XDATA_GROUP_
000312H   000546H   000235H   BYTE   UNIT     XDATA          ?XD?DATATRANS
000547H   000678H   000132H   BYTE   UNIT     XDATA          ?XD?USART
000679H   0006C5H   00004DH   BYTE   UNIT     XDATA          ?XD?DATAMANAGE
0006C6H   0006EFH   00002AH   BYTE   UNIT     XDATA          ?XD?TIMERACT
0006F0H   000706H   000017H   BYTE   UNIT     XDATA          ?XD?TIPS
000707H   000719H   000013H   BYTE   UNIT     XDATA          ?XD?APPTIMER
00071AH   000723H   00000AH   BYTE   UNIT     XDATA          ?XD?RELAY
000724H   00072BH   000008H   BYTE   UNIT     XDATA          ?XD?USRKIN
00072CH   00072FH   000004H   BYTE   UNIT     XDATA          ?XD?DEVLOPEDEBUG
000730H   000730H   000001H   BYTE   UNIT     XDATA          ?XD?TOUCHPAD

* * * * * * * * *   R E M O V E D     S E G M E N T S   * * * * * * * *
   *DEL*:           000022H   BYTE   UNIT     CODE           ?PR?DEVLOCKINFO_REALES?DATAMANAGE
   *DEL*:           000001H   BYTE   UNIT     XDATA          ?XD?DEVLOCKINFO_REALES?DATAMANAGE
   *DEL*:           00007BH   BYTE   UNIT     CODE           ?PR?TIPS_BREATH?TIPS
LX51 LINKER/LOCATER V4.66.41.0                                                        12/20/2018  14:37:19  PAGE 5


   *DEL*:           00028EH   BYTE   UNIT     CODE           ?PR?TIPS_FADEOUT?TIPS
   *DEL*:           000028H   BYTE   UNIT     CODE           ?PR?_XORNUM_CHECK?DATATRANS
   *DEL*:           000003H   BYTE   UNIT     DATA           ?DT?_XORNUM_CHECK?DATATRANS
   *DEL*:           000001H   BYTE   UNIT     CODE           ?PR?FUN_TEST?USRKIN
   *DEL*:           00001DH   BYTE   UNIT     CODE           ?PR?USRKEYFUN_RELAYOPREATION?USRKIN
   *DEL*:           000001H   BYTE   UNIT     CODE           ?PR?TOUCHPAD_PININIT?TOUCHPAD
   *DEL*:           00002DH   BYTE   UNIT     CODE           ?PR?_UART1_LOGOUT?USART
   *DEL*:           000004H   BYTE   UNIT     DATA           ?DT?_UART1_LOGOUT?USART



OVERLAY MAP OF MODULE:   .\Output\swZigbNode_sw3bit (USR_MAIN)


FUNCTION/MODULE                                BIT_GROUP   DATA_GROUP   IDATA_GROUP  XDATA_GROUP
--> CALLED FUNCTION/MODULE                    START  STOP  START  STOP  START  STOP  START  STOP
================================================================================================
TIMER0_ROUNTINE/APPTIMER                      ----- -----  ----- -----  ----- -----  ----- -----

*** NEW ROOT ********************************

TIMER4_ROUNTINE/APPTIMER                      ----- -----  ----- -----  ----- -----  ----- -----
  +--> ?CO?APPTIMER

?CO?APPTIMER                                  ----- -----  ----- -----  ----- -----  ----- -----

*** NEW ROOT ********************************

UART1_ROUNTINE/DATATRANS                      ----- -----  ----- -----  ----- -----  ----- -----

*** NEW ROOT ********************************

?C_C51STARTUP                                 ----- -----  ----- -----  ----- -----  ----- -----
  +--> MAIN/USR_MAIN
  +--> ?C_INITSEG

MAIN/USR_MAIN                                 ----- -----  ----- -----  ----- -----  ----- -----
  +--> BSP_INIT/USR_MAIN
  +--> BSP_DATSREALES/USR_MAIN
  +--> BIRTHDAY_JUDGE/DATAMANAGE
  +--> TOUCHPAD_SCAN/USRKIN
  +--> DCODESCAN/USRKIN
  +--> USRKEYFUN_ZIGBNWKREJOIN/USRKIN
  +--> FUN_FACTORYRECOVEROPREAT/DATATRANS
  +--> FUN_TOUCHRESET/USRKIN
  +--> _USRKEYSCAN/USRKIN
  +--> THREAD_TIMING/TIMERACT
  +--> THREAD_RELAY/RELAY
  +--> THREAD_DATATRANS/DATATRANS
  +--> THREAD_TIPS/TIPS
  +--> TOUCHPAD_PROCESSTHREAD/TOUCHPAD
  +--> THREAD_DEVLOPEDEBUG/DEVLOPEDEBUG

BSP_INIT/USR_MAIN                             ----- -----  ----- -----  ----- -----  ----- -----
  +--> APPTIMER0_INIT/APPTIMER
  +--> APPTIMER4_INIT/APPTIMER
  +--> ZIGBUART_PININIT/DATATRANS
  +--> UARTOBJZIGB_INIT/DATATRANS
  +--> TIPLED_PININIT/TIPS
  +--> PINBEEP_INIT/TIPS
  +--> USRKIN_PININIT/USRKIN
  +--> RELAY_PININIT/RELAY

APPTIMER0_INIT/APPTIMER                       ----- -----  ----- -----  ----- -----  ----- -----

LX51 LINKER/LOCATER V4.66.41.0                                                        12/20/2018  14:37:19  PAGE 6


APPTIMER4_INIT/APPTIMER                       ----- -----  ----- -----  ----- -----  ----- -----

ZIGBUART_PININIT/DATATRANS                    ----- -----  ----- -----  ----- -----  ----- -----

UARTOBJZIGB_INIT/DATATRANS                    ----- -----  0027H 002AH  ----- -----  ----- -----
  +--> ?CO?DATATRANS
  +--> _PRINTSTRING1/USART
  +--> _PRINTSTRING1_LOGOUT/USART

?CO?DATATRANS                                 ----- -----  ----- -----  ----- -----  ----- -----

_PRINTSTRING1/USART                           ----- -----  ----- -----  ----- -----  ----- -----
  +--> _TX1_WRITE2BUFF/USART

_TX1_WRITE2BUFF/USART                         ----- -----  ----- -----  ----- -----  ----- -----

_PRINTSTRING1_LOGOUT/USART                    ----- -----  0038H 003AH  ----- -----  ----- -----
  +--> _DELAYMS/DELAY
  +--> _PRINTSTRING1/USART

_DELAYMS/DELAY                                ----- -----  ----- -----  ----- -----  ----- -----
  +--> _DELAY_MS/DELAY

_DELAY_MS/DELAY                               ----- -----  ----- -----  ----- -----  ----- -----

TIPLED_PININIT/TIPS                           ----- -----  ----- -----  ----- -----  ----- -----
  +--> _TIPSLED_COLORSET/TIPS

_TIPSLED_COLORSET/TIPS                        ----- -----  0028H 002BH  ----- -----  ----- -----
  +--> ?CO?TIPS

?CO?TIPS                                      ----- -----  ----- -----  ----- -----  ----- -----

PINBEEP_INIT/TIPS                             ----- -----  ----- -----  ----- -----  ----- -----

USRKIN_PININIT/USRKIN                         ----- -----  0027H 0027H  ----- -----  ----- -----
  +--> DCODESCAN_ONESHOOT/USRKIN
  +--> _DEVTYPECOMFIRM_BYDCODE/USRKIN

DCODESCAN_ONESHOOT/USRKIN                     ----- -----  ----- -----  ----- -----  ----- -----

_DEVTYPECOMFIRM_BYDCODE/USRKIN                ----- -----  ----- -----  ----- -----  ----- -----

RELAY_PININIT/RELAY                           ----- -----  ----- -----  007DH 007DH  0000H 003FH
  +--> DEVDATARECOVERY_RELAYSTATUS/DATAMANAGE
  +--> _COVEREEPROM_WRITE_N/EEPROM
  +--> RELAY_STATUSREALES/RELAY
  +--> _EEPROM_READ_N/EEPROM
  +--> ?CO?RELAY
  +--> PRINTF/PRINTF
  +--> _PRINTSTRING1_LOGOUT/USART

DEVDATARECOVERY_RELAYSTATUS/DATAMANAGE        ----- -----  ----- -----  ----- -----  0040H 00A5H
  +--> ?CO?DATAMANAGE
  +--> _EEPROM_READ_N/EEPROM
  +--> PRINTF/PRINTF
  +--> _PRINTSTRING1_LOGOUT/USART
  +--> _EEPROM_SECTORERASE/EEPROM

?CO?DATAMANAGE                                ----- -----  ----- -----  ----- -----  ----- -----

_EEPROM_READ_N/EEPROM                         ----- -----  004FH 0055H  ----- -----  ----- -----
  +--> DISABLEEEPROM/EEPROM

DISABLEEEPROM/EEPROM                          ----- -----  ----- -----  ----- -----  ----- -----
LX51 LINKER/LOCATER V4.66.41.0                                                        12/20/2018  14:37:19  PAGE 7



PRINTF/PRINTF                                 20H.6 21H.6  0038H 004BH  ----- -----  ----- -----
  +--> PUTCHAR/PUTCHAR

PUTCHAR/PUTCHAR                               ----- -----  ----- -----  ----- -----  ----- -----

_EEPROM_SECTORERASE/EEPROM                    ----- -----  ----- -----  ----- -----  ----- -----
  +--> DISABLEEEPROM/EEPROM

_COVEREEPROM_WRITE_N/EEPROM                   ----- -----  0033H 0039H  ----- -----  0292H 0311H
  +--> ?CO?EEPROM
  +--> _EEPROM_READ_N/EEPROM
  +--> _EEPROM_SECTORERASE/EEPROM
  +--> _EEPROM_WRITE_N/EEPROM

?CO?EEPROM                                    ----- -----  ----- -----  ----- -----  ----- -----

_EEPROM_WRITE_N/EEPROM                        ----- -----  003AH 0040H  ----- -----  ----- -----
  +--> DISABLEEEPROM/EEPROM

RELAY_STATUSREALES/RELAY                      ----- -----  ----- -----  ----- -----  ----- -----
  +--> TIPS_STATUSCHANGETONORMAL/TIPS

TIPS_STATUSCHANGETONORMAL/TIPS                ----- -----  ----- -----  ----- -----  ----- -----

?CO?RELAY                                     ----- -----  ----- -----  ----- -----  ----- -----

BSP_DATSREALES/USR_MAIN                       ----- -----  ----- -----  ----- -----  ----- -----
  +--> MAC_ID_RELAES/DATAMANAGE
  +--> PORTCTRLEACHOTHER_REALES/DATAMANAGE
  +--> LEDBKGCOLORSW_REALES/TIPS
  +--> TIMEZONE_REALES/TIMERACT

MAC_ID_RELAES/DATAMANAGE                      ----- -----  ----- -----  ----- -----  ----- -----
  +--> ?CO?DATAMANAGE
  +--> PRINTF/PRINTF
  +--> _PRINTSTRING1_LOGOUT/USART

PORTCTRLEACHOTHER_REALES/DATAMANAGE           ----- -----  ----- -----  ----- -----  ----- -----
  +--> _EEPROM_READ_N/EEPROM

LEDBKGCOLORSW_REALES/TIPS                     ----- -----  ----- -----  ----- -----  ----- -----
  +--> _EEPROM_READ_N/EEPROM
  +--> _COVEREEPROM_WRITE_N/EEPROM

TIMEZONE_REALES/TIMERACT                      ----- -----  ----- -----  ----- -----  ----- -----
  +--> _EEPROM_READ_N/EEPROM

BIRTHDAY_JUDGE/DATAMANAGE                     ----- -----  ----- -----  ----- -----  0000H 0000H
  +--> _EEPROM_READ_N/EEPROM
  +--> FACTORY_RECOVER/DATAMANAGE

FACTORY_RECOVER/DATAMANAGE                    ----- -----  ----- -----  ----- -----  0212H 0291H
  +--> ?CO?DATAMANAGE
  +--> _COVEREEPROM_WRITE_N/EEPROM
  +--> _DELAYMS/DELAY

TOUCHPAD_SCAN/USRKIN                          ----- -----  0027H 0029H  ----- -----  ----- -----
  +--> TOUCHPADSCAN_ONESHOOT/USRKIN
  +--> ?CO?USRKIN
  +--> _NORMALBUSSINESS_LONGA_TOUCHKEEPTRIG/USRKIN
  +--> _TOUCHPAD_FUNCTIONTRIGNORMAL/USRKIN
  +--> _TOUCHPAD_FUNCTIONTRIGCONTINUE/USRKIN

TOUCHPADSCAN_ONESHOOT/USRKIN                  ----- -----  ----- -----  ----- -----  ----- -----
LX51 LINKER/LOCATER V4.66.41.0                                                        12/20/2018  14:37:19  PAGE 8



?CO?USRKIN                                    ----- -----  ----- -----  ----- -----  ----- -----

_NORMALBUSSINESS_LONGA_TOUCHKEEPTRIG/USR+     ----- -----  ----- -----  ----- -----  ----- -----
... KIN
  +--> ?CO?USRKIN

_TOUCHPAD_FUNCTIONTRIGNORMAL/USRKIN           ----- -----  002AH 002BH  ----- -----  ----- -----
  +--> ?CO?USRKIN
  +--> PRINTF/PRINTF
  +--> _PRINTSTRING1_LOGOUT/USART
  +--> _NORMALBUSSINESS_SHORTTOUCHTRIG/USRKIN
  +--> USRKEYFUN_ZIGBNWKREJOIN/USRKIN
  +--> DEVSTATUSCHANGETO_DEVHOLD/DATATRANS

_NORMALBUSSINESS_SHORTTOUCHTRIG/USRKIN        ----- -----  ----- -----  ----- -----  ----- -----
  +--> _BEEPS_USRACTIVE/TIPS

_BEEPS_USRACTIVE/TIPS                         ----- -----  ----- -----  ----- -----  ----- -----

USRKEYFUN_ZIGBNWKREJOIN/USRKIN                ----- -----  ----- -----  ----- -----  ----- -----
  +--> TIPS_STATUSCHANGETOZIGBNWKFIND/TIPS

TIPS_STATUSCHANGETOZIGBNWKFIND/TIPS           ----- -----  ----- -----  ----- -----  ----- -----
  +--> _BEEPS_USRACTIVE/TIPS
  +--> _THREAD_TIPSGETDARK/TIPS

_THREAD_TIPSGETDARK/TIPS                      ----- -----  ----- -----  ----- -----  ----- -----

DEVSTATUSCHANGETO_DEVHOLD/DATATRANS           20H.4 20H.4  ----- -----  ----- -----  ----- -----
  +--> _THREAD_TIPSGETDARK/TIPS
  +--> ?CO?DATATRANS
  +--> PRINTF/PRINTF
  +--> _PRINTSTRING1_LOGOUT/USART

_TOUCHPAD_FUNCTIONTRIGCONTINUE/USRKIN         ----- -----  002AH 002BH  ----- -----  ----- -----
  +--> ?CO?USRKIN
  +--> PRINTF/PRINTF
  +--> _PRINTSTRING1_LOGOUT/USART
  +--> USRZIGBNWKOPEN/USRKIN
  +--> DEVHOLDSTOP_MAKEINADVANCE/DATATRANS

USRZIGBNWKOPEN/USRKIN                         ----- -----  ----- -----  ----- -----  ----- -----
  +--> ZIGB_NWKOPEN/DATATRANS
  +--> _TIPS_STATUSCHANGETOZIGBNWKOPEN/TIPS
  +--> ?CO?USRKIN
  +--> PRINTF/PRINTF
  +--> _PRINTSTRING1_LOGOUT/USART

ZIGB_NWKOPEN/DATATRANS                        20H.4 20H.5  002EH 002FH  ----- -----  01DDH 01DFH
  +--> ?CO?DATATRANS
  +--> _ZIGB_VALIDA_INPUT/DATATRANS

_ZIGB_VALIDA_INPUT/DATATRANS                  ----- -----  0036H 0045H  ----- -----  01E8H 0247H
  +--> ?CO?DATATRANS
  +--> _ZIGB_TXFRAMELOAD/DATATRANS
  +--> _UART1_DATSSEND/USART
  +--> _MEMMEM/PARS_METHOD
  +--> _DELAYMS/DELAY

_ZIGB_TXFRAMELOAD/DATATRANS                   ----- -----  0046H 0052H  ----- -----  ----- -----

_UART1_DATSSEND/USART                         ----- -----  004AH 004CH  ----- -----  ----- -----
  +--> _TX1_WRITE2BUFF/USART

LX51 LINKER/LOCATER V4.66.41.0                                                        12/20/2018  14:37:19  PAGE 9


_MEMMEM/PARS_METHOD                           ----- -----  0046H 0054H  ----- -----  ----- -----

_TIPS_STATUSCHANGETOZIGBNWKOPEN/TIPS          ----- -----  ----- -----  ----- -----  ----- -----
  +--> _BEEPS_USRACTIVE/TIPS
  +--> _THREAD_TIPSGETDARK/TIPS

DEVHOLDSTOP_MAKEINADVANCE/DATATRANS           ----- -----  ----- -----  ----- -----  ----- -----

DCODESCAN/USRKIN                              20H.0 20H.0  0027H 0028H  ----- -----  ----- -----
  +--> DCODESCAN_ONESHOOT/USRKIN
  +--> SWITCHTYPERESERVE_GET/DATAMANAGE
  +--> _BEEPS_USRACTIVE/TIPS
  +--> TIPS_STATUSCHANGETONORMAL/TIPS
  +--> _DEVTYPECOMFIRM_BYDCODE/USRKIN

SWITCHTYPERESERVE_GET/DATAMANAGE              ----- -----  ----- -----  ----- -----  ----- -----

FUN_FACTORYRECOVEROPREAT/DATATRANS            ----- -----  ----- -----  ----- -----  ----- -----
  +--> _TIPS_STATUSCHANGETOFACTORYRECOVER/TIPS

_TIPS_STATUSCHANGETOFACTORYRECOVER/TIPS       ----- -----  ----- -----  ----- -----  ----- -----
  +--> _THREAD_TIPSGETDARK/TIPS
  +--> _BEEPS_USRACTIVE/TIPS

FUN_TOUCHRESET/USRKIN                         ----- -----  ----- -----  ----- -----  ----- -----
  +--> _TOUCHPAD_RESETOPREAT/TOUCHPAD
  +--> _TIPS_STATUSCHANGETOTOUCHRESET/TIPS

_TOUCHPAD_RESETOPREAT/TOUCHPAD                ----- -----  ----- -----  ----- -----  ----- -----

_TIPS_STATUSCHANGETOTOUCHRESET/TIPS           ----- -----  ----- -----  ----- -----  ----- -----
  +--> _THREAD_TIPSGETDARK/TIPS
  +--> _BEEPS_USRACTIVE/TIPS

_USRKEYSCAN/USRKIN                            ----- -----  0027H 002FH  ----- -----  ----- -----
  +--> USRKEYSCAN_ONESHOOT/USRKIN
  +--> ?CO?USRKIN

USRKEYSCAN_ONESHOOT/USRKIN                    ----- -----  ----- -----  ----- -----  ----- -----

THREAD_TIMING/TIMERACT                        ----- -----  0027H 0027H  ----- -----  0000H 0005H
  +--> ?CO?TIMERACT
  +--> TIME_LOGOUT/TIMERACT
  +--> _EEPROM_READ_N/EEPROM
  +--> _DATSTIMING_READ_EEPROM/TIMERACT
  +--> _DATSTIMNIGHT_READ_EEPROM/TIMERACT
  +--> _WEEKEND_JUDGE/TIMERACT
  +--> PRINTF/PRINTF
  +--> _PRINTSTRING1_LOGOUT/USART
  +--> _COVEREEPROM_WRITE_N/EEPROM
  +--> ITRF_DATSTIMING_READ_EEPROM/TIMERACT

?CO?TIMERACT                                  ----- -----  ----- -----  ----- -----  ----- -----

TIME_LOGOUT/TIMERACT                          ----- -----  0028H 002EH  ----- -----  0006H 0055H
  +--> ?CO?TIMERACT
  +--> PRINTF/PRINTF
  +--> _PRINTSTRING1_LOGOUT/USART

_DATSTIMING_READ_EEPROM/TIMERACT              ----- -----  0033H 004EH  ----- -----  ----- -----
  +--> ?CO?TIMERACT
  +--> _EEPROM_READ_N/EEPROM

_DATSTIMNIGHT_READ_EEPROM/TIMERACT            ----- -----  0033H 003CH  ----- -----  ----- -----
  +--> ?CO?TIMERACT
LX51 LINKER/LOCATER V4.66.41.0                                                        12/20/2018  14:37:19  PAGE 10


  +--> _EEPROM_READ_N/EEPROM

_WEEKEND_JUDGE/TIMERACT                       ----- -----  ----- -----  ----- -----  ----- -----

ITRF_DATSTIMING_READ_EEPROM/TIMERACT          ----- -----  ----- -----  ----- -----  ----- -----
  +--> _DATSTIMING_READ_EEPROM/TIMERACT

THREAD_RELAY/RELAY                            ----- -----  ----- -----  007DH 007DH  ----- -----
  +--> RELAY_ACT/RELAY
  +--> _DEVPARAMDTAASAVE_RELAYSTATUSREALTIME/DATAMANAGE

RELAY_ACT/RELAY                               ----- -----  0027H 0029H  ----- -----  ----- -----
  +--> RELAY_STATUSREALES/RELAY
  +--> _DEVPARAMDTAASAVE_RELAYSTATUSREALTIME/DATAMANAGE

_DEVPARAMDTAASAVE_RELAYSTATUSREALTIME/DA+     ----- -----  002AH 002AH  ----- -----  0000H 0063H
... TAMANAGE
  +--> ?CO?DATAMANAGE
  +--> _EEPROM_SECTORERASE/EEPROM
  +--> _EEPROM_WRITE_N/EEPROM

THREAD_DATATRANS/DATATRANS                    20H.0 20H.1  ----- -----  007DH 0087H  0000H 013AH
  +--> ?CO?DATATRANS
  +--> GETSYSTEMTIME_REALES/DATATRANS
  +--> _ZIGB_SYSTIMESET/DATATRANS
  +--> ZIGB_GETPANIDCURRENT/DATATRANS
  +--> PRINTF/PRINTF
  +--> _PRINTSTRING1_LOGOUT/USART
  +--> TIPS_STATUSCHANGETONORMAL/TIPS
  +--> _DATASENDREMOTE_STRAIGHTFORWARD/DATATRANS
  +--> _EEPROM_READ_N/EEPROM
  +--> _DATSTIMNIGHT_READ_EEPROM/TIMERACT
  +--> _FRAME_CHECK/DATATRANS
  +--> _DATAPARING_SCENARIOCTRL/DATATRANS
  +--> _DATAPARING_NOMAL/DATATRANS
  +--> _DATAPARING_ZIGBSYSCTRL/DATATRANS
  +--> _TIPS_STATUSCHANGETOZIGBNWKOPEN/TIPS
  +--> ZIGB_NWKJOINREQUEST/DATATRANS
  +--> DATATRANSREQUEST_DATSSEND/DATATRANS
  +--> FUNCTION_DEVNWKHOLD/DATATRANS
  +--> FACTORY_RECOVER/DATAMANAGE

GETSYSTEMTIME_REALES/DATATRANS                20H.2 20H.2  0027H 002EH  ----- -----  013BH 015AH
  +--> ?CO?DATATRANS
  +--> _ZIGB_DATSREQUEST/DATATRANS

_ZIGB_DATSREQUEST/DATATRANS                   ----- -----  003AH 0049H  ----- -----  ----- -----
  +--> _UART1_DATSSEND/USART

_ZIGB_SYSTIMESET/DATATRANS                    20H.4 20H.5  002EH 0035H  ----- -----  01DDH 01E7H
  +--> ?CO?DATATRANS
  +--> _ZIGB_VALIDA_INPUT/DATATRANS

ZIGB_GETPANIDCURRENT/DATATRANS                ----- -----  0038H 0039H  ----- -----  017CH 019BH
  +--> ?CO?DATATRANS
  +--> _ZIGB_DATSREQUEST/DATATRANS

_DATASENDREMOTE_STRAIGHTFORWARD/DATATRAN+     ----- -----  002BH 0031H  ----- -----  013EH 01D6H
... S
  +--> ?CO?DATATRANS
  +--> _ZIGB_DATSLOAD_DATSSEND/DATATRANS
  +--> _UART1_DATSSEND/USART

_ZIGB_DATSLOAD_DATSSEND/DATATRANS             ----- -----  0032H 003CH  ----- -----  0215H 02ADH
  +--> ?CO?DATATRANS
LX51 LINKER/LOCATER V4.66.41.0                                                        12/20/2018  14:37:19  PAGE 11


  +--> _ZIGB_TXFRAMELOAD/DATATRANS

_FRAME_CHECK/DATATRANS                        ----- -----  0039H 003BH  ----- -----  ----- -----

_DATAPARING_SCENARIOCTRL/DATATRANS            ----- -----  0027H 002AH  ----- -----  ----- -----
  +--> _DATASENDREMOTE_STRAIGHTFORWARD/DATATRANS
  +--> ?CO?DATATRANS
  +--> PRINTF/PRINTF
  +--> _PRINTSTRING1_LOGOUT/USART

_DATAPARING_NOMAL/DATATRANS                   20H.2 20H.5  0027H 0032H  ----- -----  013BH 0211H
  +--> ?CO?DATATRANS
  +--> _FRAME_CHECK/DATATRANS
  +--> PRINTF/PRINTF
  +--> _PRINTSTRING1_LOGOUT/USART
  +--> TIPS_STATUSCHANGETONORMAL/TIPS
  +--> _COVEREEPROM_WRITE_N/EEPROM
  +--> _PERIODDATATRANS_MOMENTHANG/DATATRANS
  +--> _EEPROM_READ_N/EEPROM
  +--> FACTORY_RECOVER/DATAMANAGE
  +--> ITRF_DATSTIMING_READ_EEPROM/TIMERACT
  +--> ITRF_DATSTIMNIGHT_READ_EEPROM/TIMERACT
  +--> DTASTX_LOADBASIC_CUST/DATATRANS
  +--> _BEEPS_USRACTIVE/TIPS

_PERIODDATATRANS_MOMENTHANG/DATATRANS         ----- -----  ----- -----  ----- -----  ----- -----

ITRF_DATSTIMNIGHT_READ_EEPROM/TIMERACT        ----- -----  ----- -----  ----- -----  ----- -----
  +--> _DATSTIMNIGHT_READ_EEPROM/TIMERACT

DTASTX_LOADBASIC_CUST/DATATRANS               20H.6 20H.7  0033H 0038H  ----- -----  0212H 0251H
  +--> _FRAME_CHECK/DATATRANS
  +--> ?CO?DATATRANS

_DATAPARING_ZIGBSYSCTRL/DATATRANS             20H.2 20H.3  0027H 002DH  0088H 0088H  013BH 01DCH
  +--> ?CO?DATATRANS
  +--> ZIGB_NWKOPEN/DATATRANS
  +--> _TIPS_STATUSCHANGETOZIGBNWKOPEN/TIPS
  +--> PRINTF/PRINTF
  +--> _COVEREEPROM_WRITE_N/EEPROM
  +--> _ZIGB_SYSTIMESET/DATATRANS
  +--> _PRINTSTRING1_LOGOUT/USART
  +--> DEVSTATUSCHANGETO_DEVHOLD/DATATRANS
  +--> _PERIODDATATRANS_MOMENTHANG/DATATRANS

ZIGB_NWKJOINREQUEST/DATATRANS                 20H.2 20H.2  0027H 0037H  ----- -----  013BH 017BH
  +--> ?CO?DATATRANS
  +--> ZIGB_GETPANIDCURRENT/DATATRANS
  +--> PRINTF/PRINTF
  +--> _PRINTSTRING1_LOGOUT/USART
  +--> _MEMMEM/PARS_METHOD
  +--> _ZIGB_TXFRAMELOAD/DATATRANS
  +--> _UART1_DATSSEND/USART

DATATRANSREQUEST_DATSSEND/DATATRANS           ----- -----  0027H 002BH  0088H 008AH  013BH 0214H
  +--> ?CO?DATATRANS
  +--> _ZIGB_TXFRAMELOAD/DATATRANS
  +--> _ZIGB_DATSLOAD_DATSSEND/DATATRANS
  +--> _UART1_DATSSEND/USART
  +--> _MEMMEM/PARS_METHOD
  +--> PRINTF/PRINTF
  +--> _PRINTSTRING1_LOGOUT/USART

FUNCTION_DEVNWKHOLD/DATATRANS                 ----- -----  ----- -----  ----- -----  013BH 013DH
  +--> ?CO?DATATRANS
LX51 LINKER/LOCATER V4.66.41.0                                                        12/20/2018  14:37:19  PAGE 12


  +--> _DATASENDREMOTE_STRAIGHTFORWARD/DATATRANS
  +--> _DELAYMS/DELAY
  +--> PRINTF/PRINTF
  +--> _PRINTSTRING1_LOGOUT/USART

THREAD_TIPS/TIPS                              ----- -----  0027H 0027H  ----- -----  ----- -----
  +--> TIPS_STATUSCHANGETONORMAL/TIPS
  +--> _THREAD_TIPSGETDARK/TIPS
  +--> TIPS_SYSSTANDBY/TIPS
  +--> TIPS_SYSBUTTONREALES/TIPS
  +--> TOUCHPADSCAN_ONESHOOT/USRKIN
  +--> _TIPSLED_COLORSET/TIPS
  +--> ?CO?TIPS
  +--> _TIPS_SPECIFIED/TIPS
  +--> TIPS_WARNING/TIPS
  +--> TIPS_SYSTOUCHRESET/TIPS
  +--> PRINTF/PRINTF
  +--> _PRINTSTRING1_LOGOUT/USART

TIPS_SYSSTANDBY/TIPS                          ----- -----  ----- -----  ----- -----  ----- -----

TIPS_SYSBUTTONREALES/TIPS                     ----- -----  ----- -----  ----- -----  ----- -----
  +--> ?CO?TIPS

_TIPS_SPECIFIED/TIPS                          ----- -----  ----- -----  ----- -----  ----- -----
  +--> ?CO?TIPS

TIPS_WARNING/TIPS                             ----- -----  ----- -----  ----- -----  ----- -----
  +--> _THREAD_TIPSGETDARK/TIPS

TIPS_SYSTOUCHRESET/TIPS                       ----- -----  ----- -----  ----- -----  ----- -----

TOUCHPAD_PROCESSTHREAD/TOUCHPAD               ----- -----  ----- -----  ----- -----  ----- -----

THREAD_DEVLOPEDEBUG/DEVLOPEDEBUG              ----- -----  ----- -----  ----- -----  ----- -----
  +--> ?CO?DEVLOPEDEBUG
  +--> PRINTF/PRINTF
  +--> _PRINTSTRING1_LOGOUT/USART

?CO?DEVLOPEDEBUG                              ----- -----  ----- -----  ----- -----  ----- -----

?C_INITSEG                                    ----- -----  ----- -----  ----- -----  ----- -----



PUBLIC SYMBOLS OF MODULE:  .\Output\swZigbNode_sw3bit (USR_MAIN)


      VALUE       CLASS    TYPE      PUBLIC SYMBOL NAME
      =================================================
      00000033H   DATA     BYTE      ?_coverEEPROM_write_n?BYTE
      0000004FH   DATA     BYTE      ?_EEPROM_read_n?BYTE
      0000003AH   DATA     BYTE      ?_EEPROM_write_n?BYTE
      00000046H   DATA     BYTE      ?_memmem?BYTE
      00000038H   DATA     ---       ?_PRINTF517?BYTE
      00000038H   DATA     ---       ?_PRINTF?BYTE
      00000038H   DATA     ---       ?_SPRINTF517?BYTE
      00000038H   DATA     ---       ?_SPRINTF?BYTE
      00000028H   DATA     BYTE      ?_tipsLED_colorSet?BYTE
      00000027H   DATA     BYTE      ?_UsrKEYScan?BYTE
      00000036H   DATA     BYTE      ?_zigb_VALIDA_INPUT?BYTE
      01003850H   CODE     ---       ?C?CCASE
      010036F6H   CODE     ---       ?C?CLDOPTR
      010036DDH   CODE     ---       ?C?CLDPTR
      00000000H   NUMBER   ---       ?C?CODESEG
LX51 LINKER/LOCATER V4.66.41.0                                                        12/20/2018  14:37:19  PAGE 13


      010036B7H   CODE     ---       ?C?COPY
      01003735H   CODE     ---       ?C?CSTOPTR
      01003723H   CODE     ---       ?C?CSTPTR
      01003876H   CODE     ---       ?C?ICALL
      0100387AH   CODE     ---       ?C?ICALL2
      01003757H   CODE     ---       ?C?IMUL
      010037BEH   CODE     ---       ?C?LMUL
      01003831H   CODE     ---       ?C?LSHL
      01003A02H   CODE     ---       ?C?MEMCMP
      01003A26H   CODE     ---       ?C?MEMSET
      01003844H   CODE     ---       ?C?OFFXADD
      01003A52H   CODE     ---       ?C?PLDIIDATA
      01003769H   CODE     ---       ?C?UIDIV
      0100380DH   CODE     ---       ?C?ULCMP
      0100381EH   CODE     ---       ?C?ULSHR
      00000000H   NUMBER   ---       ?C?XDATASEG
      01006C09H   CODE     ---       ?C_START
      01000000H   CODE     ---       ?C_STARTUP
      00000020H.4 BIT      BIT       ?devStatusChangeTo_devHold?BIT
      00000027H   DATA     BYTE      ?relay_Act?BYTE
      00000028H   DATA     BYTE      ?time_Logout?BYTE
      00000020H.4 BIT      BIT       ?ZigB_nwkOpen?BIT
      0000002EH   DATA     BYTE      ?ZigB_nwkOpen?BYTE
      01007626H   CODE     ---       _beeps_usrActive
      01007106H   CODE     ---       _coverEEPROM_write_n
      0100603EH   CODE     ---       _datsTiming_read_eeprom
      0100612DH   CODE     ---       _datsTimNight_read_eeprom
      010078DDH   CODE     ---       _delay_ms
      0100786CH   CODE     ---       _delayMs
      0100726DH   CODE     ---       _devParamDtaaSave_relayStatusRealTime
      01007765H   CODE     ---       _devTypeComfirm_byDcode
      01007534H   CODE     ---       _EEPROM_read_n
      01007728H   CODE     ---       _EEPROM_SectorErase
      01007480H   CODE     ---       _EEPROM_write_n
      01006DE8H   CODE     ---       _memmem
      01007842H   CODE     ---       _periodDataTrans_momentHang
      010046C5H   CODE     ---       _PRINTF
      010046C5H   CODE     ---       _PRINTF517
      010078BAH   CODE     ---       _PrintString1
      0100756CH   CODE     ---       _PrintString1_logOut
      01007670H   CODE     ---       _PUTCHAR
      010046BFH   CODE     ---       _SPRINTF
      010046BFH   CODE     ---       _SPRINTF517
      01006F61H   CODE     ---       _thread_tipsGetDark
      010052AEH   CODE     ---       _tips_specified
      01007817H   CODE     ---       _tips_statusChangeToFactoryRecover
      01007801H   CODE     ---       _tips_statusChangeToTouchReset
      0100782DH   CODE     ---       _tips_statusChangeToZigbNwkOpen
      01006C65H   CODE     ---       _tipsLED_colorSet
      01006780H   CODE     ---       _touchPad_functionTrigContinue
      01005998H   CODE     ---       _touchPad_functionTrigNormal
      01007943H   CODE     ---       _touchPad_resetOpreat
      010076E3H   CODE     ---       _TX1_write2buff
      010076BDH   CODE     ---       _uart1_datsSend
*DEL*:00000000H   CODE     ---       _uart1_logOut
      010068CFH   CODE     ---       _UsrKEYScan
      010075F6H   CODE     ---       _weekend_judge
      0100696BH   CODE     ---       _zigb_VALIDA_INPUT
*SFR* 000000D0H.6 DATA     BIT       AC
*SFR* 000000E0H   DATA     BYTE      ACC
*SFR* 000000E0H   DATA     BIT       ACC0
*SFR* 000000E0H.1 DATA     BIT       ACC1
*SFR* 000000E0H.2 DATA     BIT       ACC2
*SFR* 000000E0H.3 DATA     BIT       ACC3
*SFR* 000000E0H.4 DATA     BIT       ACC4
LX51 LINKER/LOCATER V4.66.41.0                                                        12/20/2018  14:37:19  PAGE 14


*SFR* 000000E0H.5 DATA     BIT       ACC5
*SFR* 000000E0H.6 DATA     BIT       ACC6
*SFR* 000000E0H.7 DATA     BIT       ACC7
*SFR* 000000BCH   DATA     BYTE      ADC_CONTR
*SFR* 000000BDH   DATA     BYTE      ADC_RES
*SFR* 000000BEH   DATA     BYTE      ADC_RESL
      0100000EH   CODE     ---       appTimer0_Init
      010078CDH   CODE     ---       appTimer4_Init
*SFR* 0000008EH   DATA     BYTE      AUXR
*SFR* 000000A2H   DATA     BYTE      AUXR1
*SFR* 0000008FH   DATA     BYTE      AUXR2
*SFR* 000000F0H   DATA     BYTE      B
*SFR* 000000F0H   DATA     BIT       B0
*SFR* 000000F0H.1 DATA     BIT       B1
*SFR* 000000F0H.2 DATA     BIT       B2
*SFR* 000000F0H.3 DATA     BIT       B3
*SFR* 000000F0H.4 DATA     BIT       B4
*SFR* 000000F0H.5 DATA     BIT       B5
*SFR* 000000F0H.6 DATA     BIT       B6
*SFR* 000000F0H.7 DATA     BIT       B7
      01007706H   CODE     ---       birthDay_Judge
      010078FBH   CODE     ---       bsp_datsReales
      010077B9H   CODE     ---       bsp_Init
*SFR* 000000A1H   DATA     BYTE      BUS_SPEED
*SFR* 000000FAH   DATA     BYTE      CCAP0H
*SFR* 000000EAH   DATA     BYTE      CCAP0L
*SFR* 000000FBH   DATA     BYTE      CCAP1H
*SFR* 000000EBH   DATA     BYTE      CCAP1L
*SFR* 000000FCH   DATA     BYTE      CCAP2H
*SFR* 000000ECH   DATA     BYTE      CCAP2L
*SFR* 000000DAH   DATA     BYTE      CCAPM0
*SFR* 000000DBH   DATA     BYTE      CCAPM1
*SFR* 000000DCH   DATA     BYTE      CCAPM2
*SFR* 000000D8H   DATA     BIT       CCF0
*SFR* 000000D8H.1 DATA     BIT       CCF1
*SFR* 000000D8H.2 DATA     BIT       CCF2
*SFR* 000000D8H   DATA     BYTE      CCON
*SFR* 00000090H.1 DATA     BIT       CCP0
*SFR* 00000090H   DATA     BIT       CCP1
*SFR* 000000B0H.7 DATA     BIT       CCP2
*SFR* 000000D8H.7 DATA     BIT       CF
*SFR* 000000F9H   DATA     BYTE      CH
*SFR* 000000E9H   DATA     BYTE      CL
*SFR* 00000097H   DATA     BYTE      CLK_DIV
*SFR* 000000B0H.5 DATA     BIT       CLKOUT0
*SFR* 000000B0H.4 DATA     BIT       CLKOUT1
*SFR* 000000D9H   DATA     BYTE      CMOD
      0200047AH   XDATA    BYTE      colonyCtrlGet_queryCounter
      02000317H   XDATA    ---       colonyCtrlGet_statusLocalEaCtrl
      020003EAH   XDATA    BYTE      colonyCtrlGet_statusLocalScene
      0200031AH   XDATA    BYTE      colonyCtrlGetHang_timeCnt
      010071F1H   CODE     ---       color_Tab
      00000070H   DATA     ---       COM1
      0200072AH   XDATA    WORD      combinationFunFLG_3S5S_cancel_counter
      00000023H.2 BIT      BIT       combinationFunTrigger_3S1L_standBy_FLG
      00000022H.7 BIT      BIT       combinationFunTrigger_3S5S_standBy_FLG
      00000023H.6 BIT      BIT       coordinatorOnline_IF
      00000025H.2 BIT      BIT       countEN_ifTipsFree
      020006FFH   XDATA    BYTE      counter_ifTipsFree
      020006F3H   XDATA    WORD      counter_tipsAct
*SFR* 000000D8H.6 DATA     BIT       CR
      0000001AH   DATA     ---       CTRLEATHER_PORT
      02000720H   XDATA    ---       curtainAct_Param
*SFR* 000000D0H.7 DATA     BIT       CY
      0000000FH   DATA     BYTE      datsRcv_length
LX51 LINKER/LOCATER V4.66.41.0                                                        12/20/2018  14:37:19  PAGE 15


      020003EBH   XDATA    ---       datsRcv_respond
      020004ACH   XDATA    ---       datsRcv_ZIGB
      02000326H   XDATA    ---       datsSend_request
      0200047FH   XDATA    ---       datsSend_requestEx
*SFR* 00000090H   DATA     BIT       Dcode0
*SFR* 00000090H.1 DATA     BIT       Dcode1
*SFR* 00000090H.2 DATA     BIT       Dcode2
*SFR* 00000090H.3 DATA     BIT       Dcode3
*SFR* 00000090H.4 DATA     BIT       Dcode4
*SFR* 00000090H.3 DATA     BIT       Dcode5
      01006FD6H   CODE     ---       DcodeScan
      0100743DH   CODE     ---       DcodeScan_oneShoot
      00000091H   IDATA    WORD      delayCnt_closeLoop
      0000008EH   IDATA    WORD      delayCnt_onoff
      0000008DH   IDATA    BYTE      delayPeriod_closeLoop
      00000097H   IDATA    BYTE      delayPeriod_onoff
      00000096H   IDATA    BYTE      delayUp_act
      0000001DH   DATA     BYTE      DEV_actReserve
      02000473H   XDATA    ---       dev_agingCmd_rcvPassive
      0200031BH   XDATA    ---       dev_agingCmd_sndInitative
      020003ADH   XDATA    ---       dev_currentDataPoint
      00000018H   DATA     WORD      dev_currentPanid
      0200072CH   XDATA    ---       dev_debugInfoLog
      020006F2H   XDATA    BYTE      dev_statusBeeps
      0200071EH   XDATA    ---       devActionPush_IF
      010066CEH   CODE     ---       devDataRecovery_relayStatus
      01007928H   CODE     ---       devHoldStop_makeInAdvance
      00000026H.2 BIT      BIT       deviceLock_flag
*DEL*:00000000H   CODE     ---       devLockInfo_Reales
      0200047CH   XDATA    ---       devNwkHoldTime_Param
      0200046FH   XDATA    ---       devRemoteDataReqMethod
      0000000DH   DATA     BYTE      devRunning_Status
      02000471H   XDATA    ---       devStatus_switch
      0100735DH   CODE     ---       devStatusChangeTo_devHold
      02000700H   XDATA    ---       devTips_beep
      0000006CH   DATA     BYTE      devTips_nwkZigb
      0000006EH   DATA     BYTE      devTips_status
      010078EDH   CODE     ---       DisableEEPROM
*SFR* 00000083H   DATA     BYTE      DPH
*SFR* 00000082H   DATA     BYTE      DPL
      00000010H   DATA     BYTE      dtModeKeepAcess_currentCmd
      02000322H   XDATA    WORD      dtReqEx_counter
*SFR* 000000A8H.7 DATA     BIT       EA
      0200071CH   XDATA    BYTE      EACHCTRL_realesFLG
      00000025H.7 BIT      BIT       EACHCTRL_reportFLG
*SFR* 000000A8H.5 DATA     BIT       EADC
*SFR* 000000A8H.6 DATA     BIT       ELVD
*SFR* 000000A8H.4 DATA     BIT       ES
*SFR* 000000A8H.1 DATA     BIT       ET0
*SFR* 000000A8H.3 DATA     BIT       ET1
*SFR* 000000A8H   DATA     BIT       EX0
*SFR* 000000A8H.2 DATA     BIT       EX1
*SFR* 000000D0H.5 DATA     BIT       F0
*SFR* 000000D0H.1 DATA     BIT       F1
      01006616H   CODE     ---       Factory_recover
      0200047BH   XDATA    BYTE      factoryRecover_HoldTimeCount
      00000024H.2 BIT      BIT       factoryRecover_standBy_FLG
      010077A0H   CODE     ---       fun_factoryRecoverOpreat
*DEL*:00000000H   CODE     ---       fun_Test
      0100791EH   CODE     ---       fun_touchReset
      02000321H   XDATA    BYTE      heartBeatCount
      00000024H.0 BIT      BIT       heartBeatCycle_FLG
      02000479H   XDATA    BYTE      heartBeatHang_timeCnt
      02000546H   XDATA    BYTE      heartBeatPeriod
*SFR* 000000C3H   DATA     BYTE      IAP_ADDRH
LX51 LINKER/LOCATER V4.66.41.0                                                        12/20/2018  14:37:19  PAGE 16


*SFR* 000000C4H   DATA     BYTE      IAP_ADDRL
*SFR* 000000C5H   DATA     BYTE      IAP_CMD
*SFR* 000000C7H   DATA     BYTE      IAP_CONTR
*SFR* 000000C2H   DATA     BYTE      IAP_DATA
*SFR* 000000C6H   DATA     BYTE      IAP_TRIG
*SFR* 000000A8H   DATA     BYTE      IE
*SFR* 00000088H.1 DATA     BIT       IE0
*SFR* 00000088H.3 DATA     BIT       IE1
*SFR* 000000AFH   DATA     BYTE      IE2
      00000095H   IDATA    BYTE      ifDelay_sw_running_FLAG
      00000025H.1 BIT      BIT       ifHorsingLight_running_FLAG
      00000025H.5 BIT      BIT       ifNightMode_sw_running_FLAG
      00000025H.6 BIT      BIT       ifTim_sw_running_FLAG
*SFR* 000000B0H.2 DATA     BIT       INT0
*SFR* 000000B0H.3 DATA     BIT       INT1
*SFR* 0000008FH   DATA     BYTE      INT_CLKO
*SFR* 000000B8H   DATA     BYTE      IP
*SFR* 000000B5H   DATA     BYTE      IP2
*SFR* 000000B7H   DATA     BYTE      IPH
*SFR* 000000B6H   DATA     BYTE      IPH2
*SFR* 000000C3H   DATA     BYTE      ISP_ADDRH
*SFR* 000000C4H   DATA     BYTE      ISP_ADDRL
*SFR* 000000C5H   DATA     BYTE      ISP_CMD
*SFR* 000000C7H   DATA     BYTE      ISP_CONTR
*SFR* 000000C2H   DATA     BYTE      ISP_DATA
*SFR* 000000C6H   DATA     BYTE      ISP_TRIG
*SFR* 00000088H   DATA     BIT       IT0
*SFR* 00000088H.2 DATA     BIT       IT1
      01007931H   CODE     ---       itrf_datsTiming_read_eeprom
      0100793AH   CODE     ---       itrf_datsTimNight_read_eeprom
      00000023H.1 BIT      BIT       ledBackground_method
      01007167H   CODE     ---       ledBKGColorSw_Reales
      020003AAH   XDATA    ---       localDataRecord_eaCtrl
      02000686H   XDATA    ---       log_buf
      0200067FH   XDATA    BYTE      loopInsert_relayStatusRealTime_record
      02000680H   XDATA    ---       MAC_ID
      02000679H   XDATA    ---       MAC_ID_DST
      01006B32H   CODE     ---       MAC_ID_Relaes
      010073ACH   CODE     ---       main
*SFR* 000000D0H.2 DATA     BIT       OV
*SFR* 000000D0H   DATA     BIT       P
*SFR* 00000080H   DATA     BYTE      P0
*SFR* 00000080H   DATA     BIT       P00
*SFR* 00000080H.1 DATA     BIT       P01
*SFR* 00000080H.2 DATA     BIT       P02
*SFR* 00000080H.3 DATA     BIT       P03
*SFR* 00000080H.4 DATA     BIT       P04
*SFR* 00000080H.5 DATA     BIT       P05
*SFR* 00000080H.6 DATA     BIT       P06
*SFR* 00000080H.7 DATA     BIT       P07
*SFR* 00000094H   DATA     BYTE      P0M0
*SFR* 00000093H   DATA     BYTE      P0M1
*SFR* 00000090H   DATA     BYTE      P1
*SFR* 00000090H   DATA     BIT       P10
*SFR* 00000090H.1 DATA     BIT       P11
*SFR* 00000090H.2 DATA     BIT       P12
*SFR* 00000090H.3 DATA     BIT       P13
*SFR* 00000090H.4 DATA     BIT       P14
*SFR* 00000090H.5 DATA     BIT       P15
*SFR* 00000090H.6 DATA     BIT       P16
*SFR* 00000090H.7 DATA     BIT       P17
*SFR* 0000009DH   DATA     BYTE      P1ASF
*SFR* 00000092H   DATA     BYTE      P1M0
*SFR* 00000091H   DATA     BYTE      P1M1
*SFR* 000000A0H   DATA     BYTE      P2
LX51 LINKER/LOCATER V4.66.41.0                                                        12/20/2018  14:37:19  PAGE 17


*SFR* 000000A0H   DATA     BIT       P20
*SFR* 000000A0H.1 DATA     BIT       P21
*SFR* 000000A0H.2 DATA     BIT       P22
*SFR* 000000A0H.3 DATA     BIT       P23
*SFR* 000000A0H.4 DATA     BIT       P24
*SFR* 000000A0H.5 DATA     BIT       P25
*SFR* 000000A0H.6 DATA     BIT       P26
*SFR* 000000A0H.7 DATA     BIT       P27
*SFR* 00000096H   DATA     BYTE      P2M0
*SFR* 00000095H   DATA     BYTE      P2M1
*SFR* 000000B0H   DATA     BYTE      P3
*SFR* 000000B0H   DATA     BIT       P30
*SFR* 000000B0H.1 DATA     BIT       P31
*SFR* 000000B0H.2 DATA     BIT       P32
*SFR* 000000B0H.3 DATA     BIT       P33
*SFR* 000000B0H.4 DATA     BIT       P34
*SFR* 000000B0H.5 DATA     BIT       P35
*SFR* 000000B0H.6 DATA     BIT       P36
*SFR* 000000B0H.7 DATA     BIT       P37
*SFR* 000000B2H   DATA     BYTE      P3M0
*SFR* 000000B1H   DATA     BYTE      P3M1
*SFR* 000000C0H   DATA     BYTE      P4
*SFR* 000000C0H   DATA     BIT       P40
*SFR* 000000C0H.1 DATA     BIT       P41
*SFR* 000000C0H.2 DATA     BIT       P42
*SFR* 000000C0H.3 DATA     BIT       P43
*SFR* 000000C0H.4 DATA     BIT       P44
*SFR* 000000C0H.5 DATA     BIT       P45
*SFR* 000000C0H.6 DATA     BIT       P46
*SFR* 000000C0H.7 DATA     BIT       P47
*SFR* 000000B4H   DATA     BYTE      P4M0
*SFR* 000000B3H   DATA     BYTE      P4M1
*SFR* 000000C8H   DATA     BYTE      P5
*SFR* 000000C8H   DATA     BIT       P50
*SFR* 000000C8H.1 DATA     BIT       P51
*SFR* 000000C8H.2 DATA     BIT       P52
*SFR* 000000C8H.3 DATA     BIT       P53
*SFR* 000000C8H.4 DATA     BIT       P54
*SFR* 000000C8H.5 DATA     BIT       P55
*SFR* 000000C8H.6 DATA     BIT       P56
*SFR* 000000C8H.7 DATA     BIT       P57
*SFR* 000000CAH   DATA     BYTE      P5M0
*SFR* 000000C9H   DATA     BYTE      P5M1
*SFR* 000000E8H   DATA     BYTE      P6
*SFR* 000000CCH   DATA     BYTE      P6M0
*SFR* 000000CBH   DATA     BYTE      P6M1
*SFR* 000000F8H   DATA     BYTE      P7
*SFR* 000000E2H   DATA     BYTE      P7M0
*SFR* 000000E1H   DATA     BYTE      P7M1
*SFR* 000000A2H   DATA     BYTE      P_SW1
*SFR* 000000BAH   DATA     BYTE      P_SW2
*SFR* 000000B8H.5 DATA     BIT       PADC
*SFR* 000000F2H   DATA     BYTE      PCA_PWM0
*SFR* 000000F3H   DATA     BYTE      PCA_PWM1
*SFR* 000000F4H   DATA     BYTE      PCA_PWM2
*SFR* 00000087H   DATA     BYTE      PCON
*SFR* 00000097H   DATA     BYTE      PCON2
      01000003H   CODE     ---       pinBeep_Init
*SFR* 000000B8H.6 DATA     BIT       PLVD
      01007881H   CODE     ---       portCtrlEachOther_Reales
*SFR* 000000B8H.7 DATA     BIT       PPCA
*SFR* 000000B8H.4 DATA     BIT       PS
*SFR* 000000D0H   DATA     BYTE      PSW
*SFR* 000000B8H.1 DATA     BIT       PT0
*SFR* 000000B8H.3 DATA     BIT       PT1
LX51 LINKER/LOCATER V4.66.41.0                                                        12/20/2018  14:37:19  PAGE 18


*SFR* 000000B8H   DATA     BIT       PX0
*SFR* 000000B8H.2 DATA     BIT       PX1
*SFR* 00000098H.2 DATA     BIT       RB8
*SFR* 000000B0H.7 DATA     BIT       RD
      00000024H.1 BIT      BIT       reConnectAfterDatsReq_IF
      020006F5H   XDATA    ---       relay1_Tips
      020006F9H   XDATA    ---       relay2_Tips
      020006FCH   XDATA    ---       relay3_Tips
      01006301H   CODE     ---       relay_Act
      01006CD8H   CODE     ---       relay_pinInit
      0100655AH   CODE     ---       relay_statusReales
      02000723H   XDATA    BYTE      relayStatus_ifSave
*SFR* 00000098H.4 DATA     BIT       REN
*SFR* 00000098H   DATA     BIT       RI
*SFR* 000000D6H   DATA     BYTE      RL_T2H
*SFR* 000000D7H   DATA     BYTE      RL_T2L
*SFR* 000000D4H   DATA     BYTE      RL_T3H
*SFR* 000000D5H   DATA     BYTE      RL_T3L
*SFR* 000000D2H   DATA     BYTE      RL_T4H
*SFR* 000000D3H   DATA     BYTE      RL_T4L
*SFR* 0000008CH   DATA     BYTE      RL_TH0
*SFR* 0000008DH   DATA     BYTE      RL_TH1
*SFR* 0000008AH   DATA     BYTE      RL_TL0
*SFR* 0000008BH   DATA     BYTE      RL_TL1
*SFR* 000000D0H.3 DATA     BIT       RS0
*SFR* 000000D0H.4 DATA     BIT       RS1
      02000547H   XDATA    ---       RX1_Buffer
*SFR* 000000B0H   DATA     BIT       RXD
*SFR* 00000090H   DATA     BIT       RXD2
      0000000EH   DATA     BYTE      rxTout_count
      00000023H.7 BIT      BIT       rxTout_count_EN
*SFR* 0000009BH   DATA     BYTE      S2BUF
*SFR* 0000009AH   DATA     BYTE      S2CON
*SFR* 000000ADH   DATA     BYTE      S3BUF
*SFR* 000000ACH   DATA     BYTE      S3CON
*SFR* 00000085H   DATA     BYTE      S4BUF
*SFR* 00000084H   DATA     BYTE      S4CON
*SFR* 000000A9H   DATA     BYTE      SADDR
*SFR* 000000B9H   DATA     BYTE      SADEN
*SFR* 00000099H   DATA     BYTE      SBUF
*SFR* 00000098H   DATA     BYTE      SCON
*SFR* 00000098H.7 DATA     BIT       SM0
*SFR* 00000098H.6 DATA     BIT       SM1
*SFR* 00000098H.5 DATA     BIT       SM2
*SFR* 00000081H   DATA     BYTE      SP
*SFR* 000000CEH   DATA     BYTE      SPCTL
*SFR* 000000CFH   DATA     BYTE      SPDAT
*SFR* 00000090H.4 DATA     BIT       SPI_MISO
*SFR* 000000A0H.2 DATA     BIT       SPI_MISO_2
*SFR* 000000C0H.1 DATA     BIT       SPI_MISO_3
*SFR* 00000090H.3 DATA     BIT       SPI_MOSI
*SFR* 000000A0H.3 DATA     BIT       SPI_MOSI_2
*SFR* 000000C0H   DATA     BIT       SPI_MOSI_3
*SFR* 00000090H.5 DATA     BIT       SPI_SCLK
*SFR* 000000A0H.1 DATA     BIT       SPI_SCLK_2
*SFR* 000000C0H.3 DATA     BIT       SPI_SCLK_3
*SFR* 00000090H.2 DATA     BIT       SPI_SS
*SFR* 000000A0H.4 DATA     BIT       SPI_SS_2
*SFR* 000000C8H.4 DATA     BIT       SPI_SS_3
*SFR* 000000CDH   DATA     BYTE      SPSTAT
      0200071DH   XDATA    BYTE      status_Relay
      00000026H.0 BIT      BIT       statusRelay_saveEn
      0200071AH   XDATA    ---       swCommand_fromUsr
      0000001EH   DATA     BYTE      SWITCH_TYPE
      01007747H   CODE     ---       switchTypeReserve_GET
LX51 LINKER/LOCATER V4.66.41.0                                                        12/20/2018  14:37:19  PAGE 19


      00000090H   IDATA    BYTE      swTim_oneShoot_FLAG
      020006C8H   XDATA    ---       systemTime_current
      00000093H   IDATA    WORD      sysTimeKeep_counter
      020006CFH   XDATA    BYTE      sysTimeReales_counter
      020006D0H   XDATA    BYTE      sysTimeZone_H
      020006D1H   XDATA    BYTE      sysTimeZone_M
*SFR* 000000B0H.4 DATA     BIT       T0
*SFR* 000000B0H.5 DATA     BIT       T1
*SFR* 000000D6H   DATA     BYTE      T2H
*SFR* 000000D7H   DATA     BYTE      T2L
*SFR* 000000D4H   DATA     BYTE      T3H
*SFR* 000000D5H   DATA     BYTE      T3L
*SFR* 000000D2H   DATA     BYTE      T4H
*SFR* 000000D3H   DATA     BYTE      T4L
*SFR* 000000D1H   DATA     BYTE      T4T3M
*SFR* 00000098H.3 DATA     BIT       TB8
*SFR* 00000088H   DATA     BYTE      TCON
*SFR* 00000088H.5 DATA     BIT       TF0
*SFR* 00000088H.7 DATA     BIT       TF1
*SFR* 0000008CH   DATA     BYTE      TH0
*SFR* 0000008DH   DATA     BYTE      TH1
*SFR* 000000D6H   DATA     BYTE      TH2
*SFR* 000000D4H   DATA     BYTE      TH3
*SFR* 000000D2H   DATA     BYTE      TH4
      01002139H   CODE     ---       thread_dataTrans
      010063D6H   CODE     ---       thread_devlopeDebug
      010074F9H   CODE     ---       thread_Relay
      01003A62H   CODE     ---       thread_Timing
      01003EC1H   CODE     ---       thread_Tips
*SFR* 00000098H.1 DATA     BIT       TI
      01006A05H   CODE     ---       time_Logout
      0200047EH   XDATA    BYTE      timeCounter_coordinatorLost_detecting
      0100000AH   CODE     ---       timer0_Rountine
      01002AB5H   CODE     ---       timer4_Rountine
      01007697H   CODE     ---       timeZone_Reales
      010074BDH   CODE     ---       tipLED_pinInit
*DEL*:00000000H   CODE     ---       tips_breath
*DEL*:00000000H   CODE     ---       tips_fadeOut
      010071EEH   CODE     ---       tips_relayUnused
      010077D1H   CODE     ---       tips_statusChangeToNormal
      01007913H   CODE     ---       tips_statusChangeToZigbNwkFind
      010049BFH   CODE     ---       tips_sysButtonReales
      01007783H   CODE     ---       tips_sysStandBy
      010072BDH   CODE     ---       tips_sysTouchReset
      0100682FH   CODE     ---       tips_warning
      0000006DH   DATA     BYTE      tipsInsert_swLedBKG_OFF
      0000006FH   DATA     BYTE      tipsInsert_swLedBKG_ON
      020006F1H   XDATA    BYTE      tipsTimeCount_factoryRecover
      02000706H   XDATA    BYTE      tipsTimeCount_touchReset
      020006F8H   XDATA    BYTE      tipsTimeCount_zigNwkOpen
*SFR* 0000008AH   DATA     BYTE      TL0
*SFR* 0000008BH   DATA     BYTE      TL1
*SFR* 000000D7H   DATA     BYTE      TL2
*SFR* 000000D5H   DATA     BYTE      TL3
*SFR* 000000D3H   DATA     BYTE      TL4
*SFR* 00000089H   DATA     BYTE      TMOD
      02000727H   XDATA    BYTE      touchKeepCnt_record
*SFR* 00000090H.6 DATA     BIT       touchPad_1
*SFR* 00000090H.7 DATA     BIT       touchPad_2
*SFR* 00000090H.5 DATA     BIT       touchPad_3
*DEL*:00000000H   CODE     ---       touchPad_pinInit
      01007907H   CODE     ---       touchPad_processThread
      02000730H   XDATA    BYTE      touchPad_resetTimeCount
      01005841H   CODE     ---       touchPad_Scan
      02000728H   XDATA    WORD      touchPadActCounter
LX51 LINKER/LOCATER V4.66.41.0                                                        12/20/2018  14:37:19  PAGE 20


      02000725H   XDATA    WORD      touchPadContinueCnt
      010078A7H   CODE     ---       touchPadScan_oneShoot
*SFR* 00000088H.4 DATA     BIT       TR0
*SFR* 00000088H.6 DATA     BIT       TR1
      020005E0H   XDATA    ---       TX1_Buffer
*SFR* 000000B0H.1 DATA     BIT       TXD
*SFR* 00000090H.1 DATA     BIT       TXD2
      01006A9CH   CODE     ---       UART1_Rountine
      01000026H   CODE     ---       uartObjZigb_Init
      00000024H.3 BIT      BIT       uartRX_toutFLG
*SFR* 00000080H.2 DATA     BIT       Usr_key
      0000007BH   DATA     WORD      usrKeyCount
      00000023H.0 BIT      BIT       usrKeyCount_EN
*DEL*:00000000H   CODE     ---       usrKeyFun_relayOpreation
      01007857H   CODE     ---       usrKeyFun_zigbNwkRejoin
      01007949H   CODE     ---       UsrKEYScan_oneShoot
      01007649H   CODE     ---       usrKin_pinInit
      0100730DH   CODE     ---       usrZigbNwkOpen
      0000001FH   IDATA    BYTE      val_DcodeCfm
*SFR* 0000008FH   DATA     BYTE      WAKE_CLKO
*SFR* 000000C1H   DATA     BYTE      WDT_CONTR
*SFR* 000000ABH   DATA     BYTE      WKTCH
*SFR* 000000AAH   DATA     BYTE      WKTCL
*SFR* 000000B0H.6 DATA     BIT       WR
      010070A4H   CODE     ---       ZigB_nwkOpen
      02000703H   XDATA    ---       zigbNwk_Tips
      02000324H   XDATA    WORD      zigbNwkAction_counter
      01007894H   CODE     ---       zigbUart_pinInit



SYMBOL TABLE OF MODULE:  .\Output\swZigbNode_sw3bit (USR_MAIN)

      VALUE       REP       CLASS    TYPE      SYMBOL NAME
      ====================================================
      ---         MODULE    ---      ---       USR_MAIN
      010073ACH   PUBLIC    CODE     ---       main
      010078FBH   PUBLIC    CODE     ---       bsp_datsReales
      010077B9H   PUBLIC    CODE     ---       bsp_Init
      000000D8H.2 SFRSYM    DATA     BIT       CCF2
      000000E0H.7 SFRSYM    DATA     BIT       ACC7
      00000093H   SFRSYM    DATA     BYTE      P0M1
      00000092H   SFRSYM    DATA     BYTE      P1M0
      00000096H   SFRSYM    DATA     BYTE      P2M0
      00000091H   SFRSYM    DATA     BYTE      P1M1
      00000080H   SFRSYM    DATA     BYTE      P0
      000000B2H   SFRSYM    DATA     BYTE      P3M0
      00000095H   SFRSYM    DATA     BYTE      P2M1
      00000090H   SFRSYM    DATA     BYTE      P1
      000000B4H   SFRSYM    DATA     BYTE      P4M0
      000000B1H   SFRSYM    DATA     BYTE      P3M1
      000000A0H   SFRSYM    DATA     BYTE      P2
      000000CAH   SFRSYM    DATA     BYTE      P5M0
      000000B3H   SFRSYM    DATA     BYTE      P4M1
      000000B0H   SFRSYM    DATA     BYTE      P3
      000000ABH   SFRSYM    DATA     BYTE      WKTCH
      000000B0H.4 SFRSYM    DATA     BIT       T0
      000000D0H.6 SFRSYM    DATA     BIT       AC
      000000CCH   SFRSYM    DATA     BYTE      P6M0
      000000C9H   SFRSYM    DATA     BYTE      P5M1
      000000C0H   SFRSYM    DATA     BYTE      P4
      000000B0H.5 SFRSYM    DATA     BIT       CLKOUT0
      000000B0H.5 SFRSYM    DATA     BIT       T1
      000000E2H   SFRSYM    DATA     BYTE      P7M0
      000000CBH   SFRSYM    DATA     BYTE      P6M1
LX51 LINKER/LOCATER V4.66.41.0                                                        12/20/2018  14:37:19  PAGE 21


      000000C8H   SFRSYM    DATA     BYTE      P5
      000000C6H   SFRSYM    DATA     BYTE      ISP_TRIG
      000000A8H.7 SFRSYM    DATA     BIT       EA
      000000B0H.4 SFRSYM    DATA     BIT       CLKOUT1
      000000A0H.4 SFRSYM    DATA     BIT       SPI_SS_2
      000000E8H   SFRSYM    DATA     BYTE      P6
      000000E1H   SFRSYM    DATA     BYTE      P7M1
      000000C8H.4 SFRSYM    DATA     BIT       SPI_SS_3
      00000090H.4 SFRSYM    DATA     BIT       SPI_MISO
      00000090H.3 SFRSYM    DATA     BIT       SPI_MOSI
      00000090H.1 SFRSYM    DATA     BIT       CCP0
      000000F8H   SFRSYM    DATA     BYTE      P7
      000000AAH   SFRSYM    DATA     BYTE      WKTCL
      00000090H   SFRSYM    DATA     BIT       CCP1
      000000CEH   SFRSYM    DATA     BYTE      SPCTL
      000000D8H.7 SFRSYM    DATA     BIT       CF
      000000B0H.7 SFRSYM    DATA     BIT       CCP2
      000000F9H   SFRSYM    DATA     BYTE      CH
      000000A2H   SFRSYM    DATA     BYTE      P_SW1
      000000BAH   SFRSYM    DATA     BYTE      P_SW2
      000000A8H.5 SFRSYM    DATA     BIT       EADC
      000000A0H.1 SFRSYM    DATA     BIT       SPI_SCLK_2
      000000A8H   SFRSYM    DATA     BYTE      IE
      000000C0H.3 SFRSYM    DATA     BIT       SPI_SCLK_3
      000000E9H   SFRSYM    DATA     BYTE      CL
      000000C5H   SFRSYM    DATA     BYTE      IAP_CMD
      000000FAH   SFRSYM    DATA     BYTE      CCAP0H
      00000090H   SFRSYM    DATA     BIT       Dcode0
      000000FBH   SFRSYM    DATA     BYTE      CCAP1H
      00000090H.1 SFRSYM    DATA     BIT       Dcode1
      000000FCH   SFRSYM    DATA     BYTE      CCAP2H
      00000090H.2 SFRSYM    DATA     BIT       Dcode2
      000000BDH   SFRSYM    DATA     BYTE      ADC_RES
      000000B6H   SFRSYM    DATA     BYTE      IPH2
      00000090H.3 SFRSYM    DATA     BIT       Dcode3
      000000D8H.6 SFRSYM    DATA     BIT       CR
      000000EAH   SFRSYM    DATA     BYTE      CCAP0L
      00000090H.4 SFRSYM    DATA     BIT       Dcode4
      000000B0H.7 SFRSYM    DATA     BIT       RD
      000000EBH   SFRSYM    DATA     BYTE      CCAP1L
      000000DAH   SFRSYM    DATA     BYTE      CCAPM0
      00000090H.3 SFRSYM    DATA     BIT       Dcode5
      000000ECH   SFRSYM    DATA     BYTE      CCAP2L
      000000DBH   SFRSYM    DATA     BYTE      CCAPM1
      000000A8H.4 SFRSYM    DATA     BIT       ES
      000000DCH   SFRSYM    DATA     BYTE      CCAPM2
      000000B8H.5 SFRSYM    DATA     BIT       PADC
      000000A0H.2 SFRSYM    DATA     BIT       SPI_MISO_2
      000000A0H.3 SFRSYM    DATA     BIT       SPI_MOSI_2
      000000B8H   SFRSYM    DATA     BYTE      IP
      000000C0H.1 SFRSYM    DATA     BIT       SPI_MISO_3
      000000C0H   SFRSYM    DATA     BIT       SPI_MOSI_3
      00000098H   SFRSYM    DATA     BIT       RI
      000000B0H.2 SFRSYM    DATA     BIT       INT0
      000000D0H.7 SFRSYM    DATA     BIT       CY
      00000098H.1 SFRSYM    DATA     BIT       TI
      000000B0H.3 SFRSYM    DATA     BIT       INT1
      00000097H   SFRSYM    DATA     BYTE      CLK_DIV
      000000C3H   SFRSYM    DATA     BYTE      IAP_ADDRH
      00000090H   SFRSYM    DATA     BIT       RXD2
      000000C5H   SFRSYM    DATA     BYTE      ISP_CMD
      000000B8H.4 SFRSYM    DATA     BIT       PS
      00000090H.1 SFRSYM    DATA     BIT       TXD2
      00000081H   SFRSYM    DATA     BYTE      SP
      000000D9H   SFRSYM    DATA     BYTE      CMOD
LX51 LINKER/LOCATER V4.66.41.0                                                        12/20/2018  14:37:19  PAGE 22


      000000D8H   SFRSYM    DATA     BYTE      CCON
      000000C4H   SFRSYM    DATA     BYTE      IAP_ADDRL
      000000B8H.7 SFRSYM    DATA     BIT       PPCA
      000000D0H.2 SFRSYM    DATA     BIT       OV
      000000B0H.6 SFRSYM    DATA     BIT       WR
      000000A8H.6 SFRSYM    DATA     BIT       ELVD
      00000080H   SFRSYM    DATA     BIT       P00
      00000090H   SFRSYM    DATA     BIT       P10
      00000080H.1 SFRSYM    DATA     BIT       P01
      000000BCH   SFRSYM    DATA     BYTE      ADC_CONTR
      00000099H   SFRSYM    DATA     BYTE      SBUF
      00000087H   SFRSYM    DATA     BYTE      PCON
      000000A0H   SFRSYM    DATA     BIT       P20
      00000090H.1 SFRSYM    DATA     BIT       P11
      00000080H.2 SFRSYM    DATA     BIT       P02
      000000C3H   SFRSYM    DATA     BYTE      ISP_ADDRH
      000000B0H   SFRSYM    DATA     BIT       P30
      000000A0H.1 SFRSYM    DATA     BIT       P21
      00000090H.2 SFRSYM    DATA     BIT       P12
      00000080H.3 SFRSYM    DATA     BIT       P03
      000000C0H   SFRSYM    DATA     BIT       P40
      000000B0H.1 SFRSYM    DATA     BIT       P31
      000000A0H.2 SFRSYM    DATA     BIT       P22
      00000090H.3 SFRSYM    DATA     BIT       P13
      00000080H.4 SFRSYM    DATA     BIT       P04
      00000098H   SFRSYM    DATA     BYTE      SCON
      0000008FH   SFRSYM    DATA     BYTE      WAKE_CLKO
      000000C8H   SFRSYM    DATA     BIT       P50
      000000C0H.1 SFRSYM    DATA     BIT       P41
      000000B0H.2 SFRSYM    DATA     BIT       P32
      000000A0H.3 SFRSYM    DATA     BIT       P23
      00000090H.4 SFRSYM    DATA     BIT       P14
      00000080H.5 SFRSYM    DATA     BIT       P05
      00000089H   SFRSYM    DATA     BYTE      TMOD
      00000088H   SFRSYM    DATA     BYTE      TCON
      000000C8H.1 SFRSYM    DATA     BIT       P51
      000000C0H.2 SFRSYM    DATA     BIT       P42
      000000B0H.3 SFRSYM    DATA     BIT       P33
      000000A0H.4 SFRSYM    DATA     BIT       P24
      00000090H.5 SFRSYM    DATA     BIT       P15
      00000080H.6 SFRSYM    DATA     BIT       P06
      000000C4H   SFRSYM    DATA     BYTE      ISP_ADDRL
      000000B8H.6 SFRSYM    DATA     BIT       PLVD
      000000C8H.2 SFRSYM    DATA     BIT       P52
      000000C0H.3 SFRSYM    DATA     BIT       P43
      000000B0H.4 SFRSYM    DATA     BIT       P34
      000000A0H.5 SFRSYM    DATA     BIT       P25
      00000090H.6 SFRSYM    DATA     BIT       P16
      00000080H.7 SFRSYM    DATA     BIT       P07
      000000C8H.3 SFRSYM    DATA     BIT       P53
      000000C0H.4 SFRSYM    DATA     BIT       P44
      000000B0H.5 SFRSYM    DATA     BIT       P35
      000000A0H.6 SFRSYM    DATA     BIT       P26
      00000090H.7 SFRSYM    DATA     BIT       P17
      000000C8H.4 SFRSYM    DATA     BIT       P54
      000000C0H.5 SFRSYM    DATA     BIT       P45
      000000B0H.6 SFRSYM    DATA     BIT       P36
      000000A0H.7 SFRSYM    DATA     BIT       P27
      000000C8H.5 SFRSYM    DATA     BIT       P55
      000000C0H.6 SFRSYM    DATA     BIT       P46
      000000B0H.7 SFRSYM    DATA     BIT       P37
      000000C8H.6 SFRSYM    DATA     BIT       P56
      000000C0H.7 SFRSYM    DATA     BIT       P47
      000000C8H.7 SFRSYM    DATA     BIT       P57
      00000088H.1 SFRSYM    DATA     BIT       IE0
LX51 LINKER/LOCATER V4.66.41.0                                                        12/20/2018  14:37:19  PAGE 23


      000000A1H   SFRSYM    DATA     BYTE      BUS_SPEED
      00000088H.3 SFRSYM    DATA     BIT       IE1
      000000AFH   SFRSYM    DATA     BYTE      IE2
      000000F0H   SFRSYM    DATA     BYTE      B
      0000008EH   SFRSYM    DATA     BYTE      AUXR
      000000C7H   SFRSYM    DATA     BYTE      IAP_CONTR
      000000E0H   SFRSYM    DATA     BYTE      ACC
      000000A8H.1 SFRSYM    DATA     BIT       ET0
      000000A8H.3 SFRSYM    DATA     BIT       ET1
      00000088H.5 SFRSYM    DATA     BIT       TF0
      00000088H.7 SFRSYM    DATA     BIT       TF1
      000000B5H   SFRSYM    DATA     BYTE      IP2
      0000008CH   SFRSYM    DATA     BYTE      RL_TH0
      00000098H.2 SFRSYM    DATA     BIT       RB8
      0000008DH   SFRSYM    DATA     BYTE      RL_TH1
      0000008CH   SFRSYM    DATA     BYTE      TH0
      000000A8H   SFRSYM    DATA     BIT       EX0
      00000088H   SFRSYM    DATA     BIT       IT0
      000000D6H   SFRSYM    DATA     BYTE      RL_T2H
      0000008DH   SFRSYM    DATA     BYTE      TH1
      00000090H.6 SFRSYM    DATA     BIT       touchPad_1
      000000A8H.2 SFRSYM    DATA     BIT       EX1
      00000098H.3 SFRSYM    DATA     BIT       TB8
      00000088H.2 SFRSYM    DATA     BIT       IT1
      000000D4H   SFRSYM    DATA     BYTE      RL_T3H
      000000D6H   SFRSYM    DATA     BYTE      TH2
      000000D6H   SFRSYM    DATA     BYTE      T2H
      00000090H.7 SFRSYM    DATA     BIT       touchPad_2
      000000D0H   SFRSYM    DATA     BIT       P
      000000D2H   SFRSYM    DATA     BYTE      RL_T4H
      000000D4H   SFRSYM    DATA     BYTE      TH3
      000000D4H   SFRSYM    DATA     BYTE      T3H
      0000008AH   SFRSYM    DATA     BYTE      RL_TL0
      00000090H.5 SFRSYM    DATA     BIT       touchPad_3
      00000098H.7 SFRSYM    DATA     BIT       SM0
      000000D2H   SFRSYM    DATA     BYTE      TH4
      000000D2H   SFRSYM    DATA     BYTE      T4H
      0000008BH   SFRSYM    DATA     BYTE      RL_TL1
      0000008AH   SFRSYM    DATA     BYTE      TL0
      00000098H.6 SFRSYM    DATA     BIT       SM1
      000000D7H   SFRSYM    DATA     BYTE      RL_T2L
      0000008BH   SFRSYM    DATA     BYTE      TL1
      00000098H.5 SFRSYM    DATA     BIT       SM2
      000000D5H   SFRSYM    DATA     BYTE      RL_T3L
      000000D7H   SFRSYM    DATA     BYTE      TL2
      000000D7H   SFRSYM    DATA     BYTE      T2L
      000000D3H   SFRSYM    DATA     BYTE      RL_T4L
      000000D5H   SFRSYM    DATA     BYTE      TL3
      000000D5H   SFRSYM    DATA     BYTE      T3L
      000000B8H.1 SFRSYM    DATA     BIT       PT0
      000000D3H   SFRSYM    DATA     BYTE      TL4
      000000D3H   SFRSYM    DATA     BYTE      T4L
      000000B8H.3 SFRSYM    DATA     BIT       PT1
      000000D0H.3 SFRSYM    DATA     BIT       RS0
      000000C7H   SFRSYM    DATA     BYTE      ISP_CONTR
      00000088H.4 SFRSYM    DATA     BIT       TR0
      000000D0H.4 SFRSYM    DATA     BIT       RS1
      000000C2H   SFRSYM    DATA     BYTE      IAP_DATA
      00000088H.6 SFRSYM    DATA     BIT       TR1
      000000B8H   SFRSYM    DATA     BIT       PX0
      000000C1H   SFRSYM    DATA     BYTE      WDT_CONTR
      000000B8H.2 SFRSYM    DATA     BIT       PX1
      000000F2H   SFRSYM    DATA     BYTE      PCA_PWM0
      000000F3H   SFRSYM    DATA     BYTE      PCA_PWM1
      000000F4H   SFRSYM    DATA     BYTE      PCA_PWM2
LX51 LINKER/LOCATER V4.66.41.0                                                        12/20/2018  14:37:19  PAGE 24


      0000009DH   SFRSYM    DATA     BYTE      P1ASF
      00000083H   SFRSYM    DATA     BYTE      DPH
      000000D1H   SFRSYM    DATA     BYTE      T4T3M
      000000BEH   SFRSYM    DATA     BYTE      ADC_RESL
      00000082H   SFRSYM    DATA     BYTE      DPL
      000000CDH   SFRSYM    DATA     BYTE      SPSTAT
      000000B7H   SFRSYM    DATA     BYTE      IPH
      0000009BH   SFRSYM    DATA     BYTE      S2BUF
      00000097H   SFRSYM    DATA     BYTE      PCON2
      000000ADH   SFRSYM    DATA     BYTE      S3BUF
      00000098H.4 SFRSYM    DATA     BIT       REN
      00000085H   SFRSYM    DATA     BYTE      S4BUF
      00000080H.2 SFRSYM    DATA     BIT       Usr_key
      0000009AH   SFRSYM    DATA     BYTE      S2CON
      000000ACH   SFRSYM    DATA     BYTE      S3CON
      000000C2H   SFRSYM    DATA     BYTE      ISP_DATA
      00000084H   SFRSYM    DATA     BYTE      S4CON
      000000B9H   SFRSYM    DATA     BYTE      SADEN
      000000B0H   SFRSYM    DATA     BIT       RXD
      000000A9H   SFRSYM    DATA     BYTE      SADDR
      000000B0H.1 SFRSYM    DATA     BIT       TXD
      000000F0H   SFRSYM    DATA     BIT       B0
      000000F0H.1 SFRSYM    DATA     BIT       B1
      000000C6H   SFRSYM    DATA     BYTE      IAP_TRIG
      000000A2H   SFRSYM    DATA     BYTE      AUXR1
      000000F0H.2 SFRSYM    DATA     BIT       B2
      00000090H.2 SFRSYM    DATA     BIT       SPI_SS
      0000008FH   SFRSYM    DATA     BYTE      AUXR2
      000000F0H.3 SFRSYM    DATA     BIT       B3
      000000F0H.4 SFRSYM    DATA     BIT       B4
      000000D0H.5 SFRSYM    DATA     BIT       F0
      000000F0H.5 SFRSYM    DATA     BIT       B5
      000000D0H.1 SFRSYM    DATA     BIT       F1
      0000008FH   SFRSYM    DATA     BYTE      INT_CLKO
      000000F0H.6 SFRSYM    DATA     BIT       B6
      000000E0H   SFRSYM    DATA     BIT       ACC0
      000000F0H.7 SFRSYM    DATA     BIT       B7
      000000E0H.1 SFRSYM    DATA     BIT       ACC1
      000000E0H.2 SFRSYM    DATA     BIT       ACC2
      000000E0H.3 SFRSYM    DATA     BIT       ACC3
      000000D0H   SFRSYM    DATA     BYTE      PSW
      000000E0H.4 SFRSYM    DATA     BIT       ACC4
      00000090H.5 SFRSYM    DATA     BIT       SPI_SCLK
      000000D8H   SFRSYM    DATA     BIT       CCF0
      000000E0H.5 SFRSYM    DATA     BIT       ACC5
      000000D8H.1 SFRSYM    DATA     BIT       CCF1
      000000E0H.6 SFRSYM    DATA     BIT       ACC6
      000000CFH   SFRSYM    DATA     BYTE      SPDAT
      00000094H   SFRSYM    DATA     BYTE      P0M0

      010077B9H   BLOCK     CODE     ---       LVL=0
      010077B9H   LINE      CODE     ---       #17
      010077B9H   LINE      CODE     ---       #19
      010077BCH   LINE      CODE     ---       #20
      010077BFH   LINE      CODE     ---       #21
      010077C2H   LINE      CODE     ---       #22
      010077C5H   LINE      CODE     ---       #23
      010077C8H   LINE      CODE     ---       #24
      010077CBH   LINE      CODE     ---       #25
      010077CEH   LINE      CODE     ---       #26
      ---         BLOCKEND  ---      ---       LVL=0

      010078FBH   BLOCK     CODE     ---       LVL=0
      010078FBH   LINE      CODE     ---       #29
      010078FBH   LINE      CODE     ---       #31
LX51 LINKER/LOCATER V4.66.41.0                                                        12/20/2018  14:37:19  PAGE 25


      010078FEH   LINE      CODE     ---       #32
      01007901H   LINE      CODE     ---       #33
      01007904H   LINE      CODE     ---       #34
      ---         BLOCKEND  ---      ---       LVL=0

      010073ACH   BLOCK     CODE     ---       LVL=0
      010073ACH   LINE      CODE     ---       #37
      010073ACH   LINE      CODE     ---       #39
      010073AFH   LINE      CODE     ---       #40
      010073B2H   LINE      CODE     ---       #41
      010073B5H   LINE      CODE     ---       #45
      010073BBH   LINE      CODE     ---       #46
      010073C2H   LINE      CODE     ---       #56
      010073C2H   LINE      CODE     ---       #61
      010073C5H   LINE      CODE     ---       #62
      010073C8H   LINE      CODE     ---       #63
      010073E3H   LINE      CODE     ---       #66
      010073E6H   LINE      CODE     ---       #68
      010073E9H   LINE      CODE     ---       #70
      010073ECH   LINE      CODE     ---       #72
      010073EFH   LINE      CODE     ---       #74
      010073F2H   LINE      CODE     ---       #76
      010073F5H   LINE      CODE     ---       #77
      ---         BLOCKEND  ---      ---       LVL=0

      ---         MODULE    ---      ---       APPTIMER
      01002AB5H   PUBLIC    CODE     ---       timer4_Rountine
      0100000AH   PUBLIC    CODE     ---       timer0_Rountine
      010078CDH   PUBLIC    CODE     ---       appTimer4_Init
      0100000EH   PUBLIC    CODE     ---       appTimer0_Init
      000000D8H.2 SFRSYM    DATA     BIT       CCF2
      000000E0H.7 SFRSYM    DATA     BIT       ACC7
      00000093H   SFRSYM    DATA     BYTE      P0M1
      00000092H   SFRSYM    DATA     BYTE      P1M0
      00000096H   SFRSYM    DATA     BYTE      P2M0
      00000091H   SFRSYM    DATA     BYTE      P1M1
      00000080H   SFRSYM    DATA     BYTE      P0
      000000B2H   SFRSYM    DATA     BYTE      P3M0
      00000095H   SFRSYM    DATA     BYTE      P2M1
      00000090H   SFRSYM    DATA     BYTE      P1
      000000B4H   SFRSYM    DATA     BYTE      P4M0
      000000B1H   SFRSYM    DATA     BYTE      P3M1
      000000A0H   SFRSYM    DATA     BYTE      P2
      000000CAH   SFRSYM    DATA     BYTE      P5M0
      000000B3H   SFRSYM    DATA     BYTE      P4M1
      000000B0H   SFRSYM    DATA     BYTE      P3
      000000ABH   SFRSYM    DATA     BYTE      WKTCH
      000000B0H.4 SFRSYM    DATA     BIT       T0
      000000D0H.6 SFRSYM    DATA     BIT       AC
      000000CCH   SFRSYM    DATA     BYTE      P6M0
      000000C9H   SFRSYM    DATA     BYTE      P5M1
      000000C0H   SFRSYM    DATA     BYTE      P4
      000000B0H.5 SFRSYM    DATA     BIT       CLKOUT0
      000000B0H.5 SFRSYM    DATA     BIT       T1
      000000E2H   SFRSYM    DATA     BYTE      P7M0
      000000CBH   SFRSYM    DATA     BYTE      P6M1
      000000C8H   SFRSYM    DATA     BYTE      P5
      000000C6H   SFRSYM    DATA     BYTE      ISP_TRIG
      000000A8H.7 SFRSYM    DATA     BIT       EA
      000000B0H.4 SFRSYM    DATA     BIT       CLKOUT1
      000000A0H.4 SFRSYM    DATA     BIT       SPI_SS_2
      000000E8H   SFRSYM    DATA     BYTE      P6
      000000E1H   SFRSYM    DATA     BYTE      P7M1
      000000C8H.4 SFRSYM    DATA     BIT       SPI_SS_3
      00000090H.4 SFRSYM    DATA     BIT       SPI_MISO
LX51 LINKER/LOCATER V4.66.41.0                                                        12/20/2018  14:37:19  PAGE 26


      00000090H.3 SFRSYM    DATA     BIT       SPI_MOSI
      00000090H.1 SFRSYM    DATA     BIT       CCP0
      000000F8H   SFRSYM    DATA     BYTE      P7
      000000AAH   SFRSYM    DATA     BYTE      WKTCL
      00000090H   SFRSYM    DATA     BIT       CCP1
      000000CEH   SFRSYM    DATA     BYTE      SPCTL
      000000D8H.7 SFRSYM    DATA     BIT       CF
      000000B0H.7 SFRSYM    DATA     BIT       CCP2
      000000F9H   SFRSYM    DATA     BYTE      CH
      000000A2H   SFRSYM    DATA     BYTE      P_SW1
      000000BAH   SFRSYM    DATA     BYTE      P_SW2
      000000A8H.5 SFRSYM    DATA     BIT       EADC
      000000A0H.1 SFRSYM    DATA     BIT       SPI_SCLK_2
      000000A8H   SFRSYM    DATA     BYTE      IE
      000000C0H.3 SFRSYM    DATA     BIT       SPI_SCLK_3
      000000E9H   SFRSYM    DATA     BYTE      CL
      000000C5H   SFRSYM    DATA     BYTE      IAP_CMD
      000000FAH   SFRSYM    DATA     BYTE      CCAP0H
      00000090H   SFRSYM    DATA     BIT       Dcode0
      000000FBH   SFRSYM    DATA     BYTE      CCAP1H
      00000090H.1 SFRSYM    DATA     BIT       Dcode1
      000000FCH   SFRSYM    DATA     BYTE      CCAP2H
      00000090H.2 SFRSYM    DATA     BIT       Dcode2
      000000BDH   SFRSYM    DATA     BYTE      ADC_RES
      000000B6H   SFRSYM    DATA     BYTE      IPH2
      00000090H.3 SFRSYM    DATA     BIT       Dcode3
      000000D8H.6 SFRSYM    DATA     BIT       CR
      000000EAH   SFRSYM    DATA     BYTE      CCAP0L
      00000090H.4 SFRSYM    DATA     BIT       Dcode4
      000000B0H.7 SFRSYM    DATA     BIT       RD
      000000EBH   SFRSYM    DATA     BYTE      CCAP1L
      000000DAH   SFRSYM    DATA     BYTE      CCAPM0
      00000090H.3 SFRSYM    DATA     BIT       Dcode5
      000000ECH   SFRSYM    DATA     BYTE      CCAP2L
      000000DBH   SFRSYM    DATA     BYTE      CCAPM1
      000000A8H.4 SFRSYM    DATA     BIT       ES
      000000DCH   SFRSYM    DATA     BYTE      CCAPM2
      000000B8H.5 SFRSYM    DATA     BIT       PADC
      000000A0H.2 SFRSYM    DATA     BIT       SPI_MISO_2
      000000A0H.3 SFRSYM    DATA     BIT       SPI_MOSI_2
      000000B8H   SFRSYM    DATA     BYTE      IP
      000000C0H.1 SFRSYM    DATA     BIT       SPI_MISO_3
      000000C0H   SFRSYM    DATA     BIT       SPI_MOSI_3
      00000098H   SFRSYM    DATA     BIT       RI
      000000B0H.2 SFRSYM    DATA     BIT       INT0
      000000D0H.7 SFRSYM    DATA     BIT       CY
      00000098H.1 SFRSYM    DATA     BIT       TI
      000000B0H.3 SFRSYM    DATA     BIT       INT1
      00000097H   SFRSYM    DATA     BYTE      CLK_DIV
      000000C3H   SFRSYM    DATA     BYTE      IAP_ADDRH
      00000090H   SFRSYM    DATA     BIT       RXD2
      000000C5H   SFRSYM    DATA     BYTE      ISP_CMD
      000000B8H.4 SFRSYM    DATA     BIT       PS
      00000090H.1 SFRSYM    DATA     BIT       TXD2
      00000081H   SFRSYM    DATA     BYTE      SP
      000000D9H   SFRSYM    DATA     BYTE      CMOD
      000000D8H   SFRSYM    DATA     BYTE      CCON
      000000C4H   SFRSYM    DATA     BYTE      IAP_ADDRL
      000000B8H.7 SFRSYM    DATA     BIT       PPCA
      000000D0H.2 SFRSYM    DATA     BIT       OV
      000000B0H.6 SFRSYM    DATA     BIT       WR
      000000A8H.6 SFRSYM    DATA     BIT       ELVD
      00000080H   SFRSYM    DATA     BIT       P00
      00000090H   SFRSYM    DATA     BIT       P10
      00000080H.1 SFRSYM    DATA     BIT       P01
LX51 LINKER/LOCATER V4.66.41.0                                                        12/20/2018  14:37:19  PAGE 27


      000000BCH   SFRSYM    DATA     BYTE      ADC_CONTR
      00000099H   SFRSYM    DATA     BYTE      SBUF
      00000087H   SFRSYM    DATA     BYTE      PCON
      000000A0H   SFRSYM    DATA     BIT       P20
      00000090H.1 SFRSYM    DATA     BIT       P11
      00000080H.2 SFRSYM    DATA     BIT       P02
      000000C3H   SFRSYM    DATA     BYTE      ISP_ADDRH
      000000B0H   SFRSYM    DATA     BIT       P30
      000000A0H.1 SFRSYM    DATA     BIT       P21
      00000090H.2 SFRSYM    DATA     BIT       P12
      00000080H.3 SFRSYM    DATA     BIT       P03
      000000C0H   SFRSYM    DATA     BIT       P40
      000000B0H.1 SFRSYM    DATA     BIT       P31
      000000A0H.2 SFRSYM    DATA     BIT       P22
      00000090H.3 SFRSYM    DATA     BIT       P13
      00000080H.4 SFRSYM    DATA     BIT       P04
      00000098H   SFRSYM    DATA     BYTE      SCON
      0000008FH   SFRSYM    DATA     BYTE      WAKE_CLKO
      000000C8H   SFRSYM    DATA     BIT       P50
      000000C0H.1 SFRSYM    DATA     BIT       P41
      000000B0H.2 SFRSYM    DATA     BIT       P32
      000000A0H.3 SFRSYM    DATA     BIT       P23
      00000090H.4 SFRSYM    DATA     BIT       P14
      00000080H.5 SFRSYM    DATA     BIT       P05
      00000089H   SFRSYM    DATA     BYTE      TMOD
      00000088H   SFRSYM    DATA     BYTE      TCON
      000000C8H.1 SFRSYM    DATA     BIT       P51
      000000C0H.2 SFRSYM    DATA     BIT       P42
      000000B0H.3 SFRSYM    DATA     BIT       P33
      000000A0H.4 SFRSYM    DATA     BIT       P24
      00000090H.5 SFRSYM    DATA     BIT       P15
      00000080H.6 SFRSYM    DATA     BIT       P06
      000000C4H   SFRSYM    DATA     BYTE      ISP_ADDRL
      000000B8H.6 SFRSYM    DATA     BIT       PLVD
      000000C8H.2 SFRSYM    DATA     BIT       P52
      000000C0H.3 SFRSYM    DATA     BIT       P43
      000000B0H.4 SFRSYM    DATA     BIT       P34
      000000A0H.5 SFRSYM    DATA     BIT       P25
      00000090H.6 SFRSYM    DATA     BIT       P16
      00000080H.7 SFRSYM    DATA     BIT       P07
      000000C8H.3 SFRSYM    DATA     BIT       P53
      000000C0H.4 SFRSYM    DATA     BIT       P44
      000000B0H.5 SFRSYM    DATA     BIT       P35
      000000A0H.6 SFRSYM    DATA     BIT       P26
      00000090H.7 SFRSYM    DATA     BIT       P17
      000000C8H.4 SFRSYM    DATA     BIT       P54
      000000C0H.5 SFRSYM    DATA     BIT       P45
      000000B0H.6 SFRSYM    DATA     BIT       P36
      000000A0H.7 SFRSYM    DATA     BIT       P27
      000000C8H.5 SFRSYM    DATA     BIT       P55
      000000C0H.6 SFRSYM    DATA     BIT       P46
      000000B0H.7 SFRSYM    DATA     BIT       P37
      000000C8H.6 SFRSYM    DATA     BIT       P56
      000000C0H.7 SFRSYM    DATA     BIT       P47
      000000C8H.7 SFRSYM    DATA     BIT       P57
      00000088H.1 SFRSYM    DATA     BIT       IE0
      000000A1H   SFRSYM    DATA     BYTE      BUS_SPEED
      00000088H.3 SFRSYM    DATA     BIT       IE1
      000000AFH   SFRSYM    DATA     BYTE      IE2
      000000F0H   SFRSYM    DATA     BYTE      B
      0000008EH   SFRSYM    DATA     BYTE      AUXR
      000000C7H   SFRSYM    DATA     BYTE      IAP_CONTR
      000000E0H   SFRSYM    DATA     BYTE      ACC
      000000A8H.1 SFRSYM    DATA     BIT       ET0
      000000A8H.3 SFRSYM    DATA     BIT       ET1
LX51 LINKER/LOCATER V4.66.41.0                                                        12/20/2018  14:37:19  PAGE 28


      00000088H.5 SFRSYM    DATA     BIT       TF0
      00000088H.7 SFRSYM    DATA     BIT       TF1
      000000B5H   SFRSYM    DATA     BYTE      IP2
      0000008CH   SFRSYM    DATA     BYTE      RL_TH0
      00000098H.2 SFRSYM    DATA     BIT       RB8
      0000008DH   SFRSYM    DATA     BYTE      RL_TH1
      0000008CH   SFRSYM    DATA     BYTE      TH0
      000000A8H   SFRSYM    DATA     BIT       EX0
      00000088H   SFRSYM    DATA     BIT       IT0
      000000D6H   SFRSYM    DATA     BYTE      RL_T2H
      0000008DH   SFRSYM    DATA     BYTE      TH1
      00000090H.6 SFRSYM    DATA     BIT       touchPad_1
      000000A8H.2 SFRSYM    DATA     BIT       EX1
      00000098H.3 SFRSYM    DATA     BIT       TB8
      00000088H.2 SFRSYM    DATA     BIT       IT1
      000000D4H   SFRSYM    DATA     BYTE      RL_T3H
      000000D6H   SFRSYM    DATA     BYTE      TH2
      000000D6H   SFRSYM    DATA     BYTE      T2H
      00000090H.7 SFRSYM    DATA     BIT       touchPad_2
      000000D0H   SFRSYM    DATA     BIT       P
      000000D2H   SFRSYM    DATA     BYTE      RL_T4H
      000000D4H   SFRSYM    DATA     BYTE      TH3
      000000D4H   SFRSYM    DATA     BYTE      T3H
      0000008AH   SFRSYM    DATA     BYTE      RL_TL0
      00000090H.5 SFRSYM    DATA     BIT       touchPad_3
      00000098H.7 SFRSYM    DATA     BIT       SM0
      000000D2H   SFRSYM    DATA     BYTE      TH4
      000000D2H   SFRSYM    DATA     BYTE      T4H
      0000008BH   SFRSYM    DATA     BYTE      RL_TL1
      0000008AH   SFRSYM    DATA     BYTE      TL0
      00000098H.6 SFRSYM    DATA     BIT       SM1
      000000D7H   SFRSYM    DATA     BYTE      RL_T2L
      0000008BH   SFRSYM    DATA     BYTE      TL1
      00000098H.5 SFRSYM    DATA     BIT       SM2
      000000D5H   SFRSYM    DATA     BYTE      RL_T3L
      000000D7H   SFRSYM    DATA     BYTE      TL2
      000000D7H   SFRSYM    DATA     BYTE      T2L
      000000D3H   SFRSYM    DATA     BYTE      RL_T4L
      000000D5H   SFRSYM    DATA     BYTE      TL3
      000000D5H   SFRSYM    DATA     BYTE      T3L
      000000B8H.1 SFRSYM    DATA     BIT       PT0
      000000D3H   SFRSYM    DATA     BYTE      TL4
      000000D3H   SFRSYM    DATA     BYTE      T4L
      000000B8H.3 SFRSYM    DATA     BIT       PT1
      000000D0H.3 SFRSYM    DATA     BIT       RS0
      000000C7H   SFRSYM    DATA     BYTE      ISP_CONTR
      00000088H.4 SFRSYM    DATA     BIT       TR0
      000000D0H.4 SFRSYM    DATA     BIT       RS1
      000000C2H   SFRSYM    DATA     BYTE      IAP_DATA
      00000088H.6 SFRSYM    DATA     BIT       TR1
      000000B8H   SFRSYM    DATA     BIT       PX0
      000000C1H   SFRSYM    DATA     BYTE      WDT_CONTR
      000000B8H.2 SFRSYM    DATA     BIT       PX1
      000000F2H   SFRSYM    DATA     BYTE      PCA_PWM0
      000000F3H   SFRSYM    DATA     BYTE      PCA_PWM1
      000000F4H   SFRSYM    DATA     BYTE      PCA_PWM2
      0000009DH   SFRSYM    DATA     BYTE      P1ASF
      00000083H   SFRSYM    DATA     BYTE      DPH
      000000D1H   SFRSYM    DATA     BYTE      T4T3M
      000000BEH   SFRSYM    DATA     BYTE      ADC_RESL
      00000082H   SFRSYM    DATA     BYTE      DPL
      000000CDH   SFRSYM    DATA     BYTE      SPSTAT
      000000B7H   SFRSYM    DATA     BYTE      IPH
      0000009BH   SFRSYM    DATA     BYTE      S2BUF
      00000097H   SFRSYM    DATA     BYTE      PCON2
LX51 LINKER/LOCATER V4.66.41.0                                                        12/20/2018  14:37:19  PAGE 29


      000000ADH   SFRSYM    DATA     BYTE      S3BUF
      00000098H.4 SFRSYM    DATA     BIT       REN
      00000085H   SFRSYM    DATA     BYTE      S4BUF
      00000080H.2 SFRSYM    DATA     BIT       Usr_key
      0000009AH   SFRSYM    DATA     BYTE      S2CON
      000000ACH   SFRSYM    DATA     BYTE      S3CON
      000000C2H   SFRSYM    DATA     BYTE      ISP_DATA
      00000084H   SFRSYM    DATA     BYTE      S4CON
      000000B9H   SFRSYM    DATA     BYTE      SADEN
      000000B0H   SFRSYM    DATA     BIT       RXD
      000000A9H   SFRSYM    DATA     BYTE      SADDR
      000000B0H.1 SFRSYM    DATA     BIT       TXD
      000000F0H   SFRSYM    DATA     BIT       B0
      000000F0H.1 SFRSYM    DATA     BIT       B1
      000000C6H   SFRSYM    DATA     BYTE      IAP_TRIG
      000000A2H   SFRSYM    DATA     BYTE      AUXR1
      000000F0H.2 SFRSYM    DATA     BIT       B2
      00000090H.2 SFRSYM    DATA     BIT       SPI_SS
      0000008FH   SFRSYM    DATA     BYTE      AUXR2
      000000F0H.3 SFRSYM    DATA     BIT       B3
      000000F0H.4 SFRSYM    DATA     BIT       B4
      000000D0H.5 SFRSYM    DATA     BIT       F0
      000000F0H.5 SFRSYM    DATA     BIT       B5
      000000D0H.1 SFRSYM    DATA     BIT       F1
      0000008FH   SFRSYM    DATA     BYTE      INT_CLKO
      000000F0H.6 SFRSYM    DATA     BIT       B6
      000000E0H   SFRSYM    DATA     BIT       ACC0
      000000F0H.7 SFRSYM    DATA     BIT       B7
      000000E0H.1 SFRSYM    DATA     BIT       ACC1
      000000E0H.2 SFRSYM    DATA     BIT       ACC2
      000000E0H.3 SFRSYM    DATA     BIT       ACC3
      000000D0H   SFRSYM    DATA     BYTE      PSW
      000000E0H.4 SFRSYM    DATA     BIT       ACC4
      00000090H.5 SFRSYM    DATA     BIT       SPI_SCLK
      000000D8H   SFRSYM    DATA     BIT       CCF0
      000000E0H.5 SFRSYM    DATA     BIT       ACC5
      000000D8H.1 SFRSYM    DATA     BIT       CCF1
      000000E0H.6 SFRSYM    DATA     BIT       ACC6
      000000CFH   SFRSYM    DATA     BYTE      SPDAT
      00000094H   SFRSYM    DATA     BYTE      P0M0

      0100000EH   BLOCK     CODE     ---       LVL=0
      0100000EH   LINE      CODE     ---       #52
      0100000EH   LINE      CODE     ---       #54
      01000011H   LINE      CODE     ---       #55
      01000014H   LINE      CODE     ---       #56
      01000017H   LINE      CODE     ---       #57
      0100001AH   LINE      CODE     ---       #58
      0100001CH   LINE      CODE     ---       #59
      0100001EH   LINE      CODE     ---       #60
      01000020H   LINE      CODE     ---       #62
      01000022H   LINE      CODE     ---       #63
      ---         BLOCKEND  ---      ---       LVL=0

      010078CDH   BLOCK     CODE     ---       LVL=0
      010078CDH   LINE      CODE     ---       #65
      010078CDH   LINE      CODE     ---       #67
      010078D0H   LINE      CODE     ---       #68
      010078D3H   LINE      CODE     ---       #69
      010078D6H   LINE      CODE     ---       #70
      010078D9H   LINE      CODE     ---       #72
      010078DCH   LINE      CODE     ---       #73
      ---         BLOCKEND  ---      ---       LVL=0

      0100000AH   BLOCK     CODE     ---       LVL=0
LX51 LINKER/LOCATER V4.66.41.0                                                        12/20/2018  14:37:19  PAGE 30


      0100000AH   LINE      CODE     ---       #75
      0100000AH   LINE      CODE     ---       #171
      ---         BLOCKEND  ---      ---       LVL=0

      01002AB5H   BLOCK     CODE     ---       LVL=0
      01002AD2H   BLOCK     CODE     NEAR LAB  LVL=1
      010079CCH   SYMBOL    CONST    WORD      period_1second
      00000011H   SYMBOL    DATA     WORD      counter_1second
      010079CEH   SYMBOL    CONST    BYTE      period_1ms
      00000013H   SYMBOL    DATA     BYTE      counter_1ms
      010079CFH   SYMBOL    CONST    WORD      period_100ms
      00000014H   SYMBOL    DATA     WORD      counter_100ms
      010079D1H   SYMBOL    CONST    BYTE      period5_200ms
      00000016H   SYMBOL    DATA     BYTE      counter5_200ms
      010079D2H   SYMBOL    CONST    BYTE      period_tipsColor
      00000017H   SYMBOL    DATA     BYTE      counter_tipsColor
      0200070CH   SYMBOL    XDATA    ---       cnt_relay1_Tips
      0200070FH   SYMBOL    XDATA    ---       cnt_relay2_Tips
      02000712H   SYMBOL    XDATA    ---       cnt_relay3_Tips
      02000715H   SYMBOL    XDATA    ---       cnt_zigbNwk_Tips
      02000718H   SYMBOL    XDATA    BYTE      period_beep
      02000719H   SYMBOL    XDATA    BYTE      count_beep
      01002DF8H   BLOCK     CODE     NEAR LAB  LVL=2
      02000707H   SYMBOL    XDATA    WORD      tips_Period
      02000709H   SYMBOL    XDATA    WORD      tips_Count
      0200070BH   SYMBOL    XDATA    BYTE      tips_Loop
      00000026H.1 SYMBOL    BIT      BIT       beeps_en
      ---         BLOCKEND  ---      ---       LVL=2
      ---         BLOCKEND  ---      ---       LVL=1
      01002AB5H   LINE      CODE     ---       #173
      01002AD2H   LINE      CODE     ---       #206
      01002AECH   LINE      CODE     ---       #207
      01002AECH   LINE      CODE     ---       #209
      01002AF2H   LINE      CODE     ---       #210
      01002AF4H   LINE      CODE     ---       #213
      01002AFAH   LINE      CODE     ---       #215
      01002B06H   LINE      CODE     ---       #217
      01002B06H   LINE      CODE     ---       #219
      01002B13H   LINE      CODE     ---       #221
      01002B25H   LINE      CODE     ---       #223
      01002B27H   LINE      CODE     ---       #230
      01002B27H   LINE      CODE     ---       #232
      01002B30H   LINE      CODE     ---       #234
      01002B41H   LINE      CODE     ---       #236
      01002B43H   LINE      CODE     ---       #238
      01002B48H   LINE      CODE     ---       #239
      01002B48H   LINE      CODE     ---       #241
      01002B4AH   LINE      CODE     ---       #243
      01002B4AH   LINE      CODE     ---       #245
      01002B52H   LINE      CODE     ---       #247
      01002B58H   LINE      CODE     ---       #248
      01002B5AH   LINE      CODE     ---       #249
      01002B61H   LINE      CODE     ---       #250
      01002B61H   LINE      CODE     ---       #252
      01002B61H   LINE      CODE     ---       #254
      01002B61H   LINE      CODE     ---       #255
      01002B61H   LINE      CODE     ---       #256
      01002B61H   LINE      CODE     ---       #258
      01002B70H   LINE      CODE     ---       #259
      01002B70H   LINE      CODE     ---       #263
      01002B81H   LINE      CODE     ---       #264
      01002B81H   LINE      CODE     ---       #266
      01002B84H   LINE      CODE     ---       #269
      01002B9CH   LINE      CODE     ---       #272
      01002BA9H   LINE      CODE     ---       #273
LX51 LINKER/LOCATER V4.66.41.0                                                        12/20/2018  14:37:19  PAGE 31


      01002BAFH   LINE      CODE     ---       #276
      01002BC7H   LINE      CODE     ---       #279
      01002BDFH   LINE      CODE     ---       #282
      01002BF7H   LINE      CODE     ---       #285
      01002C0FH   LINE      CODE     ---       #288
      01002C27H   LINE      CODE     ---       #289
      01002C27H   LINE      CODE     ---       #292
      01002C41H   LINE      CODE     ---       #293
      01002C41H   LINE      CODE     ---       #295
      01002C47H   LINE      CODE     ---       #309
      01002C4AH   LINE      CODE     ---       #311
      01002C5CH   LINE      CODE     ---       #312
      01002C5CH   LINE      CODE     ---       #314
      01002C61H   LINE      CODE     ---       #315
      01002C63H   LINE      CODE     ---       #316
      01002C63H   LINE      CODE     ---       #317
      01002C63H   LINE      CODE     ---       #320
      01002C6AH   LINE      CODE     ---       #322
      01002C8AH   LINE      CODE     ---       #323
      01002C8AH   LINE      CODE     ---       #325
      01002C95H   LINE      CODE     ---       #327
      01002C9BH   LINE      CODE     ---       #329
      01002CA1H   LINE      CODE     ---       #330
      01002CA8H   LINE      CODE     ---       #331
      01002CAFH   LINE      CODE     ---       #332
      01002CB6H   LINE      CODE     ---       #336
      01002CBDH   LINE      CODE     ---       #338
      01002CC3H   LINE      CODE     ---       #339
      01002CC3H   LINE      CODE     ---       #340
      01002CC3H   LINE      CODE     ---       #343
      01002CCFH   LINE      CODE     ---       #345
      01002CEFH   LINE      CODE     ---       #346
      01002CEFH   LINE      CODE     ---       #348
      01002CF6H   LINE      CODE     ---       #350
      01002CFCH   LINE      CODE     ---       #351
      01002D01H   LINE      CODE     ---       #352
      01002D08H   LINE      CODE     ---       #353
      01002D0FH   LINE      CODE     ---       #354
      01002D0FH   LINE      CODE     ---       #355
      01002D0FH   LINE      CODE     ---       #358
      01002D17H   LINE      CODE     ---       #361
      01002D1FH   LINE      CODE     ---       #364
      01002D27H   LINE      CODE     ---       #367
      01002D32H   LINE      CODE     ---       #370
      01002D3AH   LINE      CODE     ---       #373
      01002D42H   LINE      CODE     ---       #376
      01002D4AH   LINE      CODE     ---       #379
      01002D52H   LINE      CODE     ---       #382
      01002D5AH   LINE      CODE     ---       #385
      01002D62H   LINE      CODE     ---       #388
      01002D6AH   LINE      CODE     ---       #391
      01002D72H   LINE      CODE     ---       #394
      01002D7AH   LINE      CODE     ---       #395
      01002D7AH   LINE      CODE     ---       #398
      01002D7DH   LINE      CODE     ---       #400
      01002D88H   LINE      CODE     ---       #401
      01002D88H   LINE      CODE     ---       #403
      01002D92H   LINE      CODE     ---       #405
      01002D94H   LINE      CODE     ---       #407
      01002DA3H   LINE      CODE     ---       #408
      01002DB6H   LINE      CODE     ---       #409
      01002DBCH   LINE      CODE     ---       #412
      01002DCEH   LINE      CODE     ---       #415
      01002DD5H   LINE      CODE     ---       #416
      01002DDDH   LINE      CODE     ---       #417
LX51 LINKER/LOCATER V4.66.41.0                                                        12/20/2018  14:37:19  PAGE 32


      01002DE1H   LINE      CODE     ---       #419
      01002DE5H   LINE      CODE     ---       #421
      01002DE5H   LINE      CODE     ---       #424
      01002DE5H   LINE      CODE     ---       #425
      01002DE5H   LINE      CODE     ---       #426
      01002DE7H   LINE      CODE     ---       #427
      01002DE7H   LINE      CODE     ---       #428
      01002DE7H   LINE      CODE     ---       #431
      01002DF8H   LINE      CODE     ---       #432
      01002DF8H   LINE      CODE     ---       #439
      01002DFDH   LINE      CODE     ---       #441
      01002E12H   LINE      CODE     ---       #443
      01002E12H   LINE      CODE     ---       #445
      01002E1DH   LINE      CODE     ---       #446
      01002E35H   LINE      CODE     ---       #447
      01002E41H   LINE      CODE     ---       #448
      01002E48H   LINE      CODE     ---       #449
      01002E4AH   LINE      CODE     ---       #450
      01002E50H   LINE      CODE     ---       #452
      01002E52H   LINE      CODE     ---       #454
      01002E52H   LINE      CODE     ---       #456
      01002E58H   LINE      CODE     ---       #458
      01002E6DH   LINE      CODE     ---       #460
      01002E79H   LINE      CODE     ---       #461
      01002E82H   LINE      CODE     ---       #463
      01002E84H   LINE      CODE     ---       #465
      01002E8BH   LINE      CODE     ---       #466
      01002E8DH   LINE      CODE     ---       #467
      01002E91H   LINE      CODE     ---       #468
      01002E91H   LINE      CODE     ---       #470
      01002E93H   LINE      CODE     ---       #472
      01002E99H   LINE      CODE     ---       #473
      01002E99H   LINE      CODE     ---       #475
      01002E9BH   LINE      CODE     ---       #477
      01002E9BH   LINE      CODE     ---       #479
      01002EA2H   LINE      CODE     ---       #480
      01002EA4H   LINE      CODE     ---       #481
      01002EA6H   LINE      CODE     ---       #482
      01002EAAH   LINE      CODE     ---       #484
      01002EACH   LINE      CODE     ---       #486
      01002EACH   LINE      CODE     ---       #488
      01002EAEH   LINE      CODE     ---       #490
      01002EAEH   LINE      CODE     ---       #491
      01002EAEH   LINE      CODE     ---       #492
      01002EAEH   LINE      CODE     ---       #495
      01002EBDH   LINE      CODE     ---       #497
      01002EC0H   LINE      CODE     ---       #499
      01002ECFH   LINE      CODE     ---       #500
      01002EDEH   LINE      CODE     ---       #501
      01002EEDH   LINE      CODE     ---       #503
      01002EFCH   LINE      CODE     ---       #504
      01002F0BH   LINE      CODE     ---       #505
      01002F1AH   LINE      CODE     ---       #507
      01002F29H   LINE      CODE     ---       #508
      01002F38H   LINE      CODE     ---       #509
      01002F47H   LINE      CODE     ---       #511
      01002F56H   LINE      CODE     ---       #512
      01002F65H   LINE      CODE     ---       #513
      01002F74H   LINE      CODE     ---       #514
      01002F77H   LINE      CODE     ---       #515
      01002F77H   LINE      CODE     ---       #517
      01002F79H   LINE      CODE     ---       #536
      01002F8AH   LINE      CODE     ---       #539
      01002FA6H   LINE      CODE     ---       #540
      01002FA8H   LINE      CODE     ---       #541
LX51 LINKER/LOCATER V4.66.41.0                                                        12/20/2018  14:37:19  PAGE 33


      01002FC4H   LINE      CODE     ---       #542
      01002FC6H   LINE      CODE     ---       #543
      01002FE2H   LINE      CODE     ---       #544
      01002FE4H   LINE      CODE     ---       #545
      01002FFCH   LINE      CODE     ---       #546
      01002FFEH   LINE      CODE     ---       #548
      01003001H   LINE      CODE     ---       #549
      0100300FH   LINE      CODE     ---       #552
      0100302BH   LINE      CODE     ---       #553
      0100302DH   LINE      CODE     ---       #554
      01003049H   LINE      CODE     ---       #555
      0100304BH   LINE      CODE     ---       #556
      01003067H   LINE      CODE     ---       #557
      01003069H   LINE      CODE     ---       #558
      01003081H   LINE      CODE     ---       #559
      01003083H   LINE      CODE     ---       #561
      01003086H   LINE      CODE     ---       #562
      01003094H   LINE      CODE     ---       #565
      010030B0H   LINE      CODE     ---       #566
      010030B2H   LINE      CODE     ---       #567
      010030CEH   LINE      CODE     ---       #568
      010030D0H   LINE      CODE     ---       #569
      010030ECH   LINE      CODE     ---       #570
      010030EEH   LINE      CODE     ---       #571
      01003105H   LINE      CODE     ---       #572
      01003107H   LINE      CODE     ---       #573
      01003107H   LINE      CODE     ---       #575
      01003107H   LINE      CODE     ---       #576
      ---         BLOCKEND  ---      ---       LVL=0

      ---         MODULE    ---      ---       DATAMANAGE
      00000026H.2 PUBLIC    BIT      BIT       deviceLock_flag
      0000001EH   PUBLIC    DATA     BYTE      SWITCH_TYPE
      02000686H   PUBLIC    XDATA    ---       log_buf
      0000001DH   PUBLIC    DATA     BYTE      DEV_actReserve
      02000680H   PUBLIC    XDATA    ---       MAC_ID
      0200067FH   PUBLIC    XDATA    BYTE      loopInsert_relayStatusRealTime_record
      0000001AH   PUBLIC    DATA     ---       CTRLEATHER_PORT
      00000018H   PUBLIC    DATA     WORD      dev_currentPanid
      02000679H   PUBLIC    XDATA    ---       MAC_ID_DST
      010066CEH   PUBLIC    CODE     ---       devDataRecovery_relayStatus
      0100726DH   PUBLIC    CODE     ---       _devParamDtaaSave_relayStatusRealTime
      01007706H   PUBLIC    CODE     ---       birthDay_Judge
      01006616H   PUBLIC    CODE     ---       Factory_recover
      01007747H   PUBLIC    CODE     ---       switchTypeReserve_GET
      01007881H   PUBLIC    CODE     ---       portCtrlEachOther_Reales
      01006B32H   PUBLIC    CODE     ---       MAC_ID_Relaes
      000000D8H.2 SFRSYM    DATA     BIT       CCF2
      000000E0H.7 SFRSYM    DATA     BIT       ACC7
      00000093H   SFRSYM    DATA     BYTE      P0M1
      00000092H   SFRSYM    DATA     BYTE      P1M0
      00000096H   SFRSYM    DATA     BYTE      P2M0
      00000091H   SFRSYM    DATA     BYTE      P1M1
      00000080H   SFRSYM    DATA     BYTE      P0
      000000B2H   SFRSYM    DATA     BYTE      P3M0
      00000095H   SFRSYM    DATA     BYTE      P2M1
      00000090H   SFRSYM    DATA     BYTE      P1
      000000B4H   SFRSYM    DATA     BYTE      P4M0
      000000B1H   SFRSYM    DATA     BYTE      P3M1
      000000A0H   SFRSYM    DATA     BYTE      P2
      000000CAH   SFRSYM    DATA     BYTE      P5M0
      000000B3H   SFRSYM    DATA     BYTE      P4M1
      000000B0H   SFRSYM    DATA     BYTE      P3
      000000ABH   SFRSYM    DATA     BYTE      WKTCH
      000000B0H.4 SFRSYM    DATA     BIT       T0
LX51 LINKER/LOCATER V4.66.41.0                                                        12/20/2018  14:37:19  PAGE 34


      000000D0H.6 SFRSYM    DATA     BIT       AC
      000000CCH   SFRSYM    DATA     BYTE      P6M0
      000000C9H   SFRSYM    DATA     BYTE      P5M1
      000000C0H   SFRSYM    DATA     BYTE      P4
      000000B0H.5 SFRSYM    DATA     BIT       CLKOUT0
      000000B0H.5 SFRSYM    DATA     BIT       T1
      000000E2H   SFRSYM    DATA     BYTE      P7M0
      000000CBH   SFRSYM    DATA     BYTE      P6M1
      000000C8H   SFRSYM    DATA     BYTE      P5
      000000C6H   SFRSYM    DATA     BYTE      ISP_TRIG
      000000A8H.7 SFRSYM    DATA     BIT       EA
      000000B0H.4 SFRSYM    DATA     BIT       CLKOUT1
      000000A0H.4 SFRSYM    DATA     BIT       SPI_SS_2
      000000E8H   SFRSYM    DATA     BYTE      P6
      000000E1H   SFRSYM    DATA     BYTE      P7M1
      000000C8H.4 SFRSYM    DATA     BIT       SPI_SS_3
      00000090H.4 SFRSYM    DATA     BIT       SPI_MISO
      00000090H.3 SFRSYM    DATA     BIT       SPI_MOSI
      00000090H.1 SFRSYM    DATA     BIT       CCP0
      000000F8H   SFRSYM    DATA     BYTE      P7
      000000AAH   SFRSYM    DATA     BYTE      WKTCL
      00000090H   SFRSYM    DATA     BIT       CCP1
      000000CEH   SFRSYM    DATA     BYTE      SPCTL
      000000D8H.7 SFRSYM    DATA     BIT       CF
      000000B0H.7 SFRSYM    DATA     BIT       CCP2
      000000F9H   SFRSYM    DATA     BYTE      CH
      000000A2H   SFRSYM    DATA     BYTE      P_SW1
      000000BAH   SFRSYM    DATA     BYTE      P_SW2
      000000A8H.5 SFRSYM    DATA     BIT       EADC
      000000A0H.1 SFRSYM    DATA     BIT       SPI_SCLK_2
      000000A8H   SFRSYM    DATA     BYTE      IE
      000000C0H.3 SFRSYM    DATA     BIT       SPI_SCLK_3
      000000E9H   SFRSYM    DATA     BYTE      CL
      000000C5H   SFRSYM    DATA     BYTE      IAP_CMD
      000000FAH   SFRSYM    DATA     BYTE      CCAP0H
      000000FBH   SFRSYM    DATA     BYTE      CCAP1H
      000000FCH   SFRSYM    DATA     BYTE      CCAP2H
      000000BDH   SFRSYM    DATA     BYTE      ADC_RES
      000000B6H   SFRSYM    DATA     BYTE      IPH2
      000000D8H.6 SFRSYM    DATA     BIT       CR
      000000EAH   SFRSYM    DATA     BYTE      CCAP0L
      000000B0H.7 SFRSYM    DATA     BIT       RD
      000000EBH   SFRSYM    DATA     BYTE      CCAP1L
      000000DAH   SFRSYM    DATA     BYTE      CCAPM0
      000000ECH   SFRSYM    DATA     BYTE      CCAP2L
      000000DBH   SFRSYM    DATA     BYTE      CCAPM1
      000000A8H.4 SFRSYM    DATA     BIT       ES
      000000DCH   SFRSYM    DATA     BYTE      CCAPM2
      000000B8H.5 SFRSYM    DATA     BIT       PADC
      000000A0H.2 SFRSYM    DATA     BIT       SPI_MISO_2
      000000A0H.3 SFRSYM    DATA     BIT       SPI_MOSI_2
      000000B8H   SFRSYM    DATA     BYTE      IP
      000000C0H.1 SFRSYM    DATA     BIT       SPI_MISO_3
      000000C0H   SFRSYM    DATA     BIT       SPI_MOSI_3
      00000098H   SFRSYM    DATA     BIT       RI
      000000B0H.2 SFRSYM    DATA     BIT       INT0
      000000D0H.7 SFRSYM    DATA     BIT       CY
      00000098H.1 SFRSYM    DATA     BIT       TI
      000000B0H.3 SFRSYM    DATA     BIT       INT1
      00000097H   SFRSYM    DATA     BYTE      CLK_DIV
      000000C3H   SFRSYM    DATA     BYTE      IAP_ADDRH
      00000090H   SFRSYM    DATA     BIT       RXD2
      000000C5H   SFRSYM    DATA     BYTE      ISP_CMD
      000000B8H.4 SFRSYM    DATA     BIT       PS
      00000090H.1 SFRSYM    DATA     BIT       TXD2
LX51 LINKER/LOCATER V4.66.41.0                                                        12/20/2018  14:37:19  PAGE 35


      00000081H   SFRSYM    DATA     BYTE      SP
      000000D9H   SFRSYM    DATA     BYTE      CMOD
      000000D8H   SFRSYM    DATA     BYTE      CCON
      000000C4H   SFRSYM    DATA     BYTE      IAP_ADDRL
      000000B8H.7 SFRSYM    DATA     BIT       PPCA
      000000D0H.2 SFRSYM    DATA     BIT       OV
      000000B0H.6 SFRSYM    DATA     BIT       WR
      000000A8H.6 SFRSYM    DATA     BIT       ELVD
      00000080H   SFRSYM    DATA     BIT       P00
      00000090H   SFRSYM    DATA     BIT       P10
      00000080H.1 SFRSYM    DATA     BIT       P01
      000000BCH   SFRSYM    DATA     BYTE      ADC_CONTR
      00000099H   SFRSYM    DATA     BYTE      SBUF
      00000087H   SFRSYM    DATA     BYTE      PCON
      000000A0H   SFRSYM    DATA     BIT       P20
      00000090H.1 SFRSYM    DATA     BIT       P11
      00000080H.2 SFRSYM    DATA     BIT       P02
      000000C3H   SFRSYM    DATA     BYTE      ISP_ADDRH
      000000B0H   SFRSYM    DATA     BIT       P30
      000000A0H.1 SFRSYM    DATA     BIT       P21
      00000090H.2 SFRSYM    DATA     BIT       P12
      00000080H.3 SFRSYM    DATA     BIT       P03
      000000C0H   SFRSYM    DATA     BIT       P40
      000000B0H.1 SFRSYM    DATA     BIT       P31
      000000A0H.2 SFRSYM    DATA     BIT       P22
      00000090H.3 SFRSYM    DATA     BIT       P13
      00000080H.4 SFRSYM    DATA     BIT       P04
      00000098H   SFRSYM    DATA     BYTE      SCON
      0000008FH   SFRSYM    DATA     BYTE      WAKE_CLKO
      000000C8H   SFRSYM    DATA     BIT       P50
      000000C0H.1 SFRSYM    DATA     BIT       P41
      000000B0H.2 SFRSYM    DATA     BIT       P32
      000000A0H.3 SFRSYM    DATA     BIT       P23
      00000090H.4 SFRSYM    DATA     BIT       P14
      00000080H.5 SFRSYM    DATA     BIT       P05
      00000089H   SFRSYM    DATA     BYTE      TMOD
      00000088H   SFRSYM    DATA     BYTE      TCON
      000000C8H.1 SFRSYM    DATA     BIT       P51
      000000C0H.2 SFRSYM    DATA     BIT       P42
      000000B0H.3 SFRSYM    DATA     BIT       P33
      000000A0H.4 SFRSYM    DATA     BIT       P24
      00000090H.5 SFRSYM    DATA     BIT       P15
      00000080H.6 SFRSYM    DATA     BIT       P06
      000000C4H   SFRSYM    DATA     BYTE      ISP_ADDRL
      000000B8H.6 SFRSYM    DATA     BIT       PLVD
      000000C8H.2 SFRSYM    DATA     BIT       P52
      000000C0H.3 SFRSYM    DATA     BIT       P43
      000000B0H.4 SFRSYM    DATA     BIT       P34
      000000A0H.5 SFRSYM    DATA     BIT       P25
      00000090H.6 SFRSYM    DATA     BIT       P16
      00000080H.7 SFRSYM    DATA     BIT       P07
      000000C8H.3 SFRSYM    DATA     BIT       P53
      000000C0H.4 SFRSYM    DATA     BIT       P44
      000000B0H.5 SFRSYM    DATA     BIT       P35
      000000A0H.6 SFRSYM    DATA     BIT       P26
      00000090H.7 SFRSYM    DATA     BIT       P17
      000000C8H.4 SFRSYM    DATA     BIT       P54
      000000C0H.5 SFRSYM    DATA     BIT       P45
      000000B0H.6 SFRSYM    DATA     BIT       P36
      000000A0H.7 SFRSYM    DATA     BIT       P27
      000000C8H.5 SFRSYM    DATA     BIT       P55
      000000C0H.6 SFRSYM    DATA     BIT       P46
      000000B0H.7 SFRSYM    DATA     BIT       P37
      000000C8H.6 SFRSYM    DATA     BIT       P56
      000000C0H.7 SFRSYM    DATA     BIT       P47
LX51 LINKER/LOCATER V4.66.41.0                                                        12/20/2018  14:37:19  PAGE 36


      000000C8H.7 SFRSYM    DATA     BIT       P57
      00000088H.1 SFRSYM    DATA     BIT       IE0
      000000A1H   SFRSYM    DATA     BYTE      BUS_SPEED
      00000088H.3 SFRSYM    DATA     BIT       IE1
      000000AFH   SFRSYM    DATA     BYTE      IE2
      000000F0H   SFRSYM    DATA     BYTE      B
      0000008EH   SFRSYM    DATA     BYTE      AUXR
      000000C7H   SFRSYM    DATA     BYTE      IAP_CONTR
      000000E0H   SFRSYM    DATA     BYTE      ACC
      000000A8H.1 SFRSYM    DATA     BIT       ET0
      000000A8H.3 SFRSYM    DATA     BIT       ET1
      00000088H.5 SFRSYM    DATA     BIT       TF0
      00000088H.7 SFRSYM    DATA     BIT       TF1
      000000B5H   SFRSYM    DATA     BYTE      IP2
      0000008CH   SFRSYM    DATA     BYTE      RL_TH0
      00000098H.2 SFRSYM    DATA     BIT       RB8
      0000008DH   SFRSYM    DATA     BYTE      RL_TH1
      0000008CH   SFRSYM    DATA     BYTE      TH0
      000000A8H   SFRSYM    DATA     BIT       EX0
      00000088H   SFRSYM    DATA     BIT       IT0
      000000D6H   SFRSYM    DATA     BYTE      RL_T2H
      0000008DH   SFRSYM    DATA     BYTE      TH1
      000000A8H.2 SFRSYM    DATA     BIT       EX1
      00000098H.3 SFRSYM    DATA     BIT       TB8
      00000088H.2 SFRSYM    DATA     BIT       IT1
      000000D4H   SFRSYM    DATA     BYTE      RL_T3H
      000000D6H   SFRSYM    DATA     BYTE      TH2
      000000D6H   SFRSYM    DATA     BYTE      T2H
      000000D0H   SFRSYM    DATA     BIT       P
      000000D2H   SFRSYM    DATA     BYTE      RL_T4H
      000000D4H   SFRSYM    DATA     BYTE      TH3
      000000D4H   SFRSYM    DATA     BYTE      T3H
      0000008AH   SFRSYM    DATA     BYTE      RL_TL0
      00000098H.7 SFRSYM    DATA     BIT       SM0
      000000D2H   SFRSYM    DATA     BYTE      TH4
      000000D2H   SFRSYM    DATA     BYTE      T4H
      0000008BH   SFRSYM    DATA     BYTE      RL_TL1
      0000008AH   SFRSYM    DATA     BYTE      TL0
      00000098H.6 SFRSYM    DATA     BIT       SM1
      000000D7H   SFRSYM    DATA     BYTE      RL_T2L
      0000008BH   SFRSYM    DATA     BYTE      TL1
      00000098H.5 SFRSYM    DATA     BIT       SM2
      000000D5H   SFRSYM    DATA     BYTE      RL_T3L
      000000D7H   SFRSYM    DATA     BYTE      TL2
      000000D7H   SFRSYM    DATA     BYTE      T2L
      000000D3H   SFRSYM    DATA     BYTE      RL_T4L
      000000D5H   SFRSYM    DATA     BYTE      TL3
      000000D5H   SFRSYM    DATA     BYTE      T3L
      000000B8H.1 SFRSYM    DATA     BIT       PT0
      000000D3H   SFRSYM    DATA     BYTE      TL4
      000000D3H   SFRSYM    DATA     BYTE      T4L
      000000B8H.3 SFRSYM    DATA     BIT       PT1
      000000D0H.3 SFRSYM    DATA     BIT       RS0
      000000C7H   SFRSYM    DATA     BYTE      ISP_CONTR
      00000088H.4 SFRSYM    DATA     BIT       TR0
      000000D0H.4 SFRSYM    DATA     BIT       RS1
      000000C2H   SFRSYM    DATA     BYTE      IAP_DATA
      00000088H.6 SFRSYM    DATA     BIT       TR1
      000000B8H   SFRSYM    DATA     BIT       PX0
      000000C1H   SFRSYM    DATA     BYTE      WDT_CONTR
      000000B8H.2 SFRSYM    DATA     BIT       PX1
      000000F2H   SFRSYM    DATA     BYTE      PCA_PWM0
      000000F3H   SFRSYM    DATA     BYTE      PCA_PWM1
      000000F4H   SFRSYM    DATA     BYTE      PCA_PWM2
      0000009DH   SFRSYM    DATA     BYTE      P1ASF
LX51 LINKER/LOCATER V4.66.41.0                                                        12/20/2018  14:37:19  PAGE 37


      00000083H   SFRSYM    DATA     BYTE      DPH
      000000D1H   SFRSYM    DATA     BYTE      T4T3M
      000000BEH   SFRSYM    DATA     BYTE      ADC_RESL
      00000082H   SFRSYM    DATA     BYTE      DPL
      000000CDH   SFRSYM    DATA     BYTE      SPSTAT
      000000B7H   SFRSYM    DATA     BYTE      IPH
      0000009BH   SFRSYM    DATA     BYTE      S2BUF
      00000097H   SFRSYM    DATA     BYTE      PCON2
      000000ADH   SFRSYM    DATA     BYTE      S3BUF
      00000098H.4 SFRSYM    DATA     BIT       REN
      00000085H   SFRSYM    DATA     BYTE      S4BUF
      0000009AH   SFRSYM    DATA     BYTE      S2CON
      000000ACH   SFRSYM    DATA     BYTE      S3CON
      000000C2H   SFRSYM    DATA     BYTE      ISP_DATA
      00000084H   SFRSYM    DATA     BYTE      S4CON
      000000B9H   SFRSYM    DATA     BYTE      SADEN
      000000B0H   SFRSYM    DATA     BIT       RXD
      000000A9H   SFRSYM    DATA     BYTE      SADDR
      000000B0H.1 SFRSYM    DATA     BIT       TXD
      000000F0H   SFRSYM    DATA     BIT       B0
      000000F0H.1 SFRSYM    DATA     BIT       B1
      000000C6H   SFRSYM    DATA     BYTE      IAP_TRIG
      000000A2H   SFRSYM    DATA     BYTE      AUXR1
      000000F0H.2 SFRSYM    DATA     BIT       B2
      00000090H.2 SFRSYM    DATA     BIT       SPI_SS
      0000008FH   SFRSYM    DATA     BYTE      AUXR2
      000000F0H.3 SFRSYM    DATA     BIT       B3
      000000F0H.4 SFRSYM    DATA     BIT       B4
      000000D0H.5 SFRSYM    DATA     BIT       F0
      000000F0H.5 SFRSYM    DATA     BIT       B5
      000000D0H.1 SFRSYM    DATA     BIT       F1
      0000008FH   SFRSYM    DATA     BYTE      INT_CLKO
      000000F0H.6 SFRSYM    DATA     BIT       B6
      000000E0H   SFRSYM    DATA     BIT       ACC0
      000000F0H.7 SFRSYM    DATA     BIT       B7
      000000E0H.1 SFRSYM    DATA     BIT       ACC1
      000000E0H.2 SFRSYM    DATA     BIT       ACC2
      000000E0H.3 SFRSYM    DATA     BIT       ACC3
      000000D0H   SFRSYM    DATA     BYTE      PSW
      000000E0H.4 SFRSYM    DATA     BIT       ACC4
      00000090H.5 SFRSYM    DATA     BIT       SPI_SCLK
      000000D8H   SFRSYM    DATA     BIT       CCF0
      000000E0H.5 SFRSYM    DATA     BIT       ACC5
      000000D8H.1 SFRSYM    DATA     BIT       CCF1
      000000E0H.6 SFRSYM    DATA     BIT       ACC6
      000000CFH   SFRSYM    DATA     BYTE      SPDAT
      00000094H   SFRSYM    DATA     BYTE      P0M0
      010056F9H   SYMBOL    CODE     ---       _?ix1000
      01005779H   SYMBOL    CODE     ---       _?ix1001
      010057DDH   SYMBOL    CODE     ---       _?ix1002

      01006B32H   BLOCK     CODE     ---       LVL=0
      01006B32H   BLOCK     CODE     NEAR LAB  LVL=1
      00000006H   SYMBOL    DATA     ---       id_ptr
      ---         BLOCKEND  ---      ---       LVL=1
      01006B32H   LINE      CODE     ---       #47
      01006B32H   LINE      CODE     ---       #49
      01006B36H   LINE      CODE     ---       #51
      01006B4FH   LINE      CODE     ---       #54
      01006B4FH   LINE      CODE     ---       #56
      01006B5EH   LINE      CODE     ---       #58
      01006B87H   LINE      CODE     ---       #59
      01006B90H   LINE      CODE     ---       #60
      01006BB9H   LINE      CODE     ---       #61
      ---         BLOCKEND  ---      ---       LVL=0
LX51 LINKER/LOCATER V4.66.41.0                                                        12/20/2018  14:37:19  PAGE 38



      01007881H   BLOCK     CODE     ---       LVL=0
      01007881H   LINE      CODE     ---       #69
      01007881H   LINE      CODE     ---       #71
      ---         BLOCKEND  ---      ---       LVL=0

      01007747H   BLOCK     CODE     ---       LVL=0
      01007747H   BLOCK     CODE     NEAR LAB  LVL=1
      00000007H   SYMBOL    DATA     BYTE      act_Reserve
      ---         BLOCKEND  ---      ---       LVL=1
      01007747H   LINE      CODE     ---       #84
      01007747H   LINE      CODE     ---       #86
      01007749H   LINE      CODE     ---       #95
      0100775AH   LINE      CODE     ---       #97
      0100775AH   LINE      CODE     ---       #99
      0100775CH   LINE      CODE     ---       #101
      0100775EH   LINE      CODE     ---       #103
      0100775EH   LINE      CODE     ---       #105
      01007760H   LINE      CODE     ---       #107
      01007762H   LINE      CODE     ---       #109
      01007762H   LINE      CODE     ---       #110
      01007762H   LINE      CODE     ---       #112
      01007764H   LINE      CODE     ---       #114
      01007764H   LINE      CODE     ---       #115
      01007764H   LINE      CODE     ---       #119
      01007764H   LINE      CODE     ---       #120
      ---         BLOCKEND  ---      ---       LVL=0

      01006616H   BLOCK     CODE     ---       LVL=0
      01006616H   BLOCK     CODE     NEAR LAB  LVL=1
      02000212H   SYMBOL    XDATA    ---       datsTemp
      ---         BLOCKEND  ---      ---       LVL=1
      01006616H   LINE      CODE     ---       #222
      01006616H   LINE      CODE     ---       #224
      01006629H   LINE      CODE     ---       #226
      0100663BH   LINE      CODE     ---       #227
      01006641H   LINE      CODE     ---       #228
      01006654H   LINE      CODE     ---       #230
      0100665AH   LINE      CODE     ---       #231
      0100666DH   LINE      CODE     ---       #232
      01006673H   LINE      CODE     ---       #233
      01006686H   LINE      CODE     ---       #235
      0100668CH   LINE      CODE     ---       #236
      0100669FH   LINE      CODE     ---       #238
      010066A4H   LINE      CODE     ---       #239
      010066B5H   LINE      CODE     ---       #241
      010066C4H   LINE      CODE     ---       #243
      010066CBH   LINE      CODE     ---       #245
      ---         BLOCKEND  ---      ---       LVL=0

      01007706H   BLOCK     CODE     ---       LVL=0
      01007706H   BLOCK     CODE     NEAR LAB  LVL=1
      02000000H   SYMBOL    XDATA    BYTE      datsTemp
      ---         BLOCKEND  ---      ---       LVL=1
      01007706H   LINE      CODE     ---       #248
      01007706H   LINE      CODE     ---       #250
      0100770BH   LINE      CODE     ---       #252
      0100771CH   LINE      CODE     ---       #253
      01007724H   LINE      CODE     ---       #255
      01007727H   LINE      CODE     ---       #256
      01007727H   LINE      CODE     ---       #257
      ---         BLOCKEND  ---      ---       LVL=0

      0100726DH   BLOCK     CODE     ---       LVL=0
      0000002AH   SYMBOL    DATA     BYTE      currentRelayStatus
LX51 LINKER/LOCATER V4.66.41.0                                                        12/20/2018  14:37:19  PAGE 39


      0100726FH   BLOCK     CODE     NEAR LAB  LVL=1
      02000000H   SYMBOL    XDATA    ---       dataRead_temp
      ---         BLOCKEND  ---      ---       LVL=1
      0100726DH   LINE      CODE     ---       #260
      0100726FH   LINE      CODE     ---       #262
      01007282H   LINE      CODE     ---       #264
      0100728BH   LINE      CODE     ---       #266
      0100728DH   LINE      CODE     ---       #267
      01007293H   LINE      CODE     ---       #268
      01007293H   LINE      CODE     ---       #270
      010072A7H   LINE      CODE     ---       #272
      ---         BLOCKEND  ---      ---       LVL=0

      010066CEH   BLOCK     CODE     ---       LVL=0
      010066CEH   BLOCK     CODE     NEAR LAB  LVL=1
      02000040H   SYMBOL    XDATA    ---       dataRead_temp
      020000A4H   SYMBOL    XDATA    BYTE      loop
      020000A5H   SYMBOL    XDATA    BYTE      res
      ---         BLOCKEND  ---      ---       LVL=1
      010066CEH   LINE      CODE     ---       #275
      010066CEH   LINE      CODE     ---       #277
      010066E1H   LINE      CODE     ---       #278
      010066E6H   LINE      CODE     ---       #279
      010066E8H   LINE      CODE     ---       #281
      010066F9H   LINE      CODE     ---       #283
      01006708H   LINE      CODE     ---       #285
      01006716H   LINE      CODE     ---       #287
      0100672FH   LINE      CODE     ---       #289
      0100672FH   LINE      CODE     ---       #291
      0100673EH   LINE      CODE     ---       #293
      01006760H   LINE      CODE     ---       #294
      01006769H   LINE      CODE     ---       #295
      01006769H   LINE      CODE     ---       #297
      0100676BH   LINE      CODE     ---       #298
      0100676BH   LINE      CODE     ---       #299
      01006773H   LINE      CODE     ---       #301
      0100677AH   LINE      CODE     ---       #303
      0100677FH   LINE      CODE     ---       #304
      ---         BLOCKEND  ---      ---       LVL=0

      ---         MODULE    ---      ---       TIPS
      0000006FH   PUBLIC    DATA     BYTE      tipsInsert_swLedBKG_ON
      02000706H   PUBLIC    XDATA    BYTE      tipsTimeCount_touchReset
      0000006EH   PUBLIC    DATA     BYTE      devTips_status
      02000703H   PUBLIC    XDATA    ---       zigbNwk_Tips
      02000700H   PUBLIC    XDATA    ---       devTips_beep
      020006FFH   PUBLIC    XDATA    BYTE      counter_ifTipsFree
      020006FCH   PUBLIC    XDATA    ---       relay3_Tips
      020006F9H   PUBLIC    XDATA    ---       relay2_Tips
      020006F8H   PUBLIC    XDATA    BYTE      tipsTimeCount_zigNwkOpen
      020006F5H   PUBLIC    XDATA    ---       relay1_Tips
      020006F3H   PUBLIC    XDATA    WORD      counter_tipsAct
      020006F2H   PUBLIC    XDATA    BYTE      dev_statusBeeps
      0000006DH   PUBLIC    DATA     BYTE      tipsInsert_swLedBKG_OFF
      0000006CH   PUBLIC    DATA     BYTE      devTips_nwkZigb
      020006F1H   PUBLIC    XDATA    BYTE      tipsTimeCount_factoryRecover
      00000025H.2 PUBLIC    BIT      BIT       countEN_ifTipsFree
      00000025H.1 PUBLIC    BIT      BIT       ifHorsingLight_running_FLAG
      010071F1H   PUBLIC    CODE     ---       color_Tab
      010071EEH   PUBLIC    CODE     ---       tips_relayUnused
      010049BFH   PUBLIC    CODE     ---       tips_sysButtonReales
      01007783H   PUBLIC    CODE     ---       tips_sysStandBy
      010072BDH   PUBLIC    CODE     ---       tips_sysTouchReset
      010052AEH   PUBLIC    CODE     ---       _tips_specified
      0100682FH   PUBLIC    CODE     ---       tips_warning
LX51 LINKER/LOCATER V4.66.41.0                                                        12/20/2018  14:37:19  PAGE 40


      00000028H   PUBLIC    DATA     BYTE      ?_tipsLED_colorSet?BYTE
      01006C65H   PUBLIC    CODE     ---       _tipsLED_colorSet
      01003EC1H   PUBLIC    CODE     ---       thread_Tips
      01007817H   PUBLIC    CODE     ---       _tips_statusChangeToFactoryRecover
      01007801H   PUBLIC    CODE     ---       _tips_statusChangeToTouchReset
      01007913H   PUBLIC    CODE     ---       tips_statusChangeToZigbNwkFind
      0100782DH   PUBLIC    CODE     ---       _tips_statusChangeToZigbNwkOpen
      010077D1H   PUBLIC    CODE     ---       tips_statusChangeToNormal
      01006F61H   PUBLIC    CODE     ---       _thread_tipsGetDark
      01007626H   PUBLIC    CODE     ---       _beeps_usrActive
      01007167H   PUBLIC    CODE     ---       ledBKGColorSw_Reales
      01000003H   PUBLIC    CODE     ---       pinBeep_Init
      010074BDH   PUBLIC    CODE     ---       tipLED_pinInit
      000000D8H.2 SFRSYM    DATA     BIT       CCF2
      000000E0H.7 SFRSYM    DATA     BIT       ACC7
      00000093H   SFRSYM    DATA     BYTE      P0M1
      00000092H   SFRSYM    DATA     BYTE      P1M0
      00000096H   SFRSYM    DATA     BYTE      P2M0
      00000091H   SFRSYM    DATA     BYTE      P1M1
      00000080H   SFRSYM    DATA     BYTE      P0
      000000B2H   SFRSYM    DATA     BYTE      P3M0
      00000095H   SFRSYM    DATA     BYTE      P2M1
      00000090H   SFRSYM    DATA     BYTE      P1
      000000B4H   SFRSYM    DATA     BYTE      P4M0
      000000B1H   SFRSYM    DATA     BYTE      P3M1
      000000A0H   SFRSYM    DATA     BYTE      P2
      000000CAH   SFRSYM    DATA     BYTE      P5M0
      000000B3H   SFRSYM    DATA     BYTE      P4M1
      000000B0H   SFRSYM    DATA     BYTE      P3
      000000ABH   SFRSYM    DATA     BYTE      WKTCH
      000000B0H.4 SFRSYM    DATA     BIT       T0
      000000D0H.6 SFRSYM    DATA     BIT       AC
      000000CCH   SFRSYM    DATA     BYTE      P6M0
      000000C9H   SFRSYM    DATA     BYTE      P5M1
      000000C0H   SFRSYM    DATA     BYTE      P4
      000000B0H.5 SFRSYM    DATA     BIT       CLKOUT0
      000000B0H.5 SFRSYM    DATA     BIT       T1
      000000E2H   SFRSYM    DATA     BYTE      P7M0
      000000CBH   SFRSYM    DATA     BYTE      P6M1
      000000C8H   SFRSYM    DATA     BYTE      P5
      000000C6H   SFRSYM    DATA     BYTE      ISP_TRIG
      000000A8H.7 SFRSYM    DATA     BIT       EA
      000000B0H.4 SFRSYM    DATA     BIT       CLKOUT1
      000000A0H.4 SFRSYM    DATA     BIT       SPI_SS_2
      000000E8H   SFRSYM    DATA     BYTE      P6
      000000E1H   SFRSYM    DATA     BYTE      P7M1
      000000C8H.4 SFRSYM    DATA     BIT       SPI_SS_3
      00000090H.4 SFRSYM    DATA     BIT       SPI_MISO
      00000090H.3 SFRSYM    DATA     BIT       SPI_MOSI
      00000090H.1 SFRSYM    DATA     BIT       CCP0
      000000F8H   SFRSYM    DATA     BYTE      P7
      000000AAH   SFRSYM    DATA     BYTE      WKTCL
      00000090H   SFRSYM    DATA     BIT       CCP1
      000000CEH   SFRSYM    DATA     BYTE      SPCTL
      000000D8H.7 SFRSYM    DATA     BIT       CF
      000000B0H.7 SFRSYM    DATA     BIT       CCP2
      000000F9H   SFRSYM    DATA     BYTE      CH
      000000A2H   SFRSYM    DATA     BYTE      P_SW1
      000000BAH   SFRSYM    DATA     BYTE      P_SW2
      000000A8H.5 SFRSYM    DATA     BIT       EADC
      000000A0H.1 SFRSYM    DATA     BIT       SPI_SCLK_2
      000000A8H   SFRSYM    DATA     BYTE      IE
      000000C0H.3 SFRSYM    DATA     BIT       SPI_SCLK_3
      000000E9H   SFRSYM    DATA     BYTE      CL
      000000C5H   SFRSYM    DATA     BYTE      IAP_CMD
LX51 LINKER/LOCATER V4.66.41.0                                                        12/20/2018  14:37:19  PAGE 41


      000000FAH   SFRSYM    DATA     BYTE      CCAP0H
      00000090H   SFRSYM    DATA     BIT       Dcode0
      000000FBH   SFRSYM    DATA     BYTE      CCAP1H
      00000090H.1 SFRSYM    DATA     BIT       Dcode1
      000000FCH   SFRSYM    DATA     BYTE      CCAP2H
      00000090H.2 SFRSYM    DATA     BIT       Dcode2
      000000BDH   SFRSYM    DATA     BYTE      ADC_RES
      000000B6H   SFRSYM    DATA     BYTE      IPH2
      00000090H.3 SFRSYM    DATA     BIT       Dcode3
      000000D8H.6 SFRSYM    DATA     BIT       CR
      000000EAH   SFRSYM    DATA     BYTE      CCAP0L
      00000090H.4 SFRSYM    DATA     BIT       Dcode4
      000000B0H.7 SFRSYM    DATA     BIT       RD
      000000EBH   SFRSYM    DATA     BYTE      CCAP1L
      000000DAH   SFRSYM    DATA     BYTE      CCAPM0
      00000090H.3 SFRSYM    DATA     BIT       Dcode5
      000000ECH   SFRSYM    DATA     BYTE      CCAP2L
      000000DBH   SFRSYM    DATA     BYTE      CCAPM1
      000000A8H.4 SFRSYM    DATA     BIT       ES
      000000DCH   SFRSYM    DATA     BYTE      CCAPM2
      000000B8H.5 SFRSYM    DATA     BIT       PADC
      000000A0H.2 SFRSYM    DATA     BIT       SPI_MISO_2
      000000A0H.3 SFRSYM    DATA     BIT       SPI_MOSI_2
      000000B8H   SFRSYM    DATA     BYTE      IP
      000000C0H.1 SFRSYM    DATA     BIT       SPI_MISO_3
      000000C0H   SFRSYM    DATA     BIT       SPI_MOSI_3
      00000098H   SFRSYM    DATA     BIT       RI
      000000B0H.2 SFRSYM    DATA     BIT       INT0
      000000D0H.7 SFRSYM    DATA     BIT       CY
      00000098H.1 SFRSYM    DATA     BIT       TI
      000000B0H.3 SFRSYM    DATA     BIT       INT1
      00000097H   SFRSYM    DATA     BYTE      CLK_DIV
      000000C3H   SFRSYM    DATA     BYTE      IAP_ADDRH
      00000090H   SFRSYM    DATA     BIT       RXD2
      000000C5H   SFRSYM    DATA     BYTE      ISP_CMD
      000000B8H.4 SFRSYM    DATA     BIT       PS
      00000090H.1 SFRSYM    DATA     BIT       TXD2
      00000081H   SFRSYM    DATA     BYTE      SP
      000000D9H   SFRSYM    DATA     BYTE      CMOD
      000000D8H   SFRSYM    DATA     BYTE      CCON
      000000C4H   SFRSYM    DATA     BYTE      IAP_ADDRL
      000000B8H.7 SFRSYM    DATA     BIT       PPCA
      000000D0H.2 SFRSYM    DATA     BIT       OV
      000000B0H.6 SFRSYM    DATA     BIT       WR
      000000A8H.6 SFRSYM    DATA     BIT       ELVD
      00000080H   SFRSYM    DATA     BIT       P00
      00000090H   SFRSYM    DATA     BIT       P10
      00000080H.1 SFRSYM    DATA     BIT       P01
      000000BCH   SFRSYM    DATA     BYTE      ADC_CONTR
      00000099H   SFRSYM    DATA     BYTE      SBUF
      00000087H   SFRSYM    DATA     BYTE      PCON
      000000A0H   SFRSYM    DATA     BIT       P20
      00000090H.1 SFRSYM    DATA     BIT       P11
      00000080H.2 SFRSYM    DATA     BIT       P02
      000000C3H   SFRSYM    DATA     BYTE      ISP_ADDRH
      000000B0H   SFRSYM    DATA     BIT       P30
      000000A0H.1 SFRSYM    DATA     BIT       P21
      00000090H.2 SFRSYM    DATA     BIT       P12
      00000080H.3 SFRSYM    DATA     BIT       P03
      000000C0H   SFRSYM    DATA     BIT       P40
      000000B0H.1 SFRSYM    DATA     BIT       P31
      000000A0H.2 SFRSYM    DATA     BIT       P22
      00000090H.3 SFRSYM    DATA     BIT       P13
      00000080H.4 SFRSYM    DATA     BIT       P04
      00000098H   SFRSYM    DATA     BYTE      SCON
LX51 LINKER/LOCATER V4.66.41.0                                                        12/20/2018  14:37:19  PAGE 42


      0000008FH   SFRSYM    DATA     BYTE      WAKE_CLKO
      000000C8H   SFRSYM    DATA     BIT       P50
      000000C0H.1 SFRSYM    DATA     BIT       P41
      000000B0H.2 SFRSYM    DATA     BIT       P32
      000000A0H.3 SFRSYM    DATA     BIT       P23
      00000090H.4 SFRSYM    DATA     BIT       P14
      00000080H.5 SFRSYM    DATA     BIT       P05
      00000089H   SFRSYM    DATA     BYTE      TMOD
      00000088H   SFRSYM    DATA     BYTE      TCON
      000000C8H.1 SFRSYM    DATA     BIT       P51
      000000C0H.2 SFRSYM    DATA     BIT       P42
      000000B0H.3 SFRSYM    DATA     BIT       P33
      000000A0H.4 SFRSYM    DATA     BIT       P24
      00000090H.5 SFRSYM    DATA     BIT       P15
      00000080H.6 SFRSYM    DATA     BIT       P06
      000000C4H   SFRSYM    DATA     BYTE      ISP_ADDRL
      000000B8H.6 SFRSYM    DATA     BIT       PLVD
      000000C8H.2 SFRSYM    DATA     BIT       P52
      000000C0H.3 SFRSYM    DATA     BIT       P43
      000000B0H.4 SFRSYM    DATA     BIT       P34
      000000A0H.5 SFRSYM    DATA     BIT       P25
      00000090H.6 SFRSYM    DATA     BIT       P16
      00000080H.7 SFRSYM    DATA     BIT       P07
      000000C8H.3 SFRSYM    DATA     BIT       P53
      000000C0H.4 SFRSYM    DATA     BIT       P44
      000000B0H.5 SFRSYM    DATA     BIT       P35
      000000A0H.6 SFRSYM    DATA     BIT       P26
      00000090H.7 SFRSYM    DATA     BIT       P17
      000000C8H.4 SFRSYM    DATA     BIT       P54
      000000C0H.5 SFRSYM    DATA     BIT       P45
      000000B0H.6 SFRSYM    DATA     BIT       P36
      000000A0H.7 SFRSYM    DATA     BIT       P27
      000000C8H.5 SFRSYM    DATA     BIT       P55
      000000C0H.6 SFRSYM    DATA     BIT       P46
      000000B0H.7 SFRSYM    DATA     BIT       P37
      000000C8H.6 SFRSYM    DATA     BIT       P56
      000000C0H.7 SFRSYM    DATA     BIT       P47
      000000C8H.7 SFRSYM    DATA     BIT       P57
      00000088H.1 SFRSYM    DATA     BIT       IE0
      000000A1H   SFRSYM    DATA     BYTE      BUS_SPEED
      00000088H.3 SFRSYM    DATA     BIT       IE1
      000000AFH   SFRSYM    DATA     BYTE      IE2
      000000F0H   SFRSYM    DATA     BYTE      B
      0000008EH   SFRSYM    DATA     BYTE      AUXR
      000000C7H   SFRSYM    DATA     BYTE      IAP_CONTR
      000000E0H   SFRSYM    DATA     BYTE      ACC
      000000A8H.1 SFRSYM    DATA     BIT       ET0
      000000A8H.3 SFRSYM    DATA     BIT       ET1
      00000088H.5 SFRSYM    DATA     BIT       TF0
      00000088H.7 SFRSYM    DATA     BIT       TF1
      000000B5H   SFRSYM    DATA     BYTE      IP2
      0000008CH   SFRSYM    DATA     BYTE      RL_TH0
      00000098H.2 SFRSYM    DATA     BIT       RB8
      0000008DH   SFRSYM    DATA     BYTE      RL_TH1
      0000008CH   SFRSYM    DATA     BYTE      TH0
      000000A8H   SFRSYM    DATA     BIT       EX0
      00000088H   SFRSYM    DATA     BIT       IT0
      000000D6H   SFRSYM    DATA     BYTE      RL_T2H
      0000008DH   SFRSYM    DATA     BYTE      TH1
      00000090H.6 SFRSYM    DATA     BIT       touchPad_1
      000000A8H.2 SFRSYM    DATA     BIT       EX1
      00000098H.3 SFRSYM    DATA     BIT       TB8
      00000088H.2 SFRSYM    DATA     BIT       IT1
      000000D4H   SFRSYM    DATA     BYTE      RL_T3H
      000000D6H   SFRSYM    DATA     BYTE      TH2
LX51 LINKER/LOCATER V4.66.41.0                                                        12/20/2018  14:37:19  PAGE 43


      000000D6H   SFRSYM    DATA     BYTE      T2H
      00000090H.7 SFRSYM    DATA     BIT       touchPad_2
      000000D0H   SFRSYM    DATA     BIT       P
      000000D2H   SFRSYM    DATA     BYTE      RL_T4H
      000000D4H   SFRSYM    DATA     BYTE      TH3
      000000D4H   SFRSYM    DATA     BYTE      T3H
      0000008AH   SFRSYM    DATA     BYTE      RL_TL0
      00000090H.5 SFRSYM    DATA     BIT       touchPad_3
      00000098H.7 SFRSYM    DATA     BIT       SM0
      000000D2H   SFRSYM    DATA     BYTE      TH4
      000000D2H   SFRSYM    DATA     BYTE      T4H
      0000008BH   SFRSYM    DATA     BYTE      RL_TL1
      0000008AH   SFRSYM    DATA     BYTE      TL0
      00000098H.6 SFRSYM    DATA     BIT       SM1
      000000D7H   SFRSYM    DATA     BYTE      RL_T2L
      0000008BH   SFRSYM    DATA     BYTE      TL1
      00000098H.5 SFRSYM    DATA     BIT       SM2
      000000D5H   SFRSYM    DATA     BYTE      RL_T3L
      000000D7H   SFRSYM    DATA     BYTE      TL2
      000000D7H   SFRSYM    DATA     BYTE      T2L
      000000D3H   SFRSYM    DATA     BYTE      RL_T4L
      000000D5H   SFRSYM    DATA     BYTE      TL3
      000000D5H   SFRSYM    DATA     BYTE      T3L
      000000B8H.1 SFRSYM    DATA     BIT       PT0
      000000D3H   SFRSYM    DATA     BYTE      TL4
      000000D3H   SFRSYM    DATA     BYTE      T4L
      000000B8H.3 SFRSYM    DATA     BIT       PT1
      000000D0H.3 SFRSYM    DATA     BIT       RS0
      000000C7H   SFRSYM    DATA     BYTE      ISP_CONTR
      00000088H.4 SFRSYM    DATA     BIT       TR0
      000000D0H.4 SFRSYM    DATA     BIT       RS1
      000000C2H   SFRSYM    DATA     BYTE      IAP_DATA
      00000088H.6 SFRSYM    DATA     BIT       TR1
      000000B8H   SFRSYM    DATA     BIT       PX0
      000000C1H   SFRSYM    DATA     BYTE      WDT_CONTR
      000000B8H.2 SFRSYM    DATA     BIT       PX1
      000000F2H   SFRSYM    DATA     BYTE      PCA_PWM0
      000000F3H   SFRSYM    DATA     BYTE      PCA_PWM1
      000000F4H   SFRSYM    DATA     BYTE      PCA_PWM2
      0000009DH   SFRSYM    DATA     BYTE      P1ASF
      00000083H   SFRSYM    DATA     BYTE      DPH
      000000D1H   SFRSYM    DATA     BYTE      T4T3M
      000000BEH   SFRSYM    DATA     BYTE      ADC_RESL
      00000082H   SFRSYM    DATA     BYTE      DPL
      000000CDH   SFRSYM    DATA     BYTE      SPSTAT
      000000B7H   SFRSYM    DATA     BYTE      IPH
      0000009BH   SFRSYM    DATA     BYTE      S2BUF
      00000097H   SFRSYM    DATA     BYTE      PCON2
      000000ADH   SFRSYM    DATA     BYTE      S3BUF
      00000098H.4 SFRSYM    DATA     BIT       REN
      00000085H   SFRSYM    DATA     BYTE      S4BUF
      00000080H.2 SFRSYM    DATA     BIT       Usr_key
      0000009AH   SFRSYM    DATA     BYTE      S2CON
      000000ACH   SFRSYM    DATA     BYTE      S3CON
      000000C2H   SFRSYM    DATA     BYTE      ISP_DATA
      00000084H   SFRSYM    DATA     BYTE      S4CON
      000000B9H   SFRSYM    DATA     BYTE      SADEN
      000000B0H   SFRSYM    DATA     BIT       RXD
      000000A9H   SFRSYM    DATA     BYTE      SADDR
      000000B0H.1 SFRSYM    DATA     BIT       TXD
      000000F0H   SFRSYM    DATA     BIT       B0
      000000F0H.1 SFRSYM    DATA     BIT       B1
      000000C6H   SFRSYM    DATA     BYTE      IAP_TRIG
      000000A2H   SFRSYM    DATA     BYTE      AUXR1
      000000F0H.2 SFRSYM    DATA     BIT       B2
LX51 LINKER/LOCATER V4.66.41.0                                                        12/20/2018  14:37:19  PAGE 44


      00000090H.2 SFRSYM    DATA     BIT       SPI_SS
      0000008FH   SFRSYM    DATA     BYTE      AUXR2
      000000F0H.3 SFRSYM    DATA     BIT       B3
      000000F0H.4 SFRSYM    DATA     BIT       B4
      000000D0H.5 SFRSYM    DATA     BIT       F0
      000000F0H.5 SFRSYM    DATA     BIT       B5
      000000D0H.1 SFRSYM    DATA     BIT       F1
      0000008FH   SFRSYM    DATA     BYTE      INT_CLKO
      000000F0H.6 SFRSYM    DATA     BIT       B6
      000000E0H   SFRSYM    DATA     BIT       ACC0
      000000F0H.7 SFRSYM    DATA     BIT       B7
      000000E0H.1 SFRSYM    DATA     BIT       ACC1
      000000E0H.2 SFRSYM    DATA     BIT       ACC2
      000000E0H.3 SFRSYM    DATA     BIT       ACC3
      000000D0H   SFRSYM    DATA     BYTE      PSW
      000000E0H.4 SFRSYM    DATA     BIT       ACC4
      00000090H.5 SFRSYM    DATA     BIT       SPI_SCLK
      000000D8H   SFRSYM    DATA     BIT       CCF0
      000000E0H.5 SFRSYM    DATA     BIT       ACC5
      000000D8H.1 SFRSYM    DATA     BIT       CCF1
      000000E0H.6 SFRSYM    DATA     BIT       ACC6
      000000CFH   SFRSYM    DATA     BYTE      SPDAT
      00000094H   SFRSYM    DATA     BYTE      P0M0

      010074BDH   BLOCK     CODE     ---       LVL=0
      010074BDH   LINE      CODE     ---       #48
      010074BDH   LINE      CODE     ---       #59
      010074C0H   LINE      CODE     ---       #60
      010074C3H   LINE      CODE     ---       #62
      010074C6H   LINE      CODE     ---       #63
      010074C9H   LINE      CODE     ---       #65
      010074CCH   LINE      CODE     ---       #66
      010074CFH   LINE      CODE     ---       #69
      010074D2H   LINE      CODE     ---       #71
      010074DBH   LINE      CODE     ---       #72
      010074E5H   LINE      CODE     ---       #73
      010074EFH   LINE      CODE     ---       #74
      ---         BLOCKEND  ---      ---       LVL=0

      01000003H   BLOCK     CODE     ---       LVL=0
      01000003H   LINE      CODE     ---       #82
      01000003H   LINE      CODE     ---       #84
      01000006H   LINE      CODE     ---       #85
      01000009H   LINE      CODE     ---       #86
      ---         BLOCKEND  ---      ---       LVL=0

      01007167H   BLOCK     CODE     ---       LVL=0
      01007167H   LINE      CODE     ---       #89
      01007167H   LINE      CODE     ---       #91
      0100717AH   LINE      CODE     ---       #92
      0100718DH   LINE      CODE     ---       #94
      01007197H   LINE      CODE     ---       #95
      010071A1H   LINE      CODE     ---       #97
      010071B4H   LINE      CODE     ---       #98
      ---         BLOCKEND  ---      ---       LVL=0

      01007620H   BLOCK     CODE     VOID      LVL=0
      ---         BLOCKEND  ---      ---       LVL=0

      01007626H   BLOCK     CODE     ---       LVL=0
      00000007H   SYMBOL    DATA     BYTE      tons
      00000005H   SYMBOL    DATA     BYTE      time
      00000003H   SYMBOL    DATA     BYTE      loop
      01007626H   LINE      CODE     ---       #102
      01007626H   LINE      CODE     ---       #104
LX51 LINKER/LOCATER V4.66.41.0                                                        12/20/2018  14:37:19  PAGE 45


      01007629H   LINE      CODE     ---       #106
      01007635H   LINE      CODE     ---       #107
      01007638H   LINE      CODE     ---       #108
      01007642H   LINE      CODE     ---       #109
      01007648H   LINE      CODE     ---       #110
      01007648H   LINE      CODE     ---       #111
      ---         BLOCKEND  ---      ---       LVL=0

      01006F61H   BLOCK     CODE     ---       LVL=0
      00000005H   SYMBOL    DATA     BYTE      funSet
      01006F61H   LINE      CODE     ---       #113
      01006F63H   LINE      CODE     ---       #115
      01006F7CH   LINE      CODE     ---       #116
      01006F98H   LINE      CODE     ---       #117
      01006FB6H   LINE      CODE     ---       #118
      01006FD5H   LINE      CODE     ---       #119
      ---         BLOCKEND  ---      ---       LVL=0

      010077D1H   BLOCK     CODE     ---       LVL=0
      010077D1H   LINE      CODE     ---       #122
      010077D1H   LINE      CODE     ---       #124
      010077D7H   LINE      CODE     ---       #125
      010077DAH   LINE      CODE     ---       #126
      010077DFH   LINE      CODE     ---       #127
      010077E8H   LINE      CODE     ---       #128
      ---         BLOCKEND  ---      ---       LVL=0

      0100782DH   BLOCK     CODE     ---       LVL=0
      00000006H   SYMBOL    DATA     BYTE      timeopen
      0100782DH   LINE      CODE     ---       #131
      0100782FH   LINE      CODE     ---       #133
      01007832H   LINE      CODE     ---       #134
      01007837H   LINE      CODE     ---       #135
      0100783AH   LINE      CODE     ---       #136
      0100783DH   LINE      CODE     ---       #137
      ---         BLOCKEND  ---      ---       LVL=0

      01007913H   BLOCK     CODE     ---       LVL=0
      01007913H   LINE      CODE     ---       #141
      01007913H   LINE      CODE     ---       #143
      01007916H   LINE      CODE     ---       #144
      01007919H   LINE      CODE     ---       #145
      ---         BLOCKEND  ---      ---       LVL=0

      01007801H   BLOCK     CODE     ---       LVL=0
      00000007H   SYMBOL    DATA     BYTE      timeHold
      01007801H   LINE      CODE     ---       #149
      01007801H   LINE      CODE     ---       #151
      01007806H   LINE      CODE     ---       #152
      01007809H   LINE      CODE     ---       #153
      0100780EH   LINE      CODE     ---       #154
      ---         BLOCKEND  ---      ---       LVL=0

      01007817H   BLOCK     CODE     ---       LVL=0
      00000007H   SYMBOL    DATA     BYTE      timeHold
      01007817H   LINE      CODE     ---       #158
      01007817H   LINE      CODE     ---       #160
      0100781CH   LINE      CODE     ---       #161
      0100781FH   LINE      CODE     ---       #162
      01007824H   LINE      CODE     ---       #163
      ---         BLOCKEND  ---      ---       LVL=0

      01003EC1H   BLOCK     CODE     ---       LVL=0
      01003F38H   BLOCK     CODE     NEAR LAB  LVL=1
      00000056H   SYMBOL    DATA     WORD      tips_Counter
LX51 LINKER/LOCATER V4.66.41.0                                                        12/20/2018  14:37:19  PAGE 46


      0100720FH   SYMBOL    CODE     WORD      tips_Period
      00000027H   SYMBOL    DATA     BYTE      relayStatus_tipsTemp
      010041ACH   BLOCK     CODE     NEAR LAB  LVL=2
      00000024H.4 SYMBOL    BIT      BIT       tips_Type
      ---         BLOCKEND  ---      ---       LVL=2
      ---         BLOCKEND  ---      ---       LVL=1
      01003EC1H   LINE      CODE     ---       #167
      01003EC1H   LINE      CODE     ---       #169
      01003EC4H   LINE      CODE     ---       #171
      01003ED0H   LINE      CODE     ---       #172
      01003ED0H   LINE      CODE     ---       #174
      01003ED3H   LINE      CODE     ---       #175
      01003ED3H   LINE      CODE     ---       #177
      01003ED5H   LINE      CODE     ---       #179
      01003EDDH   LINE      CODE     ---       #181
      01003EE2H   LINE      CODE     ---       #183
      01003EE8H   LINE      CODE     ---       #184
      01003EE8H   LINE      CODE     ---       #186
      01003EF9H   LINE      CODE     ---       #189
      01003EF9H   LINE      CODE     ---       #191
      01003EFEH   LINE      CODE     ---       #192
      01003F01H   LINE      CODE     ---       #193
      01003F01H   LINE      CODE     ---       #194
      01003F01H   LINE      CODE     ---       #307
      01003F32H   LINE      CODE     ---       #309
      01003F32H   LINE      CODE     ---       #311
      01003F35H   LINE      CODE     ---       #313
      01003F35H   LINE      CODE     ---       #315
      01003F35H   LINE      CODE     ---       #317
      01003F38H   LINE      CODE     ---       #319
      01003F38H   LINE      CODE     ---       #321
      01003F38H   LINE      CODE     ---       #322
      01003F38H   LINE      CODE     ---       #326
      01003F3FH   LINE      CODE     ---       #328
      01003F44H   LINE      CODE     ---       #330
      01003F49H   LINE      CODE     ---       #331
      01003F4FH   LINE      CODE     ---       #333
      01003F51H   LINE      CODE     ---       #334
      01003F56H   LINE      CODE     ---       #336
      01003F5FH   LINE      CODE     ---       #337
      01003F65H   LINE      CODE     ---       #338
      01003F6AH   LINE      CODE     ---       #340
      01003F6CH   LINE      CODE     ---       #341
      01003F71H   LINE      CODE     ---       #343
      01003F71H   LINE      CODE     ---       #345
      01003F73H   LINE      CODE     ---       #346
      01003F7EH   LINE      CODE     ---       #348
      01003F84H   LINE      CODE     ---       #350
      01003F86H   LINE      CODE     ---       #351
      01003F8BH   LINE      CODE     ---       #353
      01003F90H   LINE      CODE     ---       #354
      01003F90H   LINE      CODE     ---       #357
      01003F96H   LINE      CODE     ---       #447
      01003F96H   LINE      CODE     ---       #449
      01003FA0H   LINE      CODE     ---       #451
      01003FA0H   LINE      CODE     ---       #453
      01003FA3H   LINE      CODE     ---       #454
      01003FBDH   LINE      CODE     ---       #455
      01003FC0H   LINE      CODE     ---       #457
      01003FC3H   LINE      CODE     ---       #459
      01003FC3H   LINE      CODE     ---       #461
      01003FC9H   LINE      CODE     ---       #462
      01003FE3H   LINE      CODE     ---       #463
      01003FE6H   LINE      CODE     ---       #465
      01003FE9H   LINE      CODE     ---       #467
LX51 LINKER/LOCATER V4.66.41.0                                                        12/20/2018  14:37:19  PAGE 47


      01003FE9H   LINE      CODE     ---       #469
      01003FECH   LINE      CODE     ---       #470
      01004006H   LINE      CODE     ---       #471
      01004009H   LINE      CODE     ---       #473
      0100400CH   LINE      CODE     ---       #474
      0100400CH   LINE      CODE     ---       #476
      0100400CH   LINE      CODE     ---       #478
      0100400CH   LINE      CODE     ---       #479
      0100400CH   LINE      CODE     ---       #480
      0100400CH   LINE      CODE     ---       #482
      0100400CH   LINE      CODE     ---       #484
      0100408DH   LINE      CODE     ---       #490
      01004116H   LINE      CODE     ---       #496
      0100419FH   LINE      CODE     ---       #502
      0100419FH   LINE      CODE     ---       #503
      0100419FH   LINE      CODE     ---       #506
      0100419FH   LINE      CODE     ---       #508
      010041ACH   LINE      CODE     ---       #509
      010041ACH   LINE      CODE     ---       #512
      010041ACH   LINE      CODE     ---       #515
      010041C4H   LINE      CODE     ---       #516
      010041C4H   LINE      CODE     ---       #518
      010041C6H   LINE      CODE     ---       #519
      010041CBH   LINE      CODE     ---       #521
      010041E0H   LINE      CODE     ---       #523
      010041E0H   LINE      CODE     ---       #525
      010041E5H   LINE      CODE     ---       #527
      010041E7H   LINE      CODE     ---       #529
      010041E7H   LINE      CODE     ---       #531
      010041F5H   LINE      CODE     ---       #533
      010041F7H   LINE      CODE     ---       #535
      010041F7H   LINE      CODE     ---       #537
      010041FDH   LINE      CODE     ---       #539
      010041FFH   LINE      CODE     ---       #541
      010041FFH   LINE      CODE     ---       #543
      01004206H   LINE      CODE     ---       #545
      01004208H   LINE      CODE     ---       #547
      01004208H   LINE      CODE     ---       #549
      01004218H   LINE      CODE     ---       #551
      0100421AH   LINE      CODE     ---       #553
      0100421AH   LINE      CODE     ---       #555
      0100422EH   LINE      CODE     ---       #557
      0100422EH   LINE      CODE     ---       #559
      0100422EH   LINE      CODE     ---       #561
      01004231H   LINE      CODE     ---       #563
      01004232H   LINE      CODE     ---       #564
      01004232H   LINE      CODE     ---       #565
      01004232H   LINE      CODE     ---       #566
      01004232H   LINE      CODE     ---       #568
      01004232H   LINE      CODE     ---       #570
      01004232H   LINE      CODE     ---       #572
      0100423CH   LINE      CODE     ---       #573
      0100423CH   LINE      CODE     ---       #575
      0100423FH   LINE      CODE     ---       #577
      0100423FH   LINE      CODE     ---       #578
      0100424EH   LINE      CODE     ---       #579
      01004257H   LINE      CODE     ---       #580
      01004257H   LINE      CODE     ---       #581
      01004257H   LINE      CODE     ---       #583
      01004257H   LINE      CODE     ---       #585
      01004259H   LINE      CODE     ---       #587
      01004259H   LINE      CODE     ---       #589
      0100425EH   LINE      CODE     ---       #591
      0100425EH   LINE      CODE     ---       #593
      0100425EH   LINE      CODE     ---       #595
LX51 LINKER/LOCATER V4.66.41.0                                                        12/20/2018  14:37:19  PAGE 48


      01004261H   LINE      CODE     ---       #597
      01004261H   LINE      CODE     ---       #599
      01004261H   LINE      CODE     ---       #601
      0100426AH   LINE      CODE     ---       #602
      0100426AH   LINE      CODE     ---       #604
      0100426DH   LINE      CODE     ---       #606
      0100426DH   LINE      CODE     ---       #607
      0100427CH   LINE      CODE     ---       #608
      0100428EH   LINE      CODE     ---       #609
      01004297H   LINE      CODE     ---       #610
      01004297H   LINE      CODE     ---       #612
      01004297H   LINE      CODE     ---       #614
      01004297H   LINE      CODE     ---       #616
      01004297H   LINE      CODE     ---       #618
      0100429AH   LINE      CODE     ---       #620
      0100429AH   LINE      CODE     ---       #621
      0100429AH   LINE      CODE     ---       #623
      ---         BLOCKEND  ---      ---       LVL=0

      01006C4EH   BLOCK     CODE     VOID      LVL=0
      ---         BLOCKEND  ---      ---       LVL=0

      01006C65H   BLOCK     CODE     ---       LVL=0
      00000007H   SYMBOL    DATA     BYTE      obj
      00000005H   SYMBOL    DATA     BYTE      gray_R
      00000003H   SYMBOL    DATA     BYTE      gray_G
      0000002BH   SYMBOL    DATA     BYTE      gray_B
      01006C76H   BLOCK     CODE     NEAR LAB  LVL=1
      01007211H   SYMBOL    CODE     BYTE      bright_coef
      ---         BLOCKEND  ---      ---       LVL=1
      01006C65H   LINE      CODE     ---       #625
      01006C65H   LINE      CODE     ---       #627
      01006C71H   LINE      CODE     ---       #628
      01006C71H   LINE      CODE     ---       #630
      01006C76H   LINE      CODE     ---       #634
      01006C81H   LINE      CODE     ---       #635
      01006C86H   LINE      CODE     ---       #636
      01006C8DH   LINE      CODE     ---       #637
      01006C8DH   LINE      CODE     ---       #639
      01006C9BH   LINE      CODE     ---       #641
      01006C9BH   LINE      CODE     ---       #643
      01006CA2H   LINE      CODE     ---       #644
      01006CA2H   LINE      CODE     ---       #645
      01006CA2H   LINE      CODE     ---       #647
      01006CA4H   LINE      CODE     ---       #649
      01006CA4H   LINE      CODE     ---       #651
      01006CABH   LINE      CODE     ---       #652
      01006CABH   LINE      CODE     ---       #653
      01006CABH   LINE      CODE     ---       #655
      01006CADH   LINE      CODE     ---       #657
      01006CADH   LINE      CODE     ---       #659
      01006CB4H   LINE      CODE     ---       #660
      01006CB4H   LINE      CODE     ---       #661
      01006CB4H   LINE      CODE     ---       #663
      01006CB6H   LINE      CODE     ---       #665
      01006CB6H   LINE      CODE     ---       #667
      01006CC2H   LINE      CODE     ---       #668
      01006CCCH   LINE      CODE     ---       #669
      01006CD7H   LINE      CODE     ---       #671
      01006CD7H   LINE      CODE     ---       #673
      01006CD7H   LINE      CODE     ---       #674
      01006CD7H   LINE      CODE     ---       #675
      01006CD7H   LINE      CODE     ---       #676
      ---         BLOCKEND  ---      ---       LVL=0

LX51 LINKER/LOCATER V4.66.41.0                                                        12/20/2018  14:37:19  PAGE 49


      0100682FH   BLOCK     CODE     ---       LVL=0
      0100682FH   BLOCK     CODE     NEAR LAB  LVL=1
      020006F0H   SYMBOL    XDATA    BYTE      tipsStep
      ---         BLOCKEND  ---      ---       LVL=1
      0100682FH   LINE      CODE     ---       #678
      0100682FH   LINE      CODE     ---       #682
      01006843H   LINE      CODE     ---       #684
      01006843H   LINE      CODE     ---       #686
      0100684DH   LINE      CODE     ---       #687
      01006853H   LINE      CODE     ---       #689
      01006854H   LINE      CODE     ---       #691
      01006854H   LINE      CODE     ---       #693
      0100685FH   LINE      CODE     ---       #695
      0100686FH   LINE      CODE     ---       #697
      01006889H   LINE      CODE     ---       #702
      0100688AH   LINE      CODE     ---       #704
      010068A6H   LINE      CODE     ---       #708
      010068A6H   LINE      CODE     ---       #710
      010068A7H   LINE      CODE     ---       #712
      010068B1H   LINE      CODE     ---       #713
      010068B6H   LINE      CODE     ---       #714
      010068BCH   LINE      CODE     ---       #715
      010068BCH   LINE      CODE     ---       #717
      010068BDH   LINE      CODE     ---       #720
      010068BDH   LINE      CODE     ---       #722
      010068C7H   LINE      CODE     ---       #724
      010068C9H   LINE      CODE     ---       #726
      010068C9H   LINE      CODE     ---       #728
      010068CEH   LINE      CODE     ---       #730
      010068CEH   LINE      CODE     ---       #731
      010068CEH   LINE      CODE     ---       #732
      ---         BLOCKEND  ---      ---       LVL=0
      00000058H   SYMBOL    DATA     BYTE      localTips_Count
      00000024H.5 SYMBOL    BIT      BIT       count_FLG
      00000059H   SYMBOL    DATA     BYTE      tipsStep
      01007212H   SYMBOL    CODE     BYTE      speed
      01007213H   SYMBOL    CODE     BYTE      step_period
      0000005AH   SYMBOL    DATA     BYTE      localTips_Count
      00000024H.6 SYMBOL    BIT      BIT       count_FLG
      0000005BH   SYMBOL    DATA     BYTE      tipsStep
      0000005CH   SYMBOL    DATA     BYTE      pwmType_A
      0000005DH   SYMBOL    DATA     BYTE      pwmType_B
      0000005EH   SYMBOL    DATA     BYTE      pwmType_C
      0000005FH   SYMBOL    DATA     BYTE      pwmType_D
      01007214H   SYMBOL    CODE     BYTE      speed
      01007215H   SYMBOL    CODE     BYTE      step_period

      010052AEH   BLOCK     CODE     ---       LVL=0
      00000005H   SYMBOL    DATA     BYTE      tips_Type
      010052B0H   BLOCK     CODE     NEAR LAB  LVL=1
      00000060H   SYMBOL    DATA     BYTE      localTips_Count
      00000024H.7 SYMBOL    BIT      BIT       count_FLG
      00000061H   SYMBOL    DATA     BYTE      tipsStep
      00000062H   SYMBOL    DATA     BYTE      pwmType_A
      00000063H   SYMBOL    DATA     BYTE      pwmType_B
      00000064H   SYMBOL    DATA     BYTE      pwmType_C
      00000065H   SYMBOL    DATA     BYTE      pwmType_D
      01007216H   SYMBOL    CODE     BYTE      speed_Mol
      01007217H   SYMBOL    CODE     BYTE      speed_Den
      01007218H   SYMBOL    CODE     BYTE      step_period
      ---         BLOCKEND  ---      ---       LVL=1
      010052AEH   LINE      CODE     ---       #875
      010052B0H   LINE      CODE     ---       #889
      010052B7H   LINE      CODE     ---       #891
      010052C6H   LINE      CODE     ---       #892
LX51 LINKER/LOCATER V4.66.41.0                                                        12/20/2018  14:37:19  PAGE 50


      010052C6H   LINE      CODE     ---       #894
      010052C9H   LINE      CODE     ---       #896
      010052D1H   LINE      CODE     ---       #897
      010052D1H   LINE      CODE     ---       #898
      010052D1H   LINE      CODE     ---       #899
      010052D9H   LINE      CODE     ---       #901
      010052E0H   LINE      CODE     ---       #903
      010052E2H   LINE      CODE     ---       #907
      010052E2H   LINE      CODE     ---       #909
      010052ECH   LINE      CODE     ---       #911
      01005318H   LINE      CODE     ---       #913
      01005328H   LINE      CODE     ---       #914
      0100533BH   LINE      CODE     ---       #915
      0100534EH   LINE      CODE     ---       #916
      01005361H   LINE      CODE     ---       #917
      01005361H   LINE      CODE     ---       #919
      0100536EH   LINE      CODE     ---       #921
      0100536EH   LINE      CODE     ---       #923
      01005375H   LINE      CODE     ---       #925
      01005375H   LINE      CODE     ---       #927
      01005378H   LINE      CODE     ---       #929
      0100537FH   LINE      CODE     ---       #931
      01005390H   LINE      CODE     ---       #933
      01005390H   LINE      CODE     ---       #934
      01005390H   LINE      CODE     ---       #936
      01005392H   LINE      CODE     ---       #938
      01005395H   LINE      CODE     ---       #939
      01005397H   LINE      CODE     ---       #940
      01005397H   LINE      CODE     ---       #942
      0100539AH   LINE      CODE     ---       #944
      010053AFH   LINE      CODE     ---       #945
      010053C4H   LINE      CODE     ---       #946
      010053D9H   LINE      CODE     ---       #947
      010053F1H   LINE      CODE     ---       #948
      010053F1H   LINE      CODE     ---       #950
      010053F2H   LINE      CODE     ---       #952
      010053FFH   LINE      CODE     ---       #953
      0100540CH   LINE      CODE     ---       #954
      01005419H   LINE      CODE     ---       #955
      01005426H   LINE      CODE     ---       #957
      01005437H   LINE      CODE     ---       #958
      01005448H   LINE      CODE     ---       #959
      01005459H   LINE      CODE     ---       #960
      01005465H   LINE      CODE     ---       #961
      01005465H   LINE      CODE     ---       #963
      01005468H   LINE      CODE     ---       #965
      01005468H   LINE      CODE     ---       #966
      01005468H   LINE      CODE     ---       #968
      01005468H   LINE      CODE     ---       #970
      01005468H   LINE      CODE     ---       #972
      0100546FH   LINE      CODE     ---       #974
      0100546FH   LINE      CODE     ---       #976
      01005472H   LINE      CODE     ---       #978
      01005479H   LINE      CODE     ---       #981
      0100548FH   LINE      CODE     ---       #983
      01005490H   LINE      CODE     ---       #990
      0100549EH   LINE      CODE     ---       #991
      010054ACH   LINE      CODE     ---       #992
      010054BAH   LINE      CODE     ---       #993
      010054C8H   LINE      CODE     ---       #994
      010054C8H   LINE      CODE     ---       #996
      010054C9H   LINE      CODE     ---       #1003
      010054D6H   LINE      CODE     ---       #1004
      010054E3H   LINE      CODE     ---       #1005
      010054F0H   LINE      CODE     ---       #1006
LX51 LINKER/LOCATER V4.66.41.0                                                        12/20/2018  14:37:19  PAGE 51


      010054FDH   LINE      CODE     ---       #1007
      010054FDH   LINE      CODE     ---       #1009
      010054FDH   LINE      CODE     ---       #1011
      010054FDH   LINE      CODE     ---       #1012
      010054FDH   LINE      CODE     ---       #1014
      010054FDH   LINE      CODE     ---       #1016
      010054FDH   LINE      CODE     ---       #1017
      010054FDH   LINE      CODE     ---       #1018
      ---         BLOCKEND  ---      ---       LVL=0

      010072BDH   BLOCK     CODE     ---       LVL=0
      010072BDH   BLOCK     CODE     NEAR LAB  LVL=1
      00000025H.0 SYMBOL    BIT      BIT       tipsStep
      ---         BLOCKEND  ---      ---       LVL=1
      010072BDH   LINE      CODE     ---       #1020
      010072BDH   LINE      CODE     ---       #1024
      010072C7H   LINE      CODE     ---       #1026
      010072CEH   LINE      CODE     ---       #1028
      010072D1H   LINE      CODE     ---       #1029
      010072D8H   LINE      CODE     ---       #1030
      010072DFH   LINE      CODE     ---       #1031
      010072E6H   LINE      CODE     ---       #1033
      010072E7H   LINE      CODE     ---       #1035
      010072EAH   LINE      CODE     ---       #1036
      010072F1H   LINE      CODE     ---       #1037
      010072F8H   LINE      CODE     ---       #1038
      010072FFH   LINE      CODE     ---       #1039
      010072FFH   LINE      CODE     ---       #1041
      01007300H   LINE      CODE     ---       #1043
      0100730AH   LINE      CODE     ---       #1044
      0100730CH   LINE      CODE     ---       #1045
      0100730CH   LINE      CODE     ---       #1046
      ---         BLOCKEND  ---      ---       LVL=0

      01007783H   BLOCK     CODE     ---       LVL=0
      01007783H   LINE      CODE     ---       #1048
      01007783H   LINE      CODE     ---       #1050
      0100778AH   LINE      CODE     ---       #1051
      01007791H   LINE      CODE     ---       #1052
      01007798H   LINE      CODE     ---       #1053
      0100779FH   LINE      CODE     ---       #1054
      ---         BLOCKEND  ---      ---       LVL=0

      010049BFH   BLOCK     CODE     ---       LVL=0
      010049BFH   BLOCK     CODE     NEAR LAB  LVL=1
      00000066H   SYMBOL    DATA     BYTE      localTips_Count
      01007219H   SYMBOL    CODE     BYTE      localTips_Period
      00000067H   SYMBOL    DATA     BYTE      tipsStep
      00000068H   SYMBOL    DATA     BYTE      pwmType_A
      00000069H   SYMBOL    DATA     BYTE      pwmType_B
      0000006AH   SYMBOL    DATA     BYTE      pwmType_C
      0000006BH   SYMBOL    DATA     BYTE      pwmType_D
      ---         BLOCKEND  ---      ---       LVL=1
      010049BFH   LINE      CODE     ---       #1056
      010049BFH   LINE      CODE     ---       #1069
      010049C9H   LINE      CODE     ---       #1071
      010049D1H   LINE      CODE     ---       #1073
      010049DDH   LINE      CODE     ---       #1075
      010049E0H   LINE      CODE     ---       #1076
      010049EEH   LINE      CODE     ---       #1077
      010049F7H   LINE      CODE     ---       #1078
      010049F9H   LINE      CODE     ---       #1079
      010049F9H   LINE      CODE     ---       #1081
      010049FBH   LINE      CODE     ---       #1083
      01004A0BH   LINE      CODE     ---       #1084
LX51 LINKER/LOCATER V4.66.41.0                                                        12/20/2018  14:37:19  PAGE 52


      01004A1EH   LINE      CODE     ---       #1085
      01004A31H   LINE      CODE     ---       #1086
      01004A44H   LINE      CODE     ---       #1087
      01004A44H   LINE      CODE     ---       #1088
      01004A44H   LINE      CODE     ---       #1090
      01004A6AH   LINE      CODE     ---       #1209
      01004A6AH   LINE      CODE     ---       #1211
      01004A7BH   LINE      CODE     ---       #1212
      01004A8CH   LINE      CODE     ---       #1213
      01004A9DH   LINE      CODE     ---       #1214
      01004AA3H   LINE      CODE     ---       #1216
      01004AA5H   LINE      CODE     ---       #1218
      01004AA5H   LINE      CODE     ---       #1220
      01004AB2H   LINE      CODE     ---       #1221
      01004ABFH   LINE      CODE     ---       #1222
      01004ACCH   LINE      CODE     ---       #1223
      01004ACEH   LINE      CODE     ---       #1225
      01004AD1H   LINE      CODE     ---       #1227
      01004AD1H   LINE      CODE     ---       #1229
      01004AE7H   LINE      CODE     ---       #1230
      01004AFDH   LINE      CODE     ---       #1231
      01004B13H   LINE      CODE     ---       #1232
      01004B24H   LINE      CODE     ---       #1234
      01004B27H   LINE      CODE     ---       #1236
      01004B27H   LINE      CODE     ---       #1238
      01004B36H   LINE      CODE     ---       #1239
      01004B45H   LINE      CODE     ---       #1240
      01004B54H   LINE      CODE     ---       #1241
      01004B5EH   LINE      CODE     ---       #1243
      01004B61H   LINE      CODE     ---       #1245
      01004B61H   LINE      CODE     ---       #1247
      01004B71H   LINE      CODE     ---       #1248
      01004B81H   LINE      CODE     ---       #1249
      01004B91H   LINE      CODE     ---       #1250
      01004B9CH   LINE      CODE     ---       #1252
      01004B9FH   LINE      CODE     ---       #1254
      01004B9FH   LINE      CODE     ---       #1256
      01004BB0H   LINE      CODE     ---       #1257
      01004BC1H   LINE      CODE     ---       #1258
      01004BD2H   LINE      CODE     ---       #1259
      01004BE3H   LINE      CODE     ---       #1261
      01004BF2H   LINE      CODE     ---       #1262
      01004C01H   LINE      CODE     ---       #1263
      01004C10H   LINE      CODE     ---       #1264
      01004C1AH   LINE      CODE     ---       #1266
      01004C1DH   LINE      CODE     ---       #1268
      01004C1DH   LINE      CODE     ---       #1270
      01004C31H   LINE      CODE     ---       #1271
      01004C45H   LINE      CODE     ---       #1272
      01004C59H   LINE      CODE     ---       #1273
      01004C6DH   LINE      CODE     ---       #1275
      01004C83H   LINE      CODE     ---       #1276
      01004C99H   LINE      CODE     ---       #1277
      01004CAFH   LINE      CODE     ---       #1278
      01004CC5H   LINE      CODE     ---       #1280
      01004CCDH   LINE      CODE     ---       #1281
      01004CD5H   LINE      CODE     ---       #1282
      01004CDDH   LINE      CODE     ---       #1283
      01004CE5H   LINE      CODE     ---       #1285
      01004CE5H   LINE      CODE     ---       #1287
      01004CE5H   LINE      CODE     ---       #1288
      01004CE5H   LINE      CODE     ---       #1289
      ---         BLOCKEND  ---      ---       LVL=0

      ---         MODULE    ---      ---       DEVLOPEDEBUG
LX51 LINKER/LOCATER V4.66.41.0                                                        12/20/2018  14:37:19  PAGE 53


      0200072CH   PUBLIC    XDATA    ---       dev_debugInfoLog
      010063D6H   PUBLIC    CODE     ---       thread_devlopeDebug
      000000D8H.2 SFRSYM    DATA     BIT       CCF2
      000000E0H.7 SFRSYM    DATA     BIT       ACC7
      00000093H   SFRSYM    DATA     BYTE      P0M1
      00000092H   SFRSYM    DATA     BYTE      P1M0
      00000096H   SFRSYM    DATA     BYTE      P2M0
      00000091H   SFRSYM    DATA     BYTE      P1M1
      00000080H   SFRSYM    DATA     BYTE      P0
      000000B2H   SFRSYM    DATA     BYTE      P3M0
      00000095H   SFRSYM    DATA     BYTE      P2M1
      00000090H   SFRSYM    DATA     BYTE      P1
      000000B4H   SFRSYM    DATA     BYTE      P4M0
      000000B1H   SFRSYM    DATA     BYTE      P3M1
      000000A0H   SFRSYM    DATA     BYTE      P2
      000000CAH   SFRSYM    DATA     BYTE      P5M0
      000000B3H   SFRSYM    DATA     BYTE      P4M1
      000000B0H   SFRSYM    DATA     BYTE      P3
      000000ABH   SFRSYM    DATA     BYTE      WKTCH
      000000B0H.4 SFRSYM    DATA     BIT       T0
      000000D0H.6 SFRSYM    DATA     BIT       AC
      000000CCH   SFRSYM    DATA     BYTE      P6M0
      000000C9H   SFRSYM    DATA     BYTE      P5M1
      000000C0H   SFRSYM    DATA     BYTE      P4
      000000B0H.5 SFRSYM    DATA     BIT       CLKOUT0
      000000B0H.5 SFRSYM    DATA     BIT       T1
      000000E2H   SFRSYM    DATA     BYTE      P7M0
      000000CBH   SFRSYM    DATA     BYTE      P6M1
      000000C8H   SFRSYM    DATA     BYTE      P5
      000000C6H   SFRSYM    DATA     BYTE      ISP_TRIG
      000000A8H.7 SFRSYM    DATA     BIT       EA
      000000B0H.4 SFRSYM    DATA     BIT       CLKOUT1
      000000A0H.4 SFRSYM    DATA     BIT       SPI_SS_2
      000000E8H   SFRSYM    DATA     BYTE      P6
      000000E1H   SFRSYM    DATA     BYTE      P7M1
      000000C8H.4 SFRSYM    DATA     BIT       SPI_SS_3
      00000090H.4 SFRSYM    DATA     BIT       SPI_MISO
      00000090H.3 SFRSYM    DATA     BIT       SPI_MOSI
      00000090H.1 SFRSYM    DATA     BIT       CCP0
      000000F8H   SFRSYM    DATA     BYTE      P7
      000000AAH   SFRSYM    DATA     BYTE      WKTCL
      00000090H   SFRSYM    DATA     BIT       CCP1
      000000CEH   SFRSYM    DATA     BYTE      SPCTL
      000000D8H.7 SFRSYM    DATA     BIT       CF
      000000B0H.7 SFRSYM    DATA     BIT       CCP2
      000000F9H   SFRSYM    DATA     BYTE      CH
      000000A2H   SFRSYM    DATA     BYTE      P_SW1
      000000BAH   SFRSYM    DATA     BYTE      P_SW2
      000000A8H.5 SFRSYM    DATA     BIT       EADC
      000000A0H.1 SFRSYM    DATA     BIT       SPI_SCLK_2
      000000A8H   SFRSYM    DATA     BYTE      IE
      000000C0H.3 SFRSYM    DATA     BIT       SPI_SCLK_3
      000000E9H   SFRSYM    DATA     BYTE      CL
      000000C5H   SFRSYM    DATA     BYTE      IAP_CMD
      000000FAH   SFRSYM    DATA     BYTE      CCAP0H
      000000FBH   SFRSYM    DATA     BYTE      CCAP1H
      000000FCH   SFRSYM    DATA     BYTE      CCAP2H
      000000BDH   SFRSYM    DATA     BYTE      ADC_RES
      000000B6H   SFRSYM    DATA     BYTE      IPH2
      000000D8H.6 SFRSYM    DATA     BIT       CR
      000000EAH   SFRSYM    DATA     BYTE      CCAP0L
      000000B0H.7 SFRSYM    DATA     BIT       RD
      000000EBH   SFRSYM    DATA     BYTE      CCAP1L
      000000DAH   SFRSYM    DATA     BYTE      CCAPM0
      000000ECH   SFRSYM    DATA     BYTE      CCAP2L
LX51 LINKER/LOCATER V4.66.41.0                                                        12/20/2018  14:37:19  PAGE 54


      000000DBH   SFRSYM    DATA     BYTE      CCAPM1
      000000A8H.4 SFRSYM    DATA     BIT       ES
      000000DCH   SFRSYM    DATA     BYTE      CCAPM2
      000000B8H.5 SFRSYM    DATA     BIT       PADC
      000000A0H.2 SFRSYM    DATA     BIT       SPI_MISO_2
      000000A0H.3 SFRSYM    DATA     BIT       SPI_MOSI_2
      000000B8H   SFRSYM    DATA     BYTE      IP
      000000C0H.1 SFRSYM    DATA     BIT       SPI_MISO_3
      000000C0H   SFRSYM    DATA     BIT       SPI_MOSI_3
      00000098H   SFRSYM    DATA     BIT       RI
      000000B0H.2 SFRSYM    DATA     BIT       INT0
      000000D0H.7 SFRSYM    DATA     BIT       CY
      00000098H.1 SFRSYM    DATA     BIT       TI
      000000B0H.3 SFRSYM    DATA     BIT       INT1
      00000097H   SFRSYM    DATA     BYTE      CLK_DIV
      000000C3H   SFRSYM    DATA     BYTE      IAP_ADDRH
      00000090H   SFRSYM    DATA     BIT       RXD2
      000000C5H   SFRSYM    DATA     BYTE      ISP_CMD
      000000B8H.4 SFRSYM    DATA     BIT       PS
      00000090H.1 SFRSYM    DATA     BIT       TXD2
      00000081H   SFRSYM    DATA     BYTE      SP
      000000D9H   SFRSYM    DATA     BYTE      CMOD
      000000D8H   SFRSYM    DATA     BYTE      CCON
      000000C4H   SFRSYM    DATA     BYTE      IAP_ADDRL
      000000B8H.7 SFRSYM    DATA     BIT       PPCA
      000000D0H.2 SFRSYM    DATA     BIT       OV
      000000B0H.6 SFRSYM    DATA     BIT       WR
      000000A8H.6 SFRSYM    DATA     BIT       ELVD
      00000080H   SFRSYM    DATA     BIT       P00
      00000090H   SFRSYM    DATA     BIT       P10
      00000080H.1 SFRSYM    DATA     BIT       P01
      000000BCH   SFRSYM    DATA     BYTE      ADC_CONTR
      00000099H   SFRSYM    DATA     BYTE      SBUF
      00000087H   SFRSYM    DATA     BYTE      PCON
      000000A0H   SFRSYM    DATA     BIT       P20
      00000090H.1 SFRSYM    DATA     BIT       P11
      00000080H.2 SFRSYM    DATA     BIT       P02
      000000C3H   SFRSYM    DATA     BYTE      ISP_ADDRH
      000000B0H   SFRSYM    DATA     BIT       P30
      000000A0H.1 SFRSYM    DATA     BIT       P21
      00000090H.2 SFRSYM    DATA     BIT       P12
      00000080H.3 SFRSYM    DATA     BIT       P03
      000000C0H   SFRSYM    DATA     BIT       P40
      000000B0H.1 SFRSYM    DATA     BIT       P31
      000000A0H.2 SFRSYM    DATA     BIT       P22
      00000090H.3 SFRSYM    DATA     BIT       P13
      00000080H.4 SFRSYM    DATA     BIT       P04
      00000098H   SFRSYM    DATA     BYTE      SCON
      0000008FH   SFRSYM    DATA     BYTE      WAKE_CLKO
      000000C8H   SFRSYM    DATA     BIT       P50
      000000C0H.1 SFRSYM    DATA     BIT       P41
      000000B0H.2 SFRSYM    DATA     BIT       P32
      000000A0H.3 SFRSYM    DATA     BIT       P23
      00000090H.4 SFRSYM    DATA     BIT       P14
      00000080H.5 SFRSYM    DATA     BIT       P05
      00000089H   SFRSYM    DATA     BYTE      TMOD
      00000088H   SFRSYM    DATA     BYTE      TCON
      000000C8H.1 SFRSYM    DATA     BIT       P51
      000000C0H.2 SFRSYM    DATA     BIT       P42
      000000B0H.3 SFRSYM    DATA     BIT       P33
      000000A0H.4 SFRSYM    DATA     BIT       P24
      00000090H.5 SFRSYM    DATA     BIT       P15
      00000080H.6 SFRSYM    DATA     BIT       P06
      000000C4H   SFRSYM    DATA     BYTE      ISP_ADDRL
      000000B8H.6 SFRSYM    DATA     BIT       PLVD
LX51 LINKER/LOCATER V4.66.41.0                                                        12/20/2018  14:37:19  PAGE 55


      000000C8H.2 SFRSYM    DATA     BIT       P52
      000000C0H.3 SFRSYM    DATA     BIT       P43
      000000B0H.4 SFRSYM    DATA     BIT       P34
      000000A0H.5 SFRSYM    DATA     BIT       P25
      00000090H.6 SFRSYM    DATA     BIT       P16
      00000080H.7 SFRSYM    DATA     BIT       P07
      000000C8H.3 SFRSYM    DATA     BIT       P53
      000000C0H.4 SFRSYM    DATA     BIT       P44
      000000B0H.5 SFRSYM    DATA     BIT       P35
      000000A0H.6 SFRSYM    DATA     BIT       P26
      00000090H.7 SFRSYM    DATA     BIT       P17
      000000C8H.4 SFRSYM    DATA     BIT       P54
      000000C0H.5 SFRSYM    DATA     BIT       P45
      000000B0H.6 SFRSYM    DATA     BIT       P36
      000000A0H.7 SFRSYM    DATA     BIT       P27
      000000C8H.5 SFRSYM    DATA     BIT       P55
      000000C0H.6 SFRSYM    DATA     BIT       P46
      000000B0H.7 SFRSYM    DATA     BIT       P37
      000000C8H.6 SFRSYM    DATA     BIT       P56
      000000C0H.7 SFRSYM    DATA     BIT       P47
      000000C8H.7 SFRSYM    DATA     BIT       P57
      00000088H.1 SFRSYM    DATA     BIT       IE0
      000000A1H   SFRSYM    DATA     BYTE      BUS_SPEED
      00000088H.3 SFRSYM    DATA     BIT       IE1
      000000AFH   SFRSYM    DATA     BYTE      IE2
      000000F0H   SFRSYM    DATA     BYTE      B
      0000008EH   SFRSYM    DATA     BYTE      AUXR
      000000C7H   SFRSYM    DATA     BYTE      IAP_CONTR
      000000E0H   SFRSYM    DATA     BYTE      ACC
      000000A8H.1 SFRSYM    DATA     BIT       ET0
      000000A8H.3 SFRSYM    DATA     BIT       ET1
      00000088H.5 SFRSYM    DATA     BIT       TF0
      00000088H.7 SFRSYM    DATA     BIT       TF1
      000000B5H   SFRSYM    DATA     BYTE      IP2
      0000008CH   SFRSYM    DATA     BYTE      RL_TH0
      00000098H.2 SFRSYM    DATA     BIT       RB8
      0000008DH   SFRSYM    DATA     BYTE      RL_TH1
      0000008CH   SFRSYM    DATA     BYTE      TH0
      000000A8H   SFRSYM    DATA     BIT       EX0
      00000088H   SFRSYM    DATA     BIT       IT0
      000000D6H   SFRSYM    DATA     BYTE      RL_T2H
      0000008DH   SFRSYM    DATA     BYTE      TH1
      000000A8H.2 SFRSYM    DATA     BIT       EX1
      00000098H.3 SFRSYM    DATA     BIT       TB8
      00000088H.2 SFRSYM    DATA     BIT       IT1
      000000D4H   SFRSYM    DATA     BYTE      RL_T3H
      000000D6H   SFRSYM    DATA     BYTE      TH2
      000000D6H   SFRSYM    DATA     BYTE      T2H
      000000D0H   SFRSYM    DATA     BIT       P
      000000D2H   SFRSYM    DATA     BYTE      RL_T4H
      000000D4H   SFRSYM    DATA     BYTE      TH3
      000000D4H   SFRSYM    DATA     BYTE      T3H
      0000008AH   SFRSYM    DATA     BYTE      RL_TL0
      00000098H.7 SFRSYM    DATA     BIT       SM0
      000000D2H   SFRSYM    DATA     BYTE      TH4
      000000D2H   SFRSYM    DATA     BYTE      T4H
      0000008BH   SFRSYM    DATA     BYTE      RL_TL1
      0000008AH   SFRSYM    DATA     BYTE      TL0
      00000098H.6 SFRSYM    DATA     BIT       SM1
      000000D7H   SFRSYM    DATA     BYTE      RL_T2L
      0000008BH   SFRSYM    DATA     BYTE      TL1
      00000098H.5 SFRSYM    DATA     BIT       SM2
      000000D5H   SFRSYM    DATA     BYTE      RL_T3L
      000000D7H   SFRSYM    DATA     BYTE      TL2
      000000D7H   SFRSYM    DATA     BYTE      T2L
LX51 LINKER/LOCATER V4.66.41.0                                                        12/20/2018  14:37:19  PAGE 56


      000000D3H   SFRSYM    DATA     BYTE      RL_T4L
      000000D5H   SFRSYM    DATA     BYTE      TL3
      000000D5H   SFRSYM    DATA     BYTE      T3L
      000000B8H.1 SFRSYM    DATA     BIT       PT0
      000000D3H   SFRSYM    DATA     BYTE      TL4
      000000D3H   SFRSYM    DATA     BYTE      T4L
      000000B8H.3 SFRSYM    DATA     BIT       PT1
      000000D0H.3 SFRSYM    DATA     BIT       RS0
      000000C7H   SFRSYM    DATA     BYTE      ISP_CONTR
      00000088H.4 SFRSYM    DATA     BIT       TR0
      000000D0H.4 SFRSYM    DATA     BIT       RS1
      000000C2H   SFRSYM    DATA     BYTE      IAP_DATA
      00000088H.6 SFRSYM    DATA     BIT       TR1
      000000B8H   SFRSYM    DATA     BIT       PX0
      000000C1H   SFRSYM    DATA     BYTE      WDT_CONTR
      000000B8H.2 SFRSYM    DATA     BIT       PX1
      000000F2H   SFRSYM    DATA     BYTE      PCA_PWM0
      000000F3H   SFRSYM    DATA     BYTE      PCA_PWM1
      000000F4H   SFRSYM    DATA     BYTE      PCA_PWM2
      0000009DH   SFRSYM    DATA     BYTE      P1ASF
      00000083H   SFRSYM    DATA     BYTE      DPH
      000000D1H   SFRSYM    DATA     BYTE      T4T3M
      000000BEH   SFRSYM    DATA     BYTE      ADC_RESL
      00000082H   SFRSYM    DATA     BYTE      DPL
      000000CDH   SFRSYM    DATA     BYTE      SPSTAT
      000000B7H   SFRSYM    DATA     BYTE      IPH
      0000009BH   SFRSYM    DATA     BYTE      S2BUF
      00000097H   SFRSYM    DATA     BYTE      PCON2
      000000ADH   SFRSYM    DATA     BYTE      S3BUF
      00000098H.4 SFRSYM    DATA     BIT       REN
      00000085H   SFRSYM    DATA     BYTE      S4BUF
      0000009AH   SFRSYM    DATA     BYTE      S2CON
      000000ACH   SFRSYM    DATA     BYTE      S3CON
      000000C2H   SFRSYM    DATA     BYTE      ISP_DATA
      00000084H   SFRSYM    DATA     BYTE      S4CON
      000000B9H   SFRSYM    DATA     BYTE      SADEN
      000000B0H   SFRSYM    DATA     BIT       RXD
      000000A9H   SFRSYM    DATA     BYTE      SADDR
      000000B0H.1 SFRSYM    DATA     BIT       TXD
      000000F0H   SFRSYM    DATA     BIT       B0
      000000F0H.1 SFRSYM    DATA     BIT       B1
      000000C6H   SFRSYM    DATA     BYTE      IAP_TRIG
      000000A2H   SFRSYM    DATA     BYTE      AUXR1
      000000F0H.2 SFRSYM    DATA     BIT       B2
      00000090H.2 SFRSYM    DATA     BIT       SPI_SS
      0000008FH   SFRSYM    DATA     BYTE      AUXR2
      000000F0H.3 SFRSYM    DATA     BIT       B3
      000000F0H.4 SFRSYM    DATA     BIT       B4
      000000D0H.5 SFRSYM    DATA     BIT       F0
      000000F0H.5 SFRSYM    DATA     BIT       B5
      000000D0H.1 SFRSYM    DATA     BIT       F1
      0000008FH   SFRSYM    DATA     BYTE      INT_CLKO
      000000F0H.6 SFRSYM    DATA     BIT       B6
      000000E0H   SFRSYM    DATA     BIT       ACC0
      000000F0H.7 SFRSYM    DATA     BIT       B7
      000000E0H.1 SFRSYM    DATA     BIT       ACC1
      000000E0H.2 SFRSYM    DATA     BIT       ACC2
      000000E0H.3 SFRSYM    DATA     BIT       ACC3
      000000D0H   SFRSYM    DATA     BYTE      PSW
      000000E0H.4 SFRSYM    DATA     BIT       ACC4
      00000090H.5 SFRSYM    DATA     BIT       SPI_SCLK
      000000D8H   SFRSYM    DATA     BIT       CCF0
      000000E0H.5 SFRSYM    DATA     BIT       ACC5
      000000D8H.1 SFRSYM    DATA     BIT       CCF1
      000000E0H.6 SFRSYM    DATA     BIT       ACC6
LX51 LINKER/LOCATER V4.66.41.0                                                        12/20/2018  14:37:19  PAGE 57


      000000CFH   SFRSYM    DATA     BYTE      SPDAT
      00000094H   SFRSYM    DATA     BYTE      P0M0

      010063D6H   BLOCK     CODE     ---       LVL=0
      010063D6H   LINE      CODE     ---       #16
      010063D6H   LINE      CODE     ---       #21
      010063D6H   LINE      CODE     ---       #23
      010063DFH   LINE      CODE     ---       #25
      010063EDH   LINE      CODE     ---       #27
      010063EDH   LINE      CODE     ---       #29
      010063F7H   LINE      CODE     ---       #31
      010063FAH   LINE      CODE     ---       #33
      01006409H   LINE      CODE     ---       #37
      01006439H   LINE      CODE     ---       #38
      01006439H   LINE      CODE     ---       #39
      01006439H   LINE      CODE     ---       #41
      0100643BH   LINE      CODE     ---       #43
      0100643BH   LINE      CODE     ---       #45
      01006442H   LINE      CODE     ---       #47
      01006445H   LINE      CODE     ---       #49
      01006454H   LINE      CODE     ---       #50
      0100645DH   LINE      CODE     ---       #51
      0100645DH   LINE      CODE     ---       #52
      0100645DH   LINE      CODE     ---       #54
      0100645FH   LINE      CODE     ---       #56
      0100645FH   LINE      CODE     ---       #58
      0100646EH   LINE      CODE     ---       #59
      01006489H   LINE      CODE     ---       #60
      01006492H   LINE      CODE     ---       #61
      01006492H   LINE      CODE     ---       #63
      01006492H   LINE      CODE     ---       #64
      01006492H   LINE      CODE     ---       #66
      01006497H   LINE      CODE     ---       #67
      01006497H   LINE      CODE     ---       #68
      01006497H   LINE      CODE     ---       #70
      ---         BLOCKEND  ---      ---       LVL=0

      ---         MODULE    ---      ---       DATATRANS
      02000546H   PUBLIC    XDATA    BYTE      heartBeatPeriod
      00000024H.3 PUBLIC    BIT      BIT       uartRX_toutFLG
      020004ACH   PUBLIC    XDATA    ---       datsRcv_ZIGB
      0200047FH   PUBLIC    XDATA    ---       datsSend_requestEx
      0200047EH   PUBLIC    XDATA    BYTE      timeCounter_coordinatorLost_detecting
      0200047CH   PUBLIC    XDATA    ---       devNwkHoldTime_Param
      0200047BH   PUBLIC    XDATA    BYTE      factoryRecover_HoldTimeCount
      00000010H   PUBLIC    DATA     BYTE      dtModeKeepAcess_currentCmd
      0200047AH   PUBLIC    XDATA    BYTE      colonyCtrlGet_queryCounter
      02000479H   PUBLIC    XDATA    BYTE      heartBeatHang_timeCnt
      02000473H   PUBLIC    XDATA    ---       dev_agingCmd_rcvPassive
      00000024H.2 PUBLIC    BIT      BIT       factoryRecover_standBy_FLG
      00000024H.1 PUBLIC    BIT      BIT       reConnectAfterDatsReq_IF
      00000024H.0 PUBLIC    BIT      BIT       heartBeatCycle_FLG
      0000000FH   PUBLIC    DATA     BYTE      datsRcv_length
      02000471H   PUBLIC    XDATA    ---       devStatus_switch
      0200046FH   PUBLIC    XDATA    ---       devRemoteDataReqMethod
      020003EBH   PUBLIC    XDATA    ---       datsRcv_respond
      020003EAH   PUBLIC    XDATA    BYTE      colonyCtrlGet_statusLocalScene
      020003ADH   PUBLIC    XDATA    ---       dev_currentDataPoint
      020003AAH   PUBLIC    XDATA    ---       localDataRecord_eaCtrl
      02000326H   PUBLIC    XDATA    ---       datsSend_request
      02000324H   PUBLIC    XDATA    WORD      zigbNwkAction_counter
      02000322H   PUBLIC    XDATA    WORD      dtReqEx_counter
      0000000EH   PUBLIC    DATA     BYTE      rxTout_count
      02000321H   PUBLIC    XDATA    BYTE      heartBeatCount
      0200031BH   PUBLIC    XDATA    ---       dev_agingCmd_sndInitative
LX51 LINKER/LOCATER V4.66.41.0                                                        12/20/2018  14:37:19  PAGE 58


      00000023H.7 PUBLIC    BIT      BIT       rxTout_count_EN
      0000000DH   PUBLIC    DATA     BYTE      devRunning_Status
      0200031AH   PUBLIC    XDATA    BYTE      colonyCtrlGetHang_timeCnt
      02000317H   PUBLIC    XDATA    ---       colonyCtrlGet_statusLocalEaCtrl
      00000023H.6 PUBLIC    BIT      BIT       coordinatorOnline_IF
      01002139H   PUBLIC    CODE     ---       thread_dataTrans
      010077A0H   PUBLIC    CODE     ---       fun_factoryRecoverOpreat
      01007928H   PUBLIC    CODE     ---       devHoldStop_makeInAdvance
      00000020H.4 PUBLIC    BIT      BIT       ?devStatusChangeTo_devHold?BIT
      0100735DH   PUBLIC    CODE     ---       devStatusChangeTo_devHold
      00000020H.4 PUBLIC    BIT      BIT       ?ZigB_nwkOpen?BIT
      0000002EH   PUBLIC    DATA     BYTE      ?ZigB_nwkOpen?BYTE
      010070A4H   PUBLIC    CODE     ---       ZigB_nwkOpen
      00000036H   PUBLIC    DATA     BYTE      ?_zigb_VALIDA_INPUT?BYTE
      0100696BH   PUBLIC    CODE     ---       _zigb_VALIDA_INPUT
      01007842H   PUBLIC    CODE     ---       _periodDataTrans_momentHang
      01006A9CH   PUBLIC    CODE     ---       UART1_Rountine
      01000026H   PUBLIC    CODE     ---       uartObjZigb_Init
      01007894H   PUBLIC    CODE     ---       zigbUart_pinInit
      000000D8H.2 SFRSYM    DATA     BIT       CCF2
      000000E0H.7 SFRSYM    DATA     BIT       ACC7
      00000093H   SFRSYM    DATA     BYTE      P0M1
      00000092H   SFRSYM    DATA     BYTE      P1M0
      00000096H   SFRSYM    DATA     BYTE      P2M0
      00000091H   SFRSYM    DATA     BYTE      P1M1
      00000080H   SFRSYM    DATA     BYTE      P0
      000000B2H   SFRSYM    DATA     BYTE      P3M0
      00000095H   SFRSYM    DATA     BYTE      P2M1
      00000090H   SFRSYM    DATA     BYTE      P1
      000000B4H   SFRSYM    DATA     BYTE      P4M0
      000000B1H   SFRSYM    DATA     BYTE      P3M1
      000000A0H   SFRSYM    DATA     BYTE      P2
      000000CAH   SFRSYM    DATA     BYTE      P5M0
      000000B3H   SFRSYM    DATA     BYTE      P4M1
      000000B0H   SFRSYM    DATA     BYTE      P3
      000000ABH   SFRSYM    DATA     BYTE      WKTCH
      000000B0H.4 SFRSYM    DATA     BIT       T0
      000000D0H.6 SFRSYM    DATA     BIT       AC
      000000CCH   SFRSYM    DATA     BYTE      P6M0
      000000C9H   SFRSYM    DATA     BYTE      P5M1
      000000C0H   SFRSYM    DATA     BYTE      P4
      000000B0H.5 SFRSYM    DATA     BIT       CLKOUT0
      000000B0H.5 SFRSYM    DATA     BIT       T1
      000000E2H   SFRSYM    DATA     BYTE      P7M0
      000000CBH   SFRSYM    DATA     BYTE      P6M1
      000000C8H   SFRSYM    DATA     BYTE      P5
      000000C6H   SFRSYM    DATA     BYTE      ISP_TRIG
      000000A8H.7 SFRSYM    DATA     BIT       EA
      000000B0H.4 SFRSYM    DATA     BIT       CLKOUT1
      000000A0H.4 SFRSYM    DATA     BIT       SPI_SS_2
      000000E8H   SFRSYM    DATA     BYTE      P6
      000000E1H   SFRSYM    DATA     BYTE      P7M1
      000000C8H.4 SFRSYM    DATA     BIT       SPI_SS_3
      00000090H.4 SFRSYM    DATA     BIT       SPI_MISO
      00000090H.3 SFRSYM    DATA     BIT       SPI_MOSI
      00000090H.1 SFRSYM    DATA     BIT       CCP0
      000000F8H   SFRSYM    DATA     BYTE      P7
      000000AAH   SFRSYM    DATA     BYTE      WKTCL
      00000090H   SFRSYM    DATA     BIT       CCP1
      000000CEH   SFRSYM    DATA     BYTE      SPCTL
      000000D8H.7 SFRSYM    DATA     BIT       CF
      000000B0H.7 SFRSYM    DATA     BIT       CCP2
      000000F9H   SFRSYM    DATA     BYTE      CH
      000000A2H   SFRSYM    DATA     BYTE      P_SW1
      000000BAH   SFRSYM    DATA     BYTE      P_SW2
LX51 LINKER/LOCATER V4.66.41.0                                                        12/20/2018  14:37:19  PAGE 59


      000000A8H.5 SFRSYM    DATA     BIT       EADC
      000000A0H.1 SFRSYM    DATA     BIT       SPI_SCLK_2
      000000A8H   SFRSYM    DATA     BYTE      IE
      000000C0H.3 SFRSYM    DATA     BIT       SPI_SCLK_3
      000000E9H   SFRSYM    DATA     BYTE      CL
      000000C5H   SFRSYM    DATA     BYTE      IAP_CMD
      000000FAH   SFRSYM    DATA     BYTE      CCAP0H
      000000FBH   SFRSYM    DATA     BYTE      CCAP1H
      000000FCH   SFRSYM    DATA     BYTE      CCAP2H
      000000BDH   SFRSYM    DATA     BYTE      ADC_RES
      000000B6H   SFRSYM    DATA     BYTE      IPH2
      000000D8H.6 SFRSYM    DATA     BIT       CR
      000000EAH   SFRSYM    DATA     BYTE      CCAP0L
      000000B0H.7 SFRSYM    DATA     BIT       RD
      000000EBH   SFRSYM    DATA     BYTE      CCAP1L
      000000DAH   SFRSYM    DATA     BYTE      CCAPM0
      000000ECH   SFRSYM    DATA     BYTE      CCAP2L
      000000DBH   SFRSYM    DATA     BYTE      CCAPM1
      000000A8H.4 SFRSYM    DATA     BIT       ES
      000000DCH   SFRSYM    DATA     BYTE      CCAPM2
      000000B8H.5 SFRSYM    DATA     BIT       PADC
      000000A0H.2 SFRSYM    DATA     BIT       SPI_MISO_2
      000000A0H.3 SFRSYM    DATA     BIT       SPI_MOSI_2
      000000B8H   SFRSYM    DATA     BYTE      IP
      000000C0H.1 SFRSYM    DATA     BIT       SPI_MISO_3
      000000C0H   SFRSYM    DATA     BIT       SPI_MOSI_3
      00000098H   SFRSYM    DATA     BIT       RI
      000000B0H.2 SFRSYM    DATA     BIT       INT0
      000000D0H.7 SFRSYM    DATA     BIT       CY
      00000098H.1 SFRSYM    DATA     BIT       TI
      000000B0H.3 SFRSYM    DATA     BIT       INT1
      00000097H   SFRSYM    DATA     BYTE      CLK_DIV
      000000C3H   SFRSYM    DATA     BYTE      IAP_ADDRH
      00000090H   SFRSYM    DATA     BIT       RXD2
      000000C5H   SFRSYM    DATA     BYTE      ISP_CMD
      000000B8H.4 SFRSYM    DATA     BIT       PS
      00000090H.1 SFRSYM    DATA     BIT       TXD2
      00000081H   SFRSYM    DATA     BYTE      SP
      000000D9H   SFRSYM    DATA     BYTE      CMOD
      000000D8H   SFRSYM    DATA     BYTE      CCON
      000000C4H   SFRSYM    DATA     BYTE      IAP_ADDRL
      000000B8H.7 SFRSYM    DATA     BIT       PPCA
      000000D0H.2 SFRSYM    DATA     BIT       OV
      000000B0H.6 SFRSYM    DATA     BIT       WR
      000000A8H.6 SFRSYM    DATA     BIT       ELVD
      00000080H   SFRSYM    DATA     BIT       P00
      00000090H   SFRSYM    DATA     BIT       P10
      00000080H.1 SFRSYM    DATA     BIT       P01
      000000BCH   SFRSYM    DATA     BYTE      ADC_CONTR
      00000099H   SFRSYM    DATA     BYTE      SBUF
      00000087H   SFRSYM    DATA     BYTE      PCON
      000000A0H   SFRSYM    DATA     BIT       P20
      00000090H.1 SFRSYM    DATA     BIT       P11
      00000080H.2 SFRSYM    DATA     BIT       P02
      000000C3H   SFRSYM    DATA     BYTE      ISP_ADDRH
      000000B0H   SFRSYM    DATA     BIT       P30
      000000A0H.1 SFRSYM    DATA     BIT       P21
      00000090H.2 SFRSYM    DATA     BIT       P12
      00000080H.3 SFRSYM    DATA     BIT       P03
      000000C0H   SFRSYM    DATA     BIT       P40
      000000B0H.1 SFRSYM    DATA     BIT       P31
      000000A0H.2 SFRSYM    DATA     BIT       P22
      00000090H.3 SFRSYM    DATA     BIT       P13
      00000080H.4 SFRSYM    DATA     BIT       P04
      00000098H   SFRSYM    DATA     BYTE      SCON
LX51 LINKER/LOCATER V4.66.41.0                                                        12/20/2018  14:37:19  PAGE 60


      0000008FH   SFRSYM    DATA     BYTE      WAKE_CLKO
      000000C8H   SFRSYM    DATA     BIT       P50
      000000C0H.1 SFRSYM    DATA     BIT       P41
      000000B0H.2 SFRSYM    DATA     BIT       P32
      000000A0H.3 SFRSYM    DATA     BIT       P23
      00000090H.4 SFRSYM    DATA     BIT       P14
      00000080H.5 SFRSYM    DATA     BIT       P05
      00000089H   SFRSYM    DATA     BYTE      TMOD
      00000088H   SFRSYM    DATA     BYTE      TCON
      000000C8H.1 SFRSYM    DATA     BIT       P51
      000000C0H.2 SFRSYM    DATA     BIT       P42
      000000B0H.3 SFRSYM    DATA     BIT       P33
      000000A0H.4 SFRSYM    DATA     BIT       P24
      00000090H.5 SFRSYM    DATA     BIT       P15
      00000080H.6 SFRSYM    DATA     BIT       P06
      000000C4H   SFRSYM    DATA     BYTE      ISP_ADDRL
      000000B8H.6 SFRSYM    DATA     BIT       PLVD
      000000C8H.2 SFRSYM    DATA     BIT       P52
      000000C0H.3 SFRSYM    DATA     BIT       P43
      000000B0H.4 SFRSYM    DATA     BIT       P34
      000000A0H.5 SFRSYM    DATA     BIT       P25
      00000090H.6 SFRSYM    DATA     BIT       P16
      00000080H.7 SFRSYM    DATA     BIT       P07
      000000C8H.3 SFRSYM    DATA     BIT       P53
      000000C0H.4 SFRSYM    DATA     BIT       P44
      000000B0H.5 SFRSYM    DATA     BIT       P35
      000000A0H.6 SFRSYM    DATA     BIT       P26
      00000090H.7 SFRSYM    DATA     BIT       P17
      000000C8H.4 SFRSYM    DATA     BIT       P54
      000000C0H.5 SFRSYM    DATA     BIT       P45
      000000B0H.6 SFRSYM    DATA     BIT       P36
      000000A0H.7 SFRSYM    DATA     BIT       P27
      000000C8H.5 SFRSYM    DATA     BIT       P55
      000000C0H.6 SFRSYM    DATA     BIT       P46
      000000B0H.7 SFRSYM    DATA     BIT       P37
      000000C8H.6 SFRSYM    DATA     BIT       P56
      000000C0H.7 SFRSYM    DATA     BIT       P47
      000000C8H.7 SFRSYM    DATA     BIT       P57
      00000088H.1 SFRSYM    DATA     BIT       IE0
      000000A1H   SFRSYM    DATA     BYTE      BUS_SPEED
      00000088H.3 SFRSYM    DATA     BIT       IE1
      000000AFH   SFRSYM    DATA     BYTE      IE2
      000000F0H   SFRSYM    DATA     BYTE      B
      0000008EH   SFRSYM    DATA     BYTE      AUXR
      000000C7H   SFRSYM    DATA     BYTE      IAP_CONTR
      000000E0H   SFRSYM    DATA     BYTE      ACC
      000000A8H.1 SFRSYM    DATA     BIT       ET0
      000000A8H.3 SFRSYM    DATA     BIT       ET1
      00000088H.5 SFRSYM    DATA     BIT       TF0
      00000088H.7 SFRSYM    DATA     BIT       TF1
      000000B5H   SFRSYM    DATA     BYTE      IP2
      0000008CH   SFRSYM    DATA     BYTE      RL_TH0
      00000098H.2 SFRSYM    DATA     BIT       RB8
      0000008DH   SFRSYM    DATA     BYTE      RL_TH1
      0000008CH   SFRSYM    DATA     BYTE      TH0
      000000A8H   SFRSYM    DATA     BIT       EX0
      00000088H   SFRSYM    DATA     BIT       IT0
      000000D6H   SFRSYM    DATA     BYTE      RL_T2H
      0000008DH   SFRSYM    DATA     BYTE      TH1
      000000A8H.2 SFRSYM    DATA     BIT       EX1
      00000098H.3 SFRSYM    DATA     BIT       TB8
      00000088H.2 SFRSYM    DATA     BIT       IT1
      000000D4H   SFRSYM    DATA     BYTE      RL_T3H
      000000D6H   SFRSYM    DATA     BYTE      TH2
      000000D6H   SFRSYM    DATA     BYTE      T2H
LX51 LINKER/LOCATER V4.66.41.0                                                        12/20/2018  14:37:19  PAGE 61


      000000D0H   SFRSYM    DATA     BIT       P
      000000D2H   SFRSYM    DATA     BYTE      RL_T4H
      000000D4H   SFRSYM    DATA     BYTE      TH3
      000000D4H   SFRSYM    DATA     BYTE      T3H
      0000008AH   SFRSYM    DATA     BYTE      RL_TL0
      00000098H.7 SFRSYM    DATA     BIT       SM0
      000000D2H   SFRSYM    DATA     BYTE      TH4
      000000D2H   SFRSYM    DATA     BYTE      T4H
      0000008BH   SFRSYM    DATA     BYTE      RL_TL1
      0000008AH   SFRSYM    DATA     BYTE      TL0
      00000098H.6 SFRSYM    DATA     BIT       SM1
      000000D7H   SFRSYM    DATA     BYTE      RL_T2L
      0000008BH   SFRSYM    DATA     BYTE      TL1
      00000098H.5 SFRSYM    DATA     BIT       SM2
      000000D5H   SFRSYM    DATA     BYTE      RL_T3L
      000000D7H   SFRSYM    DATA     BYTE      TL2
      000000D7H   SFRSYM    DATA     BYTE      T2L
      000000D3H   SFRSYM    DATA     BYTE      RL_T4L
      000000D5H   SFRSYM    DATA     BYTE      TL3
      000000D5H   SFRSYM    DATA     BYTE      T3L
      000000B8H.1 SFRSYM    DATA     BIT       PT0
      000000D3H   SFRSYM    DATA     BYTE      TL4
      000000D3H   SFRSYM    DATA     BYTE      T4L
      000000B8H.3 SFRSYM    DATA     BIT       PT1
      000000D0H.3 SFRSYM    DATA     BIT       RS0
      000000C7H   SFRSYM    DATA     BYTE      ISP_CONTR
      00000088H.4 SFRSYM    DATA     BIT       TR0
      000000D0H.4 SFRSYM    DATA     BIT       RS1
      000000C2H   SFRSYM    DATA     BYTE      IAP_DATA
      00000088H.6 SFRSYM    DATA     BIT       TR1
      000000B8H   SFRSYM    DATA     BIT       PX0
      000000C1H   SFRSYM    DATA     BYTE      WDT_CONTR
      000000B8H.2 SFRSYM    DATA     BIT       PX1
      000000F2H   SFRSYM    DATA     BYTE      PCA_PWM0
      000000F3H   SFRSYM    DATA     BYTE      PCA_PWM1
      000000F4H   SFRSYM    DATA     BYTE      PCA_PWM2
      0000009DH   SFRSYM    DATA     BYTE      P1ASF
      00000083H   SFRSYM    DATA     BYTE      DPH
      000000D1H   SFRSYM    DATA     BYTE      T4T3M
      000000BEH   SFRSYM    DATA     BYTE      ADC_RESL
      00000082H   SFRSYM    DATA     BYTE      DPL
      000000CDH   SFRSYM    DATA     BYTE      SPSTAT
      000000B7H   SFRSYM    DATA     BYTE      IPH
      0000009BH   SFRSYM    DATA     BYTE      S2BUF
      00000097H   SFRSYM    DATA     BYTE      PCON2
      000000ADH   SFRSYM    DATA     BYTE      S3BUF
      00000098H.4 SFRSYM    DATA     BIT       REN
      00000085H   SFRSYM    DATA     BYTE      S4BUF
      0000009AH   SFRSYM    DATA     BYTE      S2CON
      000000ACH   SFRSYM    DATA     BYTE      S3CON
      000000C2H   SFRSYM    DATA     BYTE      ISP_DATA
      00000084H   SFRSYM    DATA     BYTE      S4CON
      000000B9H   SFRSYM    DATA     BYTE      SADEN
      000000B0H   SFRSYM    DATA     BIT       RXD
      000000A9H   SFRSYM    DATA     BYTE      SADDR
      000000B0H.1 SFRSYM    DATA     BIT       TXD
      000000F0H   SFRSYM    DATA     BIT       B0
      000000F0H.1 SFRSYM    DATA     BIT       B1
      000000C6H   SFRSYM    DATA     BYTE      IAP_TRIG
      000000A2H   SFRSYM    DATA     BYTE      AUXR1
      000000F0H.2 SFRSYM    DATA     BIT       B2
      00000090H.2 SFRSYM    DATA     BIT       SPI_SS
      0000008FH   SFRSYM    DATA     BYTE      AUXR2
      000000F0H.3 SFRSYM    DATA     BIT       B3
      000000F0H.4 SFRSYM    DATA     BIT       B4
LX51 LINKER/LOCATER V4.66.41.0                                                        12/20/2018  14:37:19  PAGE 62


      000000D0H.5 SFRSYM    DATA     BIT       F0
      000000F0H.5 SFRSYM    DATA     BIT       B5
      000000D0H.1 SFRSYM    DATA     BIT       F1
      0000008FH   SFRSYM    DATA     BYTE      INT_CLKO
      000000F0H.6 SFRSYM    DATA     BIT       B6
      000000E0H   SFRSYM    DATA     BIT       ACC0
      000000F0H.7 SFRSYM    DATA     BIT       B7
      000000E0H.1 SFRSYM    DATA     BIT       ACC1
      000000E0H.2 SFRSYM    DATA     BIT       ACC2
      000000E0H.3 SFRSYM    DATA     BIT       ACC3
      000000D0H   SFRSYM    DATA     BYTE      PSW
      000000E0H.4 SFRSYM    DATA     BIT       ACC4
      00000090H.5 SFRSYM    DATA     BIT       SPI_SCLK
      000000D8H   SFRSYM    DATA     BIT       CCF0
      000000E0H.5 SFRSYM    DATA     BIT       ACC5
      000000D8H.1 SFRSYM    DATA     BIT       CCF1
      000000E0H.6 SFRSYM    DATA     BIT       ACC6
      000000CFH   SFRSYM    DATA     BYTE      SPDAT
      00000094H   SFRSYM    DATA     BYTE      P0M0
      010054FEH   SYMBOL    CODE     ---       _zigB_sysTimeSet
      0100721AH   SYMBOL    CODE     ---       ZigB_getPanIDCurrent
      01006EE8H   SYMBOL    CODE     ---       _zigb_datsRequest
      01004CE6H   SYMBOL    CODE     ---       dataTransRequest_datsSend
      01005E2FH   SYMBOL    CODE     ---       getSystemTime_reales
      0100429BH   SYMBOL    CODE     ---       zigB_nwkJoinRequest
      01000671H   SYMBOL    CODE     ---       _?ix1000
      01000F49H   SYMBOL    CODE     ---       _?ix1010
      010006B1H   SYMBOL    CODE     ---       _?ix1001
      01001266H   SYMBOL    CODE     ---       _?ix1020
      01000FE2H   SYMBOL    CODE     ---       _?ix1011
      01000797H   SYMBOL    CODE     ---       _?ix1002
      01001022H   SYMBOL    CODE     ---       _?ix1012
      0100079AH   SYMBOL    CODE     ---       _?ix1003
      01001027H   SYMBOL    CODE     ---       _?ix1013
      010007C2H   SYMBOL    CODE     ---       _?ix1004
      0100102AH   SYMBOL    CODE     ---       _?ix1014
      0100086FH   SYMBOL    CODE     ---       _?ix1005
      0100104CH   SYMBOL    CODE     ---       _?ix1015
      01005D23H   SYMBOL    CODE     ---       function_devNwkHold
      01000DC5H   SYMBOL    CODE     ---       _?ix1006
      010010EBH   SYMBOL    CODE     ---       _?ix1016
      01000E05H   SYMBOL    CODE     ---       _?ix1007
      01001128H   SYMBOL    CODE     ---       _?ix1017
      01000E17H   SYMBOL    CODE     ---       _?ix1008
      01001132H   SYMBOL    CODE     ---       _?ix1018
      01000EB0H   SYMBOL    CODE     ---       _?ix1009
      010011CBH   SYMBOL    CODE     ---       _?ix1019
      010075A2H   SYMBOL    CODE     ---       _frame_Check
      01007041H   SYMBOL    CODE     ---       _dataParing_scenarioCtrl
      0100126CH   SYMBOL    CODE     ---       _dataParing_Nomal
      01006D61H   SYMBOL    CODE     ---       _zigb_datsLoad_datsSend
      010073F7H   SYMBOL    CODE     ---       _dataSendRemote_straightforward
      01005AD1H   SYMBOL    CODE     ---       dtasTX_loadBasic_CUST
      01004FF9H   SYMBOL    CODE     ---       _dataParing_zigbSysCtrl
      01006498H   SYMBOL    CODE     ---       _ZigB_TXFrameLoad

      01007894H   BLOCK     CODE     ---       LVL=0
      01007894H   LINE      CODE     ---       #72
      01007894H   LINE      CODE     ---       #75
      01007897H   LINE      CODE     ---       #76
      0100789AH   LINE      CODE     ---       #79
      0100789DH   LINE      CODE     ---       #80
      010078A0H   LINE      CODE     ---       #88
      010078A3H   LINE      CODE     ---       #89
      010078A6H   LINE      CODE     ---       #91
LX51 LINKER/LOCATER V4.66.41.0                                                        12/20/2018  14:37:19  PAGE 63


      ---         BLOCKEND  ---      ---       LVL=0

      01000026H   BLOCK     CODE     ---       LVL=0
      01000032H   BLOCK     CODE     NEAR LAB  LVL=1
      00000027H   SYMBOL    DATA     DWORD     j
      ---         BLOCKEND  ---      ---       LVL=1
      01000026H   LINE      CODE     ---       #94
      01000026H   LINE      CODE     ---       #96
      01000028H   LINE      CODE     ---       #98
      0100002AH   LINE      CODE     ---       #99
      01000032H   LINE      CODE     ---       #101
      01000032H   LINE      CODE     ---       #102
      0100003CH   LINE      CODE     ---       #103
      01000051H   LINE      CODE     ---       #105
      0100005FH   LINE      CODE     ---       #106
      01000062H   LINE      CODE     ---       #107
      01000062H   LINE      CODE     ---       #108
      01000065H   LINE      CODE     ---       #109
      01000068H   LINE      CODE     ---       #110
      0100006BH   LINE      CODE     ---       #111
      0100006EH   LINE      CODE     ---       #113
      01000071H   LINE      CODE     ---       #114
      01000074H   LINE      CODE     ---       #115
      01000077H   LINE      CODE     ---       #117
      01000079H   LINE      CODE     ---       #118
      0100007BH   LINE      CODE     ---       #119
      0100007EH   LINE      CODE     ---       #121
      0100008DH   LINE      CODE     ---       #123
      0100008FH   LINE      CODE     ---       #125
      01000098H   LINE      CODE     ---       #126
      ---         BLOCKEND  ---      ---       LVL=0

      01006A9CH   BLOCK     CODE     ---       LVL=0
      01006A9CH   LINE      CODE     ---       #149
      01006AB9H   LINE      CODE     ---       #152
      01006ABCH   LINE      CODE     ---       #153
      01006ABCH   LINE      CODE     ---       #154
      01006ABEH   LINE      CODE     ---       #155
      01006AC2H   LINE      CODE     ---       #156
      01006AC2H   LINE      CODE     ---       #162
      01006AC5H   LINE      CODE     ---       #164
      01006AC7H   LINE      CODE     ---       #165
      01006AC9H   LINE      CODE     ---       #166
      01006ACBH   LINE      CODE     ---       #168
      01006AD9H   LINE      CODE     ---       #169
      01006AD9H   LINE      CODE     ---       #171
      01006AEAH   LINE      CODE     ---       #172
      01006AEDH   LINE      CODE     ---       #173
      01006AEDH   LINE      CODE     ---       #174
      01006AEDH   LINE      CODE     ---       #176
      01006AF0H   LINE      CODE     ---       #177
      01006AF0H   LINE      CODE     ---       #178
      01006AF2H   LINE      CODE     ---       #179
      01006AF8H   LINE      CODE     ---       #180
      01006AF8H   LINE      CODE     ---       #181
      01006B06H   LINE      CODE     ---       #182
      01006B12H   LINE      CODE     ---       #183
      01006B14H   LINE      CODE     ---       #184
      01006B17H   LINE      CODE     ---       #185
      01006B17H   LINE      CODE     ---       #186
      ---         BLOCKEND  ---      ---       LVL=0

      010075A2H   BLOCK     CODE     ---       LVL=0
      00000039H   SYMBOL    DATA     ---       frame_temp
      00000005H   SYMBOL    DATA     BYTE      check_num
LX51 LINKER/LOCATER V4.66.41.0                                                        12/20/2018  14:37:19  PAGE 64


      010075A8H   BLOCK     CODE     NEAR LAB  LVL=1
      00000007H   SYMBOL    DATA     BYTE      loop
      00000006H   SYMBOL    DATA     BYTE      val_Check
      ---         BLOCKEND  ---      ---       LVL=1
      010075A2H   LINE      CODE     ---       #190
      010075A8H   LINE      CODE     ---       #192
      010075AAH   LINE      CODE     ---       #193
      010075ABH   LINE      CODE     ---       #195
      010075B0H   LINE      CODE     ---       #197
      010075C0H   LINE      CODE     ---       #198
      010075C3H   LINE      CODE     ---       #200
      010075C6H   LINE      CODE     ---       #201
      010075C9H   LINE      CODE     ---       #203
      010075CBH   LINE      CODE     ---       #204
      ---         BLOCKEND  ---      ---       LVL=0

      01005AD1H   BLOCK     CODE     ---       LVL=0
      00000020H.6 SYMBOL    BIT      BIT       ifRemoteDats
      00000033H   SYMBOL    DATA     ---       dats_Tx
      00000036H   SYMBOL    DATA     BYTE      datsLen_TX
      00000037H   SYMBOL    DATA     BYTE      frame_Type
      00000038H   SYMBOL    DATA     BYTE      frame_CMD
      00000020H.7 SYMBOL    BIT      BIT       ifSpecial_CMD
      01005B35H   BLOCK     CODE     NEAR LAB  LVL=1
      02000212H   SYMBOL    XDATA    ---       dats_Temp
      ---         BLOCKEND  ---      ---       LVL=1
      01005AD1H   LINE      CODE     ---       #208
      01005AD1H   LINE      CODE     ---       #213
      01005AD1H   LINE      CODE     ---       #215
      01005ADFH   LINE      CODE     ---       #216
      01005AE7H   LINE      CODE     ---       #218
      01005AF8H   LINE      CODE     ---       #220
      01005B12H   LINE      CODE     ---       #222
      01005B2FH   LINE      CODE     ---       #224
      01005B35H   LINE      CODE     ---       #226
      01005B48H   LINE      CODE     ---       #228
      01005B53H   LINE      CODE     ---       #229
      01005B63H   LINE      CODE     ---       #231
      01005B7CH   LINE      CODE     ---       #232
      01005B95H   LINE      CODE     ---       #233
      01005BB4H   LINE      CODE     ---       #234
      01005BCEH   LINE      CODE     ---       #235
      01005BE8H   LINE      CODE     ---       #237
      01005BEBH   LINE      CODE     ---       #239
      01005BEBH   LINE      CODE     ---       #241
      01005BF6H   LINE      CODE     ---       #242
      01005C04H   LINE      CODE     ---       #244
      01005C06H   LINE      CODE     ---       #245
      01005C06H   LINE      CODE     ---       #246
      ---         BLOCKEND  ---      ---       LVL=0
      00000005H   SYMBOL    DATA     BYTE      length
      00000007H   SYMBOL    DATA     BYTE      loop
      00000006H   SYMBOL    DATA     BYTE      valXOR

      01006498H   BLOCK     CODE     VOID      LVL=0
      ---         BLOCKEND  ---      ---       LVL=0

      010064A2H   BLOCK     CODE     ---       LVL=0
      00000046H   SYMBOL    DATA     ---       frame
      00000049H   SYMBOL    DATA     ---       cmd
      0000004CH   SYMBOL    DATA     BYTE      cmdLen
      0000004DH   SYMBOL    DATA     ---       dats
      00000050H   SYMBOL    DATA     BYTE      datsLen
      00000007H   SYMBOL    DATA     BYTE      frameHead
      00000051H   SYMBOL    DATA     BYTE      xor_check
LX51 LINKER/LOCATER V4.66.41.0                                                        12/20/2018  14:37:19  PAGE 65


      00000006H   SYMBOL    DATA     BYTE      loop
      00000052H   SYMBOL    DATA     BYTE      ptr
      010064A8H   BLOCK     CODE     NEAR LAB  LVL=1
      00000007H   SYMBOL    DATA     BYTE      frameHead
      00000051H   SYMBOL    DATA     BYTE      xor_check
      00000006H   SYMBOL    DATA     BYTE      loop
      00000052H   SYMBOL    DATA     BYTE      ptr
      ---         BLOCKEND  ---      ---       LVL=1
      010064A2H   LINE      CODE     ---       #262
      010064A8H   LINE      CODE     ---       #264
      010064A8H   LINE      CODE     ---       #265
      010064ABH   LINE      CODE     ---       #266
      010064ACH   LINE      CODE     ---       #267
      010064AEH   LINE      CODE     ---       #269
      010064BBH   LINE      CODE     ---       #270
      010064C9H   LINE      CODE     ---       #272
      010064E5H   LINE      CODE     ---       #273
      010064EBH   LINE      CODE     ---       #274
      01006506H   LINE      CODE     ---       #276
      01006522H   LINE      CODE     ---       #277
      01006528H   LINE      CODE     ---       #278
      01006543H   LINE      CODE     ---       #280
      01006557H   LINE      CODE     ---       #282
      01006559H   LINE      CODE     ---       #283
      ---         BLOCKEND  ---      ---       LVL=0

      01007842H   BLOCK     CODE     ---       LVL=0
      00000007H   SYMBOL    DATA     BYTE      hangTime
      01007842H   LINE      CODE     ---       #286
      01007842H   LINE      CODE     ---       #288
      01007847H   LINE      CODE     ---       #289
      0100784DH   LINE      CODE     ---       #291
      01007856H   LINE      CODE     ---       #292
      ---         BLOCKEND  ---      ---       LVL=0

      01006EE8H   BLOCK     CODE     ---       LVL=0
      0000003AH   SYMBOL    DATA     ---       frameREQ
      0000003DH   SYMBOL    DATA     BYTE      frameREQ_Len
      0000003EH   SYMBOL    DATA     ---       resp_cmd
      00000041H   SYMBOL    DATA     ---       resp_dats
      00000044H   SYMBOL    DATA     BYTE      loopReapt
      00000045H   SYMBOL    DATA     WORD      timeWait
      01006EF0H   BLOCK     CODE     NEAR LAB  LVL=1
      00000047H   SYMBOL    DATA     WORD      Local_Delay
      00000049H   SYMBOL    DATA     BYTE      loop
      ---         BLOCKEND  ---      ---       LVL=1
      01006EE8H   LINE      CODE     ---       #296
      01006EF0H   LINE      CODE     ---       #300
      01006EF0H   LINE      CODE     ---       #302
      01006EF6H   LINE      CODE     ---       #303
      01006EF9H   LINE      CODE     ---       #305
      01006F02H   LINE      CODE     ---       #307
      01006F04H   LINE      CODE     ---       #308
      01006F0EH   LINE      CODE     ---       #309
      01006F19H   LINE      CODE     ---       #311
      01006F23H   LINE      CODE     ---       #313
      01006F26H   LINE      CODE     ---       #315
      01006F28H   LINE      CODE     ---       #317
      01006F3EH   LINE      CODE     ---       #319
      01006F54H   LINE      CODE     ---       #320
      01006F5AH   LINE      CODE     ---       #322
      01006F5AH   LINE      CODE     ---       #323
      01006F5AH   LINE      CODE     ---       #324
      01006F5AH   LINE      CODE     ---       #325
      01006F5EH   LINE      CODE     ---       #327
LX51 LINKER/LOCATER V4.66.41.0                                                        12/20/2018  14:37:19  PAGE 66


      01006F60H   LINE      CODE     ---       #328
      ---         BLOCKEND  ---      ---       LVL=0

      0100696BH   BLOCK     CODE     ---       LVL=0
      00000036H   SYMBOL    DATA     ---       REQ_CMD
      00000039H   SYMBOL    DATA     ---       REQ_DATS
      0000003CH   SYMBOL    DATA     BYTE      REQdatsLen
      0000003DH   SYMBOL    DATA     ---       ANSR_frame
      00000040H   SYMBOL    DATA     BYTE      ANSRdatsLen
      00000041H   SYMBOL    DATA     BYTE      times
      00000042H   SYMBOL    DATA     WORD      timeDelay
      01006971H   BLOCK     CODE     NEAR LAB  LVL=1
      020001E8H   SYMBOL    XDATA    ---       dataTXBUF
      00000044H   SYMBOL    DATA     BYTE      loop
      00000045H   SYMBOL    DATA     BYTE      datsTX_Len
      ---         BLOCKEND  ---      ---       LVL=1
      0100696BH   LINE      CODE     ---       #331
      01006971H   LINE      CODE     ---       #336
      01006971H   LINE      CODE     ---       #339
      01006984H   LINE      CODE     ---       #340
      01006987H   LINE      CODE     ---       #343
      010069AAH   LINE      CODE     ---       #345
      010069B4H   LINE      CODE     ---       #347
      010069B6H   LINE      CODE     ---       #348
      010069C0H   LINE      CODE     ---       #349
      010069CBH   LINE      CODE     ---       #351
      010069D5H   LINE      CODE     ---       #353
      010069D8H   LINE      CODE     ---       #355
      010069DAH   LINE      CODE     ---       #357
      010069F6H   LINE      CODE     ---       #359
      010069FDH   LINE      CODE     ---       #360
      010069FFH   LINE      CODE     ---       #361
      010069FFH   LINE      CODE     ---       #362
      010069FFH   LINE      CODE     ---       #363
      010069FFH   LINE      CODE     ---       #364
      01006A03H   LINE      CODE     ---       #366
      01006A04H   LINE      CODE     ---       #367
      ---         BLOCKEND  ---      ---       LVL=0

      010070A4H   BLOCK     CODE     ---       LVL=0
      00000020H.4 SYMBOL    BIT      BIT       openIF
      0000002EH   SYMBOL    DATA     BYTE      openTime
      010070A4H   BLOCK     CODE     NEAR LAB  LVL=1
      01000711H   SYMBOL    CODE     ---       default_param
      00000020H.5 SYMBOL    BIT      BIT       resultSet
      0000002FH   SYMBOL    DATA     BYTE      openTime_temp
      020001DDH   SYMBOL    XDATA    ---       paramTX_temp
      ---         BLOCKEND  ---      ---       LVL=1
      010070A4H   LINE      CODE     ---       #482
      010070A4H   LINE      CODE     ---       #486
      010070A6H   LINE      CODE     ---       #488
      010070A9H   LINE      CODE     ---       #491
      010070BBH   LINE      CODE     ---       #493
      010070CBH   LINE      CODE     ---       #498
      01007103H   LINE      CODE     ---       #512
      01007105H   LINE      CODE     ---       #513
      ---         BLOCKEND  ---      ---       LVL=0

      0100721AH   BLOCK     CODE     ---       LVL=0
      0100721AH   BLOCK     CODE     NEAR LAB  LVL=1
      00000038H   SYMBOL    DATA     WORD      PANID_temp
      0200017CH   SYMBOL    XDATA    ---       paramTX_temp
      010007BAH   SYMBOL    CODE     ---       frameREQ_zigbPanIDGet
      010007C0H   SYMBOL    CODE     ---       cmdResp_zigbPanIDGet
      00000007H   SYMBOL    DATA     BYTE      datsResp_Len
LX51 LINKER/LOCATER V4.66.41.0                                                        12/20/2018  14:37:19  PAGE 67


      ---         BLOCKEND  ---      ---       LVL=1
      0100721AH   LINE      CODE     ---       #516
      0100721AH   LINE      CODE     ---       #518
      0100721FH   LINE      CODE     ---       #521
      01007231H   LINE      CODE     ---       #525
      01007233H   LINE      CODE     ---       #527
      01007259H   LINE      CODE     ---       #529
      0100725CH   LINE      CODE     ---       #531
      01007262H   LINE      CODE     ---       #532
      01007268H   LINE      CODE     ---       #535
      01007268H   LINE      CODE     ---       #537
      0100726CH   LINE      CODE     ---       #538
      ---         BLOCKEND  ---      ---       LVL=0

      01005E2FH   BLOCK     CODE     ---       LVL=0
      01005E2FH   BLOCK     CODE     NEAR LAB  LVL=1
      00000020H.2 SYMBOL    BIT      BIT       resultOpreat
      0200013BH   SYMBOL    XDATA    ---       paramTX_temp
      010007E2H   SYMBOL    CODE     ---       frameREQ_zigbSystimeGet
      010007E7H   SYMBOL    CODE     ---       cmdResp_zigbSystimeGet
      00000007H   SYMBOL    DATA     BYTE      datsResp_Len
      01005E74H   BLOCK     CODE     NEAR LAB  LVL=2
      00000027H   SYMBOL    DATA     WORD      Y_temp16
      00000029H   SYMBOL    DATA     BYTE      Y_temp8
      0000002AH   SYMBOL    DATA     BYTE      M_temp8
      0000002BH   SYMBOL    DATA     BYTE      Y
      0000002CH   SYMBOL    DATA     BYTE      M
      0000002DH   SYMBOL    DATA     BYTE      D
      0000002EH   SYMBOL    DATA     BYTE      W
      ---         BLOCKEND  ---      ---       LVL=2
      ---         BLOCKEND  ---      ---       LVL=1
      01005E2FH   LINE      CODE     ---       #541
      01005E2FH   LINE      CODE     ---       #543
      01005E31H   LINE      CODE     ---       #546
      01005E44H   LINE      CODE     ---       #550
      01005E46H   LINE      CODE     ---       #552
      01005E6CH   LINE      CODE     ---       #554
      01005E74H   LINE      CODE     ---       #555
      01005E74H   LINE      CODE     ---       #557
      01005E84H   LINE      CODE     ---       #558
      01005E87H   LINE      CODE     ---       #559
      01005E89H   LINE      CODE     ---       #561
      01005E96H   LINE      CODE     ---       #562
      01005E9CH   LINE      CODE     ---       #563
      01005EA0H   LINE      CODE     ---       #564
      01005EA3H   LINE      CODE     ---       #567
      01005EA6H   LINE      CODE     ---       #568
      01005EB1H   LINE      CODE     ---       #570
      01005EB7H   LINE      CODE     ---       #571
      01005EB9H   LINE      CODE     ---       #572
      01005EBBH   LINE      CODE     ---       #573
      01005EBEH   LINE      CODE     ---       #576
      01005EE1H   LINE      CODE     ---       #577
      01005EE8H   LINE      CODE     ---       #580
      01005EF5H   LINE      CODE     ---       #582
      01005EFBH   LINE      CODE     ---       #583
      01005F01H   LINE      CODE     ---       #584
      01005F07H   LINE      CODE     ---       #586
      01005F0FH   LINE      CODE     ---       #587
      01005F17H   LINE      CODE     ---       #588
      01005F20H   LINE      CODE     ---       #591
      01005F34H   LINE      CODE     ---       #593
      01005F36H   LINE      CODE     ---       #594
      01005F36H   LINE      CODE     ---       #605
      01005F38H   LINE      CODE     ---       #606
LX51 LINKER/LOCATER V4.66.41.0                                                        12/20/2018  14:37:19  PAGE 68


      ---         BLOCKEND  ---      ---       LVL=0

      010054FEH   BLOCK     CODE     ---       LVL=0
      0000002EH   SYMBOL    DATA     DWORD     timeStamp
      00000020H.4 SYMBOL    BIT      BIT       timeZoneAdjust_IF
      01005506H   BLOCK     CODE     NEAR LAB  LVL=1
      010007E9H   SYMBOL    CODE     ---       default_param
      020001DDH   SYMBOL    XDATA    ---       timeStampArray
      00000020H.5 SYMBOL    BIT      BIT       resultSet
      00000032H   SYMBOL    DATA     DWORD     timeStamp_temp
      ---         BLOCKEND  ---      ---       LVL=1
      010054FEH   LINE      CODE     ---       #610
      01005506H   LINE      CODE     ---       #613
      01005519H   LINE      CODE     ---       #614
      0100551BH   LINE      CODE     ---       #615
      01005527H   LINE      CODE     ---       #617
      0100552DH   LINE      CODE     ---       #619
      01005536H   LINE      CODE     ---       #621
      01005574H   LINE      CODE     ---       #623
      01005577H   LINE      CODE     ---       #624
      01005587H   LINE      CODE     ---       #626
      010055DDH   LINE      CODE     ---       #628
      010055DFH   LINE      CODE     ---       #629
      010055E9H   LINE      CODE     ---       #631
      0100563EH   LINE      CODE     ---       #632
      0100563EH   LINE      CODE     ---       #633
      0100563EH   LINE      CODE     ---       #635
      01005646H   LINE      CODE     ---       #636
      01005656H   LINE      CODE     ---       #637
      01005666H   LINE      CODE     ---       #638
      01005675H   LINE      CODE     ---       #643
      010056ADH   LINE      CODE     ---       #657
      010056AFH   LINE      CODE     ---       #658
      ---         BLOCKEND  ---      ---       LVL=0

      0100429BH   BLOCK     CODE     ---       LVL=0
      00000020H.2 SYMBOL    BIT      BIT       reJoin_IF
      0100429BH   BLOCK     CODE     NEAR LAB  LVL=1
      0100087AH   SYMBOL    CODE     ---       ZigbInit_dats
      01000D30H   SYMBOL    CODE     ---       defaultParam_clusterRegister
      01000DB6H   SYMBOL    CODE     ---       frameResponseSubs_clusterRegister
      01000DBCH   SYMBOL    CODE     ---       cluster_Default
      0200013BH   SYMBOL    XDATA    ---       paramTX_temp
      02000313H   SYMBOL    XDATA    BYTE      step_CortexA
      02000314H   SYMBOL    XDATA    BYTE      step_CortexB
      02000315H   SYMBOL    XDATA    BYTE      reactionLoop
      0200017BH   SYMBOL    XDATA    BYTE      actionReaptDefine_normal
      00000027H   SYMBOL    DATA     BYTE      datsTX_Len
      0100433EH   BLOCK     CODE     NEAR LAB  LVL=2
      02000312H   SYMBOL    XDATA    BYTE      stepDisp_CortexA
      00000028H   SYMBOL    DATA     ---       datsREG_cluster
      ---         BLOCKEND  ---      ---       LVL=2
      01004521H   BLOCK     CODE     NEAR LAB  LVL=2
      00000028H   SYMBOL    DATA     ---       datsREG_cluster
      ---         BLOCKEND  ---      ---       LVL=2
      ---         BLOCKEND  ---      ---       LVL=1
      0100429BH   LINE      CODE     ---       #727
      0100429BH   LINE      CODE     ---       #763
      010042AEH   LINE      CODE     ---       #768
      010042B4H   LINE      CODE     ---       #770
      010042B7H   LINE      CODE     ---       #772
      010042BFH   LINE      CODE     ---       #774
      010042C2H   LINE      CODE     ---       #775
      010042C6H   LINE      CODE     ---       #777
      010042CBH   LINE      CODE     ---       #778
LX51 LINKER/LOCATER V4.66.41.0                                                        12/20/2018  14:37:19  PAGE 69


      010042CDH   LINE      CODE     ---       #779
      010042CFH   LINE      CODE     ---       #780
      010042D2H   LINE      CODE     ---       #783
      010042D2H   LINE      CODE     ---       #785
      010042DBH   LINE      CODE     ---       #787
      010042DDH   LINE      CODE     ---       #788
      010042DFH   LINE      CODE     ---       #789
      010042E1H   LINE      CODE     ---       #790
      010042E3H   LINE      CODE     ---       #792
      010042E9H   LINE      CODE     ---       #794
      010042ECH   LINE      CODE     ---       #795
      010042EFH   LINE      CODE     ---       #797
      010042F6H   LINE      CODE     ---       #800
      010042F6H   LINE      CODE     ---       #801
      01004305H   LINE      CODE     ---       #802
      01004317H   LINE      CODE     ---       #803
      01004320H   LINE      CODE     ---       #804
      01004320H   LINE      CODE     ---       #808
      01004320H   LINE      CODE     ---       #810
      0100432CH   LINE      CODE     ---       #811
      0100433EH   LINE      CODE     ---       #814
      0100433EH   LINE      CODE     ---       #818
      01004345H   LINE      CODE     ---       #820
      0100434BH   LINE      CODE     ---       #821
      0100435AH   LINE      CODE     ---       #822
      0100437EH   LINE      CODE     ---       #823
      01004387H   LINE      CODE     ---       #824
      01004387H   LINE      CODE     ---       #825
      01004387H   LINE      CODE     ---       #828
      01004391H   LINE      CODE     ---       #830
      01004397H   LINE      CODE     ---       #832
      01004397H   LINE      CODE     ---       #834
      010043A8H   LINE      CODE     ---       #836
      010043A8H   LINE      CODE     ---       #838
      010043AAH   LINE      CODE     ---       #839
      010043B2H   LINE      CODE     ---       #840
      010043B2H   LINE      CODE     ---       #842
      010043B5H   LINE      CODE     ---       #844
      010043B5H   LINE      CODE     ---       #846
      010043C2H   LINE      CODE     ---       #848
      010043C4H   LINE      CODE     ---       #849
      010043CEH   LINE      CODE     ---       #850
      010043D4H   LINE      CODE     ---       #851
      010043D4H   LINE      CODE     ---       #853
      010043D5H   LINE      CODE     ---       #855
      010043D5H   LINE      CODE     ---       #857
      010043E3H   LINE      CODE     ---       #859
      010043E9H   LINE      CODE     ---       #861
      010043EBH   LINE      CODE     ---       #863
      0100440EH   LINE      CODE     ---       #865
      0100440EH   LINE      CODE     ---       #866
      0100440EH   LINE      CODE     ---       #867
      0100440EH   LINE      CODE     ---       #868
      0100440EH   LINE      CODE     ---       #869
      0100440EH   LINE      CODE     ---       #871
      01004411H   LINE      CODE     ---       #872
      01004411H   LINE      CODE     ---       #874
      01004411H   LINE      CODE     ---       #875
      01004411H   LINE      CODE     ---       #876
      01004411H   LINE      CODE     ---       #877
      01004426H   LINE      CODE     ---       #881
      01004434H   LINE      CODE     ---       #883
      01004434H   LINE      CODE     ---       #885
      01004447H   LINE      CODE     ---       #887
      01004454H   LINE      CODE     ---       #889
LX51 LINKER/LOCATER V4.66.41.0                                                        12/20/2018  14:37:19  PAGE 70


      01004454H   LINE      CODE     ---       #890
      01004454H   LINE      CODE     ---       #891
      01004457H   LINE      CODE     ---       #892
      01004457H   LINE      CODE     ---       #894
      01004494H   LINE      CODE     ---       #900
      0100449FH   LINE      CODE     ---       #902
      010044BEH   LINE      CODE     ---       #903
      010044BEH   LINE      CODE     ---       #905
      010044C1H   LINE      CODE     ---       #907
      010044C1H   LINE      CODE     ---       #909
      010044CBH   LINE      CODE     ---       #911
      010044CBH   LINE      CODE     ---       #912
      010044CBH   LINE      CODE     ---       #913
      010044CEH   LINE      CODE     ---       #915
      010044D4H   LINE      CODE     ---       #917
      010044D6H   LINE      CODE     ---       #919
      01004512H   LINE      CODE     ---       #921
      01004512H   LINE      CODE     ---       #922
      01004512H   LINE      CODE     ---       #923
      01004512H   LINE      CODE     ---       #924
      01004512H   LINE      CODE     ---       #925
      01004512H   LINE      CODE     ---       #927
      01004515H   LINE      CODE     ---       #928
      01004515H   LINE      CODE     ---       #930
      01004515H   LINE      CODE     ---       #931
      01004521H   LINE      CODE     ---       #933
      01004534H   LINE      CODE     ---       #934
      0100454BH   LINE      CODE     ---       #935
      01004555H   LINE      CODE     ---       #937
      01004568H   LINE      CODE     ---       #938
      0100457EH   LINE      CODE     ---       #939
      01004581H   LINE      CODE     ---       #941
      01004583H   LINE      CODE     ---       #943
      01004599H   LINE      CODE     ---       #945
      0100459BH   LINE      CODE     ---       #946
      0100459EH   LINE      CODE     ---       #947
      010045A1H   LINE      CODE     ---       #949
      010045A1H   LINE      CODE     ---       #953
      010045A1H   LINE      CODE     ---       #954
      010045A1H   LINE      CODE     ---       #956
      010045AEH   LINE      CODE     ---       #958
      010045AEH   LINE      CODE     ---       #960
      010045B7H   LINE      CODE     ---       #962
      010045B9H   LINE      CODE     ---       #963
      010045BDH   LINE      CODE     ---       #964
      010045BEH   LINE      CODE     ---       #965
      010045BEH   LINE      CODE     ---       #967
      010045DBH   LINE      CODE     ---       #973
      010045E6H   LINE      CODE     ---       #975
      010045F7H   LINE      CODE     ---       #976
      010045FDH   LINE      CODE     ---       #978
      010045FEH   LINE      CODE     ---       #980
      010045FEH   LINE      CODE     ---       #982
      01004608H   LINE      CODE     ---       #984
      0100460EH   LINE      CODE     ---       #985
      01004613H   LINE      CODE     ---       #986
      01004614H   LINE      CODE     ---       #988
      01004617H   LINE      CODE     ---       #990
      01004619H   LINE      CODE     ---       #992
      01004655H   LINE      CODE     ---       #993
      01004655H   LINE      CODE     ---       #995
      0100465AH   LINE      CODE     ---       #996
      0100465CH   LINE      CODE     ---       #997
      01004662H   LINE      CODE     ---       #998
      01004662H   LINE      CODE     ---       #999
LX51 LINKER/LOCATER V4.66.41.0                                                        12/20/2018  14:37:19  PAGE 71


      01004662H   LINE      CODE     ---       #1001
      01004662H   LINE      CODE     ---       #1002
      01004662H   LINE      CODE     ---       #1003
      01004662H   LINE      CODE     ---       #1004
      ---         BLOCKEND  ---      ---       LVL=0

      01006D61H   BLOCK     CODE     ---       LVL=0
      00000032H   SYMBOL    DATA     ---       frame_Temp
      00000035H   SYMBOL    DATA     WORD      DstAddr
      00000037H   SYMBOL    DATA     BYTE      portPoint
      00000038H   SYMBOL    DATA     ---       dats
      0000003BH   SYMBOL    DATA     BYTE      datsLen
      01006D6BH   BLOCK     CODE     NEAR LAB  LVL=1
      01000E15H   SYMBOL    CODE     ---       zigbCMD_DatsSend
      02000215H   SYMBOL    XDATA    ---       buf_datsLOAD
      0000003CH   SYMBOL    DATA     BYTE      datsTX_Len
      ---         BLOCKEND  ---      ---       LVL=1
      01006D61H   LINE      CODE     ---       #1008
      01006D6BH   LINE      CODE     ---       #1012
      01006D6BH   LINE      CODE     ---       #1017
      01006D7EH   LINE      CODE     ---       #1018
      01006D81H   LINE      CODE     ---       #1020
      01006D8EH   LINE      CODE     ---       #1023
      01006D94H   LINE      CODE     ---       #1024
      01006D98H   LINE      CODE     ---       #1025
      01006D9CH   LINE      CODE     ---       #1026
      01006D9EH   LINE      CODE     ---       #1027
      01006DA2H   LINE      CODE     ---       #1028
      01006DA6H   LINE      CODE     ---       #1029
      01006DA9H   LINE      CODE     ---       #1030
      01006DADH   LINE      CODE     ---       #1031
      01006DB1H   LINE      CODE     ---       #1032
      01006DC3H   LINE      CODE     ---       #1034
      01006DE7H   LINE      CODE     ---       #1035
      ---         BLOCKEND  ---      ---       LVL=0

      010073F7H   BLOCK     CODE     ---       LVL=0
      0000002BH   SYMBOL    DATA     WORD      DstAddr
      0000002DH   SYMBOL    DATA     BYTE      port
      0000002EH   SYMBOL    DATA     ---       dats
      00000031H   SYMBOL    DATA     BYTE      datsLen
      01007403H   BLOCK     CODE     NEAR LAB  LVL=1
      0200013EH   SYMBOL    XDATA    ---       buf_datsTX
      00000005H   SYMBOL    DATA     BYTE      datsTX_Len
      ---         BLOCKEND  ---      ---       LVL=1
      010073F7H   LINE      CODE     ---       #1039
      01007403H   LINE      CODE     ---       #1042
      01007403H   LINE      CODE     ---       #1044
      01007416H   LINE      CODE     ---       #1045
      01007416H   LINE      CODE     ---       #1047
      01007434H   LINE      CODE     ---       #1049
      ---         BLOCKEND  ---      ---       LVL=0

      01004CE6H   BLOCK     CODE     ---       LVL=0
      01004CE6H   BLOCK     CODE     NEAR LAB  LVL=1
      0200013CH   SYMBOL    XDATA    ---       buf_datsTX
      00000027H   SYMBOL    DATA     BYTE      datsTX_Len
      020001D5H   SYMBOL    XDATA    ---       buf_datsRX
      00000028H   SYMBOL    DATA     BYTE      datsRX_Len
      00000029H   SYMBOL    DATA     ---       ASR_dats
      01001025H   SYMBOL    CODE     ---       ASR_cmd
      00000008H   SYMBOL    DATA     BYTE      datsTrans_respondCode
      00000009H   SYMBOL    DATA     BYTE      step
      0000000AH   SYMBOL    DATA     BYTE      reactionLoop
      01004DDEH   BLOCK     CODE     NEAR LAB  LVL=2
LX51 LINKER/LOCATER V4.66.41.0                                                        12/20/2018  14:37:19  PAGE 72


      02000316H   SYMBOL    XDATA    BYTE      local_funRecord
      0200013BH   SYMBOL    XDATA    BYTE      funRecord_temp
      ---         BLOCKEND  ---      ---       LVL=2
      01004EAFH   BLOCK     CODE     NEAR LAB  LVL=2
      00000088H   SYMBOL    IDATA    WORD      datsFrom_addr
      0000008AH   SYMBOL    IDATA    BYTE      dstPoint
      ---         BLOCKEND  ---      ---       LVL=2
      ---         BLOCKEND  ---      ---       LVL=1
      01004CE6H   LINE      CODE     ---       #1054
      01004CE6H   LINE      CODE     ---       #1056
      01004CF9H   LINE      CODE     ---       #1057
      01004CFCH   LINE      CODE     ---       #1060
      01004D0EH   LINE      CODE     ---       #1061
      01004D11H   LINE      CODE     ---       #1064
      01004D22H   LINE      CODE     ---       #1076
      01004D2AH   LINE      CODE     ---       #1078
      01004D2DH   LINE      CODE     ---       #1079
      01004D31H   LINE      CODE     ---       #1081
      01004D34H   LINE      CODE     ---       #1082
      01004D37H   LINE      CODE     ---       #1085
      01004D37H   LINE      CODE     ---       #1088
      01004D3AH   LINE      CODE     ---       #1089
      01004D40H   LINE      CODE     ---       #1090
      01004D43H   LINE      CODE     ---       #1091
      01004D66H   LINE      CODE     ---       #1093
      01004D8EH   LINE      CODE     ---       #1095
      01004DACH   LINE      CODE     ---       #1097
      01004DACH   LINE      CODE     ---       #1099
      01004DB3H   LINE      CODE     ---       #1101
      01004DB6H   LINE      CODE     ---       #1103
      01004DB9H   LINE      CODE     ---       #1104
      01004DB9H   LINE      CODE     ---       #1106
      01004DBCH   LINE      CODE     ---       #1107
      01004DBCH   LINE      CODE     ---       #1109
      01004DBEH   LINE      CODE     ---       #1110
      01004DD0H   LINE      CODE     ---       #1111
      01004DDAH   LINE      CODE     ---       #1112
      01004DDDH   LINE      CODE     ---       #1114
      01004DDEH   LINE      CODE     ---       #1116
      01004DDEH   LINE      CODE     ---       #1119
      01004E02H   LINE      CODE     ---       #1121
      01004E06H   LINE      CODE     ---       #1123
      01004E08H   LINE      CODE     ---       #1124
      01004E0AH   LINE      CODE     ---       #1125
      01004E0AH   LINE      CODE     ---       #1126
      01004E0CH   LINE      CODE     ---       #1127
      01004E0CH   LINE      CODE     ---       #1129
      01004E13H   LINE      CODE     ---       #1131
      01004E1FH   LINE      CODE     ---       #1133
      01004E21H   LINE      CODE     ---       #1135
      01004E2CH   LINE      CODE     ---       #1136
      01004E2CH   LINE      CODE     ---       #1137
      01004E2CH   LINE      CODE     ---       #1139
      01004E32H   LINE      CODE     ---       #1141
      01004E34H   LINE      CODE     ---       #1143
      01004E50H   LINE      CODE     ---       #1145
      01004E56H   LINE      CODE     ---       #1147
      01004E59H   LINE      CODE     ---       #1149
      01004E5BH   LINE      CODE     ---       #1151
      01004E5EH   LINE      CODE     ---       #1152
      01004E68H   LINE      CODE     ---       #1153
      01004E68H   LINE      CODE     ---       #1155
      01004E6DH   LINE      CODE     ---       #1157
      01004E6EH   LINE      CODE     ---       #1159
      01004E87H   LINE      CODE     ---       #1161
LX51 LINKER/LOCATER V4.66.41.0                                                        12/20/2018  14:37:19  PAGE 73


      01004E8DH   LINE      CODE     ---       #1163
      01004E97H   LINE      CODE     ---       #1167
      01004E97H   LINE      CODE     ---       #1169
      01004E97H   LINE      CODE     ---       #1170
      01004E97H   LINE      CODE     ---       #1171
      01004E97H   LINE      CODE     ---       #1181
      01004E97H   LINE      CODE     ---       #1182
      01004E97H   LINE      CODE     ---       #1183
      01004E97H   LINE      CODE     ---       #1185
      01004E9AH   LINE      CODE     ---       #1187
      01004E9AH   LINE      CODE     ---       #1189
      01004EA4H   LINE      CODE     ---       #1191
      01004EA6H   LINE      CODE     ---       #1192
      01004EA8H   LINE      CODE     ---       #1193
      01004EA9H   LINE      CODE     ---       #1194
      01004EA9H   LINE      CODE     ---       #1196
      01004EAFH   LINE      CODE     ---       #1198
      01004EBCH   LINE      CODE     ---       #1199
      01004EC2H   LINE      CODE     ---       #1201
      01004EC4H   LINE      CODE     ---       #1203
      01004ECCH   LINE      CODE     ---       #1206
      01004ECCH   LINE      CODE     ---       #1207
      01004EDBH   LINE      CODE     ---       #1208
      01004EF6H   LINE      CODE     ---       #1209
      01004EFFH   LINE      CODE     ---       #1210
      01004EFFH   LINE      CODE     ---       #1212
      01004EFFH   LINE      CODE     ---       #1214
      01004F33H   LINE      CODE     ---       #1216
      01004F33H   LINE      CODE     ---       #1218
      01004F36H   LINE      CODE     ---       #1220
      01004F37H   LINE      CODE     ---       #1223
      01004F37H   LINE      CODE     ---       #1224
      01004F46H   LINE      CODE     ---       #1226
      01004F6AH   LINE      CODE     ---       #1228
      01004F73H   LINE      CODE     ---       #1229
      01004F73H   LINE      CODE     ---       #1231
      01004F73H   LINE      CODE     ---       #1232
      01004F73H   LINE      CODE     ---       #1233
      01004F73H   LINE      CODE     ---       #1235
      01004F73H   LINE      CODE     ---       #1237
      01004F73H   LINE      CODE     ---       #1239
      01004F76H   LINE      CODE     ---       #1241
      01004F78H   LINE      CODE     ---       #1242
      01004F7BH   LINE      CODE     ---       #1244
      01004F7DH   LINE      CODE     ---       #1246
      01004F80H   LINE      CODE     ---       #1247
      01004F80H   LINE      CODE     ---       #1249
      01004F80H   LINE      CODE     ---       #1250
      01004F80H   LINE      CODE     ---       #1253
      01004F80H   LINE      CODE     ---       #1254
      01004F80H   LINE      CODE     ---       #1256
      01004F82H   LINE      CODE     ---       #1258
      01004F82H   LINE      CODE     ---       #1260
      01004F85H   LINE      CODE     ---       #1262
      01004F87H   LINE      CODE     ---       #1263
      01004F8AH   LINE      CODE     ---       #1265
      01004F8CH   LINE      CODE     ---       #1267
      01004F8FH   LINE      CODE     ---       #1268
      01004F8FH   LINE      CODE     ---       #1271
      01004F93H   LINE      CODE     ---       #1274
      01004F93H   LINE      CODE     ---       #1275
      01004FA2H   LINE      CODE     ---       #1276
      01004FBAH   LINE      CODE     ---       #1277
      01004FC3H   LINE      CODE     ---       #1278
      01004FC3H   LINE      CODE     ---       #1280
LX51 LINKER/LOCATER V4.66.41.0                                                        12/20/2018  14:37:19  PAGE 74


      01004FC8H   LINE      CODE     ---       #1282
      01004FD6H   LINE      CODE     ---       #1284
      01004FD6H   LINE      CODE     ---       #1285
      01004FD6H   LINE      CODE     ---       #1286
      01004FD6H   LINE      CODE     ---       #1288
      01004FD6H   LINE      CODE     ---       #1290
      01004FD8H   LINE      CODE     ---       #1292
      01004FD8H   LINE      CODE     ---       #1294
      01004FDBH   LINE      CODE     ---       #1296
      01004FDBH   LINE      CODE     ---       #1297
      01004FDBH   LINE      CODE     ---       #1299
      01004FDEH   LINE      CODE     ---       #1300
      01004FDEH   LINE      CODE     ---       #1302
      01004FE1H   LINE      CODE     ---       #1303
      01004FE3H   LINE      CODE     ---       #1306
      01004FEAH   LINE      CODE     ---       #1307
      01004FF4H   LINE      CODE     ---       #1309
      01004FF5H   LINE      CODE     ---       #1311
      01004FF5H   LINE      CODE     ---       #1313
      01004FF8H   LINE      CODE     ---       #1315
      01004FF8H   LINE      CODE     ---       #1316
      01004FF8H   LINE      CODE     ---       #1317
      ---         BLOCKEND  ---      ---       LVL=0

      0100735DH   BLOCK     CODE     ---       LVL=0
      00000020H.4 SYMBOL    BIT      BIT       zigbNwkSysNote_IF
      0100735DH   LINE      CODE     ---       #1320
      0100735DH   LINE      CODE     ---       #1322
      01007363H   LINE      CODE     ---       #1323
      0100736DH   LINE      CODE     ---       #1325
      01007373H   LINE      CODE     ---       #1326
      0100737AH   LINE      CODE     ---       #1328
      0100737DH   LINE      CODE     ---       #1329
      01007382H   LINE      CODE     ---       #1332
      01007382H   LINE      CODE     ---       #1333
      01007391H   LINE      CODE     ---       #1334
      010073A3H   LINE      CODE     ---       #1335
      ---         BLOCKEND  ---      ---       LVL=0

      01007928H   BLOCK     CODE     ---       LVL=0
      01007928H   LINE      CODE     ---       #1341
      01007928H   LINE      CODE     ---       #1343
      01007930H   LINE      CODE     ---       #1344
      ---         BLOCKEND  ---      ---       LVL=0

      01005D23H   BLOCK     CODE     ---       LVL=0
      01005D23H   BLOCK     CODE     NEAR LAB  LVL=1
      0000000BH   SYMBOL    DATA     INT       status_Step
      01005D4FH   BLOCK     CODE     NEAR LAB  LVL=2
      0200013BH   SYMBOL    XDATA    ---       dats_Note
      ---         BLOCKEND  ---      ---       LVL=2
      ---         BLOCKEND  ---      ---       LVL=1
      01005D23H   LINE      CODE     ---       #1348
      01005D23H   LINE      CODE     ---       #1352
      01005D2AH   LINE      CODE     ---       #1354
      01005D2DH   LINE      CODE     ---       #1355
      01005D31H   LINE      CODE     ---       #1357
      01005D36H   LINE      CODE     ---       #1358
      01005D3CH   LINE      CODE     ---       #1360
      01005D3FH   LINE      CODE     ---       #1363
      01005D3FH   LINE      CODE     ---       #1365
      01005D48H   LINE      CODE     ---       #1367
      01005D4FH   LINE      CODE     ---       #1369
      01005D62H   LINE      CODE     ---       #1371
      01005D69H   LINE      CODE     ---       #1373
LX51 LINKER/LOCATER V4.66.41.0                                                        12/20/2018  14:37:19  PAGE 75


      01005D7BH   LINE      CODE     ---       #1378
      01005D82H   LINE      CODE     ---       #1379
      01005D82H   LINE      CODE     ---       #1381
      01005D82H   LINE      CODE     ---       #1383
      01005D92H   LINE      CODE     ---       #1385
      01005D92H   LINE      CODE     ---       #1387
      01005D94H   LINE      CODE     ---       #1388
      01005D9DH   LINE      CODE     ---       #1389
      01005DA3H   LINE      CODE     ---       #1391
      01005DA4H   LINE      CODE     ---       #1393
      01005DA4H   LINE      CODE     ---       #1395
      01005DB1H   LINE      CODE     ---       #1397
      01005DB3H   LINE      CODE     ---       #1398
      01005DBDH   LINE      CODE     ---       #1399
      01005DC3H   LINE      CODE     ---       #1400
      01005DC3H   LINE      CODE     ---       #1402
      01005DC4H   LINE      CODE     ---       #1404
      01005DC4H   LINE      CODE     ---       #1406
      01005DCEH   LINE      CODE     ---       #1408
      01005DD2H   LINE      CODE     ---       #1411
      01005DD2H   LINE      CODE     ---       #1412
      01005DDFH   LINE      CODE     ---       #1413
      01005DF1H   LINE      CODE     ---       #1414
      01005DF1H   LINE      CODE     ---       #1415
      01005DF1H   LINE      CODE     ---       #1417
      01005DF1H   LINE      CODE     ---       #1419
      01005DF3H   LINE      CODE     ---       #1421
      01005DF3H   LINE      CODE     ---       #1423
      01005DF8H   LINE      CODE     ---       #1425
      01005DF9H   LINE      CODE     ---       #1426
      01005DF9H   LINE      CODE     ---       #1427
      01005DF9H   LINE      CODE     ---       #1429
      01005DF9H   LINE      CODE     ---       #1432
      01005DFEH   LINE      CODE     ---       #1433
      01005E00H   LINE      CODE     ---       #1435
      01005E03H   LINE      CODE     ---       #1436
      01005E06H   LINE      CODE     ---       #1439
      01005E06H   LINE      CODE     ---       #1440
      01005E13H   LINE      CODE     ---       #1441
      01005E25H   LINE      CODE     ---       #1442
      01005E2EH   LINE      CODE     ---       #1443
      01005E2EH   LINE      CODE     ---       #1445
      01005E2EH   LINE      CODE     ---       #1446
      ---         BLOCKEND  ---      ---       LVL=0

      01007041H   BLOCK     CODE     ---       LVL=0
      00000027H   SYMBOL    DATA     ---       datsFrame
      01007047H   BLOCK     CODE     NEAR LAB  LVL=1
      0000002AH   SYMBOL    DATA     BYTE      dataTX_temp
      ---         BLOCKEND  ---      ---       LVL=1
      01007041H   LINE      CODE     ---       #1450
      01007047H   LINE      CODE     ---       #1452
      0100704AH   LINE      CODE     ---       #1454
      01007052H   LINE      CODE     ---       #1455
      01007056H   LINE      CODE     ---       #1457
      0100705BH   LINE      CODE     ---       #1459
      0100706CH   LINE      CODE     ---       #1462
      0100706CH   LINE      CODE     ---       #1463
      0100707BH   LINE      CODE     ---       #1464
      0100709BH   LINE      CODE     ---       #1465
      ---         BLOCKEND  ---      ---       LVL=0

      01004FF9H   BLOCK     CODE     ---       LVL=0
      00000027H   SYMBOL    DATA     ---       datsFrame
      01004FFFH   BLOCK     CODE     NEAR LAB  LVL=1
LX51 LINKER/LOCATER V4.66.41.0                                                        12/20/2018  14:37:19  PAGE 76


      020001BBH   SYMBOL    XDATA    ---       dats
      0100506AH   BLOCK     CODE     NEAR LAB  LVL=2
      00000020H.2 SYMBOL    BIT      BIT       resultSet
      00000020H.2 SYMBOL    BIT      BIT       resultSet
      00000020H.3 SYMBOL    BIT      BIT       timeZoneAdjust_needIF
      0000002AH   SYMBOL    DATA     DWORD     time_Temp
      00000088H   SYMBOL    IDATA    BYTE      statusRelay_temp
      ---         BLOCKEND  ---      ---       LVL=2
      010050B4H   BLOCK     CODE     NEAR LAB  LVL=2
      00000020H.2 SYMBOL    BIT      BIT       resultSet
      00000020H.3 SYMBOL    BIT      BIT       timeZoneAdjust_needIF
      0000002AH   SYMBOL    DATA     DWORD     time_Temp
      00000088H   SYMBOL    IDATA    BYTE      statusRelay_temp
      010051BBH   BLOCK     CODE     NEAR LAB  LVL=3
      0200013BH   SYMBOL    XDATA    ---       log_buf
      0200017BH   SYMBOL    XDATA    ---       log_buf
      ---         BLOCKEND  ---      ---       LVL=3
      ---         BLOCKEND  ---      ---       LVL=2
      01005229H   BLOCK     CODE     NEAR LAB  LVL=2
      0200017BH   SYMBOL    XDATA    ---       log_buf
      ---         BLOCKEND  ---      ---       LVL=2
      01005255H   BLOCK     CODE     NEAR LAB  LVL=2
      00000088H   SYMBOL    IDATA    BYTE      statusRelay_temp
      ---         BLOCKEND  ---      ---       LVL=2
      ---         BLOCKEND  ---      ---       LVL=1
      01004FF9H   LINE      CODE     ---       #1472
      01004FFFH   LINE      CODE     ---       #1481
      01005012H   LINE      CODE     ---       #1483
      0100501FH   LINE      CODE     ---       #1484
      01005038H   LINE      CODE     ---       #1485
      01005048H   LINE      CODE     ---       #1487
      0100506AH   LINE      CODE     ---       #1489
      0100506AH   LINE      CODE     ---       #1491
      0100506CH   LINE      CODE     ---       #1493
      01005079H   LINE      CODE     ---       #1494
      01005081H   LINE      CODE     ---       #1497
      01005081H   LINE      CODE     ---       #1498
      01005090H   LINE      CODE     ---       #1499
      010050ABH   LINE      CODE     ---       #1500
      010050B1H   LINE      CODE     ---       #1501
      010050B1H   LINE      CODE     ---       #1504
      010050B4H   LINE      CODE     ---       #1506
      010050B4H   LINE      CODE     ---       #1508
      010050B6H   LINE      CODE     ---       #1509
      010050B8H   LINE      CODE     ---       #1510
      010050C1H   LINE      CODE     ---       #1512
      010050D7H   LINE      CODE     ---       #1513
      010050F7H   LINE      CODE     ---       #1514
      01005117H   LINE      CODE     ---       #1515
      01005137H   LINE      CODE     ---       #1516
      0100514DH   LINE      CODE     ---       #1518
      01005152H   LINE      CODE     ---       #1519
      0100515AH   LINE      CODE     ---       #1520
      0100516DH   LINE      CODE     ---       #1521
      01005180H   LINE      CODE     ---       #1522
      01005180H   LINE      CODE     ---       #1524
      01005188H   LINE      CODE     ---       #1525
      010051BBH   LINE      CODE     ---       #1528
      010051BBH   LINE      CODE     ---       #1531
      010051F1H   LINE      CODE     ---       #1532
      010051FAH   LINE      CODE     ---       #1533
      010051FAH   LINE      CODE     ---       #1535
      010051FAH   LINE      CODE     ---       #1537
      010051FAH   LINE      CODE     ---       #1540
      010051FAH   LINE      CODE     ---       #1541
LX51 LINKER/LOCATER V4.66.41.0                                                        12/20/2018  14:37:19  PAGE 77


      01005209H   LINE      CODE     ---       #1542
      0100521BH   LINE      CODE     ---       #1543
      01005224H   LINE      CODE     ---       #1544
      01005224H   LINE      CODE     ---       #1546
      01005229H   LINE      CODE     ---       #1548
      01005229H   LINE      CODE     ---       #1550
      01005229H   LINE      CODE     ---       #1553
      01005229H   LINE      CODE     ---       #1556
      01005244H   LINE      CODE     ---       #1557
      0100524DH   LINE      CODE     ---       #1558
      0100524DH   LINE      CODE     ---       #1560
      0100524DH   LINE      CODE     ---       #1565
      0100524DH   LINE      CODE     ---       #1575
      0100524DH   LINE      CODE     ---       #1577
      01005255H   LINE      CODE     ---       #1579
      01005255H   LINE      CODE     ---       #1654
      01005255H   LINE      CODE     ---       #1656
      0100525CH   LINE      CODE     ---       #1658
      01005268H   LINE      CODE     ---       #1661
      01005268H   LINE      CODE     ---       #1662
      01005277H   LINE      CODE     ---       #1663
      01005289H   LINE      CODE     ---       #1664
      01005292H   LINE      CODE     ---       #1665
      01005292H   LINE      CODE     ---       #1669
      0100529AH   LINE      CODE     ---       #1671
      0100529FH   LINE      CODE     ---       #1673
      010052A5H   LINE      CODE     ---       #1674
      010052ADH   LINE      CODE     ---       #1675
      010052ADH   LINE      CODE     ---       #1676
      010052ADH   LINE      CODE     ---       #1678
      010052ADH   LINE      CODE     ---       #1680
      010052ADH   LINE      CODE     ---       #1681
      010052ADH   LINE      CODE     ---       #1682
      ---         BLOCKEND  ---      ---       LVL=0

      0100126CH   BLOCK     CODE     ---       LVL=0
      00000027H   SYMBOL    DATA     ---       datsParam
      0000002AH   SYMBOL    DATA     WORD      nwkAddr_from
      0000002CH   SYMBOL    DATA     BYTE      port_from
      01001276H   BLOCK     CODE     NEAR LAB  LVL=1
      02000179H   SYMBOL    XDATA    ---       paramTX_temp
      00000020H.2 SYMBOL    BIT      BIT       dataFromRemote_IF
      010012F4H   BLOCK     CODE     NEAR LAB  LVL=2
      00000020H.3 SYMBOL    BIT      BIT       frameCheck_Done
      010010E5H   SYMBOL    CODE     ---       agingCmd_Temp
      0200013CH   SYMBOL    XDATA    ---       dev_dataPointTemp
      00000020H.3 SYMBOL    BIT      BIT       frameCodeCheck_PASS
      00000020H.4 SYMBOL    BIT      BIT       frameMacCheck_PASS
      010012F6H   BLOCK     CODE     NEAR LAB  LVL=3
      00000020H.4 SYMBOL    BIT      BIT       frameCodeCheck_PASS
      00000020H.5 SYMBOL    BIT      BIT       frameMacCheck_PASS
      00000020H.4 SYMBOL    BIT      BIT       respond_IF
      00000020H.5 SYMBOL    BIT      BIT       specialCmd_IF
      ---         BLOCKEND  ---      ---       LVL=3
      01001367H   BLOCK     CODE     NEAR LAB  LVL=3
      00000020H.4 SYMBOL    BIT      BIT       respond_IF
      00000020H.5 SYMBOL    BIT      BIT       specialCmd_IF
      0100150FH   BLOCK     CODE     NEAR LAB  LVL=4
      0000002DH   SYMBOL    DATA     BYTE      deviceLock_IF
      0000002DH   SYMBOL    DATA     BYTE      deviceLock_IF
      ---         BLOCKEND  ---      ---       LVL=4
      01001526H   BLOCK     CODE     NEAR LAB  LVL=4
      0000002DH   SYMBOL    DATA     BYTE      deviceLock_IF
      ---         BLOCKEND  ---      ---       LVL=4
      01001567H   BLOCK     CODE     NEAR LAB  LVL=4
LX51 LINKER/LOCATER V4.66.41.0                                                        12/20/2018  14:37:19  PAGE 78


      0000002DH   SYMBOL    DATA     BYTE      loop
      0000002DH   SYMBOL    DATA     BYTE      deviceLock_IF
      0000002DH   SYMBOL    DATA     BYTE      loop
      0000002DH   SYMBOL    DATA     ---       dataTemp
      0200013BH   SYMBOL    XDATA    BYTE      loop
      ---         BLOCKEND  ---      ---       LVL=4
      0100166AH   BLOCK     CODE     NEAR LAB  LVL=4
      0000002DH   SYMBOL    DATA     BYTE      datsTemp
      0000002DH   SYMBOL    DATA     BYTE      datsTemp
      0000002DH   SYMBOL    DATA     BYTE      loop
      0000002DH   SYMBOL    DATA     BYTE      loop
      0000002EH   SYMBOL    DATA     BYTE      effective_oprate
      0000002DH   SYMBOL    DATA     BYTE      loop
      00000023H.3 SYMBOL    BIT      BIT       local_ftyRecover_standbyFLG
      ---         BLOCKEND  ---      ---       LVL=4
      01001682H   BLOCK     CODE     NEAR LAB  LVL=4
      0000002DH   SYMBOL    DATA     BYTE      datsTemp
      0000002DH   SYMBOL    DATA     BYTE      loop
      0000002DH   SYMBOL    DATA     BYTE      loop
      0000002EH   SYMBOL    DATA     BYTE      effective_oprate
      0000002DH   SYMBOL    DATA     BYTE      loop
      00000023H.3 SYMBOL    BIT      BIT       local_ftyRecover_standbyFLG
      ---         BLOCKEND  ---      ---       LVL=4
      010016BBH   BLOCK     CODE     NEAR LAB  LVL=4
      0000002DH   SYMBOL    DATA     BYTE      loop
      0000002DH   SYMBOL    DATA     BYTE      loop
      0000002EH   SYMBOL    DATA     BYTE      effective_oprate
      0000002DH   SYMBOL    DATA     BYTE      loop
      00000023H.3 SYMBOL    BIT      BIT       local_ftyRecover_standbyFLG
      ---         BLOCKEND  ---      ---       LVL=4
      01001877H   BLOCK     CODE     NEAR LAB  LVL=4
      0000002DH   SYMBOL    DATA     BYTE      loop
      0000002EH   SYMBOL    DATA     BYTE      effective_oprate
      0000002DH   SYMBOL    DATA     BYTE      loop
      00000023H.3 SYMBOL    BIT      BIT       local_ftyRecover_standbyFLG
      ---         BLOCKEND  ---      ---       LVL=4
      010018EBH   BLOCK     CODE     NEAR LAB  LVL=4
      0000002DH   SYMBOL    DATA     BYTE      loop
      00000023H.3 SYMBOL    BIT      BIT       local_ftyRecover_standbyFLG
      ---         BLOCKEND  ---      ---       LVL=4
      01001995H   BLOCK     CODE     NEAR LAB  LVL=4
      0000002DH   SYMBOL    DATA     BYTE      datsTX_Len
      ---         BLOCKEND  ---      ---       LVL=4
      ---         BLOCKEND  ---      ---       LVL=3
      ---         BLOCKEND  ---      ---       LVL=2
      01001A4FH   BLOCK     CODE     NEAR LAB  LVL=2
      010010E5H   SYMBOL    CODE     ---       agingCmd_Temp
      0200013CH   SYMBOL    XDATA    ---       dev_dataPointTemp
      00000020H.3 SYMBOL    BIT      BIT       frameCodeCheck_PASS
      00000020H.4 SYMBOL    BIT      BIT       frameMacCheck_PASS
      01001B04H   BLOCK     CODE     NEAR LAB  LVL=3
      00000023H.3 SYMBOL    BIT      BIT       local_ftyRecover_standbyFLG
      01001C4BH   BLOCK     CODE     NEAR LAB  LVL=4
      0000002DH   SYMBOL    DATA     BYTE      deviceLock_IF
      0000002DH   SYMBOL    DATA     BYTE      loop
      0000002DH   SYMBOL    DATA     ---       dataTemp
      0200013BH   SYMBOL    XDATA    BYTE      loop
      ---         BLOCKEND  ---      ---       LVL=4
      01001CB4H   BLOCK     CODE     NEAR LAB  LVL=4
      0000002DH   SYMBOL    DATA     BYTE      loop
      0000002DH   SYMBOL    DATA     ---       dataTemp
      0200013BH   SYMBOL    XDATA    BYTE      loop
      ---         BLOCKEND  ---      ---       LVL=4
      01001DFEH   BLOCK     CODE     NEAR LAB  LVL=4
      0000002DH   SYMBOL    DATA     ---       dataTemp
LX51 LINKER/LOCATER V4.66.41.0                                                        12/20/2018  14:37:19  PAGE 79


      0200013BH   SYMBOL    XDATA    BYTE      loop
      ---         BLOCKEND  ---      ---       LVL=4
      01001F9AH   BLOCK     CODE     NEAR LAB  LVL=4
      0200013BH   SYMBOL    XDATA    BYTE      loop
      ---         BLOCKEND  ---      ---       LVL=4
      ---         BLOCKEND  ---      ---       LVL=3
      ---         BLOCKEND  ---      ---       LVL=2
      ---         BLOCKEND  ---      ---       LVL=1
      0100126CH   LINE      CODE     ---       #1686
      01001276H   LINE      CODE     ---       #1689
      01001289H   LINE      CODE     ---       #1691
      0100128BH   LINE      CODE     ---       #1694
      010012ACH   LINE      CODE     ---       #1697
      010012ACH   LINE      CODE     ---       #1699
      010012AEH   LINE      CODE     ---       #1701
      010012C2H   LINE      CODE     ---       #1702
      010012F4H   LINE      CODE     ---       #1703
      010012F4H   LINE      CODE     ---       #1706
      010012F4H   LINE      CODE     ---       #1708
      010012F6H   LINE      CODE     ---       #1711
      010012F8H   LINE      CODE     ---       #1712
      010012FAH   LINE      CODE     ---       #1714
      0100131BH   LINE      CODE     ---       #1715
      0100133AH   LINE      CODE     ---       #1717
      0100134AH   LINE      CODE     ---       #1719
      0100134CH   LINE      CODE     ---       #1721
      0100134EH   LINE      CODE     ---       #1722
      01001357H   LINE      CODE     ---       #1723
      01001357H   LINE      CODE     ---       #1725
      01001359H   LINE      CODE     ---       #1726
      01001359H   LINE      CODE     ---       #1728
      01001361H   LINE      CODE     ---       #1729
      01001361H   LINE      CODE     ---       #1731
      01001367H   LINE      CODE     ---       #1733
      01001369H   LINE      CODE     ---       #1734
      0100136BH   LINE      CODE     ---       #1738
      0100137AH   LINE      CODE     ---       #1739
      0100139DH   LINE      CODE     ---       #1740
      010013A6H   LINE      CODE     ---       #1741
      010013A6H   LINE      CODE     ---       #1743
      010013B5H   LINE      CODE     ---       #1745
      010013FEH   LINE      CODE     ---       #1747
      010013FEH   LINE      CODE     ---       #1749
      01001404H   LINE      CODE     ---       #1751
      01001407H   LINE      CODE     ---       #1752
      0100140CH   LINE      CODE     ---       #1754
      01001414H   LINE      CODE     ---       #1755
      01001418H   LINE      CODE     ---       #1757
      0100141EH   LINE      CODE     ---       #1758
      01001422H   LINE      CODE     ---       #1760
      01001432H   LINE      CODE     ---       #1761
      0100143CH   LINE      CODE     ---       #1762
      0100144FH   LINE      CODE     ---       #1763
      01001462H   LINE      CODE     ---       #1765
      01001467H   LINE      CODE     ---       #1767
      01001467H   LINE      CODE     ---       #1768
      01001467H   LINE      CODE     ---       #1770
      0100146AH   LINE      CODE     ---       #1773
      0100146AH   LINE      CODE     ---       #1775
      0100146AH   LINE      CODE     ---       #1777
      0100146AH   LINE      CODE     ---       #1779
      0100146FH   LINE      CODE     ---       #1780
      01001482H   LINE      CODE     ---       #1781
      01001499H   LINE      CODE     ---       #1782
      010014B2H   LINE      CODE     ---       #1783
LX51 LINKER/LOCATER V4.66.41.0                                                        12/20/2018  14:37:19  PAGE 80


      010014C6H   LINE      CODE     ---       #1785
      010014D6H   LINE      CODE     ---       #1786
      010014DAH   LINE      CODE     ---       #1788
      010014DAH   LINE      CODE     ---       #1789
      010014DAH   LINE      CODE     ---       #1791
      010014DCH   LINE      CODE     ---       #1793
      010014DCH   LINE      CODE     ---       #1795
      010014E6H   LINE      CODE     ---       #1796
      010014E9H   LINE      CODE     ---       #1797
      010014F9H   LINE      CODE     ---       #1798
      01001508H   LINE      CODE     ---       #1800
      0100150AH   LINE      CODE     ---       #1801
      0100150CH   LINE      CODE     ---       #1803
      0100150FH   LINE      CODE     ---       #1805
      0100150FH   LINE      CODE     ---       #1807
      0100150FH   LINE      CODE     ---       #1809
      0100150FH   LINE      CODE     ---       #1812
      0100150FH   LINE      CODE     ---       #1813
      01001512H   LINE      CODE     ---       #1815
      01001514H   LINE      CODE     ---       #1816
      01001524H   LINE      CODE     ---       #1817
      01001524H   LINE      CODE     ---       #1819
      01001526H   LINE      CODE     ---       #1821
      01001526H   LINE      CODE     ---       #1824
      01001526H   LINE      CODE     ---       #1825
      01001529H   LINE      CODE     ---       #1827
      0100152BH   LINE      CODE     ---       #1828
      0100153BH   LINE      CODE     ---       #1829
      0100153BH   LINE      CODE     ---       #1831
      0100153EH   LINE      CODE     ---       #1833
      0100153EH   LINE      CODE     ---       #1836
      01001567H   LINE      CODE     ---       #1838
      01001567H   LINE      CODE     ---       #1839
      01001567H   LINE      CODE     ---       #1841
      0100156AH   LINE      CODE     ---       #1844
      0100157BH   LINE      CODE     ---       #1847
      0100157EH   LINE      CODE     ---       #1849
      01001597H   LINE      CODE     ---       #1851
      010015AAH   LINE      CODE     ---       #1852
      010015AAH   LINE      CODE     ---       #1853
      010015B1H   LINE      CODE     ---       #1855
      010015B3H   LINE      CODE     ---       #1858
      010015B3H   LINE      CODE     ---       #1859
      010015C2H   LINE      CODE     ---       #1860
      010015EBH   LINE      CODE     ---       #1861
      010015F4H   LINE      CODE     ---       #1862
      010015F4H   LINE      CODE     ---       #1865
      010015F6H   LINE      CODE     ---       #1867
      010015F6H   LINE      CODE     ---       #1869
      01001602H   LINE      CODE     ---       #1870
      01001612H   LINE      CODE     ---       #1871
      01001619H   LINE      CODE     ---       #1873
      0100161BH   LINE      CODE     ---       #1875
      0100161BH   LINE      CODE     ---       #1877
      01001622H   LINE      CODE     ---       #1879
      01001624H   LINE      CODE     ---       #1881
      01001624H   LINE      CODE     ---       #1883
      01001637H   LINE      CODE     ---       #1885
      01001646H   LINE      CODE     ---       #1886
      01001655H   LINE      CODE     ---       #1888
      01001655H   LINE      CODE     ---       #1890
      01001655H   LINE      CODE     ---       #1891
      01001655H   LINE      CODE     ---       #1893
      01001665H   LINE      CODE     ---       #1895
      01001667H   LINE      CODE     ---       #1897
LX51 LINKER/LOCATER V4.66.41.0                                                        12/20/2018  14:37:19  PAGE 81


      0100166AH   LINE      CODE     ---       #1899
      0100166AH   LINE      CODE     ---       #1901
      0100166AH   LINE      CODE     ---       #1903
      0100166DH   LINE      CODE     ---       #1905
      0100167DH   LINE      CODE     ---       #1906
      01001680H   LINE      CODE     ---       #1907
      01001680H   LINE      CODE     ---       #1909
      01001680H   LINE      CODE     ---       #1911
      01001682H   LINE      CODE     ---       #1913
      01001682H   LINE      CODE     ---       #1915
      01001685H   LINE      CODE     ---       #1917
      01001695H   LINE      CODE     ---       #1918
      01001698H   LINE      CODE     ---       #1919
      010016ABH   LINE      CODE     ---       #1921
      010016ADH   LINE      CODE     ---       #1923
      010016B0H   LINE      CODE     ---       #1925
      010016B0H   LINE      CODE     ---       #1927
      010016B2H   LINE      CODE     ---       #1929
      010016B5H   LINE      CODE     ---       #1931
      010016B5H   LINE      CODE     ---       #1933
      010016B8H   LINE      CODE     ---       #1935
      010016BBH   LINE      CODE     ---       #1937
      010016BBH   LINE      CODE     ---       #1939
      010016BEH   LINE      CODE     ---       #1941
      010016E4H   LINE      CODE     ---       #1943
      010016E4H   LINE      CODE     ---       #1945
      010016E7H   LINE      CODE     ---       #1947
      01001703H   LINE      CODE     ---       #1949
      01001713H   LINE      CODE     ---       #1950
      01001747H   LINE      CODE     ---       #1952
      01001749H   LINE      CODE     ---       #1954
      0100175BH   LINE      CODE     ---       #1955
      0100175BH   LINE      CODE     ---       #1956
      01001763H   LINE      CODE     ---       #1957
      0100177BH   LINE      CODE     ---       #1958
      0100177EH   LINE      CODE     ---       #1960
      0100177EH   LINE      CODE     ---       #1961
      0100178DH   LINE      CODE     ---       #1962
      010017C6H   LINE      CODE     ---       #1963
      010017CFH   LINE      CODE     ---       #1964
      010017CFH   LINE      CODE     ---       #1967
      010017D2H   LINE      CODE     ---       #1969
      010017D2H   LINE      CODE     ---       #1971
      010017E3H   LINE      CODE     ---       #1973
      010017E7H   LINE      CODE     ---       #1974
      010017EBH   LINE      CODE     ---       #1976
      010017F4H   LINE      CODE     ---       #1978
      010017F5H   LINE      CODE     ---       #1980
      010017F7H   LINE      CODE     ---       #1982
      010017FBH   LINE      CODE     ---       #1983
      010017FFH   LINE      CODE     ---       #1984
      01001804H   LINE      CODE     ---       #1985
      01001804H   LINE      CODE     ---       #1987
      01001806H   LINE      CODE     ---       #1989
      01001806H   LINE      CODE     ---       #1991
      01001817H   LINE      CODE     ---       #1993
      0100181BH   LINE      CODE     ---       #1994
      0100181FH   LINE      CODE     ---       #1995
      01001820H   LINE      CODE     ---       #1997
      01001822H   LINE      CODE     ---       #1999
      01001826H   LINE      CODE     ---       #2000
      0100182AH   LINE      CODE     ---       #2001
      0100182FH   LINE      CODE     ---       #2002
      0100182FH   LINE      CODE     ---       #2004
      01001842H   LINE      CODE     ---       #2005
LX51 LINKER/LOCATER V4.66.41.0                                                        12/20/2018  14:37:19  PAGE 82


      01001855H   LINE      CODE     ---       #2007
      01001857H   LINE      CODE     ---       #2009
      01001857H   LINE      CODE     ---       #2011
      0100186FH   LINE      CODE     ---       #2012
      01001872H   LINE      CODE     ---       #2014
      01001872H   LINE      CODE     ---       #2016
      01001872H   LINE      CODE     ---       #2017
      01001872H   LINE      CODE     ---       #2019
      01001874H   LINE      CODE     ---       #2021
      01001877H   LINE      CODE     ---       #2023
      01001877H   LINE      CODE     ---       #2025
      0100187AH   LINE      CODE     ---       #2026
      01001888H   LINE      CODE     ---       #2028
      0100188BH   LINE      CODE     ---       #2030
      0100189BH   LINE      CODE     ---       #2032
      010018C0H   LINE      CODE     ---       #2033
      010018DBH   LINE      CODE     ---       #2034
      010018DDH   LINE      CODE     ---       #2035
      010018DDH   LINE      CODE     ---       #2036
      010018E6H   LINE      CODE     ---       #2038
      010018E8H   LINE      CODE     ---       #2040
      010018EBH   LINE      CODE     ---       #2042
      010018EBH   LINE      CODE     ---       #2044
      010018EEH   LINE      CODE     ---       #2046
      010018F0H   LINE      CODE     ---       #2048
      0100190CH   LINE      CODE     ---       #2049
      01001915H   LINE      CODE     ---       #2051
      01001917H   LINE      CODE     ---       #2053
      01001919H   LINE      CODE     ---       #2055
      01001919H   LINE      CODE     ---       #2057
      01001931H   LINE      CODE     ---       #2058
      01001949H   LINE      CODE     ---       #2059
      01001957H   LINE      CODE     ---       #2060
      0100195FH   LINE      CODE     ---       #2062
      01001961H   LINE      CODE     ---       #2064
      01001963H   LINE      CODE     ---       #2066
      01001963H   LINE      CODE     ---       #2068
      01001976H   LINE      CODE     ---       #2069
      01001989H   LINE      CODE     ---       #2071
      0100198BH   LINE      CODE     ---       #2073
      0100198DH   LINE      CODE     ---       #2118
      0100198DH   LINE      CODE     ---       #2120
      0100198FH   LINE      CODE     ---       #2122
      0100198FH   LINE      CODE     ---       #2123
      0100198FH   LINE      CODE     ---       #2126
      01001995H   LINE      CODE     ---       #2128
      01001998H   LINE      CODE     ---       #2130
      0100199AH   LINE      CODE     ---       #2132
      010019C4H   LINE      CODE     ---       #2139
      010019CAH   LINE      CODE     ---       #2141
      010019D4H   LINE      CODE     ---       #2142
      010019DAH   LINE      CODE     ---       #2143
      010019E9H   LINE      CODE     ---       #2144
      010019FCH   LINE      CODE     ---       #2145
      01001A02H   LINE      CODE     ---       #2146
      01001A07H   LINE      CODE     ---       #2147
      01001A0EH   LINE      CODE     ---       #2148
      01001A1CH   LINE      CODE     ---       #2149
      01001A1FH   LINE      CODE     ---       #2158
      01001A1FH   LINE      CODE     ---       #2159
      01001A1FH   LINE      CODE     ---       #2160
      01001A20H   LINE      CODE     ---       #2163
      01001A20H   LINE      CODE     ---       #2167
      01001A20H   LINE      CODE     ---       #2170
      01001A20H   LINE      CODE     ---       #2174
LX51 LINKER/LOCATER V4.66.41.0                                                        12/20/2018  14:37:19  PAGE 83


      01001A20H   LINE      CODE     ---       #2178
      01001A20H   LINE      CODE     ---       #2180
      01001A25H   LINE      CODE     ---       #2182
      01001A25H   LINE      CODE     ---       #2184
      01001A34H   LINE      CODE     ---       #2185
      01001A46H   LINE      CODE     ---       #2186
      01001A4FH   LINE      CODE     ---       #2187
      01001A4FH   LINE      CODE     ---       #2189
      01001A4FH   LINE      CODE     ---       #2192
      01001A4FH   LINE      CODE     ---       #2195
      01001A62H   LINE      CODE     ---       #2197
      01001A64H   LINE      CODE     ---       #2198
      01001A66H   LINE      CODE     ---       #2208
      01001AA8H   LINE      CODE     ---       #2209
      01001AC7H   LINE      CODE     ---       #2211
      01001AD3H   LINE      CODE     ---       #2213
      01001AEBH   LINE      CODE     ---       #2225
      01001B04H   LINE      CODE     ---       #2227
      01001B04H   LINE      CODE     ---       #2294
      01001B1DH   LINE      CODE     ---       #2296
      01001B23H   LINE      CODE     ---       #2298
      01001B2CH   LINE      CODE     ---       #2300
      01001B3FH   LINE      CODE     ---       #2304
      01001B46H   LINE      CODE     ---       #2330
      01001B56H   LINE      CODE     ---       #2332
      01001B5DH   LINE      CODE     ---       #2333
      01001B61H   LINE      CODE     ---       #2335
      01001B68H   LINE      CODE     ---       #2337
      01001B68H   LINE      CODE     ---       #2339
      01001B77H   LINE      CODE     ---       #2340
      01001B9FH   LINE      CODE     ---       #2341
      01001BA8H   LINE      CODE     ---       #2342
      01001BA8H   LINE      CODE     ---       #2344
      01001BA8H   LINE      CODE     ---       #2346
      01001BA8H   LINE      CODE     ---       #2348
      01001BAFH   LINE      CODE     ---       #2350
      01001BB7H   LINE      CODE     ---       #2352
      01001BBBH   LINE      CODE     ---       #2353
      01001BBFH   LINE      CODE     ---       #2354
      01001BC4H   LINE      CODE     ---       #2355
      01001BCAH   LINE      CODE     ---       #2357
      01001BCAH   LINE      CODE     ---       #2359
      01001BD7H   LINE      CODE     ---       #2360
      01001BF9H   LINE      CODE     ---       #2361
      01001C02H   LINE      CODE     ---       #2362
      01001C02H   LINE      CODE     ---       #2365
      01001C04H   LINE      CODE     ---       #2367
      01001C08H   LINE      CODE     ---       #2368
      01001C0CH   LINE      CODE     ---       #2369
      01001C11H   LINE      CODE     ---       #2370
      01001C11H   LINE      CODE     ---       #2371
      01001C11H   LINE      CODE     ---       #2373
      01001C18H   LINE      CODE     ---       #2375
      01001C1AH   LINE      CODE     ---       #2377
      01001C1AH   LINE      CODE     ---       #2379
      01001C29H   LINE      CODE     ---       #2380
      01001C3BH   LINE      CODE     ---       #2381
      01001C44H   LINE      CODE     ---       #2382
      01001C44H   LINE      CODE     ---       #2384
      01001C44H   LINE      CODE     ---       #2386
      01001C4BH   LINE      CODE     ---       #2388
      01001C4EH   LINE      CODE     ---       #2393
      01001C5BH   LINE      CODE     ---       #2394
      01001C7BH   LINE      CODE     ---       #2395
      01001C84H   LINE      CODE     ---       #2396
LX51 LINKER/LOCATER V4.66.41.0                                                        12/20/2018  14:37:19  PAGE 84


      01001C84H   LINE      CODE     ---       #2399
      01001C8BH   LINE      CODE     ---       #2401
      01001C90H   LINE      CODE     ---       #2403
      01001C92H   LINE      CODE     ---       #2405
      01001C97H   LINE      CODE     ---       #2406
      01001C97H   LINE      CODE     ---       #2407
      01001CAAH   LINE      CODE     ---       #2408
      01001CAAH   LINE      CODE     ---       #2410
      01001CB4H   LINE      CODE     ---       #2412
      01001CB7H   LINE      CODE     ---       #2416
      01001CC4H   LINE      CODE     ---       #2419
      01001CEDH   LINE      CODE     ---       #2420
      01001CF6H   LINE      CODE     ---       #2421
      01001CF6H   LINE      CODE     ---       #2423
      01001CF9H   LINE      CODE     ---       #2425
      01001D0DH   LINE      CODE     ---       #2427
      01001D1DH   LINE      CODE     ---       #2428
      01001D49H   LINE      CODE     ---       #2430
      01001D4BH   LINE      CODE     ---       #2432
      01001D5DH   LINE      CODE     ---       #2433
      01001D5DH   LINE      CODE     ---       #2434
      01001D65H   LINE      CODE     ---       #2435
      01001D78H   LINE      CODE     ---       #2436
      01001D7BH   LINE      CODE     ---       #2437
      01001D7BH   LINE      CODE     ---       #2439
      01001D82H   LINE      CODE     ---       #2442
      01001D82H   LINE      CODE     ---       #2444
      01001D91H   LINE      CODE     ---       #2445
      01001DACH   LINE      CODE     ---       #2446
      01001DB5H   LINE      CODE     ---       #2447
      01001DB5H   LINE      CODE     ---       #2450
      01001DC7H   LINE      CODE     ---       #2451
      01001DCEH   LINE      CODE     ---       #2452
      01001DE1H   LINE      CODE     ---       #2453
      01001DF4H   LINE      CODE     ---       #2454
      01001DF4H   LINE      CODE     ---       #2456
      01001DFEH   LINE      CODE     ---       #2458
      01001E11H   LINE      CODE     ---       #2462
      01001E20H   LINE      CODE     ---       #2465
      01001E49H   LINE      CODE     ---       #2466
      01001E52H   LINE      CODE     ---       #2468
      01001E61H   LINE      CODE     ---       #2471
      01001E8AH   LINE      CODE     ---       #2472
      01001E93H   LINE      CODE     ---       #2473
      01001E93H   LINE      CODE     ---       #2475
      01001EA1H   LINE      CODE     ---       #2476
      01001EAFH   LINE      CODE     ---       #2477
      01001EB5H   LINE      CODE     ---       #2478
      01001EB9H   LINE      CODE     ---       #2479
      01001EBDH   LINE      CODE     ---       #2480
      01001EC1H   LINE      CODE     ---       #2482
      01001ED4H   LINE      CODE     ---       #2483
      01001ED7H   LINE      CODE     ---       #2484
      01001ED7H   LINE      CODE     ---       #2486
      01001EDEH   LINE      CODE     ---       #2489
      01001EDEH   LINE      CODE     ---       #2491
      01001EEDH   LINE      CODE     ---       #2492
      01001F0FH   LINE      CODE     ---       #2493
      01001F18H   LINE      CODE     ---       #2494
      01001F18H   LINE      CODE     ---       #2497
      01001F1EH   LINE      CODE     ---       #2498
      01001F22H   LINE      CODE     ---       #2499
      01001F35H   LINE      CODE     ---       #2500
      01001F35H   LINE      CODE     ---       #2502
      01001F3CH   LINE      CODE     ---       #2505
LX51 LINKER/LOCATER V4.66.41.0                                                        12/20/2018  14:37:19  PAGE 85


      01001F3CH   LINE      CODE     ---       #2507
      01001F4BH   LINE      CODE     ---       #2508
      01001F6BH   LINE      CODE     ---       #2509
      01001F74H   LINE      CODE     ---       #2510
      01001F74H   LINE      CODE     ---       #2513
      01001F80H   LINE      CODE     ---       #2514
      01001F8AH   LINE      CODE     ---       #2515
      01001F8DH   LINE      CODE     ---       #2516
      01001F8DH   LINE      CODE     ---       #2518
      01001F9AH   LINE      CODE     ---       #2520
      01001F9FH   LINE      CODE     ---       #2524
      01001FACH   LINE      CODE     ---       #2528
      01001FE3H   LINE      CODE     ---       #2529
      01001FECH   LINE      CODE     ---       #2530
      01001FECH   LINE      CODE     ---       #2533
      01001FFBH   LINE      CODE     ---       #2535
      01002019H   LINE      CODE     ---       #2537
      01002037H   LINE      CODE     ---       #2538
      0100204DH   LINE      CODE     ---       #2539
      0100204DH   LINE      CODE     ---       #2540
      01002055H   LINE      CODE     ---       #2542
      01002057H   LINE      CODE     ---       #2543
      01002057H   LINE      CODE     ---       #2545
      01002061H   LINE      CODE     ---       #2548
      01002061H   LINE      CODE     ---       #2550
      01002070H   LINE      CODE     ---       #2551
      0100208BH   LINE      CODE     ---       #2552
      01002094H   LINE      CODE     ---       #2553
      01002094H   LINE      CODE     ---       #2555
      0100209CH   LINE      CODE     ---       #2556
      010020AFH   LINE      CODE     ---       #2557
      010020BAH   LINE      CODE     ---       #2559
      010020C4H   LINE      CODE     ---       #2560
      010020C4H   LINE      CODE     ---       #2562
      010020C5H   LINE      CODE     ---       #2564
      010020D4H   LINE      CODE     ---       #2566
      010020D7H   LINE      CODE     ---       #2569
      010020D7H   LINE      CODE     ---       #2571
      010020E6H   LINE      CODE     ---       #2572
      010020F8H   LINE      CODE     ---       #2573
      01002101H   LINE      CODE     ---       #2574
      01002101H   LINE      CODE     ---       #2576
      01002103H   LINE      CODE     ---       #2577
      01002106H   LINE      CODE     ---       #2578
      01002106H   LINE      CODE     ---       #2579
      01002106H   LINE      CODE     ---       #2581
      01002106H   LINE      CODE     ---       #2583
      01002106H   LINE      CODE     ---       #2585
      0100211CH   LINE      CODE     ---       #2587
      0100211FH   LINE      CODE     ---       #2589
      01002120H   LINE      CODE     ---       #2591
      01002126H   LINE      CODE     ---       #2592
      01002135H   LINE      CODE     ---       #2593
      01002138H   LINE      CODE     ---       #2594
      01002138H   LINE      CODE     ---       #2596
      01002138H   LINE      CODE     ---       #2598
      01002138H   LINE      CODE     ---       #2599
      01002138H   LINE      CODE     ---       #2600
      01002138H   LINE      CODE     ---       #2602
      01002138H   LINE      CODE     ---       #2606
      01002138H   LINE      CODE     ---       #2607
      01002138H   LINE      CODE     ---       #2608
      ---         BLOCKEND  ---      ---       LVL=0

      010077A0H   BLOCK     CODE     ---       LVL=0
LX51 LINKER/LOCATER V4.66.41.0                                                        12/20/2018  14:37:19  PAGE 86


      010077A0H   LINE      CODE     ---       #2611
      010077A0H   LINE      CODE     ---       #2613
      010077A6H   LINE      CODE     ---       #2614
      010077ADH   LINE      CODE     ---       #2616
      010077B3H   LINE      CODE     ---       #2617
      010077B5H   LINE      CODE     ---       #2618
      ---         BLOCKEND  ---      ---       LVL=0

      01002139H   BLOCK     CODE     ---       LVL=0
      01002139H   BLOCK     CODE     NEAR LAB  LVL=1
      0100112EH   SYMBOL    CODE     ---       cmd_datsComing
      01001130H   SYMBOL    CODE     ---       cmd_nwkOpenNote
      02000009H   SYMBOL    XDATA    ---       paramTX_temp
      020000A2H   SYMBOL    XDATA    ---       paramRX_temp
      00000023H.5 SYMBOL    BIT      BIT       heartBeat_cmdFLG
      0100219EH   BLOCK     CODE     NEAR LAB  LVL=2
      00000023H.4 SYMBOL    BIT      BIT       FLG_timeSetInit
      01001264H   SYMBOL    CODE     WORD      DTREQ_EXATTR_ONCEPERIOD
      0000007FH   SYMBOL    IDATA    WORD      constandLoop_reserve
      02000007H   SYMBOL    XDATA    BYTE      frame_dataLen
      00000020H.0 SYMBOL    BIT      BIT       dataFromRemote_IF
      00000020H.1 SYMBOL    BIT      BIT       specialCmd_IF
      02000008H   SYMBOL    XDATA    BYTE      datsTX_Len
      ---         BLOCKEND  ---      ---       LVL=2
      010021F8H   BLOCK     CODE     NEAR LAB  LVL=2
      01001264H   SYMBOL    CODE     WORD      DTREQ_EXATTR_ONCEPERIOD
      0000007FH   SYMBOL    IDATA    WORD      constandLoop_reserve
      02000007H   SYMBOL    XDATA    BYTE      frame_dataLen
      00000020H.0 SYMBOL    BIT      BIT       dataFromRemote_IF
      00000020H.1 SYMBOL    BIT      BIT       specialCmd_IF
      02000008H   SYMBOL    XDATA    BYTE      datsTX_Len
      0100222AH   BLOCK     CODE     NEAR LAB  LVL=3
      0000007DH   SYMBOL    IDATA    WORD      current_Insert
      00000082H   SYMBOL    IDATA    BYTE      statusRelay_temp
      00000083H   SYMBOL    IDATA    BYTE      localActLoop
      ---         BLOCKEND  ---      ---       LVL=3
      ---         BLOCKEND  ---      ---       LVL=2
      01002396H   BLOCK     CODE     NEAR LAB  LVL=2
      02000007H   SYMBOL    XDATA    BYTE      frame_dataLen
      00000020H.0 SYMBOL    BIT      BIT       dataFromRemote_IF
      00000020H.1 SYMBOL    BIT      BIT       specialCmd_IF
      02000008H   SYMBOL    XDATA    BYTE      datsTX_Len
      01002421H   BLOCK     CODE     NEAR LAB  LVL=3
      02000000H   SYMBOL    XDATA    BYTE      loop
      02000001H   SYMBOL    XDATA    ---       nightDatsTemp_CalibrateTab
      00000081H   SYMBOL    IDATA    BYTE      loop
      00000084H   SYMBOL    IDATA    WORD      datsFrom_addr
      00000086H   SYMBOL    IDATA    BYTE      srcPoint
      00000087H   SYMBOL    IDATA    BYTE      dstPoint
      ---         BLOCKEND  ---      ---       LVL=3
      0100249CH   BLOCK     CODE     NEAR LAB  LVL=3
      02000001H   SYMBOL    XDATA    ---       nightDatsTemp_CalibrateTab
      00000081H   SYMBOL    IDATA    BYTE      loop
      00000084H   SYMBOL    IDATA    WORD      datsFrom_addr
      00000086H   SYMBOL    IDATA    BYTE      srcPoint
      00000087H   SYMBOL    IDATA    BYTE      dstPoint
      ---         BLOCKEND  ---      ---       LVL=3
      ---         BLOCKEND  ---      ---       LVL=2
      010026FAH   BLOCK     CODE     NEAR LAB  LVL=2
      00000020H.0 SYMBOL    BIT      BIT       dataFromRemote_IF
      00000020H.1 SYMBOL    BIT      BIT       specialCmd_IF
      02000008H   SYMBOL    XDATA    BYTE      datsTX_Len
      ---         BLOCKEND  ---      ---       LVL=2
      01002746H   BLOCK     CODE     NEAR LAB  LVL=2
      00000081H   SYMBOL    IDATA    BYTE      loop
LX51 LINKER/LOCATER V4.66.41.0                                                        12/20/2018  14:37:19  PAGE 87


      00000084H   SYMBOL    IDATA    WORD      datsFrom_addr
      00000086H   SYMBOL    IDATA    BYTE      srcPoint
      00000087H   SYMBOL    IDATA    BYTE      dstPoint
      ---         BLOCKEND  ---      ---       LVL=2
      010028ACH   BLOCK     CODE     NEAR LAB  LVL=2
      00000084H   SYMBOL    IDATA    WORD      datsFrom_addr
      00000086H   SYMBOL    IDATA    BYTE      srcPoint
      00000087H   SYMBOL    IDATA    BYTE      dstPoint
      01002912H   BLOCK     CODE     NEAR LAB  LVL=3
      00000082H   SYMBOL    IDATA    BYTE      statusRelay_temp
      00000083H   SYMBOL    IDATA    BYTE      localActLoop
      ---         BLOCKEND  ---      ---       LVL=3
      ---         BLOCKEND  ---      ---       LVL=2
      ---         BLOCKEND  ---      ---       LVL=1
      01002139H   LINE      CODE     ---       #2622
      01002139H   LINE      CODE     ---       #2628
      0100214CH   LINE      CODE     ---       #2629
      0100215FH   LINE      CODE     ---       #2634
      01002165H   LINE      CODE     ---       #2636
      01002168H   LINE      CODE     ---       #2637
      0100216BH   LINE      CODE     ---       #2638
      0100216BH   LINE      CODE     ---       #2641
      01002193H   LINE      CODE     ---       #2643
      01002193H   LINE      CODE     ---       #2645
      0100219BH   LINE      CODE     ---       #2647
      0100219BH   LINE      CODE     ---       #2648
      0100219BH   LINE      CODE     ---       #2650
      0100219EH   LINE      CODE     ---       #2651
      0100219EH   LINE      CODE     ---       #2653
      0100219EH   LINE      CODE     ---       #2656
      010021A1H   LINE      CODE     ---       #2658
      010021A3H   LINE      CODE     ---       #2659
      010021B0H   LINE      CODE     ---       #2661
      010021B7H   LINE      CODE     ---       #2663
      010021B7H   LINE      CODE     ---       #2665
      010021C6H   LINE      CODE     ---       #2666
      010021DEH   LINE      CODE     ---       #2667
      010021E7H   LINE      CODE     ---       #2668
      010021E7H   LINE      CODE     ---       #2670
      010021E7H   LINE      CODE     ---       #2671
      010021E7H   LINE      CODE     ---       #2673
      010021EFH   LINE      CODE     ---       #2675
      010021EFH   LINE      CODE     ---       #2677
      010021F8H   LINE      CODE     ---       #2678
      010021F8H   LINE      CODE     ---       #2681
      010021F8H   LINE      CODE     ---       #2684
      01002217H   LINE      CODE     ---       #2686
      0100221DH   LINE      CODE     ---       #2688
      0100222AH   LINE      CODE     ---       #2690
      0100223FH   LINE      CODE     ---       #2693
      01002243H   LINE      CODE     ---       #2695
      01002250H   LINE      CODE     ---       #2698
      0100227DH   LINE      CODE     ---       #2699
      01002286H   LINE      CODE     ---       #2700
      01002286H   LINE      CODE     ---       #2703
      010022A2H   LINE      CODE     ---       #2705
      010022A8H   LINE      CODE     ---       #2706
      010022BDH   LINE      CODE     ---       #2707
      010022BFH   LINE      CODE     ---       #2709
      010022DBH   LINE      CODE     ---       #2711
      0100230AH   LINE      CODE     ---       #2712
      01002376H   LINE      CODE     ---       #2714
      01002387H   LINE      CODE     ---       #2715
      01002387H   LINE      CODE     ---       #2716
      01002387H   LINE      CODE     ---       #2717
LX51 LINKER/LOCATER V4.66.41.0                                                        12/20/2018  14:37:19  PAGE 88


      01002387H   LINE      CODE     ---       #2720
      01002396H   LINE      CODE     ---       #2722
      0100239AH   LINE      CODE     ---       #2724
      0100239CH   LINE      CODE     ---       #2725
      0100239EH   LINE      CODE     ---       #2727
      010023ABH   LINE      CODE     ---       #2767
      010023BAH   LINE      CODE     ---       #2768
      010023BDH   LINE      CODE     ---       #2769
      010023C0H   LINE      CODE     ---       #2772
      010023CEH   LINE      CODE     ---       #2773
      010023DDH   LINE      CODE     ---       #2774
      010023F2H   LINE      CODE     ---       #2775
      01002401H   LINE      CODE     ---       #2776
      01002411H   LINE      CODE     ---       #2777
      01002421H   LINE      CODE     ---       #2780
      01002421H   LINE      CODE     ---       #2781
      01002426H   LINE      CODE     ---       #2782
      01002437H   LINE      CODE     ---       #2783
      01002446H   LINE      CODE     ---       #2785
      01002473H   LINE      CODE     ---       #2786
      0100247BH   LINE      CODE     ---       #2787
      0100247BH   LINE      CODE     ---       #2788
      01002492H   LINE      CODE     ---       #2789
      01002497H   LINE      CODE     ---       #2790
      0100249CH   LINE      CODE     ---       #2791
      0100249CH   LINE      CODE     ---       #2793
      010024AFH   LINE      CODE     ---       #2795
      010024B8H   LINE      CODE     ---       #2796
      010024D0H   LINE      CODE     ---       #2797
      010024E7H   LINE      CODE     ---       #2798
      010024F4H   LINE      CODE     ---       #2799
      010024FCH   LINE      CODE     ---       #2800
      01002509H   LINE      CODE     ---       #2801
      01002511H   LINE      CODE     ---       #2826
      01002511H   LINE      CODE     ---       #2827
      01002524H   LINE      CODE     ---       #2828
      01002529H   LINE      CODE     ---       #2829
      0100253AH   LINE      CODE     ---       #2830
      0100253AH   LINE      CODE     ---       #2832
      01002540H   LINE      CODE     ---       #2872
      01002540H   LINE      CODE     ---       #2874
      01002548H   LINE      CODE     ---       #2876
      01002548H   LINE      CODE     ---       #2878
      01002548H   LINE      CODE     ---       #2879
      01002548H   LINE      CODE     ---       #2880
      01002548H   LINE      CODE     ---       #2883
      01002551H   LINE      CODE     ---       #2885
      01002551H   LINE      CODE     ---       #2887
      0100255DH   LINE      CODE     ---       #2889
      0100255FH   LINE      CODE     ---       #2891
      0100255FH   LINE      CODE     ---       #2893
      01002572H   LINE      CODE     ---       #2895
      01002572H   LINE      CODE     ---       #2897
      01002572H   LINE      CODE     ---       #2898
      01002572H   LINE      CODE     ---       #2901
      01002577H   LINE      CODE     ---       #2902
      01002588H   LINE      CODE     ---       #2903
      0100259BH   LINE      CODE     ---       #2904
      010025B7H   LINE      CODE     ---       #2905
      010025BEH   LINE      CODE     ---       #2906
      010025CFH   LINE      CODE     ---       #2907
      010025E3H   LINE      CODE     ---       #2908
      010025F9H   LINE      CODE     ---       #2909
      0100260DH   LINE      CODE     ---       #2910
      01002621H   LINE      CODE     ---       #2911
LX51 LINKER/LOCATER V4.66.41.0                                                        12/20/2018  14:37:19  PAGE 89


      01002639H   LINE      CODE     ---       #2912
      01002651H   LINE      CODE     ---       #2913
      0100266DH   LINE      CODE     ---       #2914
      01002674H   LINE      CODE     ---       #2915
      01002677H   LINE      CODE     ---       #2916
      0100267CH   LINE      CODE     ---       #2917
      01002697H   LINE      CODE     ---       #2929
      0100269EH   LINE      CODE     ---       #2930
      010026A4H   LINE      CODE     ---       #2931
      010026B3H   LINE      CODE     ---       #2932
      010026C9H   LINE      CODE     ---       #2933
      010026D1H   LINE      CODE     ---       #2934
      010026D6H   LINE      CODE     ---       #2935
      010026DDH   LINE      CODE     ---       #2936
      010026EEH   LINE      CODE     ---       #2937
      010026F2H   LINE      CODE     ---       #2940
      010026F2H   LINE      CODE     ---       #2974
      010026FAH   LINE      CODE     ---       #2976
      010026FCH   LINE      CODE     ---       #2977
      010026FEH   LINE      CODE     ---       #2979
      01002703H   LINE      CODE     ---       #2981
      0100270AH   LINE      CODE     ---       #3014
      0100271FH   LINE      CODE     ---       #3015
      01002726H   LINE      CODE     ---       #3016
      01002729H   LINE      CODE     ---       #3018
      0100272FH   LINE      CODE     ---       #3019
      01002734H   LINE      CODE     ---       #3023
      01002734H   LINE      CODE     ---       #3026
      0100273DH   LINE      CODE     ---       #3028
      01002746H   LINE      CODE     ---       #3032
      01002755H   LINE      CODE     ---       #3034
      01002773H   LINE      CODE     ---       #3036
      01002788H   LINE      CODE     ---       #3038
      0100279CH   LINE      CODE     ---       #3040
      010027B4H   LINE      CODE     ---       #3042
      010027D6H   LINE      CODE     ---       #3043
      010027E5H   LINE      CODE     ---       #3044
      010027EBH   LINE      CODE     ---       #3047
      010027FEH   LINE      CODE     ---       #3048
      01002814H   LINE      CODE     ---       #3049
      01002831H   LINE      CODE     ---       #3051
      01002849H   LINE      CODE     ---       #3052
      01002859H   LINE      CODE     ---       #3053
      0100286AH   LINE      CODE     ---       #3054
      0100287BH   LINE      CODE     ---       #3072
      0100287BH   LINE      CODE     ---       #3073
      0100287BH   LINE      CODE     ---       #3074
      01002881H   LINE      CODE     ---       #3075
      01002881H   LINE      CODE     ---       #3076
      01002881H   LINE      CODE     ---       #3128
      01002887H   LINE      CODE     ---       #3130
      01002889H   LINE      CODE     ---       #3145
      010028ACH   LINE      CODE     ---       #3146
      010028ACH   LINE      CODE     ---       #3148
      010028BEH   LINE      CODE     ---       #3149
      010028C2H   LINE      CODE     ---       #3150
      010028C6H   LINE      CODE     ---       #3152
      010028CAH   LINE      CODE     ---       #3154
      010028D0H   LINE      CODE     ---       #3155
      010028D9H   LINE      CODE     ---       #3156
      010028D9H   LINE      CODE     ---       #3158
      010028E8H   LINE      CODE     ---       #3159
      010028FEH   LINE      CODE     ---       #3161
      01002912H   LINE      CODE     ---       #3163
      01002919H   LINE      CODE     ---       #3164
LX51 LINKER/LOCATER V4.66.41.0                                                        12/20/2018  14:37:19  PAGE 90


      0100291CH   LINE      CODE     ---       #3166
      01002922H   LINE      CODE     ---       #3169
      01002922H   LINE      CODE     ---       #3170
      01002931H   LINE      CODE     ---       #3171
      0100295BH   LINE      CODE     ---       #3172
      01002964H   LINE      CODE     ---       #3173
      01002964H   LINE      CODE     ---       #3176
      01002974H   LINE      CODE     ---       #3178
      01002988H   LINE      CODE     ---       #3180
      010029A3H   LINE      CODE     ---       #3182
      010029B4H   LINE      CODE     ---       #3183
      010029C7H   LINE      CODE     ---       #3184
      010029CBH   LINE      CODE     ---       #3185
      010029ECH   LINE      CODE     ---       #3187
      010029FFH   LINE      CODE     ---       #3189
      01002A10H   LINE      CODE     ---       #3190
      01002A10H   LINE      CODE     ---       #3192
      01002A12H   LINE      CODE     ---       #3193
      01002A12H   LINE      CODE     ---       #3194
      01002A18H   LINE      CODE     ---       #3196
      01002A1FH   LINE      CODE     ---       #3198
      01002A20H   LINE      CODE     ---       #3200
      01002A31H   LINE      CODE     ---       #3203
      01002A31H   LINE      CODE     ---       #3205
      01002A3AH   LINE      CODE     ---       #3207
      01002A3AH   LINE      CODE     ---       #3210
      01002A3AH   LINE      CODE     ---       #3212
      01002A44H   LINE      CODE     ---       #3214
      01002A51H   LINE      CODE     ---       #3215
      01002A51H   LINE      CODE     ---       #3217
      01002A51H   LINE      CODE     ---       #3220
      01002A51H   LINE      CODE     ---       #3222
      01002A5AH   LINE      CODE     ---       #3224
      01002A5AH   LINE      CODE     ---       #3226
      01002A5AH   LINE      CODE     ---       #3230
      01002A5AH   LINE      CODE     ---       #3231
      01002A5AH   LINE      CODE     ---       #3232
      01002A5AH   LINE      CODE     ---       #3234
      01002A5AH   LINE      CODE     ---       #3235
      01002A77H   LINE      CODE     ---       #3236
      01002A77H   LINE      CODE     ---       #3238
      01002A7FH   LINE      CODE     ---       #3239
      01002A7FH   LINE      CODE     ---       #3240
      01002A7FH   LINE      CODE     ---       #3242
      01002A7FH   LINE      CODE     ---       #3244
      01002A7FH   LINE      CODE     ---       #3247
      01002A82H   LINE      CODE     ---       #3248
      01002A84H   LINE      CODE     ---       #3250
      01002A86H   LINE      CODE     ---       #3252
      01002A86H   LINE      CODE     ---       #3255
      01002A89H   LINE      CODE     ---       #3256
      01002A8EH   LINE      CODE     ---       #3258
      01002A8EH   LINE      CODE     ---       #3260
      01002A8EH   LINE      CODE     ---       #3263
      01002A91H   LINE      CODE     ---       #3265
      01002A91H   LINE      CODE     ---       #3267
      01002A91H   LINE      CODE     ---       #3270
      01002A94H   LINE      CODE     ---       #3271
      01002A97H   LINE      CODE     ---       #3273
      01002A97H   LINE      CODE     ---       #3275
      01002A97H   LINE      CODE     ---       #3278
      01002A9AH   LINE      CODE     ---       #3279
      01002AA0H   LINE      CODE     ---       #3281
      01002AA6H   LINE      CODE     ---       #3282
      01002AA6H   LINE      CODE     ---       #3284
LX51 LINKER/LOCATER V4.66.41.0                                                        12/20/2018  14:37:19  PAGE 91


      01002AA6H   LINE      CODE     ---       #3286
      01002AA6H   LINE      CODE     ---       #3288
      01002AADH   LINE      CODE     ---       #3290
      01002AB0H   LINE      CODE     ---       #3291
      01002AB4H   LINE      CODE     ---       #3293
      01002AB4H   LINE      CODE     ---       #3294
      01002AB4H   LINE      CODE     ---       #3296
      01002AB4H   LINE      CODE     ---       #3297
      01002AB4H   LINE      CODE     ---       #3298
      ---         BLOCKEND  ---      ---       LVL=0

      ---         MODULE    ---      ---       USRKIN
      00000023H.2 PUBLIC    BIT      BIT       combinationFunTrigger_3S1L_standBy_FLG
      0200072AH   PUBLIC    XDATA    WORD      combinationFunFLG_3S5S_cancel_counter
      02000728H   PUBLIC    XDATA    WORD      touchPadActCounter
      02000727H   PUBLIC    XDATA    BYTE      touchKeepCnt_record
      02000725H   PUBLIC    XDATA    WORD      touchPadContinueCnt
      00000023H.1 PUBLIC    BIT      BIT       ledBackground_method
      0000001FH   PUBLIC    IDATA    BYTE      val_DcodeCfm
      0000007BH   PUBLIC    DATA     WORD      usrKeyCount
      00000023H.0 PUBLIC    BIT      BIT       usrKeyCount_EN
      00000022H.7 PUBLIC    BIT      BIT       combinationFunTrigger_3S5S_standBy_FLG
      01007857H   PUBLIC    CODE     ---       usrKeyFun_zigbNwkRejoin
      0100791EH   PUBLIC    CODE     ---       fun_touchReset
      01006780H   PUBLIC    CODE     ---       _touchPad_functionTrigContinue
      01005998H   PUBLIC    CODE     ---       _touchPad_functionTrigNormal
      01005841H   PUBLIC    CODE     ---       touchPad_Scan
      010078A7H   PUBLIC    CODE     ---       touchPadScan_oneShoot
      01006FD6H   PUBLIC    CODE     ---       DcodeScan
      0100743DH   PUBLIC    CODE     ---       DcodeScan_oneShoot
      00000027H   PUBLIC    DATA     BYTE      ?_UsrKEYScan?BYTE
      010068CFH   PUBLIC    CODE     ---       _UsrKEYScan
      01007949H   PUBLIC    CODE     ---       UsrKEYScan_oneShoot
      01007649H   PUBLIC    CODE     ---       usrKin_pinInit
      01007765H   PUBLIC    CODE     ---       _devTypeComfirm_byDcode
      0100730DH   PUBLIC    CODE     ---       usrZigbNwkOpen
      000000D8H.2 SFRSYM    DATA     BIT       CCF2
      000000E0H.7 SFRSYM    DATA     BIT       ACC7
      00000093H   SFRSYM    DATA     BYTE      P0M1
      00000092H   SFRSYM    DATA     BYTE      P1M0
      00000096H   SFRSYM    DATA     BYTE      P2M0
      00000091H   SFRSYM    DATA     BYTE      P1M1
      00000080H   SFRSYM    DATA     BYTE      P0
      000000B2H   SFRSYM    DATA     BYTE      P3M0
      00000095H   SFRSYM    DATA     BYTE      P2M1
      00000090H   SFRSYM    DATA     BYTE      P1
      000000B4H   SFRSYM    DATA     BYTE      P4M0
      000000B1H   SFRSYM    DATA     BYTE      P3M1
      000000A0H   SFRSYM    DATA     BYTE      P2
      000000CAH   SFRSYM    DATA     BYTE      P5M0
      000000B3H   SFRSYM    DATA     BYTE      P4M1
      000000B0H   SFRSYM    DATA     BYTE      P3
      000000ABH   SFRSYM    DATA     BYTE      WKTCH
      000000B0H.4 SFRSYM    DATA     BIT       T0
      000000D0H.6 SFRSYM    DATA     BIT       AC
      000000CCH   SFRSYM    DATA     BYTE      P6M0
      000000C9H   SFRSYM    DATA     BYTE      P5M1
      000000C0H   SFRSYM    DATA     BYTE      P4
      000000B0H.5 SFRSYM    DATA     BIT       CLKOUT0
      000000B0H.5 SFRSYM    DATA     BIT       T1
      000000E2H   SFRSYM    DATA     BYTE      P7M0
      000000CBH   SFRSYM    DATA     BYTE      P6M1
      000000C8H   SFRSYM    DATA     BYTE      P5
      000000C6H   SFRSYM    DATA     BYTE      ISP_TRIG
      000000A8H.7 SFRSYM    DATA     BIT       EA
LX51 LINKER/LOCATER V4.66.41.0                                                        12/20/2018  14:37:19  PAGE 92


      000000B0H.4 SFRSYM    DATA     BIT       CLKOUT1
      000000A0H.4 SFRSYM    DATA     BIT       SPI_SS_2
      000000E8H   SFRSYM    DATA     BYTE      P6
      000000E1H   SFRSYM    DATA     BYTE      P7M1
      000000C8H.4 SFRSYM    DATA     BIT       SPI_SS_3
      00000090H.4 SFRSYM    DATA     BIT       SPI_MISO
      00000090H.3 SFRSYM    DATA     BIT       SPI_MOSI
      00000090H.1 SFRSYM    DATA     BIT       CCP0
      000000F8H   SFRSYM    DATA     BYTE      P7
      000000AAH   SFRSYM    DATA     BYTE      WKTCL
      00000090H   SFRSYM    DATA     BIT       CCP1
      000000CEH   SFRSYM    DATA     BYTE      SPCTL
      000000D8H.7 SFRSYM    DATA     BIT       CF
      000000B0H.7 SFRSYM    DATA     BIT       CCP2
      000000F9H   SFRSYM    DATA     BYTE      CH
      000000A2H   SFRSYM    DATA     BYTE      P_SW1
      000000BAH   SFRSYM    DATA     BYTE      P_SW2
      000000A8H.5 SFRSYM    DATA     BIT       EADC
      000000A0H.1 SFRSYM    DATA     BIT       SPI_SCLK_2
      000000A8H   SFRSYM    DATA     BYTE      IE
      000000C0H.3 SFRSYM    DATA     BIT       SPI_SCLK_3
      000000E9H   SFRSYM    DATA     BYTE      CL
      000000C5H   SFRSYM    DATA     BYTE      IAP_CMD
      000000FAH   SFRSYM    DATA     BYTE      CCAP0H
      00000090H   SFRSYM    DATA     BIT       Dcode0
      000000FBH   SFRSYM    DATA     BYTE      CCAP1H
      00000090H.1 SFRSYM    DATA     BIT       Dcode1
      000000FCH   SFRSYM    DATA     BYTE      CCAP2H
      00000090H.2 SFRSYM    DATA     BIT       Dcode2
      000000BDH   SFRSYM    DATA     BYTE      ADC_RES
      000000B6H   SFRSYM    DATA     BYTE      IPH2
      00000090H.3 SFRSYM    DATA     BIT       Dcode3
      000000D8H.6 SFRSYM    DATA     BIT       CR
      000000EAH   SFRSYM    DATA     BYTE      CCAP0L
      00000090H.4 SFRSYM    DATA     BIT       Dcode4
      000000B0H.7 SFRSYM    DATA     BIT       RD
      000000EBH   SFRSYM    DATA     BYTE      CCAP1L
      000000DAH   SFRSYM    DATA     BYTE      CCAPM0
      00000090H.3 SFRSYM    DATA     BIT       Dcode5
      000000ECH   SFRSYM    DATA     BYTE      CCAP2L
      000000DBH   SFRSYM    DATA     BYTE      CCAPM1
      000000A8H.4 SFRSYM    DATA     BIT       ES
      000000DCH   SFRSYM    DATA     BYTE      CCAPM2
      000000B8H.5 SFRSYM    DATA     BIT       PADC
      000000A0H.2 SFRSYM    DATA     BIT       SPI_MISO_2
      000000A0H.3 SFRSYM    DATA     BIT       SPI_MOSI_2
      000000B8H   SFRSYM    DATA     BYTE      IP
      000000C0H.1 SFRSYM    DATA     BIT       SPI_MISO_3
      000000C0H   SFRSYM    DATA     BIT       SPI_MOSI_3
      00000098H   SFRSYM    DATA     BIT       RI
      000000B0H.2 SFRSYM    DATA     BIT       INT0
      000000D0H.7 SFRSYM    DATA     BIT       CY
      00000098H.1 SFRSYM    DATA     BIT       TI
      000000B0H.3 SFRSYM    DATA     BIT       INT1
      00000097H   SFRSYM    DATA     BYTE      CLK_DIV
      000000C3H   SFRSYM    DATA     BYTE      IAP_ADDRH
      00000090H   SFRSYM    DATA     BIT       RXD2
      000000C5H   SFRSYM    DATA     BYTE      ISP_CMD
      000000B8H.4 SFRSYM    DATA     BIT       PS
      00000090H.1 SFRSYM    DATA     BIT       TXD2
      00000081H   SFRSYM    DATA     BYTE      SP
      000000D9H   SFRSYM    DATA     BYTE      CMOD
      000000D8H   SFRSYM    DATA     BYTE      CCON
      000000C4H   SFRSYM    DATA     BYTE      IAP_ADDRL
      000000B8H.7 SFRSYM    DATA     BIT       PPCA
LX51 LINKER/LOCATER V4.66.41.0                                                        12/20/2018  14:37:19  PAGE 93


      000000D0H.2 SFRSYM    DATA     BIT       OV
      000000B0H.6 SFRSYM    DATA     BIT       WR
      000000A8H.6 SFRSYM    DATA     BIT       ELVD
      00000080H   SFRSYM    DATA     BIT       P00
      00000090H   SFRSYM    DATA     BIT       P10
      00000080H.1 SFRSYM    DATA     BIT       P01
      000000BCH   SFRSYM    DATA     BYTE      ADC_CONTR
      00000099H   SFRSYM    DATA     BYTE      SBUF
      00000087H   SFRSYM    DATA     BYTE      PCON
      000000A0H   SFRSYM    DATA     BIT       P20
      00000090H.1 SFRSYM    DATA     BIT       P11
      00000080H.2 SFRSYM    DATA     BIT       P02
      000000C3H   SFRSYM    DATA     BYTE      ISP_ADDRH
      000000B0H   SFRSYM    DATA     BIT       P30
      000000A0H.1 SFRSYM    DATA     BIT       P21
      00000090H.2 SFRSYM    DATA     BIT       P12
      00000080H.3 SFRSYM    DATA     BIT       P03
      000000C0H   SFRSYM    DATA     BIT       P40
      000000B0H.1 SFRSYM    DATA     BIT       P31
      000000A0H.2 SFRSYM    DATA     BIT       P22
      00000090H.3 SFRSYM    DATA     BIT       P13
      00000080H.4 SFRSYM    DATA     BIT       P04
      00000098H   SFRSYM    DATA     BYTE      SCON
      0000008FH   SFRSYM    DATA     BYTE      WAKE_CLKO
      000000C8H   SFRSYM    DATA     BIT       P50
      000000C0H.1 SFRSYM    DATA     BIT       P41
      000000B0H.2 SFRSYM    DATA     BIT       P32
      000000A0H.3 SFRSYM    DATA     BIT       P23
      00000090H.4 SFRSYM    DATA     BIT       P14
      00000080H.5 SFRSYM    DATA     BIT       P05
      00000089H   SFRSYM    DATA     BYTE      TMOD
      00000088H   SFRSYM    DATA     BYTE      TCON
      000000C8H.1 SFRSYM    DATA     BIT       P51
      000000C0H.2 SFRSYM    DATA     BIT       P42
      000000B0H.3 SFRSYM    DATA     BIT       P33
      000000A0H.4 SFRSYM    DATA     BIT       P24
      00000090H.5 SFRSYM    DATA     BIT       P15
      00000080H.6 SFRSYM    DATA     BIT       P06
      000000C4H   SFRSYM    DATA     BYTE      ISP_ADDRL
      000000B8H.6 SFRSYM    DATA     BIT       PLVD
      000000C8H.2 SFRSYM    DATA     BIT       P52
      000000C0H.3 SFRSYM    DATA     BIT       P43
      000000B0H.4 SFRSYM    DATA     BIT       P34
      000000A0H.5 SFRSYM    DATA     BIT       P25
      00000090H.6 SFRSYM    DATA     BIT       P16
      00000080H.7 SFRSYM    DATA     BIT       P07
      000000C8H.3 SFRSYM    DATA     BIT       P53
      000000C0H.4 SFRSYM    DATA     BIT       P44
      000000B0H.5 SFRSYM    DATA     BIT       P35
      000000A0H.6 SFRSYM    DATA     BIT       P26
      00000090H.7 SFRSYM    DATA     BIT       P17
      000000C8H.4 SFRSYM    DATA     BIT       P54
      000000C0H.5 SFRSYM    DATA     BIT       P45
      000000B0H.6 SFRSYM    DATA     BIT       P36
      000000A0H.7 SFRSYM    DATA     BIT       P27
      000000C8H.5 SFRSYM    DATA     BIT       P55
      000000C0H.6 SFRSYM    DATA     BIT       P46
      000000B0H.7 SFRSYM    DATA     BIT       P37
      000000C8H.6 SFRSYM    DATA     BIT       P56
      000000C0H.7 SFRSYM    DATA     BIT       P47
      000000C8H.7 SFRSYM    DATA     BIT       P57
      00000088H.1 SFRSYM    DATA     BIT       IE0
      000000A1H   SFRSYM    DATA     BYTE      BUS_SPEED
      00000088H.3 SFRSYM    DATA     BIT       IE1
      000000AFH   SFRSYM    DATA     BYTE      IE2
LX51 LINKER/LOCATER V4.66.41.0                                                        12/20/2018  14:37:19  PAGE 94


      000000F0H   SFRSYM    DATA     BYTE      B
      0000008EH   SFRSYM    DATA     BYTE      AUXR
      000000C7H   SFRSYM    DATA     BYTE      IAP_CONTR
      000000E0H   SFRSYM    DATA     BYTE      ACC
      000000A8H.1 SFRSYM    DATA     BIT       ET0
      000000A8H.3 SFRSYM    DATA     BIT       ET1
      00000088H.5 SFRSYM    DATA     BIT       TF0
      00000088H.7 SFRSYM    DATA     BIT       TF1
      000000B5H   SFRSYM    DATA     BYTE      IP2
      0000008CH   SFRSYM    DATA     BYTE      RL_TH0
      00000098H.2 SFRSYM    DATA     BIT       RB8
      0000008DH   SFRSYM    DATA     BYTE      RL_TH1
      0000008CH   SFRSYM    DATA     BYTE      TH0
      000000A8H   SFRSYM    DATA     BIT       EX0
      00000088H   SFRSYM    DATA     BIT       IT0
      000000D6H   SFRSYM    DATA     BYTE      RL_T2H
      0000008DH   SFRSYM    DATA     BYTE      TH1
      00000090H.6 SFRSYM    DATA     BIT       touchPad_1
      000000A8H.2 SFRSYM    DATA     BIT       EX1
      00000098H.3 SFRSYM    DATA     BIT       TB8
      00000088H.2 SFRSYM    DATA     BIT       IT1
      000000D4H   SFRSYM    DATA     BYTE      RL_T3H
      000000D6H   SFRSYM    DATA     BYTE      TH2
      000000D6H   SFRSYM    DATA     BYTE      T2H
      00000090H.7 SFRSYM    DATA     BIT       touchPad_2
      000000D0H   SFRSYM    DATA     BIT       P
      000000D2H   SFRSYM    DATA     BYTE      RL_T4H
      000000D4H   SFRSYM    DATA     BYTE      TH3
      000000D4H   SFRSYM    DATA     BYTE      T3H
      0000008AH   SFRSYM    DATA     BYTE      RL_TL0
      00000090H.5 SFRSYM    DATA     BIT       touchPad_3
      00000098H.7 SFRSYM    DATA     BIT       SM0
      000000D2H   SFRSYM    DATA     BYTE      TH4
      000000D2H   SFRSYM    DATA     BYTE      T4H
      0000008BH   SFRSYM    DATA     BYTE      RL_TL1
      0000008AH   SFRSYM    DATA     BYTE      TL0
      00000098H.6 SFRSYM    DATA     BIT       SM1
      000000D7H   SFRSYM    DATA     BYTE      RL_T2L
      0000008BH   SFRSYM    DATA     BYTE      TL1
      00000098H.5 SFRSYM    DATA     BIT       SM2
      000000D5H   SFRSYM    DATA     BYTE      RL_T3L
      000000D7H   SFRSYM    DATA     BYTE      TL2
      000000D7H   SFRSYM    DATA     BYTE      T2L
      000000D3H   SFRSYM    DATA     BYTE      RL_T4L
      000000D5H   SFRSYM    DATA     BYTE      TL3
      000000D5H   SFRSYM    DATA     BYTE      T3L
      000000B8H.1 SFRSYM    DATA     BIT       PT0
      000000D3H   SFRSYM    DATA     BYTE      TL4
      000000D3H   SFRSYM    DATA     BYTE      T4L
      000000B8H.3 SFRSYM    DATA     BIT       PT1
      000000D0H.3 SFRSYM    DATA     BIT       RS0
      000000C7H   SFRSYM    DATA     BYTE      ISP_CONTR
      00000088H.4 SFRSYM    DATA     BIT       TR0
      000000D0H.4 SFRSYM    DATA     BIT       RS1
      000000C2H   SFRSYM    DATA     BYTE      IAP_DATA
      00000088H.6 SFRSYM    DATA     BIT       TR1
      000000B8H   SFRSYM    DATA     BIT       PX0
      000000C1H   SFRSYM    DATA     BYTE      WDT_CONTR
      000000B8H.2 SFRSYM    DATA     BIT       PX1
      000000F2H   SFRSYM    DATA     BYTE      PCA_PWM0
      000000F3H   SFRSYM    DATA     BYTE      PCA_PWM1
      000000F4H   SFRSYM    DATA     BYTE      PCA_PWM2
      0000009DH   SFRSYM    DATA     BYTE      P1ASF
      00000083H   SFRSYM    DATA     BYTE      DPH
      000000D1H   SFRSYM    DATA     BYTE      T4T3M
LX51 LINKER/LOCATER V4.66.41.0                                                        12/20/2018  14:37:19  PAGE 95


      000000BEH   SFRSYM    DATA     BYTE      ADC_RESL
      00000082H   SFRSYM    DATA     BYTE      DPL
      000000CDH   SFRSYM    DATA     BYTE      SPSTAT
      000000B7H   SFRSYM    DATA     BYTE      IPH
      0000009BH   SFRSYM    DATA     BYTE      S2BUF
      00000097H   SFRSYM    DATA     BYTE      PCON2
      000000ADH   SFRSYM    DATA     BYTE      S3BUF
      00000098H.4 SFRSYM    DATA     BIT       REN
      00000085H   SFRSYM    DATA     BYTE      S4BUF
      00000080H.2 SFRSYM    DATA     BIT       Usr_key
      0000009AH   SFRSYM    DATA     BYTE      S2CON
      000000ACH   SFRSYM    DATA     BYTE      S3CON
      000000C2H   SFRSYM    DATA     BYTE      ISP_DATA
      00000084H   SFRSYM    DATA     BYTE      S4CON
      000000B9H   SFRSYM    DATA     BYTE      SADEN
      000000B0H   SFRSYM    DATA     BIT       RXD
      000000A9H   SFRSYM    DATA     BYTE      SADDR
      000000B0H.1 SFRSYM    DATA     BIT       TXD
      000000F0H   SFRSYM    DATA     BIT       B0
      000000F0H.1 SFRSYM    DATA     BIT       B1
      000000C6H   SFRSYM    DATA     BYTE      IAP_TRIG
      000000A2H   SFRSYM    DATA     BYTE      AUXR1
      000000F0H.2 SFRSYM    DATA     BIT       B2
      00000090H.2 SFRSYM    DATA     BIT       SPI_SS
      0000008FH   SFRSYM    DATA     BYTE      AUXR2
      000000F0H.3 SFRSYM    DATA     BIT       B3
      000000F0H.4 SFRSYM    DATA     BIT       B4
      000000D0H.5 SFRSYM    DATA     BIT       F0
      000000F0H.5 SFRSYM    DATA     BIT       B5
      000000D0H.1 SFRSYM    DATA     BIT       F1
      0000008FH   SFRSYM    DATA     BYTE      INT_CLKO
      000000F0H.6 SFRSYM    DATA     BIT       B6
      000000E0H   SFRSYM    DATA     BIT       ACC0
      000000F0H.7 SFRSYM    DATA     BIT       B7
      000000E0H.1 SFRSYM    DATA     BIT       ACC1
      000000E0H.2 SFRSYM    DATA     BIT       ACC2
      000000E0H.3 SFRSYM    DATA     BIT       ACC3
      000000D0H   SFRSYM    DATA     BYTE      PSW
      000000E0H.4 SFRSYM    DATA     BIT       ACC4
      00000090H.5 SFRSYM    DATA     BIT       SPI_SCLK
      000000D8H   SFRSYM    DATA     BIT       CCF0
      000000E0H.5 SFRSYM    DATA     BIT       ACC5
      000000D8H.1 SFRSYM    DATA     BIT       CCF1
      000000E0H.6 SFRSYM    DATA     BIT       ACC6
      000000CFH   SFRSYM    DATA     BYTE      SPDAT
      00000094H   SFRSYM    DATA     BYTE      P0M0
      01005C07H   SYMBOL    CODE     ---       _normalBussiness_shortTouchTrig
      01005998H   SYMBOL    CODE     ---       _touchPad_functionTrigNormal
      010077E9H   SYMBOL    CODE     ---       _normalBussiness_longA_touchKeepTrig
      01006780H   SYMBOL    CODE     ---       _touchPad_functionTrigContinue

      0100730DH   BLOCK     CODE     ---       LVL=0
      0100730DH   LINE      CODE     ---       #105
      0100730DH   LINE      CODE     ---       #107
      0100731FH   LINE      CODE     ---       #109
      0100731FH   LINE      CODE     ---       #111
      01007327H   LINE      CODE     ---       #112
      0100732CH   LINE      CODE     ---       #114
      0100732CH   LINE      CODE     ---       #115
      0100733BH   LINE      CODE     ---       #116
      01007353H   LINE      CODE     ---       #117
      0100735CH   LINE      CODE     ---       #118
      0100735CH   LINE      CODE     ---       #120
      0100735CH   LINE      CODE     ---       #121
      ---         BLOCKEND  ---      ---       LVL=0
LX51 LINKER/LOCATER V4.66.41.0                                                        12/20/2018  14:37:19  PAGE 96



      01007765H   BLOCK     CODE     ---       LVL=0
      00000007H   SYMBOL    DATA     BYTE      valDcode
      01007765H   LINE      CODE     ---       #123
      01007765H   LINE      CODE     ---       #125
      01007765H   LINE      CODE     ---       #134
      01007773H   LINE      CODE     ---       #136
      01007773H   LINE      CODE     ---       #138
      01007776H   LINE      CODE     ---       #140
      01007777H   LINE      CODE     ---       #142
      01007777H   LINE      CODE     ---       #144
      0100777AH   LINE      CODE     ---       #146
      0100777BH   LINE      CODE     ---       #148
      0100777BH   LINE      CODE     ---       #150
      0100777EH   LINE      CODE     ---       #152
      0100777FH   LINE      CODE     ---       #154
      0100777FH   LINE      CODE     ---       #156
      01007782H   LINE      CODE     ---       #158
      01007782H   LINE      CODE     ---       #160
      01007782H   LINE      CODE     ---       #161
      01007782H   LINE      CODE     ---       #163
      ---         BLOCKEND  ---      ---       LVL=0

      01007649H   BLOCK     CODE     ---       LVL=0
      01007655H   BLOCK     CODE     NEAR LAB  LVL=1
      00000027H   SYMBOL    DATA     BYTE      touchVal_temp
      ---         BLOCKEND  ---      ---       LVL=1
      01007649H   LINE      CODE     ---       #165
      01007649H   LINE      CODE     ---       #172
      0100764CH   LINE      CODE     ---       #173
      0100764FH   LINE      CODE     ---       #175
      01007652H   LINE      CODE     ---       #176
      01007655H   LINE      CODE     ---       #178
      01007655H   LINE      CODE     ---       #180
      0100765AH   LINE      CODE     ---       #182
      01007665H   LINE      CODE     ---       #183
      ---         BLOCKEND  ---      ---       LVL=0

      01007949H   BLOCK     CODE     ---       LVL=0
      01007949H   LINE      CODE     ---       #189
      01007949H   LINE      CODE     ---       #191
      0100794BH   LINE      CODE     ---       #192
      ---         BLOCKEND  ---      ---       LVL=0

      010068CFH   BLOCK     CODE     ---       LVL=0
      00000027H   SYMBOL    DATA     ---       funCB_Short
      0000002AH   SYMBOL    DATA     ---       funCB_LongA
      0000002DH   SYMBOL    DATA     ---       funCB_LongB
      010068D5H   BLOCK     CODE     NEAR LAB  LVL=1
      0100602DH   SYMBOL    CODE     WORD      keyCfrmLoop_Short
      0100602FH   SYMBOL    CODE     WORD      keyCfrmLoop_LongA
      01006031H   SYMBOL    CODE     WORD      keyCfrmLoop_LongB
      01006033H   SYMBOL    CODE     WORD      keyCfrmLoop_MAX
      00000021H.7 SYMBOL    BIT      BIT       LongA_FLG
      00000022H.0 SYMBOL    BIT      BIT       LongB_FLG
      00000022H.1 SYMBOL    BIT      BIT       keyPress_FLG
      ---         BLOCKEND  ---      ---       LVL=1
      010068CFH   LINE      CODE     ---       #194
      010068D5H   LINE      CODE     ---       #206
      010068DAH   LINE      CODE     ---       #208
      010068DCH   LINE      CODE     ---       #212
      010068E1H   LINE      CODE     ---       #214
      01006902H   LINE      CODE     ---       #216
      01006909H   LINE      CODE     ---       #218
      0100690BH   LINE      CODE     ---       #219
LX51 LINKER/LOCATER V4.66.41.0                                                        12/20/2018  14:37:19  PAGE 97


      0100690BH   LINE      CODE     ---       #221
      0100692CH   LINE      CODE     ---       #223
      01006933H   LINE      CODE     ---       #225
      01006935H   LINE      CODE     ---       #226
      01006935H   LINE      CODE     ---       #228
      01006936H   LINE      CODE     ---       #230
      01006938H   LINE      CODE     ---       #232
      0100693BH   LINE      CODE     ---       #234
      0100693DH   LINE      CODE     ---       #236
      0100695AH   LINE      CODE     ---       #243
      01006961H   LINE      CODE     ---       #244
      01006961H   LINE      CODE     ---       #246
      01006966H   LINE      CODE     ---       #247
      01006968H   LINE      CODE     ---       #248
      0100696AH   LINE      CODE     ---       #249
      0100696AH   LINE      CODE     ---       #250
      0100696AH   LINE      CODE     ---       #251
      ---         BLOCKEND  ---      ---       LVL=0

      0100743DH   BLOCK     CODE     ---       LVL=0
      0100743DH   BLOCK     CODE     NEAR LAB  LVL=1
      00000007H   SYMBOL    DATA     BYTE      val_Dcode
      ---         BLOCKEND  ---      ---       LVL=1
      0100743DH   LINE      CODE     ---       #255
      0100743DH   LINE      CODE     ---       #257
      0100743FH   LINE      CODE     ---       #259
      01007445H   LINE      CODE     ---       #260
      01007448H   LINE      CODE     ---       #262
      01007450H   LINE      CODE     ---       #263
      01007453H   LINE      CODE     ---       #265
      0100745BH   LINE      CODE     ---       #266
      0100745EH   LINE      CODE     ---       #268
      01007466H   LINE      CODE     ---       #269
      01007469H   LINE      CODE     ---       #271
      01007471H   LINE      CODE     ---       #272
      01007474H   LINE      CODE     ---       #274
      0100747CH   LINE      CODE     ---       #275
      0100747FH   LINE      CODE     ---       #277
      0100747FH   LINE      CODE     ---       #278
      ---         BLOCKEND  ---      ---       LVL=0

      01006FD6H   BLOCK     CODE     ---       LVL=0
      01006FD6H   BLOCK     CODE     NEAR LAB  LVL=1
      00000077H   SYMBOL    DATA     BYTE      val_Dcode_Local
      00000078H   SYMBOL    DATA     BYTE      comfirm_Cnt
      00000027H   SYMBOL    DATA     BYTE      comfirm_Period
      00000028H   SYMBOL    DATA     BYTE      val_Dcode_differ
      00000020H.0 SYMBOL    BIT      BIT       val_CHG
      ---         BLOCKEND  ---      ---       LVL=1
      01006FD6H   LINE      CODE     ---       #280
      01006FD6H   LINE      CODE     ---       #284
      01006FD9H   LINE      CODE     ---       #286
      01006FDCH   LINE      CODE     ---       #288
      01006FDEH   LINE      CODE     ---       #290
      01006FE5H   LINE      CODE     ---       #292
      01006FEAH   LINE      CODE     ---       #294
      01006FF2H   LINE      CODE     ---       #296
      01006FFDH   LINE      CODE     ---       #297
      01006FFDH   LINE      CODE     ---       #299
      01007000H   LINE      CODE     ---       #300
      01007002H   LINE      CODE     ---       #301
      01007002H   LINE      CODE     ---       #302
      01007002H   LINE      CODE     ---       #304
      01007005H   LINE      CODE     ---       #306
      01007007H   LINE      CODE     ---       #308
LX51 LINKER/LOCATER V4.66.41.0                                                        12/20/2018  14:37:19  PAGE 98


      0100700CH   LINE      CODE     ---       #309
      0100700EH   LINE      CODE     ---       #311
      01007017H   LINE      CODE     ---       #312
      0100701AH   LINE      CODE     ---       #314
      0100701AH   LINE      CODE     ---       #316
      0100701AH   LINE      CODE     ---       #319
      0100701AH   LINE      CODE     ---       #322
      0100701AH   LINE      CODE     ---       #323
      0100701AH   LINE      CODE     ---       #325
      0100701AH   LINE      CODE     ---       #327
      0100701AH   LINE      CODE     ---       #330
      0100701AH   LINE      CODE     ---       #333
      0100701AH   LINE      CODE     ---       #334
      0100701AH   LINE      CODE     ---       #336
      0100701FH   LINE      CODE     ---       #338
      01007027H   LINE      CODE     ---       #340
      0100702AH   LINE      CODE     ---       #342
      0100702CH   LINE      CODE     ---       #344
      0100702FH   LINE      CODE     ---       #345
      0100702FH   LINE      CODE     ---       #346
      0100702FH   LINE      CODE     ---       #348
      01007035H   LINE      CODE     ---       #350
      01007040H   LINE      CODE     ---       #351
      01007040H   LINE      CODE     ---       #352
      01007040H   LINE      CODE     ---       #353
      ---         BLOCKEND  ---      ---       LVL=0

      010077E9H   BLOCK     CODE     ---       LVL=0
      00000007H   SYMBOL    DATA     BYTE      statusPad
      010077E9H   BLOCK     CODE     NEAR LAB  LVL=1
      02000724H   SYMBOL    XDATA    BYTE      trigCount_Loop
      01006035H   SYMBOL    CODE     BYTE      trigCount_Period
      ---         BLOCKEND  ---      ---       LVL=1
      010077E9H   LINE      CODE     ---       #355
      010077E9H   LINE      CODE     ---       #360
      010077FBH   LINE      CODE     ---       #361
      010077FBH   LINE      CODE     ---       #363
      01007800H   LINE      CODE     ---       #388
      01007800H   LINE      CODE     ---       #390
      01007800H   LINE      CODE     ---       #391
      ---         BLOCKEND  ---      ---       LVL=0

      010078A7H   BLOCK     CODE     ---       LVL=0
      010078A7H   BLOCK     CODE     NEAR LAB  LVL=1
      00000007H   SYMBOL    DATA     BYTE      valKey_Temp
      ---         BLOCKEND  ---      ---       LVL=1
      010078A7H   LINE      CODE     ---       #393
      010078A7H   LINE      CODE     ---       #395
      010078A9H   LINE      CODE     ---       #397
      010078ADH   LINE      CODE     ---       #398
      010078B3H   LINE      CODE     ---       #399
      010078B9H   LINE      CODE     ---       #401
      010078B9H   LINE      CODE     ---       #402
      ---         BLOCKEND  ---      ---       LVL=0

      01005841H   BLOCK     CODE     ---       LVL=0
      01005841H   BLOCK     CODE     NEAR LAB  LVL=1
      00000079H   SYMBOL    DATA     BYTE      touchPad_temp
      00000022H.2 SYMBOL    BIT      BIT       keyPress_FLG
      00000022H.3 SYMBOL    BIT      BIT       funTrigFLG_LongA
      00000022H.4 SYMBOL    BIT      BIT       funTrigFLG_LongB
      01006036H   SYMBOL    CODE     WORD      touchCfrmLoop_Short
      01006038H   SYMBOL    CODE     WORD      touchCfrmLoop_LongA
      0100603AH   SYMBOL    CODE     WORD      touchCfrmLoop_LongB
      0100603CH   SYMBOL    CODE     WORD      touchCfrmLoop_MAX
LX51 LINKER/LOCATER V4.66.41.0                                                        12/20/2018  14:37:19  PAGE 99


      0000007AH   SYMBOL    DATA     BYTE      pressContinueGet
      00000027H   SYMBOL    DATA     BYTE      pressContinueCfm
      00000028H   SYMBOL    DATA     WORD      conterTemp
      ---         BLOCKEND  ---      ---       LVL=1
      01005841H   LINE      CODE     ---       #404
      01005841H   LINE      CODE     ---       #418
      01005844H   LINE      CODE     ---       #420
      01005848H   LINE      CODE     ---       #422
      01005854H   LINE      CODE     ---       #424
      0100585DH   LINE      CODE     ---       #426
      01005860H   LINE      CODE     ---       #428
      01005862H   LINE      CODE     ---       #429
      01005873H   LINE      CODE     ---       #430
      0100587DH   LINE      CODE     ---       #431
      01005882H   LINE      CODE     ---       #432
      01005883H   LINE      CODE     ---       #433
      01005883H   LINE      CODE     ---       #435
      0100588EH   LINE      CODE     ---       #437
      010058A5H   LINE      CODE     ---       #445
      010058C3H   LINE      CODE     ---       #447
      010058C8H   LINE      CODE     ---       #449
      010058CBH   LINE      CODE     ---       #451
      010058CDH   LINE      CODE     ---       #452
      010058D4H   LINE      CODE     ---       #453
      010058D4H   LINE      CODE     ---       #454
      010058D4H   LINE      CODE     ---       #455
      010058F8H   LINE      CODE     ---       #457
      010058FEH   LINE      CODE     ---       #459
      01005900H   LINE      CODE     ---       #460
      01005907H   LINE      CODE     ---       #461
      01005907H   LINE      CODE     ---       #462
      01005907H   LINE      CODE     ---       #463
      01005907H   LINE      CODE     ---       #464
      01005907H   LINE      CODE     ---       #466
      01005907H   LINE      CODE     ---       #468
      0100590AH   LINE      CODE     ---       #470
      01005921H   LINE      CODE     ---       #471
      0100593FH   LINE      CODE     ---       #473
      0100594BH   LINE      CODE     ---       #474
      01005956H   LINE      CODE     ---       #475
      0100595DH   LINE      CODE     ---       #476
      0100595DH   LINE      CODE     ---       #477
      0100595DH   LINE      CODE     ---       #479
      0100596BH   LINE      CODE     ---       #481
      0100596DH   LINE      CODE     ---       #482
      01005970H   LINE      CODE     ---       #484
      01005977H   LINE      CODE     ---       #493
      0100597EH   LINE      CODE     ---       #494
      01005981H   LINE      CODE     ---       #495
      01005981H   LINE      CODE     ---       #497
      01005984H   LINE      CODE     ---       #498
      01005984H   LINE      CODE     ---       #500
      01005987H   LINE      CODE     ---       #502
      01005989H   LINE      CODE     ---       #512
      01005989H   LINE      CODE     ---       #514
      0100598EH   LINE      CODE     ---       #516
      01005995H   LINE      CODE     ---       #517
      01005997H   LINE      CODE     ---       #518
      01005997H   LINE      CODE     ---       #519
      ---         BLOCKEND  ---      ---       LVL=0

      01005C07H   BLOCK     CODE     ---       LVL=0
      00000007H   SYMBOL    DATA     BYTE      statusPad
      01005C07H   BLOCK     CODE     NEAR LAB  LVL=1
      00000022H.5 SYMBOL    BIT      BIT       tipsBeep_IF
LX51 LINKER/LOCATER V4.66.41.0                                                        12/20/2018  14:37:19  PAGE 100


      ---         BLOCKEND  ---      ---       LVL=1
      01005C07H   LINE      CODE     ---       #521
      01005C07H   LINE      CODE     ---       #523
      01005C09H   LINE      CODE     ---       #607
      01005C1CH   LINE      CODE     ---       #609
      01005C1CH   LINE      CODE     ---       #611
      01005C21H   LINE      CODE     ---       #613
      01005C26H   LINE      CODE     ---       #614
      01005C28H   LINE      CODE     ---       #615
      01005C2DH   LINE      CODE     ---       #617
      01005C33H   LINE      CODE     ---       #618
      01005C35H   LINE      CODE     ---       #619
      01005C3AH   LINE      CODE     ---       #621
      01005C49H   LINE      CODE     ---       #622
      01005C4BH   LINE      CODE     ---       #623
      01005C4BH   LINE      CODE     ---       #625
      01005C50H   LINE      CODE     ---       #626
      01005C50H   LINE      CODE     ---       #628
      01005C5AH   LINE      CODE     ---       #630
      01005C5DH   LINE      CODE     ---       #632
      01005C5DH   LINE      CODE     ---       #634
      01005C62H   LINE      CODE     ---       #636
      01005C68H   LINE      CODE     ---       #637
      01005C6AH   LINE      CODE     ---       #638
      01005C6FH   LINE      CODE     ---       #640
      01005C6FH   LINE      CODE     ---       #641
      01005C71H   LINE      CODE     ---       #642
      01005C76H   LINE      CODE     ---       #644
      01005C7CH   LINE      CODE     ---       #645
      01005C7EH   LINE      CODE     ---       #646
      01005C83H   LINE      CODE     ---       #648
      01005C96H   LINE      CODE     ---       #649
      01005C98H   LINE      CODE     ---       #650
      01005C98H   LINE      CODE     ---       #652
      01005C9DH   LINE      CODE     ---       #653
      01005C9DH   LINE      CODE     ---       #655
      01005CA4H   LINE      CODE     ---       #657
      01005CA6H   LINE      CODE     ---       #659
      01005CA6H   LINE      CODE     ---       #661
      01005CABH   LINE      CODE     ---       #663
      01005CB1H   LINE      CODE     ---       #664
      01005CB3H   LINE      CODE     ---       #665
      01005CB8H   LINE      CODE     ---       #667
      01005CBEH   LINE      CODE     ---       #668
      01005CC0H   LINE      CODE     ---       #669
      01005CC5H   LINE      CODE     ---       #671
      01005CD4H   LINE      CODE     ---       #672
      01005CD6H   LINE      CODE     ---       #673
      01005CD6H   LINE      CODE     ---       #675
      01005CDBH   LINE      CODE     ---       #676
      01005CDBH   LINE      CODE     ---       #678
      01005CE2H   LINE      CODE     ---       #680
      01005CE2H   LINE      CODE     ---       #682
      01005CE2H   LINE      CODE     ---       #683
      01005CE2H   LINE      CODE     ---       #685
      01005CF3H   LINE      CODE     ---       #687
      01005CF9H   LINE      CODE     ---       #688
      01005D01H   LINE      CODE     ---       #690
      01005D03H   LINE      CODE     ---       #692
      01005D09H   LINE      CODE     ---       #693
      01005D09H   LINE      CODE     ---       #695
      01005D16H   LINE      CODE     ---       #696
      01005D22H   LINE      CODE     ---       #698
      ---         BLOCKEND  ---      ---       LVL=0

LX51 LINKER/LOCATER V4.66.41.0                                                        12/20/2018  14:37:19  PAGE 101


      01005998H   BLOCK     CODE     ---       LVL=0
      0000002AH   SYMBOL    DATA     BYTE      statusPad
      0000002BH   SYMBOL    DATA     BYTE      statusCfm
      010059B5H   BLOCK     CODE     NEAR LAB  LVL=1
      00000022H.6 SYMBOL    BIT      BIT       tipsBeep_IF
      ---         BLOCKEND  ---      ---       LVL=1
      01005998H   LINE      CODE     ---       #700
      0100599CH   LINE      CODE     ---       #702
      010059B5H   LINE      CODE     ---       #704
      010059B5H   LINE      CODE     ---       #706
      010059B7H   LINE      CODE     ---       #710
      010059C6H   LINE      CODE     ---       #711
      010059DEH   LINE      CODE     ---       #712
      010059E7H   LINE      CODE     ---       #713
      010059E7H   LINE      CODE     ---       #715
      010059E7H   LINE      CODE     ---       #717
      010059E9H   LINE      CODE     ---       #719
      010059E9H   LINE      CODE     ---       #722
      010059E9H   LINE      CODE     ---       #723
      010059F8H   LINE      CODE     ---       #724
      01005A10H   LINE      CODE     ---       #725
      01005A19H   LINE      CODE     ---       #726
      01005A19H   LINE      CODE     ---       #728
      01005A1FH   LINE      CODE     ---       #730
      01005A23H   LINE      CODE     ---       #732
      01005A25H   LINE      CODE     ---       #734
      01005A27H   LINE      CODE     ---       #736
      01005A29H   LINE      CODE     ---       #737
      01005A29H   LINE      CODE     ---       #739
      01005A2EH   LINE      CODE     ---       #741
      01005A31H   LINE      CODE     ---       #743
      01005A31H   LINE      CODE     ---       #745
      01005A34H   LINE      CODE     ---       #747
      01005A36H   LINE      CODE     ---       #749
      01005A39H   LINE      CODE     ---       #752
      01005A39H   LINE      CODE     ---       #753
      01005A48H   LINE      CODE     ---       #754
      01005A51H   LINE      CODE     ---       #755
      01005A51H   LINE      CODE     ---       #756
      01005A51H   LINE      CODE     ---       #758
      01005A53H   LINE      CODE     ---       #761
      01005A53H   LINE      CODE     ---       #762
      01005A62H   LINE      CODE     ---       #763
      01005A7AH   LINE      CODE     ---       #764
      01005A83H   LINE      CODE     ---       #765
      01005A83H   LINE      CODE     ---       #767
      01005A85H   LINE      CODE     ---       #769
      01005A85H   LINE      CODE     ---       #772
      01005A85H   LINE      CODE     ---       #774
      01005A85H   LINE      CODE     ---       #777
      01005A85H   LINE      CODE     ---       #779
      01005A85H   LINE      CODE     ---       #782
      01005A85H   LINE      CODE     ---       #784
      01005A85H   LINE      CODE     ---       #785
      01005A85H   LINE      CODE     ---       #786
      01005A85H   LINE      CODE     ---       #788
      01005A85H   LINE      CODE     ---       #790
      01005A85H   LINE      CODE     ---       #793
      01005A85H   LINE      CODE     ---       #794
      01005A94H   LINE      CODE     ---       #795
      01005AACH   LINE      CODE     ---       #796
      01005AB5H   LINE      CODE     ---       #797
      01005AB5H   LINE      CODE     ---       #799
      01005ABAH   LINE      CODE     ---       #801
      01005ABAH   LINE      CODE     ---       #803
LX51 LINKER/LOCATER V4.66.41.0                                                        12/20/2018  14:37:19  PAGE 102


      01005ABAH   LINE      CODE     ---       #805
      01005ABAH   LINE      CODE     ---       #807
      01005ABAH   LINE      CODE     ---       #809
      01005ABAH   LINE      CODE     ---       #810
      01005ABAH   LINE      CODE     ---       #812
      01005ABAH   LINE      CODE     ---       #814
      01005ABAH   LINE      CODE     ---       #815
      01005ABAH   LINE      CODE     ---       #817
      01005ABAH   LINE      CODE     ---       #819
      01005AC0H   LINE      CODE     ---       #821
      01005AC6H   LINE      CODE     ---       #822
      01005AC8H   LINE      CODE     ---       #824
      01005AD0H   LINE      CODE     ---       #825
      01005AD0H   LINE      CODE     ---       #826
      01005AD0H   LINE      CODE     ---       #827
      ---         BLOCKEND  ---      ---       LVL=0

      01006780H   BLOCK     CODE     ---       LVL=0
      0000002AH   SYMBOL    DATA     BYTE      statusPad
      0000002BH   SYMBOL    DATA     BYTE      loopCount
      01006780H   LINE      CODE     ---       #829
      01006784H   LINE      CODE     ---       #831
      0100678AH   LINE      CODE     ---       #832
      01006791H   LINE      CODE     ---       #835
      01006791H   LINE      CODE     ---       #836
      010067A0H   LINE      CODE     ---       #837
      010067BEH   LINE      CODE     ---       #838
      010067C7H   LINE      CODE     ---       #839
      010067C7H   LINE      CODE     ---       #842
      010067D7H   LINE      CODE     ---       #844
      010067D7H   LINE      CODE     ---       #846
      010067D9H   LINE      CODE     ---       #848
      010067D9H   LINE      CODE     ---       #851
      010067D9H   LINE      CODE     ---       #853
      010067D9H   LINE      CODE     ---       #856
      010067D9H   LINE      CODE     ---       #858
      010067D9H   LINE      CODE     ---       #861
      010067D9H   LINE      CODE     ---       #863
      010067D9H   LINE      CODE     ---       #864
      010067D9H   LINE      CODE     ---       #866
      010067D9H   LINE      CODE     ---       #868
      010067D9H   LINE      CODE     ---       #870
      010067DBH   LINE      CODE     ---       #871
      010067E5H   LINE      CODE     ---       #873
      010067E7H   LINE      CODE     ---       #875
      010067E7H   LINE      CODE     ---       #877
      010067EAH   LINE      CODE     ---       #879
      010067ECH   LINE      CODE     ---       #881
      010067EFH   LINE      CODE     ---       #884
      010067EFH   LINE      CODE     ---       #885
      010067FEH   LINE      CODE     ---       #886
      01006810H   LINE      CODE     ---       #887
      01006819H   LINE      CODE     ---       #888
      01006819H   LINE      CODE     ---       #890
      01006819H   LINE      CODE     ---       #892
      0100681BH   LINE      CODE     ---       #894
      0100681BH   LINE      CODE     ---       #897
      0100681BH   LINE      CODE     ---       #899
      0100681BH   LINE      CODE     ---       #901
      0100681EH   LINE      CODE     ---       #903
      0100681EH   LINE      CODE     ---       #905
      0100681EH   LINE      CODE     ---       #906
      0100681EH   LINE      CODE     ---       #908
      0100681EH   LINE      CODE     ---       #910
      01006824H   LINE      CODE     ---       #911
LX51 LINKER/LOCATER V4.66.41.0                                                        12/20/2018  14:37:19  PAGE 103


      01006826H   LINE      CODE     ---       #912
      0100682CH   LINE      CODE     ---       #914
      0100682EH   LINE      CODE     ---       #915
      0100682EH   LINE      CODE     ---       #916
      0100682EH   LINE      CODE     ---       #917
      ---         BLOCKEND  ---      ---       LVL=0

      0100791EH   BLOCK     CODE     ---       LVL=0
      0100791EH   LINE      CODE     ---       #926
      0100791EH   LINE      CODE     ---       #928
      01007923H   LINE      CODE     ---       #929
      ---         BLOCKEND  ---      ---       LVL=0

      01007857H   BLOCK     CODE     ---       LVL=0
      01007857H   LINE      CODE     ---       #943
      01007857H   LINE      CODE     ---       #945
      0100785CH   LINE      CODE     ---       #947
      01007862H   LINE      CODE     ---       #948
      01007869H   LINE      CODE     ---       #950
      ---         BLOCKEND  ---      ---       LVL=0

      ---         MODULE    ---      ---       RELAY
      00000026H.0 PUBLIC    BIT      BIT       statusRelay_saveEn
      02000723H   PUBLIC    XDATA    BYTE      relayStatus_ifSave
      02000720H   PUBLIC    XDATA    ---       curtainAct_Param
      0200071EH   PUBLIC    XDATA    ---       devActionPush_IF
      00000025H.7 PUBLIC    BIT      BIT       EACHCTRL_reportFLG
      0200071DH   PUBLIC    XDATA    BYTE      status_Relay
      0200071CH   PUBLIC    XDATA    BYTE      EACHCTRL_realesFLG
      0200071AH   PUBLIC    XDATA    ---       swCommand_fromUsr
      010074F9H   PUBLIC    CODE     ---       thread_Relay
      00000027H   PUBLIC    DATA     BYTE      ?relay_Act?BYTE
      01006301H   PUBLIC    CODE     ---       relay_Act
      01006CD8H   PUBLIC    CODE     ---       relay_pinInit
      0100655AH   PUBLIC    CODE     ---       relay_statusReales
      000000D8H.2 SFRSYM    DATA     BIT       CCF2
      000000E0H.7 SFRSYM    DATA     BIT       ACC7
      00000093H   SFRSYM    DATA     BYTE      P0M1
      00000092H   SFRSYM    DATA     BYTE      P1M0
      00000096H   SFRSYM    DATA     BYTE      P2M0
      00000091H   SFRSYM    DATA     BYTE      P1M1
      00000080H   SFRSYM    DATA     BYTE      P0
      000000B2H   SFRSYM    DATA     BYTE      P3M0
      00000095H   SFRSYM    DATA     BYTE      P2M1
      00000090H   SFRSYM    DATA     BYTE      P1
      000000B4H   SFRSYM    DATA     BYTE      P4M0
      000000B1H   SFRSYM    DATA     BYTE      P3M1
      000000A0H   SFRSYM    DATA     BYTE      P2
      000000CAH   SFRSYM    DATA     BYTE      P5M0
      000000B3H   SFRSYM    DATA     BYTE      P4M1
      000000B0H   SFRSYM    DATA     BYTE      P3
      000000ABH   SFRSYM    DATA     BYTE      WKTCH
      000000B0H.4 SFRSYM    DATA     BIT       T0
      000000D0H.6 SFRSYM    DATA     BIT       AC
      000000CCH   SFRSYM    DATA     BYTE      P6M0
      000000C9H   SFRSYM    DATA     BYTE      P5M1
      000000C0H   SFRSYM    DATA     BYTE      P4
      000000B0H.5 SFRSYM    DATA     BIT       CLKOUT0
      000000B0H.5 SFRSYM    DATA     BIT       T1
      000000E2H   SFRSYM    DATA     BYTE      P7M0
      000000CBH   SFRSYM    DATA     BYTE      P6M1
      000000C8H   SFRSYM    DATA     BYTE      P5
      000000C6H   SFRSYM    DATA     BYTE      ISP_TRIG
      000000A8H.7 SFRSYM    DATA     BIT       EA
      000000B0H.4 SFRSYM    DATA     BIT       CLKOUT1
LX51 LINKER/LOCATER V4.66.41.0                                                        12/20/2018  14:37:19  PAGE 104


      000000A0H.4 SFRSYM    DATA     BIT       SPI_SS_2
      000000E8H   SFRSYM    DATA     BYTE      P6
      000000E1H   SFRSYM    DATA     BYTE      P7M1
      000000C8H.4 SFRSYM    DATA     BIT       SPI_SS_3
      00000090H.4 SFRSYM    DATA     BIT       SPI_MISO
      00000090H.3 SFRSYM    DATA     BIT       SPI_MOSI
      00000090H.1 SFRSYM    DATA     BIT       CCP0
      000000F8H   SFRSYM    DATA     BYTE      P7
      000000AAH   SFRSYM    DATA     BYTE      WKTCL
      00000090H   SFRSYM    DATA     BIT       CCP1
      000000CEH   SFRSYM    DATA     BYTE      SPCTL
      000000D8H.7 SFRSYM    DATA     BIT       CF
      000000B0H.7 SFRSYM    DATA     BIT       CCP2
      000000F9H   SFRSYM    DATA     BYTE      CH
      000000A2H   SFRSYM    DATA     BYTE      P_SW1
      000000BAH   SFRSYM    DATA     BYTE      P_SW2
      000000A8H.5 SFRSYM    DATA     BIT       EADC
      000000A0H.1 SFRSYM    DATA     BIT       SPI_SCLK_2
      000000A8H   SFRSYM    DATA     BYTE      IE
      000000C0H.3 SFRSYM    DATA     BIT       SPI_SCLK_3
      000000E9H   SFRSYM    DATA     BYTE      CL
      000000C5H   SFRSYM    DATA     BYTE      IAP_CMD
      000000FAH   SFRSYM    DATA     BYTE      CCAP0H
      000000FBH   SFRSYM    DATA     BYTE      CCAP1H
      000000FCH   SFRSYM    DATA     BYTE      CCAP2H
      000000BDH   SFRSYM    DATA     BYTE      ADC_RES
      000000B6H   SFRSYM    DATA     BYTE      IPH2
      000000D8H.6 SFRSYM    DATA     BIT       CR
      000000EAH   SFRSYM    DATA     BYTE      CCAP0L
      000000B0H.7 SFRSYM    DATA     BIT       RD
      000000EBH   SFRSYM    DATA     BYTE      CCAP1L
      000000DAH   SFRSYM    DATA     BYTE      CCAPM0
      000000ECH   SFRSYM    DATA     BYTE      CCAP2L
      000000DBH   SFRSYM    DATA     BYTE      CCAPM1
      000000A8H.4 SFRSYM    DATA     BIT       ES
      000000DCH   SFRSYM    DATA     BYTE      CCAPM2
      000000B8H.5 SFRSYM    DATA     BIT       PADC
      000000A0H.2 SFRSYM    DATA     BIT       SPI_MISO_2
      000000A0H.3 SFRSYM    DATA     BIT       SPI_MOSI_2
      000000B8H   SFRSYM    DATA     BYTE      IP
      000000C0H.1 SFRSYM    DATA     BIT       SPI_MISO_3
      000000C0H   SFRSYM    DATA     BIT       SPI_MOSI_3
      00000098H   SFRSYM    DATA     BIT       RI
      000000B0H.2 SFRSYM    DATA     BIT       INT0
      000000D0H.7 SFRSYM    DATA     BIT       CY
      00000098H.1 SFRSYM    DATA     BIT       TI
      000000B0H.3 SFRSYM    DATA     BIT       INT1
      00000097H   SFRSYM    DATA     BYTE      CLK_DIV
      000000C3H   SFRSYM    DATA     BYTE      IAP_ADDRH
      00000090H   SFRSYM    DATA     BIT       RXD2
      000000C5H   SFRSYM    DATA     BYTE      ISP_CMD
      000000B8H.4 SFRSYM    DATA     BIT       PS
      00000090H.1 SFRSYM    DATA     BIT       TXD2
      00000081H   SFRSYM    DATA     BYTE      SP
      000000D9H   SFRSYM    DATA     BYTE      CMOD
      000000D8H   SFRSYM    DATA     BYTE      CCON
      000000C4H   SFRSYM    DATA     BYTE      IAP_ADDRL
      000000B8H.7 SFRSYM    DATA     BIT       PPCA
      000000D0H.2 SFRSYM    DATA     BIT       OV
      000000B0H.6 SFRSYM    DATA     BIT       WR
      000000A8H.6 SFRSYM    DATA     BIT       ELVD
      00000080H   SFRSYM    DATA     BIT       P00
      00000090H   SFRSYM    DATA     BIT       P10
      00000080H.1 SFRSYM    DATA     BIT       P01
      000000BCH   SFRSYM    DATA     BYTE      ADC_CONTR
LX51 LINKER/LOCATER V4.66.41.0                                                        12/20/2018  14:37:19  PAGE 105


      00000099H   SFRSYM    DATA     BYTE      SBUF
      00000087H   SFRSYM    DATA     BYTE      PCON
      000000A0H   SFRSYM    DATA     BIT       P20
      00000090H.1 SFRSYM    DATA     BIT       P11
      00000080H.2 SFRSYM    DATA     BIT       P02
      000000C3H   SFRSYM    DATA     BYTE      ISP_ADDRH
      000000B0H   SFRSYM    DATA     BIT       P30
      000000A0H.1 SFRSYM    DATA     BIT       P21
      00000090H.2 SFRSYM    DATA     BIT       P12
      00000080H.3 SFRSYM    DATA     BIT       P03
      000000C0H   SFRSYM    DATA     BIT       P40
      000000B0H.1 SFRSYM    DATA     BIT       P31
      000000A0H.2 SFRSYM    DATA     BIT       P22
      00000090H.3 SFRSYM    DATA     BIT       P13
      00000080H.4 SFRSYM    DATA     BIT       P04
      00000098H   SFRSYM    DATA     BYTE      SCON
      0000008FH   SFRSYM    DATA     BYTE      WAKE_CLKO
      000000C8H   SFRSYM    DATA     BIT       P50
      000000C0H.1 SFRSYM    DATA     BIT       P41
      000000B0H.2 SFRSYM    DATA     BIT       P32
      000000A0H.3 SFRSYM    DATA     BIT       P23
      00000090H.4 SFRSYM    DATA     BIT       P14
      00000080H.5 SFRSYM    DATA     BIT       P05
      00000089H   SFRSYM    DATA     BYTE      TMOD
      00000088H   SFRSYM    DATA     BYTE      TCON
      000000C8H.1 SFRSYM    DATA     BIT       P51
      000000C0H.2 SFRSYM    DATA     BIT       P42
      000000B0H.3 SFRSYM    DATA     BIT       P33
      000000A0H.4 SFRSYM    DATA     BIT       P24
      00000090H.5 SFRSYM    DATA     BIT       P15
      00000080H.6 SFRSYM    DATA     BIT       P06
      000000C4H   SFRSYM    DATA     BYTE      ISP_ADDRL
      000000B8H.6 SFRSYM    DATA     BIT       PLVD
      000000C8H.2 SFRSYM    DATA     BIT       P52
      000000C0H.3 SFRSYM    DATA     BIT       P43
      000000B0H.4 SFRSYM    DATA     BIT       P34
      000000A0H.5 SFRSYM    DATA     BIT       P25
      00000090H.6 SFRSYM    DATA     BIT       P16
      00000080H.7 SFRSYM    DATA     BIT       P07
      000000C8H.3 SFRSYM    DATA     BIT       P53
      000000C0H.4 SFRSYM    DATA     BIT       P44
      000000B0H.5 SFRSYM    DATA     BIT       P35
      000000A0H.6 SFRSYM    DATA     BIT       P26
      00000090H.7 SFRSYM    DATA     BIT       P17
      000000C8H.4 SFRSYM    DATA     BIT       P54
      000000C0H.5 SFRSYM    DATA     BIT       P45
      000000B0H.6 SFRSYM    DATA     BIT       P36
      000000A0H.7 SFRSYM    DATA     BIT       P27
      000000C8H.5 SFRSYM    DATA     BIT       P55
      000000C0H.6 SFRSYM    DATA     BIT       P46
      000000B0H.7 SFRSYM    DATA     BIT       P37
      000000C8H.6 SFRSYM    DATA     BIT       P56
      000000C0H.7 SFRSYM    DATA     BIT       P47
      000000C8H.7 SFRSYM    DATA     BIT       P57
      00000088H.1 SFRSYM    DATA     BIT       IE0
      000000A1H   SFRSYM    DATA     BYTE      BUS_SPEED
      00000088H.3 SFRSYM    DATA     BIT       IE1
      000000AFH   SFRSYM    DATA     BYTE      IE2
      000000F0H   SFRSYM    DATA     BYTE      B
      0000008EH   SFRSYM    DATA     BYTE      AUXR
      000000C7H   SFRSYM    DATA     BYTE      IAP_CONTR
      000000E0H   SFRSYM    DATA     BYTE      ACC
      000000A8H.1 SFRSYM    DATA     BIT       ET0
      000000A8H.3 SFRSYM    DATA     BIT       ET1
      00000088H.5 SFRSYM    DATA     BIT       TF0
LX51 LINKER/LOCATER V4.66.41.0                                                        12/20/2018  14:37:19  PAGE 106


      00000088H.7 SFRSYM    DATA     BIT       TF1
      000000B5H   SFRSYM    DATA     BYTE      IP2
      0000008CH   SFRSYM    DATA     BYTE      RL_TH0
      00000098H.2 SFRSYM    DATA     BIT       RB8
      0000008DH   SFRSYM    DATA     BYTE      RL_TH1
      0000008CH   SFRSYM    DATA     BYTE      TH0
      000000A8H   SFRSYM    DATA     BIT       EX0
      00000088H   SFRSYM    DATA     BIT       IT0
      000000D6H   SFRSYM    DATA     BYTE      RL_T2H
      0000008DH   SFRSYM    DATA     BYTE      TH1
      000000A8H.2 SFRSYM    DATA     BIT       EX1
      00000098H.3 SFRSYM    DATA     BIT       TB8
      00000088H.2 SFRSYM    DATA     BIT       IT1
      000000D4H   SFRSYM    DATA     BYTE      RL_T3H
      000000D6H   SFRSYM    DATA     BYTE      TH2
      000000D6H   SFRSYM    DATA     BYTE      T2H
      000000D0H   SFRSYM    DATA     BIT       P
      000000D2H   SFRSYM    DATA     BYTE      RL_T4H
      000000D4H   SFRSYM    DATA     BYTE      TH3
      000000D4H   SFRSYM    DATA     BYTE      T3H
      0000008AH   SFRSYM    DATA     BYTE      RL_TL0
      00000098H.7 SFRSYM    DATA     BIT       SM0
      000000D2H   SFRSYM    DATA     BYTE      TH4
      000000D2H   SFRSYM    DATA     BYTE      T4H
      0000008BH   SFRSYM    DATA     BYTE      RL_TL1
      0000008AH   SFRSYM    DATA     BYTE      TL0
      00000098H.6 SFRSYM    DATA     BIT       SM1
      000000D7H   SFRSYM    DATA     BYTE      RL_T2L
      0000008BH   SFRSYM    DATA     BYTE      TL1
      00000098H.5 SFRSYM    DATA     BIT       SM2
      000000D5H   SFRSYM    DATA     BYTE      RL_T3L
      000000D7H   SFRSYM    DATA     BYTE      TL2
      000000D7H   SFRSYM    DATA     BYTE      T2L
      000000D3H   SFRSYM    DATA     BYTE      RL_T4L
      000000D5H   SFRSYM    DATA     BYTE      TL3
      000000D5H   SFRSYM    DATA     BYTE      T3L
      000000B8H.1 SFRSYM    DATA     BIT       PT0
      000000D3H   SFRSYM    DATA     BYTE      TL4
      000000D3H   SFRSYM    DATA     BYTE      T4L
      000000B8H.3 SFRSYM    DATA     BIT       PT1
      000000D0H.3 SFRSYM    DATA     BIT       RS0
      000000C7H   SFRSYM    DATA     BYTE      ISP_CONTR
      00000088H.4 SFRSYM    DATA     BIT       TR0
      000000D0H.4 SFRSYM    DATA     BIT       RS1
      000000C2H   SFRSYM    DATA     BYTE      IAP_DATA
      00000088H.6 SFRSYM    DATA     BIT       TR1
      000000B8H   SFRSYM    DATA     BIT       PX0
      000000C1H   SFRSYM    DATA     BYTE      WDT_CONTR
      000000B8H.2 SFRSYM    DATA     BIT       PX1
      000000F2H   SFRSYM    DATA     BYTE      PCA_PWM0
      000000F3H   SFRSYM    DATA     BYTE      PCA_PWM1
      000000F4H   SFRSYM    DATA     BYTE      PCA_PWM2
      0000009DH   SFRSYM    DATA     BYTE      P1ASF
      00000083H   SFRSYM    DATA     BYTE      DPH
      000000D1H   SFRSYM    DATA     BYTE      T4T3M
      000000BEH   SFRSYM    DATA     BYTE      ADC_RESL
      00000082H   SFRSYM    DATA     BYTE      DPL
      000000CDH   SFRSYM    DATA     BYTE      SPSTAT
      000000B7H   SFRSYM    DATA     BYTE      IPH
      0000009BH   SFRSYM    DATA     BYTE      S2BUF
      00000097H   SFRSYM    DATA     BYTE      PCON2
      000000ADH   SFRSYM    DATA     BYTE      S3BUF
      00000098H.4 SFRSYM    DATA     BIT       REN
      00000085H   SFRSYM    DATA     BYTE      S4BUF
      0000009AH   SFRSYM    DATA     BYTE      S2CON
LX51 LINKER/LOCATER V4.66.41.0                                                        12/20/2018  14:37:19  PAGE 107


      000000ACH   SFRSYM    DATA     BYTE      S3CON
      000000C2H   SFRSYM    DATA     BYTE      ISP_DATA
      00000084H   SFRSYM    DATA     BYTE      S4CON
      000000B9H   SFRSYM    DATA     BYTE      SADEN
      000000B0H   SFRSYM    DATA     BIT       RXD
      000000A9H   SFRSYM    DATA     BYTE      SADDR
      000000B0H.1 SFRSYM    DATA     BIT       TXD
      000000F0H   SFRSYM    DATA     BIT       B0
      000000F0H.1 SFRSYM    DATA     BIT       B1
      000000C6H   SFRSYM    DATA     BYTE      IAP_TRIG
      000000A2H   SFRSYM    DATA     BYTE      AUXR1
      000000F0H.2 SFRSYM    DATA     BIT       B2
      00000090H.2 SFRSYM    DATA     BIT       SPI_SS
      0000008FH   SFRSYM    DATA     BYTE      AUXR2
      000000F0H.3 SFRSYM    DATA     BIT       B3
      000000F0H.4 SFRSYM    DATA     BIT       B4
      000000D0H.5 SFRSYM    DATA     BIT       F0
      000000F0H.5 SFRSYM    DATA     BIT       B5
      000000D0H.1 SFRSYM    DATA     BIT       F1
      0000008FH   SFRSYM    DATA     BYTE      INT_CLKO
      000000F0H.6 SFRSYM    DATA     BIT       B6
      000000E0H   SFRSYM    DATA     BIT       ACC0
      000000F0H.7 SFRSYM    DATA     BIT       B7
      000000E0H.1 SFRSYM    DATA     BIT       ACC1
      000000E0H.2 SFRSYM    DATA     BIT       ACC2
      000000E0H.3 SFRSYM    DATA     BIT       ACC3
      000000D0H   SFRSYM    DATA     BYTE      PSW
      000000E0H.4 SFRSYM    DATA     BIT       ACC4
      00000090H.5 SFRSYM    DATA     BIT       SPI_SCLK
      000000D8H   SFRSYM    DATA     BIT       CCF0
      000000E0H.5 SFRSYM    DATA     BIT       ACC5
      000000D8H.1 SFRSYM    DATA     BIT       CCF1
      000000E0H.6 SFRSYM    DATA     BIT       ACC6
      000000CFH   SFRSYM    DATA     BYTE      SPDAT
      00000094H   SFRSYM    DATA     BYTE      P0M0

      0100655AH   BLOCK     CODE     ---       LVL=0
      0100655AH   LINE      CODE     ---       #35
      0100655AH   LINE      CODE     ---       #69
      0100656DH   LINE      CODE     ---       #71
      0100656DH   LINE      CODE     ---       #73
      01006579H   LINE      CODE     ---       #75
      01006579H   LINE      CODE     ---       #77
      0100657BH   LINE      CODE     ---       #78
      0100657FH   LINE      CODE     ---       #79
      01006585H   LINE      CODE     ---       #81
      01006588H   LINE      CODE     ---       #83
      01006588H   LINE      CODE     ---       #85
      0100658AH   LINE      CODE     ---       #86
      0100658EH   LINE      CODE     ---       #87
      01006594H   LINE      CODE     ---       #89
      01006596H   LINE      CODE     ---       #91
      01006596H   LINE      CODE     ---       #92
      01006596H   LINE      CODE     ---       #94
      0100659CH   LINE      CODE     ---       #95
      010065A1H   LINE      CODE     ---       #97
      010065A3H   LINE      CODE     ---       #98
      010065A3H   LINE      CODE     ---       #100
      010065A3H   LINE      CODE     ---       #102
      010065A3H   LINE      CODE     ---       #104
      010065B5H   LINE      CODE     ---       #106
      010065B7H   LINE      CODE     ---       #108
      010065B7H   LINE      CODE     ---       #110
      010065C9H   LINE      CODE     ---       #111
      010065DBH   LINE      CODE     ---       #113
LX51 LINKER/LOCATER V4.66.41.0                                                        12/20/2018  14:37:19  PAGE 108


      010065DDH   LINE      CODE     ---       #115
      010065DDH   LINE      CODE     ---       #117
      010065EFH   LINE      CODE     ---       #118
      01006601H   LINE      CODE     ---       #119
      01006613H   LINE      CODE     ---       #121
      01006613H   LINE      CODE     ---       #123
      01006613H   LINE      CODE     ---       #124
      01006613H   LINE      CODE     ---       #127
      ---         BLOCKEND  ---      ---       LVL=0

      01006CD8H   BLOCK     CODE     ---       LVL=0
      01006CD8H   BLOCK     CODE     NEAR LAB  LVL=1
      0000007DH   SYMBOL    IDATA    BYTE      statusTemp
      01006D3DH   BLOCK     CODE     NEAR LAB  LVL=2
      02000000H   SYMBOL    XDATA    ---       log_buf
      ---         BLOCKEND  ---      ---       LVL=2
      ---         BLOCKEND  ---      ---       LVL=1
      01006CD8H   LINE      CODE     ---       #131
      01006CD8H   LINE      CODE     ---       #133
      01006CDCH   LINE      CODE     ---       #162
      01006CDFH   LINE      CODE     ---       #163
      01006CE2H   LINE      CODE     ---       #164
      01006CE8H   LINE      CODE     ---       #168
      01006CEFH   LINE      CODE     ---       #171
      01006CF7H   LINE      CODE     ---       #176
      01006CFBH   LINE      CODE     ---       #178
      01006CFDH   LINE      CODE     ---       #180
      01006D01H   LINE      CODE     ---       #181
      01006D11H   LINE      CODE     ---       #182
      01006D14H   LINE      CODE     ---       #183
      01006D14H   LINE      CODE     ---       #186
      01006D27H   LINE      CODE     ---       #187
      01006D33H   LINE      CODE     ---       #189
      01006D3DH   LINE      CODE     ---       #192
      01006D3DH   LINE      CODE     ---       #195
      01006D58H   LINE      CODE     ---       #196
      ---         BLOCKEND  ---      ---       LVL=0

      01006301H   BLOCK     CODE     ---       LVL=0
      00000027H   SYMBOL    DATA     ---       dats
      01006301H   BLOCK     CODE     NEAR LAB  LVL=1
      00000029H   SYMBOL    DATA     BYTE      statusTemp
      ---         BLOCKEND  ---      ---       LVL=1
      01006301H   LINE      CODE     ---       #223
      01006301H   LINE      CODE     ---       #225
      01006304H   LINE      CODE     ---       #233
      0100630BH   LINE      CODE     ---       #235
      01006314H   LINE      CODE     ---       #237
      01006314H   LINE      CODE     ---       #239
      01006320H   LINE      CODE     ---       #240
      0100632CH   LINE      CODE     ---       #241
      01006338H   LINE      CODE     ---       #243
      0100633AH   LINE      CODE     ---       #245
      0100633AH   LINE      CODE     ---       #247
      0100634CH   LINE      CODE     ---       #248
      0100635EH   LINE      CODE     ---       #249
      01006370H   LINE      CODE     ---       #251
      01006370H   LINE      CODE     ---       #253
      01006370H   LINE      CODE     ---       #255
      01006373H   LINE      CODE     ---       #257
      01006378H   LINE      CODE     ---       #258
      01006383H   LINE      CODE     ---       #265
      01006392H   LINE      CODE     ---       #266
      010063A7H   LINE      CODE     ---       #267
      010063BDH   LINE      CODE     ---       #269
LX51 LINKER/LOCATER V4.66.41.0                                                        12/20/2018  14:37:19  PAGE 109


      010063C6H   LINE      CODE     ---       #271
      010063CDH   LINE      CODE     ---       #274
      010063D5H   LINE      CODE     ---       #279
      010063D5H   LINE      CODE     ---       #282
      ---         BLOCKEND  ---      ---       LVL=0

      010074F9H   BLOCK     CODE     ---       LVL=0
      01007525H   BLOCK     CODE     NEAR LAB  LVL=1
      0000007DH   SYMBOL    IDATA    BYTE      statusTemp
      ---         BLOCKEND  ---      ---       LVL=1
      010074F9H   LINE      CODE     ---       #285
      010074F9H   LINE      CODE     ---       #287
      01007501H   LINE      CODE     ---       #289
      01007517H   LINE      CODE     ---       #291
      0100751DH   LINE      CODE     ---       #292
      01007522H   LINE      CODE     ---       #293
      01007522H   LINE      CODE     ---       #295
      01007525H   LINE      CODE     ---       #297
      01007529H   LINE      CODE     ---       #299
      0100752BH   LINE      CODE     ---       #311
      01007533H   LINE      CODE     ---       #316
      01007533H   LINE      CODE     ---       #317
      ---         BLOCKEND  ---      ---       LVL=0

      ---         MODULE    ---      ---       TIMERACT
      00000097H   PUBLIC    IDATA    BYTE      delayPeriod_onoff
      00000096H   PUBLIC    IDATA    BYTE      delayUp_act
      00000095H   PUBLIC    IDATA    BYTE      ifDelay_sw_running_FLAG
      00000093H   PUBLIC    IDATA    WORD      sysTimeKeep_counter
      00000091H   PUBLIC    IDATA    WORD      delayCnt_closeLoop
      00000090H   PUBLIC    IDATA    BYTE      swTim_oneShoot_FLAG
      020006D1H   PUBLIC    XDATA    BYTE      sysTimeZone_M
      020006D0H   PUBLIC    XDATA    BYTE      sysTimeZone_H
      020006CFH   PUBLIC    XDATA    BYTE      sysTimeReales_counter
      0000008EH   PUBLIC    IDATA    WORD      delayCnt_onoff
      00000025H.6 PUBLIC    BIT      BIT       ifTim_sw_running_FLAG
      020006C8H   PUBLIC    XDATA    ---       systemTime_current
      0000008DH   PUBLIC    IDATA    BYTE      delayPeriod_closeLoop
      00000025H.5 PUBLIC    BIT      BIT       ifNightMode_sw_running_FLAG
      01003A62H   PUBLIC    CODE     ---       thread_Timing
      00000028H   PUBLIC    DATA     BYTE      ?time_Logout?BYTE
      01006A05H   PUBLIC    CODE     ---       time_Logout
      010075F6H   PUBLIC    CODE     ---       _weekend_judge
      0100793AH   PUBLIC    CODE     ---       itrf_datsTimNight_read_eeprom
      0100612DH   PUBLIC    CODE     ---       _datsTimNight_read_eeprom
      01007931H   PUBLIC    CODE     ---       itrf_datsTiming_read_eeprom
      0100603EH   PUBLIC    CODE     ---       _datsTiming_read_eeprom
      01007697H   PUBLIC    CODE     ---       timeZone_Reales
      000000D8H.2 SFRSYM    DATA     BIT       CCF2
      000000E0H.7 SFRSYM    DATA     BIT       ACC7
      00000093H   SFRSYM    DATA     BYTE      P0M1
      00000092H   SFRSYM    DATA     BYTE      P1M0
      00000096H   SFRSYM    DATA     BYTE      P2M0
      00000091H   SFRSYM    DATA     BYTE      P1M1
      00000080H   SFRSYM    DATA     BYTE      P0
      000000B2H   SFRSYM    DATA     BYTE      P3M0
      00000095H   SFRSYM    DATA     BYTE      P2M1
      00000090H   SFRSYM    DATA     BYTE      P1
      000000B4H   SFRSYM    DATA     BYTE      P4M0
      000000B1H   SFRSYM    DATA     BYTE      P3M1
      000000A0H   SFRSYM    DATA     BYTE      P2
      000000CAH   SFRSYM    DATA     BYTE      P5M0
      000000B3H   SFRSYM    DATA     BYTE      P4M1
      000000B0H   SFRSYM    DATA     BYTE      P3
      000000ABH   SFRSYM    DATA     BYTE      WKTCH
LX51 LINKER/LOCATER V4.66.41.0                                                        12/20/2018  14:37:19  PAGE 110


      000000B0H.4 SFRSYM    DATA     BIT       T0
      000000D0H.6 SFRSYM    DATA     BIT       AC
      000000CCH   SFRSYM    DATA     BYTE      P6M0
      000000C9H   SFRSYM    DATA     BYTE      P5M1
      000000C0H   SFRSYM    DATA     BYTE      P4
      000000B0H.5 SFRSYM    DATA     BIT       CLKOUT0
      000000B0H.5 SFRSYM    DATA     BIT       T1
      000000E2H   SFRSYM    DATA     BYTE      P7M0
      000000CBH   SFRSYM    DATA     BYTE      P6M1
      000000C8H   SFRSYM    DATA     BYTE      P5
      000000C6H   SFRSYM    DATA     BYTE      ISP_TRIG
      000000A8H.7 SFRSYM    DATA     BIT       EA
      000000B0H.4 SFRSYM    DATA     BIT       CLKOUT1
      000000A0H.4 SFRSYM    DATA     BIT       SPI_SS_2
      000000E8H   SFRSYM    DATA     BYTE      P6
      000000E1H   SFRSYM    DATA     BYTE      P7M1
      000000C8H.4 SFRSYM    DATA     BIT       SPI_SS_3
      00000090H.4 SFRSYM    DATA     BIT       SPI_MISO
      00000090H.3 SFRSYM    DATA     BIT       SPI_MOSI
      00000090H.1 SFRSYM    DATA     BIT       CCP0
      000000F8H   SFRSYM    DATA     BYTE      P7
      000000AAH   SFRSYM    DATA     BYTE      WKTCL
      00000090H   SFRSYM    DATA     BIT       CCP1
      000000CEH   SFRSYM    DATA     BYTE      SPCTL
      000000D8H.7 SFRSYM    DATA     BIT       CF
      000000B0H.7 SFRSYM    DATA     BIT       CCP2
      000000F9H   SFRSYM    DATA     BYTE      CH
      000000A2H   SFRSYM    DATA     BYTE      P_SW1
      000000BAH   SFRSYM    DATA     BYTE      P_SW2
      000000A8H.5 SFRSYM    DATA     BIT       EADC
      000000A0H.1 SFRSYM    DATA     BIT       SPI_SCLK_2
      000000A8H   SFRSYM    DATA     BYTE      IE
      000000C0H.3 SFRSYM    DATA     BIT       SPI_SCLK_3
      000000E9H   SFRSYM    DATA     BYTE      CL
      000000C5H   SFRSYM    DATA     BYTE      IAP_CMD
      000000FAH   SFRSYM    DATA     BYTE      CCAP0H
      000000FBH   SFRSYM    DATA     BYTE      CCAP1H
      000000FCH   SFRSYM    DATA     BYTE      CCAP2H
      000000BDH   SFRSYM    DATA     BYTE      ADC_RES
      000000B6H   SFRSYM    DATA     BYTE      IPH2
      000000D8H.6 SFRSYM    DATA     BIT       CR
      000000EAH   SFRSYM    DATA     BYTE      CCAP0L
      000000B0H.7 SFRSYM    DATA     BIT       RD
      000000EBH   SFRSYM    DATA     BYTE      CCAP1L
      000000DAH   SFRSYM    DATA     BYTE      CCAPM0
      000000ECH   SFRSYM    DATA     BYTE      CCAP2L
      000000DBH   SFRSYM    DATA     BYTE      CCAPM1
      000000A8H.4 SFRSYM    DATA     BIT       ES
      000000DCH   SFRSYM    DATA     BYTE      CCAPM2
      000000B8H.5 SFRSYM    DATA     BIT       PADC
      000000A0H.2 SFRSYM    DATA     BIT       SPI_MISO_2
      000000A0H.3 SFRSYM    DATA     BIT       SPI_MOSI_2
      000000B8H   SFRSYM    DATA     BYTE      IP
      000000C0H.1 SFRSYM    DATA     BIT       SPI_MISO_3
      000000C0H   SFRSYM    DATA     BIT       SPI_MOSI_3
      00000098H   SFRSYM    DATA     BIT       RI
      000000B0H.2 SFRSYM    DATA     BIT       INT0
      000000D0H.7 SFRSYM    DATA     BIT       CY
      00000098H.1 SFRSYM    DATA     BIT       TI
      000000B0H.3 SFRSYM    DATA     BIT       INT1
      00000097H   SFRSYM    DATA     BYTE      CLK_DIV
      000000C3H   SFRSYM    DATA     BYTE      IAP_ADDRH
      00000090H   SFRSYM    DATA     BIT       RXD2
      000000C5H   SFRSYM    DATA     BYTE      ISP_CMD
      000000B8H.4 SFRSYM    DATA     BIT       PS
LX51 LINKER/LOCATER V4.66.41.0                                                        12/20/2018  14:37:19  PAGE 111


      00000090H.1 SFRSYM    DATA     BIT       TXD2
      00000081H   SFRSYM    DATA     BYTE      SP
      000000D9H   SFRSYM    DATA     BYTE      CMOD
      000000D8H   SFRSYM    DATA     BYTE      CCON
      000000C4H   SFRSYM    DATA     BYTE      IAP_ADDRL
      000000B8H.7 SFRSYM    DATA     BIT       PPCA
      000000D0H.2 SFRSYM    DATA     BIT       OV
      000000B0H.6 SFRSYM    DATA     BIT       WR
      000000A8H.6 SFRSYM    DATA     BIT       ELVD
      00000080H   SFRSYM    DATA     BIT       P00
      00000090H   SFRSYM    DATA     BIT       P10
      00000080H.1 SFRSYM    DATA     BIT       P01
      000000BCH   SFRSYM    DATA     BYTE      ADC_CONTR
      00000099H   SFRSYM    DATA     BYTE      SBUF
      00000087H   SFRSYM    DATA     BYTE      PCON
      000000A0H   SFRSYM    DATA     BIT       P20
      00000090H.1 SFRSYM    DATA     BIT       P11
      00000080H.2 SFRSYM    DATA     BIT       P02
      000000C3H   SFRSYM    DATA     BYTE      ISP_ADDRH
      000000B0H   SFRSYM    DATA     BIT       P30
      000000A0H.1 SFRSYM    DATA     BIT       P21
      00000090H.2 SFRSYM    DATA     BIT       P12
      00000080H.3 SFRSYM    DATA     BIT       P03
      000000C0H   SFRSYM    DATA     BIT       P40
      000000B0H.1 SFRSYM    DATA     BIT       P31
      000000A0H.2 SFRSYM    DATA     BIT       P22
      00000090H.3 SFRSYM    DATA     BIT       P13
      00000080H.4 SFRSYM    DATA     BIT       P04
      00000098H   SFRSYM    DATA     BYTE      SCON
      0000008FH   SFRSYM    DATA     BYTE      WAKE_CLKO
      000000C8H   SFRSYM    DATA     BIT       P50
      000000C0H.1 SFRSYM    DATA     BIT       P41
      000000B0H.2 SFRSYM    DATA     BIT       P32
      000000A0H.3 SFRSYM    DATA     BIT       P23
      00000090H.4 SFRSYM    DATA     BIT       P14
      00000080H.5 SFRSYM    DATA     BIT       P05
      00000089H   SFRSYM    DATA     BYTE      TMOD
      00000088H   SFRSYM    DATA     BYTE      TCON
      000000C8H.1 SFRSYM    DATA     BIT       P51
      000000C0H.2 SFRSYM    DATA     BIT       P42
      000000B0H.3 SFRSYM    DATA     BIT       P33
      000000A0H.4 SFRSYM    DATA     BIT       P24
      00000090H.5 SFRSYM    DATA     BIT       P15
      00000080H.6 SFRSYM    DATA     BIT       P06
      000000C4H   SFRSYM    DATA     BYTE      ISP_ADDRL
      000000B8H.6 SFRSYM    DATA     BIT       PLVD
      000000C8H.2 SFRSYM    DATA     BIT       P52
      000000C0H.3 SFRSYM    DATA     BIT       P43
      000000B0H.4 SFRSYM    DATA     BIT       P34
      000000A0H.5 SFRSYM    DATA     BIT       P25
      00000090H.6 SFRSYM    DATA     BIT       P16
      00000080H.7 SFRSYM    DATA     BIT       P07
      000000C8H.3 SFRSYM    DATA     BIT       P53
      000000C0H.4 SFRSYM    DATA     BIT       P44
      000000B0H.5 SFRSYM    DATA     BIT       P35
      000000A0H.6 SFRSYM    DATA     BIT       P26
      00000090H.7 SFRSYM    DATA     BIT       P17
      000000C8H.4 SFRSYM    DATA     BIT       P54
      000000C0H.5 SFRSYM    DATA     BIT       P45
      000000B0H.6 SFRSYM    DATA     BIT       P36
      000000A0H.7 SFRSYM    DATA     BIT       P27
      000000C8H.5 SFRSYM    DATA     BIT       P55
      000000C0H.6 SFRSYM    DATA     BIT       P46
      000000B0H.7 SFRSYM    DATA     BIT       P37
      000000C8H.6 SFRSYM    DATA     BIT       P56
LX51 LINKER/LOCATER V4.66.41.0                                                        12/20/2018  14:37:19  PAGE 112


      000000C0H.7 SFRSYM    DATA     BIT       P47
      000000C8H.7 SFRSYM    DATA     BIT       P57
      00000088H.1 SFRSYM    DATA     BIT       IE0
      000000A1H   SFRSYM    DATA     BYTE      BUS_SPEED
      00000088H.3 SFRSYM    DATA     BIT       IE1
      000000AFH   SFRSYM    DATA     BYTE      IE2
      000000F0H   SFRSYM    DATA     BYTE      B
      0000008EH   SFRSYM    DATA     BYTE      AUXR
      000000C7H   SFRSYM    DATA     BYTE      IAP_CONTR
      000000E0H   SFRSYM    DATA     BYTE      ACC
      000000A8H.1 SFRSYM    DATA     BIT       ET0
      000000A8H.3 SFRSYM    DATA     BIT       ET1
      00000088H.5 SFRSYM    DATA     BIT       TF0
      00000088H.7 SFRSYM    DATA     BIT       TF1
      000000B5H   SFRSYM    DATA     BYTE      IP2
      0000008CH   SFRSYM    DATA     BYTE      RL_TH0
      00000098H.2 SFRSYM    DATA     BIT       RB8
      0000008DH   SFRSYM    DATA     BYTE      RL_TH1
      0000008CH   SFRSYM    DATA     BYTE      TH0
      000000A8H   SFRSYM    DATA     BIT       EX0
      00000088H   SFRSYM    DATA     BIT       IT0
      000000D6H   SFRSYM    DATA     BYTE      RL_T2H
      0000008DH   SFRSYM    DATA     BYTE      TH1
      000000A8H.2 SFRSYM    DATA     BIT       EX1
      00000098H.3 SFRSYM    DATA     BIT       TB8
      00000088H.2 SFRSYM    DATA     BIT       IT1
      000000D4H   SFRSYM    DATA     BYTE      RL_T3H
      000000D6H   SFRSYM    DATA     BYTE      TH2
      000000D6H   SFRSYM    DATA     BYTE      T2H
      000000D0H   SFRSYM    DATA     BIT       P
      000000D2H   SFRSYM    DATA     BYTE      RL_T4H
      000000D4H   SFRSYM    DATA     BYTE      TH3
      000000D4H   SFRSYM    DATA     BYTE      T3H
      0000008AH   SFRSYM    DATA     BYTE      RL_TL0
      00000098H.7 SFRSYM    DATA     BIT       SM0
      000000D2H   SFRSYM    DATA     BYTE      TH4
      000000D2H   SFRSYM    DATA     BYTE      T4H
      0000008BH   SFRSYM    DATA     BYTE      RL_TL1
      0000008AH   SFRSYM    DATA     BYTE      TL0
      00000098H.6 SFRSYM    DATA     BIT       SM1
      000000D7H   SFRSYM    DATA     BYTE      RL_T2L
      0000008BH   SFRSYM    DATA     BYTE      TL1
      00000098H.5 SFRSYM    DATA     BIT       SM2
      000000D5H   SFRSYM    DATA     BYTE      RL_T3L
      000000D7H   SFRSYM    DATA     BYTE      TL2
      000000D7H   SFRSYM    DATA     BYTE      T2L
      000000D3H   SFRSYM    DATA     BYTE      RL_T4L
      000000D5H   SFRSYM    DATA     BYTE      TL3
      000000D5H   SFRSYM    DATA     BYTE      T3L
      000000B8H.1 SFRSYM    DATA     BIT       PT0
      000000D3H   SFRSYM    DATA     BYTE      TL4
      000000D3H   SFRSYM    DATA     BYTE      T4L
      000000B8H.3 SFRSYM    DATA     BIT       PT1
      000000D0H.3 SFRSYM    DATA     BIT       RS0
      000000C7H   SFRSYM    DATA     BYTE      ISP_CONTR
      00000088H.4 SFRSYM    DATA     BIT       TR0
      000000D0H.4 SFRSYM    DATA     BIT       RS1
      000000C2H   SFRSYM    DATA     BYTE      IAP_DATA
      00000088H.6 SFRSYM    DATA     BIT       TR1
      000000B8H   SFRSYM    DATA     BIT       PX0
      000000C1H   SFRSYM    DATA     BYTE      WDT_CONTR
      000000B8H.2 SFRSYM    DATA     BIT       PX1
      000000F2H   SFRSYM    DATA     BYTE      PCA_PWM0
      000000F3H   SFRSYM    DATA     BYTE      PCA_PWM1
      000000F4H   SFRSYM    DATA     BYTE      PCA_PWM2
LX51 LINKER/LOCATER V4.66.41.0                                                        12/20/2018  14:37:19  PAGE 113


      0000009DH   SFRSYM    DATA     BYTE      P1ASF
      00000083H   SFRSYM    DATA     BYTE      DPH
      000000D1H   SFRSYM    DATA     BYTE      T4T3M
      000000BEH   SFRSYM    DATA     BYTE      ADC_RESL
      00000082H   SFRSYM    DATA     BYTE      DPL
      000000CDH   SFRSYM    DATA     BYTE      SPSTAT
      000000B7H   SFRSYM    DATA     BYTE      IPH
      0000009BH   SFRSYM    DATA     BYTE      S2BUF
      00000097H   SFRSYM    DATA     BYTE      PCON2
      000000ADH   SFRSYM    DATA     BYTE      S3BUF
      00000098H.4 SFRSYM    DATA     BIT       REN
      00000085H   SFRSYM    DATA     BYTE      S4BUF
      0000009AH   SFRSYM    DATA     BYTE      S2CON
      000000ACH   SFRSYM    DATA     BYTE      S3CON
      000000C2H   SFRSYM    DATA     BYTE      ISP_DATA
      00000084H   SFRSYM    DATA     BYTE      S4CON
      000000B9H   SFRSYM    DATA     BYTE      SADEN
      000000B0H   SFRSYM    DATA     BIT       RXD
      000000A9H   SFRSYM    DATA     BYTE      SADDR
      000000B0H.1 SFRSYM    DATA     BIT       TXD
      000000F0H   SFRSYM    DATA     BIT       B0
      000000F0H.1 SFRSYM    DATA     BIT       B1
      000000C6H   SFRSYM    DATA     BYTE      IAP_TRIG
      000000A2H   SFRSYM    DATA     BYTE      AUXR1
      000000F0H.2 SFRSYM    DATA     BIT       B2
      00000090H.2 SFRSYM    DATA     BIT       SPI_SS
      0000008FH   SFRSYM    DATA     BYTE      AUXR2
      000000F0H.3 SFRSYM    DATA     BIT       B3
      000000F0H.4 SFRSYM    DATA     BIT       B4
      000000D0H.5 SFRSYM    DATA     BIT       F0
      000000F0H.5 SFRSYM    DATA     BIT       B5
      000000D0H.1 SFRSYM    DATA     BIT       F1
      0000008FH   SFRSYM    DATA     BYTE      INT_CLKO
      000000F0H.6 SFRSYM    DATA     BIT       B6
      000000E0H   SFRSYM    DATA     BIT       ACC0
      000000F0H.7 SFRSYM    DATA     BIT       B7
      000000E0H.1 SFRSYM    DATA     BIT       ACC1
      000000E0H.2 SFRSYM    DATA     BIT       ACC2
      000000E0H.3 SFRSYM    DATA     BIT       ACC3
      000000D0H   SFRSYM    DATA     BYTE      PSW
      000000E0H.4 SFRSYM    DATA     BIT       ACC4
      00000090H.5 SFRSYM    DATA     BIT       SPI_SCLK
      000000D8H   SFRSYM    DATA     BIT       CCF0
      000000E0H.5 SFRSYM    DATA     BIT       ACC5
      000000D8H.1 SFRSYM    DATA     BIT       CCF1
      000000E0H.6 SFRSYM    DATA     BIT       ACC6
      000000CFH   SFRSYM    DATA     BYTE      SPDAT
      00000094H   SFRSYM    DATA     BYTE      P0M0
      0100628FH   SYMBOL    CODE     ---       _?ix1000
      010062A7H   SYMBOL    CODE     ---       _?ix1001
      010062ADH   SYMBOL    CODE     ---       _?ix1002
      020006D2H   SYMBOL    XDATA    ---       nightDatsTemp_CalibrateTab
      020006D8H   SYMBOL    XDATA    ---       timDatsTemp_CalibrateTab

      01007697H   BLOCK     CODE     ---       LVL=0
      01007697H   LINE      CODE     ---       #36
      01007697H   LINE      CODE     ---       #38
      010076AAH   LINE      CODE     ---       #39
      ---         BLOCKEND  ---      ---       LVL=0

      0100603EH   BLOCK     CODE     ---       LVL=0
      00000033H   SYMBOL    DATA     ---       timDats_tab
      01006044H   BLOCK     CODE     NEAR LAB  LVL=1
      00000036H   SYMBOL    DATA     ---       dats_Temp
      0000004EH   SYMBOL    DATA     BYTE      loop
LX51 LINKER/LOCATER V4.66.41.0                                                        12/20/2018  14:37:19  PAGE 114


      ---         BLOCKEND  ---      ---       LVL=1
      0100603EH   LINE      CODE     ---       #42
      01006044H   LINE      CODE     ---       #44
      01006057H   LINE      CODE     ---       #45
      0100605AH   LINE      CODE     ---       #47
      0100606AH   LINE      CODE     ---       #49
      0100606DH   LINE      CODE     ---       #51
      01006094H   LINE      CODE     ---       #52
      010060B4H   LINE      CODE     ---       #53
      010060E6H   LINE      CODE     ---       #54
      010060FFH   LINE      CODE     ---       #55
      01006121H   LINE      CODE     ---       #56
      0100612CH   LINE      CODE     ---       #57
      ---         BLOCKEND  ---      ---       LVL=0

      01007931H   BLOCK     CODE     ---       LVL=0
      01007931H   LINE      CODE     ---       #59
      01007931H   LINE      CODE     ---       #61
      ---         BLOCKEND  ---      ---       LVL=0

      0100612DH   BLOCK     CODE     ---       LVL=0
      00000033H   SYMBOL    DATA     ---       timDats_tab
      01006133H   BLOCK     CODE     NEAR LAB  LVL=1
      00000036H   SYMBOL    DATA     ---       dats_Temp
      0000003CH   SYMBOL    DATA     BYTE      loop
      ---         BLOCKEND  ---      ---       LVL=1
      0100612DH   LINE      CODE     ---       #64
      01006133H   LINE      CODE     ---       #66
      01006146H   LINE      CODE     ---       #67
      01006149H   LINE      CODE     ---       #69
      01006159H   LINE      CODE     ---       #71
      0100615CH   LINE      CODE     ---       #73
      01006183H   LINE      CODE     ---       #74
      010061A3H   LINE      CODE     ---       #75
      010061D5H   LINE      CODE     ---       #76
      010061EEH   LINE      CODE     ---       #77
      01006210H   LINE      CODE     ---       #78
      0100621BH   LINE      CODE     ---       #79
      ---         BLOCKEND  ---      ---       LVL=0

      0100793AH   BLOCK     CODE     ---       LVL=0
      0100793AH   LINE      CODE     ---       #81
      0100793AH   LINE      CODE     ---       #83
      ---         BLOCKEND  ---      ---       LVL=0

      010075F6H   BLOCK     CODE     ---       LVL=0
      00000004H   SYMBOL    DATA     BYTE      weekNum
      00000001H   SYMBOL    DATA     BYTE      HoldNum
      010075FAH   BLOCK     CODE     NEAR LAB  LVL=1
      00000005H   SYMBOL    DATA     BYTE      loop
      ---         BLOCKEND  ---      ---       LVL=1
      010075F6H   LINE      CODE     ---       #87
      010075FAH   LINE      CODE     ---       #91
      010075FBH   LINE      CODE     ---       #92
      010075FDH   LINE      CODE     ---       #94
      01007614H   LINE      CODE     ---       #96
      0100761AH   LINE      CODE     ---       #97
      0100761AH   LINE      CODE     ---       #98
      0100761EH   LINE      CODE     ---       #100
      0100761FH   LINE      CODE     ---       #101
      ---         BLOCKEND  ---      ---       LVL=0

      01006A05H   BLOCK     CODE     ---       LVL=0
      00000028H   SYMBOL    DATA     ---       timeDats
      01006A05H   BLOCK     CODE     NEAR LAB  LVL=1
LX51 LINKER/LOCATER V4.66.41.0                                                        12/20/2018  14:37:19  PAGE 115


      02000006H   SYMBOL    XDATA    ---       Log
      ---         BLOCKEND  ---      ---       LVL=1
      01006A05H   LINE      CODE     ---       #104
      01006A05H   LINE      CODE     ---       #106
      01006A18H   LINE      CODE     ---       #128
      01006A42H   LINE      CODE     ---       #131
      01006A4BH   LINE      CODE     ---       #137
      01006A6FH   LINE      CODE     ---       #140
      01006A78H   LINE      CODE     ---       #144
      01006A93H   LINE      CODE     ---       #146
      ---         BLOCKEND  ---      ---       LVL=0

      01003A62H   BLOCK     CODE     ---       LVL=0
      01003A62H   BLOCK     CODE     NEAR LAB  LVL=1
      00000027H   SYMBOL    DATA     BYTE      loop
      0000008BH   SYMBOL    IDATA    INT       timeUp_actionDone_flg
      01003A65H   BLOCK     CODE     NEAR LAB  LVL=2
      010062FDH   SYMBOL    CODE     WORD      log_period
      020006C6H   SYMBOL    XDATA    WORD      log_Count
      00000025H.3 SYMBOL    BIT      BIT       read_FLG
      00000025H.4 SYMBOL    BIT      BIT       timeTab_reserveFLG
      02000000H   SYMBOL    XDATA    WORD      minutesTemp_CalibrateTab_A
      02000002H   SYMBOL    XDATA    WORD      minutesTemp_CalibrateTab_B
      02000004H   SYMBOL    XDATA    WORD      minutesTemp_CalibrateTab_cur
      ---         BLOCKEND  ---      ---       LVL=2
      01003AA4H   BLOCK     CODE     NEAR LAB  LVL=2
      00000025H.3 SYMBOL    BIT      BIT       read_FLG
      00000025H.4 SYMBOL    BIT      BIT       timeTab_reserveFLG
      02000000H   SYMBOL    XDATA    WORD      minutesTemp_CalibrateTab_A
      02000002H   SYMBOL    XDATA    WORD      minutesTemp_CalibrateTab_B
      02000004H   SYMBOL    XDATA    WORD      minutesTemp_CalibrateTab_cur
      ---         BLOCKEND  ---      ---       LVL=2
      01003B4DH   BLOCK     CODE     NEAR LAB  LVL=2
      00000025H.4 SYMBOL    BIT      BIT       timeTab_reserveFLG
      02000000H   SYMBOL    XDATA    WORD      minutesTemp_CalibrateTab_A
      02000002H   SYMBOL    XDATA    WORD      minutesTemp_CalibrateTab_B
      02000004H   SYMBOL    XDATA    WORD      minutesTemp_CalibrateTab_cur
      ---         BLOCKEND  ---      ---       LVL=2
      01003DC2H   BLOCK     CODE     NEAR LAB  LVL=2
      010062FFH   SYMBOL    CODE     BYTE      dats_Temp
      01006300H   SYMBOL    CODE     BYTE      dats_Temp
      ---         BLOCKEND  ---      ---       LVL=2
      01003E86H   BLOCK     CODE     NEAR LAB  LVL=2
      01006300H   SYMBOL    CODE     BYTE      dats_Temp
      ---         BLOCKEND  ---      ---       LVL=2
      ---         BLOCKEND  ---      ---       LVL=1
      01003A62H   LINE      CODE     ---       #150
      01003A62H   LINE      CODE     ---       #152
      01003A65H   LINE      CODE     ---       #162
      01003A89H   LINE      CODE     ---       #163
      01003A89H   LINE      CODE     ---       #165
      01003A90H   LINE      CODE     ---       #167
      01003AA4H   LINE      CODE     ---       #168
      01003AA4H   LINE      CODE     ---       #169
      01003AA4H   LINE      CODE     ---       #173
      01003AA4H   LINE      CODE     ---       #177
      01003AA7H   LINE      CODE     ---       #179
      01003AA9H   LINE      CODE     ---       #181
      01003ABCH   LINE      CODE     ---       #182
      01003ACFH   LINE      CODE     ---       #184
      01003AD8H   LINE      CODE     ---       #185
      01003AE1H   LINE      CODE     ---       #186
      01003AE1H   LINE      CODE     ---       #187
      01003AE1H   LINE      CODE     ---       #190
      01003AE1H   LINE      CODE     ---       #192
LX51 LINKER/LOCATER V4.66.41.0                                                        12/20/2018  14:37:19  PAGE 116


      01003AF7H   LINE      CODE     ---       #193
      01003B05H   LINE      CODE     ---       #195
      01003B11H   LINE      CODE     ---       #197
      01003B11H   LINE      CODE     ---       #199
      01003B17H   LINE      CODE     ---       #200
      01003B2AH   LINE      CODE     ---       #201
      01003B3EH   LINE      CODE     ---       #202
      01003B3EH   LINE      CODE     ---       #208
      01003B3EH   LINE      CODE     ---       #211
      01003B48H   LINE      CODE     ---       #213
      01003B4AH   LINE      CODE     ---       #215
      01003B4DH   LINE      CODE     ---       #217
      01003B4FH   LINE      CODE     ---       #218
      01003B6FH   LINE      CODE     ---       #219
      01003B8DH   LINE      CODE     ---       #220
      01003BA4H   LINE      CODE     ---       #222
      01003BB7H   LINE      CODE     ---       #224
      01003BBEH   LINE      CODE     ---       #226
      01003BC1H   LINE      CODE     ---       #228
      01003BEBH   LINE      CODE     ---       #232
      01003BEDH   LINE      CODE     ---       #234
      01003C18H   LINE      CODE     ---       #237
      01003C18H   LINE      CODE     ---       #239
      01003C1AH   LINE      CODE     ---       #241
      01003C1CH   LINE      CODE     ---       #242
      01003C1CH   LINE      CODE     ---       #243
      01003C1CH   LINE      CODE     ---       #245
      01003C1FH   LINE      CODE     ---       #247
      01003C38H   LINE      CODE     ---       #249
      01003C3AH   LINE      CODE     ---       #250
      01003C3CH   LINE      CODE     ---       #252
      01003C3CH   LINE      CODE     ---       #254
      01003C3EH   LINE      CODE     ---       #255
      01003C3EH   LINE      CODE     ---       #256
      01003C45H   LINE      CODE     ---       #259
      01003C4BH   LINE      CODE     ---       #261
      01003C4EH   LINE      CODE     ---       #263
      01003C6EH   LINE      CODE     ---       #265
      01003C8AH   LINE      CODE     ---       #288
      01003CF8H   LINE      CODE     ---       #290
      01003CF8H   LINE      CODE     ---       #292
      01003D04H   LINE      CODE     ---       #293
      01003D04H   LINE      CODE     ---       #295
      01003D71H   LINE      CODE     ---       #297
      01003D71H   LINE      CODE     ---       #299
      01003D71H   LINE      CODE     ---       #300
      01003D7EH   LINE      CODE     ---       #301
      01003D96H   LINE      CODE     ---       #302
      01003D9FH   LINE      CODE     ---       #303
      01003D9FH   LINE      CODE     ---       #305
      01003DB9H   LINE      CODE     ---       #308
      01003DC2H   LINE      CODE     ---       #312
      01003DD4H   LINE      CODE     ---       #313
      01003DF0H   LINE      CODE     ---       #314
      01003DF3H   LINE      CODE     ---       #315
      01003DF3H   LINE      CODE     ---       #318
      01003DF9H   LINE      CODE     ---       #319
      01003E0FH   LINE      CODE     ---       #325
      01003E16H   LINE      CODE     ---       #326
      01003E1DH   LINE      CODE     ---       #328
      01003E20H   LINE      CODE     ---       #330
      01003E6CH   LINE      CODE     ---       #333
      01003E86H   LINE      CODE     ---       #337
      01003E98H   LINE      CODE     ---       #338
      01003EB4H   LINE      CODE     ---       #339
LX51 LINKER/LOCATER V4.66.41.0                                                        12/20/2018  14:37:19  PAGE 117


      01003EB4H   LINE      CODE     ---       #340
      01003EB4H   LINE      CODE     ---       #341
      01003EB4H   LINE      CODE     ---       #342
      01003EB4H   LINE      CODE     ---       #343
      01003EC0H   LINE      CODE     ---       #344
      01003EC0H   LINE      CODE     ---       #345
      ---         BLOCKEND  ---      ---       LVL=0

      ---         MODULE    ---      ---       TOUCHPAD
      02000730H   PUBLIC    XDATA    BYTE      touchPad_resetTimeCount
      01007943H   PUBLIC    CODE     ---       _touchPad_resetOpreat
      01007907H   PUBLIC    CODE     ---       touchPad_processThread
      000000D8H.2 SFRSYM    DATA     BIT       CCF2
      000000E0H.7 SFRSYM    DATA     BIT       ACC7
      00000093H   SFRSYM    DATA     BYTE      P0M1
      00000092H   SFRSYM    DATA     BYTE      P1M0
      00000096H   SFRSYM    DATA     BYTE      P2M0
      00000091H   SFRSYM    DATA     BYTE      P1M1
      00000080H   SFRSYM    DATA     BYTE      P0
      000000B2H   SFRSYM    DATA     BYTE      P3M0
      00000095H   SFRSYM    DATA     BYTE      P2M1
      00000090H   SFRSYM    DATA     BYTE      P1
      000000B4H   SFRSYM    DATA     BYTE      P4M0
      000000B1H   SFRSYM    DATA     BYTE      P3M1
      000000A0H   SFRSYM    DATA     BYTE      P2
      000000CAH   SFRSYM    DATA     BYTE      P5M0
      000000B3H   SFRSYM    DATA     BYTE      P4M1
      000000B0H   SFRSYM    DATA     BYTE      P3
      000000ABH   SFRSYM    DATA     BYTE      WKTCH
      000000B0H.4 SFRSYM    DATA     BIT       T0
      000000D0H.6 SFRSYM    DATA     BIT       AC
      000000CCH   SFRSYM    DATA     BYTE      P6M0
      000000C9H   SFRSYM    DATA     BYTE      P5M1
      000000C0H   SFRSYM    DATA     BYTE      P4
      000000B0H.5 SFRSYM    DATA     BIT       CLKOUT0
      000000B0H.5 SFRSYM    DATA     BIT       T1
      000000E2H   SFRSYM    DATA     BYTE      P7M0
      000000CBH   SFRSYM    DATA     BYTE      P6M1
      000000C8H   SFRSYM    DATA     BYTE      P5
      000000C6H   SFRSYM    DATA     BYTE      ISP_TRIG
      000000A8H.7 SFRSYM    DATA     BIT       EA
      000000B0H.4 SFRSYM    DATA     BIT       CLKOUT1
      000000A0H.4 SFRSYM    DATA     BIT       SPI_SS_2
      000000E8H   SFRSYM    DATA     BYTE      P6
      000000E1H   SFRSYM    DATA     BYTE      P7M1
      000000C8H.4 SFRSYM    DATA     BIT       SPI_SS_3
      00000090H.4 SFRSYM    DATA     BIT       SPI_MISO
      00000090H.3 SFRSYM    DATA     BIT       SPI_MOSI
      00000090H.1 SFRSYM    DATA     BIT       CCP0
      000000F8H   SFRSYM    DATA     BYTE      P7
      000000AAH   SFRSYM    DATA     BYTE      WKTCL
      00000090H   SFRSYM    DATA     BIT       CCP1
      000000CEH   SFRSYM    DATA     BYTE      SPCTL
      000000D8H.7 SFRSYM    DATA     BIT       CF
      000000B0H.7 SFRSYM    DATA     BIT       CCP2
      000000F9H   SFRSYM    DATA     BYTE      CH
      000000A2H   SFRSYM    DATA     BYTE      P_SW1
      000000BAH   SFRSYM    DATA     BYTE      P_SW2
      000000A8H.5 SFRSYM    DATA     BIT       EADC
      000000A0H.1 SFRSYM    DATA     BIT       SPI_SCLK_2
      000000A8H   SFRSYM    DATA     BYTE      IE
      000000C0H.3 SFRSYM    DATA     BIT       SPI_SCLK_3
      000000E9H   SFRSYM    DATA     BYTE      CL
      000000C5H   SFRSYM    DATA     BYTE      IAP_CMD
      000000FAH   SFRSYM    DATA     BYTE      CCAP0H
LX51 LINKER/LOCATER V4.66.41.0                                                        12/20/2018  14:37:19  PAGE 118


      000000FBH   SFRSYM    DATA     BYTE      CCAP1H
      000000FCH   SFRSYM    DATA     BYTE      CCAP2H
      000000BDH   SFRSYM    DATA     BYTE      ADC_RES
      000000B6H   SFRSYM    DATA     BYTE      IPH2
      000000D8H.6 SFRSYM    DATA     BIT       CR
      000000EAH   SFRSYM    DATA     BYTE      CCAP0L
      000000B0H.7 SFRSYM    DATA     BIT       RD
      000000EBH   SFRSYM    DATA     BYTE      CCAP1L
      000000DAH   SFRSYM    DATA     BYTE      CCAPM0
      000000ECH   SFRSYM    DATA     BYTE      CCAP2L
      000000DBH   SFRSYM    DATA     BYTE      CCAPM1
      000000A8H.4 SFRSYM    DATA     BIT       ES
      000000DCH   SFRSYM    DATA     BYTE      CCAPM2
      000000B8H.5 SFRSYM    DATA     BIT       PADC
      000000A0H.2 SFRSYM    DATA     BIT       SPI_MISO_2
      000000A0H.3 SFRSYM    DATA     BIT       SPI_MOSI_2
      000000B8H   SFRSYM    DATA     BYTE      IP
      000000C0H.1 SFRSYM    DATA     BIT       SPI_MISO_3
      000000C0H   SFRSYM    DATA     BIT       SPI_MOSI_3
      00000098H   SFRSYM    DATA     BIT       RI
      000000B0H.2 SFRSYM    DATA     BIT       INT0
      000000D0H.7 SFRSYM    DATA     BIT       CY
      00000098H.1 SFRSYM    DATA     BIT       TI
      000000B0H.3 SFRSYM    DATA     BIT       INT1
      00000097H   SFRSYM    DATA     BYTE      CLK_DIV
      000000C3H   SFRSYM    DATA     BYTE      IAP_ADDRH
      00000090H   SFRSYM    DATA     BIT       RXD2
      000000C5H   SFRSYM    DATA     BYTE      ISP_CMD
      000000B8H.4 SFRSYM    DATA     BIT       PS
      00000090H.1 SFRSYM    DATA     BIT       TXD2
      00000081H   SFRSYM    DATA     BYTE      SP
      000000D9H   SFRSYM    DATA     BYTE      CMOD
      000000D8H   SFRSYM    DATA     BYTE      CCON
      000000C4H   SFRSYM    DATA     BYTE      IAP_ADDRL
      000000B8H.7 SFRSYM    DATA     BIT       PPCA
      000000D0H.2 SFRSYM    DATA     BIT       OV
      000000B0H.6 SFRSYM    DATA     BIT       WR
      000000A8H.6 SFRSYM    DATA     BIT       ELVD
      00000080H   SFRSYM    DATA     BIT       P00
      00000090H   SFRSYM    DATA     BIT       P10
      00000080H.1 SFRSYM    DATA     BIT       P01
      000000BCH   SFRSYM    DATA     BYTE      ADC_CONTR
      00000099H   SFRSYM    DATA     BYTE      SBUF
      00000087H   SFRSYM    DATA     BYTE      PCON
      000000A0H   SFRSYM    DATA     BIT       P20
      00000090H.1 SFRSYM    DATA     BIT       P11
      00000080H.2 SFRSYM    DATA     BIT       P02
      000000C3H   SFRSYM    DATA     BYTE      ISP_ADDRH
      000000B0H   SFRSYM    DATA     BIT       P30
      000000A0H.1 SFRSYM    DATA     BIT       P21
      00000090H.2 SFRSYM    DATA     BIT       P12
      00000080H.3 SFRSYM    DATA     BIT       P03
      000000C0H   SFRSYM    DATA     BIT       P40
      000000B0H.1 SFRSYM    DATA     BIT       P31
      000000A0H.2 SFRSYM    DATA     BIT       P22
      00000090H.3 SFRSYM    DATA     BIT       P13
      00000080H.4 SFRSYM    DATA     BIT       P04
      00000098H   SFRSYM    DATA     BYTE      SCON
      0000008FH   SFRSYM    DATA     BYTE      WAKE_CLKO
      000000C8H   SFRSYM    DATA     BIT       P50
      000000C0H.1 SFRSYM    DATA     BIT       P41
      000000B0H.2 SFRSYM    DATA     BIT       P32
      000000A0H.3 SFRSYM    DATA     BIT       P23
      00000090H.4 SFRSYM    DATA     BIT       P14
      00000080H.5 SFRSYM    DATA     BIT       P05
LX51 LINKER/LOCATER V4.66.41.0                                                        12/20/2018  14:37:19  PAGE 119


      00000089H   SFRSYM    DATA     BYTE      TMOD
      00000088H   SFRSYM    DATA     BYTE      TCON
      000000C8H.1 SFRSYM    DATA     BIT       P51
      000000C0H.2 SFRSYM    DATA     BIT       P42
      000000B0H.3 SFRSYM    DATA     BIT       P33
      000000A0H.4 SFRSYM    DATA     BIT       P24
      00000090H.5 SFRSYM    DATA     BIT       P15
      00000080H.6 SFRSYM    DATA     BIT       P06
      000000C4H   SFRSYM    DATA     BYTE      ISP_ADDRL
      000000B8H.6 SFRSYM    DATA     BIT       PLVD
      000000C8H.2 SFRSYM    DATA     BIT       P52
      000000C0H.3 SFRSYM    DATA     BIT       P43
      000000B0H.4 SFRSYM    DATA     BIT       P34
      000000A0H.5 SFRSYM    DATA     BIT       P25
      00000090H.6 SFRSYM    DATA     BIT       P16
      00000080H.7 SFRSYM    DATA     BIT       P07
      000000C8H.3 SFRSYM    DATA     BIT       P53
      000000C0H.4 SFRSYM    DATA     BIT       P44
      000000B0H.5 SFRSYM    DATA     BIT       P35
      000000A0H.6 SFRSYM    DATA     BIT       P26
      00000090H.7 SFRSYM    DATA     BIT       P17
      000000C8H.4 SFRSYM    DATA     BIT       P54
      000000C0H.5 SFRSYM    DATA     BIT       P45
      000000B0H.6 SFRSYM    DATA     BIT       P36
      000000A0H.7 SFRSYM    DATA     BIT       P27
      000000C8H.5 SFRSYM    DATA     BIT       P55
      000000C0H.6 SFRSYM    DATA     BIT       P46
      000000B0H.7 SFRSYM    DATA     BIT       P37
      000000C8H.6 SFRSYM    DATA     BIT       P56
      000000C0H.7 SFRSYM    DATA     BIT       P47
      000000C8H.7 SFRSYM    DATA     BIT       P57
      00000088H.1 SFRSYM    DATA     BIT       IE0
      000000A1H   SFRSYM    DATA     BYTE      BUS_SPEED
      00000088H.3 SFRSYM    DATA     BIT       IE1
      000000AFH   SFRSYM    DATA     BYTE      IE2
      000000F0H   SFRSYM    DATA     BYTE      B
      0000008EH   SFRSYM    DATA     BYTE      AUXR
      000000C7H   SFRSYM    DATA     BYTE      IAP_CONTR
      000000E0H   SFRSYM    DATA     BYTE      ACC
      000000A8H.1 SFRSYM    DATA     BIT       ET0
      000000A8H.3 SFRSYM    DATA     BIT       ET1
      00000088H.5 SFRSYM    DATA     BIT       TF0
      00000088H.7 SFRSYM    DATA     BIT       TF1
      000000B5H   SFRSYM    DATA     BYTE      IP2
      0000008CH   SFRSYM    DATA     BYTE      RL_TH0
      00000098H.2 SFRSYM    DATA     BIT       RB8
      0000008DH   SFRSYM    DATA     BYTE      RL_TH1
      0000008CH   SFRSYM    DATA     BYTE      TH0
      000000A8H   SFRSYM    DATA     BIT       EX0
      00000088H   SFRSYM    DATA     BIT       IT0
      000000D6H   SFRSYM    DATA     BYTE      RL_T2H
      0000008DH   SFRSYM    DATA     BYTE      TH1
      000000A8H.2 SFRSYM    DATA     BIT       EX1
      00000098H.3 SFRSYM    DATA     BIT       TB8
      00000088H.2 SFRSYM    DATA     BIT       IT1
      000000D4H   SFRSYM    DATA     BYTE      RL_T3H
      000000D6H   SFRSYM    DATA     BYTE      TH2
      000000D6H   SFRSYM    DATA     BYTE      T2H
      000000D0H   SFRSYM    DATA     BIT       P
      000000D2H   SFRSYM    DATA     BYTE      RL_T4H
      000000D4H   SFRSYM    DATA     BYTE      TH3
      000000D4H   SFRSYM    DATA     BYTE      T3H
      0000008AH   SFRSYM    DATA     BYTE      RL_TL0
      00000098H.7 SFRSYM    DATA     BIT       SM0
      000000D2H   SFRSYM    DATA     BYTE      TH4
LX51 LINKER/LOCATER V4.66.41.0                                                        12/20/2018  14:37:19  PAGE 120


      000000D2H   SFRSYM    DATA     BYTE      T4H
      0000008BH   SFRSYM    DATA     BYTE      RL_TL1
      0000008AH   SFRSYM    DATA     BYTE      TL0
      00000098H.6 SFRSYM    DATA     BIT       SM1
      000000D7H   SFRSYM    DATA     BYTE      RL_T2L
      0000008BH   SFRSYM    DATA     BYTE      TL1
      00000098H.5 SFRSYM    DATA     BIT       SM2
      000000D5H   SFRSYM    DATA     BYTE      RL_T3L
      000000D7H   SFRSYM    DATA     BYTE      TL2
      000000D7H   SFRSYM    DATA     BYTE      T2L
      000000D3H   SFRSYM    DATA     BYTE      RL_T4L
      000000D5H   SFRSYM    DATA     BYTE      TL3
      000000D5H   SFRSYM    DATA     BYTE      T3L
      000000B8H.1 SFRSYM    DATA     BIT       PT0
      000000D3H   SFRSYM    DATA     BYTE      TL4
      000000D3H   SFRSYM    DATA     BYTE      T4L
      000000B8H.3 SFRSYM    DATA     BIT       PT1
      000000D0H.3 SFRSYM    DATA     BIT       RS0
      000000C7H   SFRSYM    DATA     BYTE      ISP_CONTR
      00000088H.4 SFRSYM    DATA     BIT       TR0
      000000D0H.4 SFRSYM    DATA     BIT       RS1
      000000C2H   SFRSYM    DATA     BYTE      IAP_DATA
      00000088H.6 SFRSYM    DATA     BIT       TR1
      000000B8H   SFRSYM    DATA     BIT       PX0
      000000C1H   SFRSYM    DATA     BYTE      WDT_CONTR
      000000B8H.2 SFRSYM    DATA     BIT       PX1
      000000F2H   SFRSYM    DATA     BYTE      PCA_PWM0
      000000F3H   SFRSYM    DATA     BYTE      PCA_PWM1
      000000F4H   SFRSYM    DATA     BYTE      PCA_PWM2
      0000009DH   SFRSYM    DATA     BYTE      P1ASF
      00000083H   SFRSYM    DATA     BYTE      DPH
      000000D1H   SFRSYM    DATA     BYTE      T4T3M
      000000BEH   SFRSYM    DATA     BYTE      ADC_RESL
      00000082H   SFRSYM    DATA     BYTE      DPL
      000000CDH   SFRSYM    DATA     BYTE      SPSTAT
      000000B7H   SFRSYM    DATA     BYTE      IPH
      0000009BH   SFRSYM    DATA     BYTE      S2BUF
      00000097H   SFRSYM    DATA     BYTE      PCON2
      000000ADH   SFRSYM    DATA     BYTE      S3BUF
      00000098H.4 SFRSYM    DATA     BIT       REN
      00000085H   SFRSYM    DATA     BYTE      S4BUF
      0000009AH   SFRSYM    DATA     BYTE      S2CON
      000000ACH   SFRSYM    DATA     BYTE      S3CON
      000000C2H   SFRSYM    DATA     BYTE      ISP_DATA
      00000084H   SFRSYM    DATA     BYTE      S4CON
      000000B9H   SFRSYM    DATA     BYTE      SADEN
      000000B0H   SFRSYM    DATA     BIT       RXD
      000000A9H   SFRSYM    DATA     BYTE      SADDR
      000000B0H.1 SFRSYM    DATA     BIT       TXD
      000000F0H   SFRSYM    DATA     BIT       B0
      000000F0H.1 SFRSYM    DATA     BIT       B1
      000000C6H   SFRSYM    DATA     BYTE      IAP_TRIG
      000000A2H   SFRSYM    DATA     BYTE      AUXR1
      000000F0H.2 SFRSYM    DATA     BIT       B2
      00000090H.2 SFRSYM    DATA     BIT       SPI_SS
      0000008FH   SFRSYM    DATA     BYTE      AUXR2
      000000F0H.3 SFRSYM    DATA     BIT       B3
      000000F0H.4 SFRSYM    DATA     BIT       B4
      000000D0H.5 SFRSYM    DATA     BIT       F0
      000000F0H.5 SFRSYM    DATA     BIT       B5
      000000D0H.1 SFRSYM    DATA     BIT       F1
      0000008FH   SFRSYM    DATA     BYTE      INT_CLKO
      000000F0H.6 SFRSYM    DATA     BIT       B6
      000000E0H   SFRSYM    DATA     BIT       ACC0
      000000F0H.7 SFRSYM    DATA     BIT       B7
LX51 LINKER/LOCATER V4.66.41.0                                                        12/20/2018  14:37:19  PAGE 121


      000000E0H.1 SFRSYM    DATA     BIT       ACC1
      000000E0H.2 SFRSYM    DATA     BIT       ACC2
      000000E0H.3 SFRSYM    DATA     BIT       ACC3
      000000D0H   SFRSYM    DATA     BYTE      PSW
      000000E0H.4 SFRSYM    DATA     BIT       ACC4
      00000090H.5 SFRSYM    DATA     BIT       SPI_SCLK
      000000D8H   SFRSYM    DATA     BIT       CCF0
      000000E0H.5 SFRSYM    DATA     BIT       ACC5
      000000D8H.1 SFRSYM    DATA     BIT       CCF1
      000000E0H.6 SFRSYM    DATA     BIT       ACC6
      000000CFH   SFRSYM    DATA     BYTE      SPDAT
      00000094H   SFRSYM    DATA     BYTE      P0M0

      01007907H   BLOCK     CODE     ---       LVL=0
      01007907H   LINE      CODE     ---       #10
      01007907H   LINE      CODE     ---       #12
      01007912H   LINE      CODE     ---       #13
      ---         BLOCKEND  ---      ---       LVL=0

      01007943H   BLOCK     CODE     ---       LVL=0
      00000007H   SYMBOL    DATA     BYTE      holdTime
      01007943H   LINE      CODE     ---       #15
      01007943H   LINE      CODE     ---       #17
      01007948H   LINE      CODE     ---       #18
      ---         BLOCKEND  ---      ---       LVL=0

      ---         MODULE    ---      ---       USART
      020005E0H   PUBLIC    XDATA    ---       TX1_Buffer
      02000547H   PUBLIC    XDATA    ---       RX1_Buffer
      00000070H   PUBLIC    DATA     ---       COM1
      010076BDH   PUBLIC    CODE     ---       _uart1_datsSend
      0100756CH   PUBLIC    CODE     ---       _PrintString1_logOut
      010078BAH   PUBLIC    CODE     ---       _PrintString1
      010076E3H   PUBLIC    CODE     ---       _TX1_write2buff
      000000D8H.2 SFRSYM    DATA     BIT       CCF2
      000000E0H.7 SFRSYM    DATA     BIT       ACC7
      00000093H   SFRSYM    DATA     BYTE      P0M1
      00000092H   SFRSYM    DATA     BYTE      P1M0
      00000096H   SFRSYM    DATA     BYTE      P2M0
      00000091H   SFRSYM    DATA     BYTE      P1M1
      00000080H   SFRSYM    DATA     BYTE      P0
      000000B2H   SFRSYM    DATA     BYTE      P3M0
      00000095H   SFRSYM    DATA     BYTE      P2M1
      00000090H   SFRSYM    DATA     BYTE      P1
      000000B4H   SFRSYM    DATA     BYTE      P4M0
      000000B1H   SFRSYM    DATA     BYTE      P3M1
      000000A0H   SFRSYM    DATA     BYTE      P2
      000000CAH   SFRSYM    DATA     BYTE      P5M0
      000000B3H   SFRSYM    DATA     BYTE      P4M1
      000000B0H   SFRSYM    DATA     BYTE      P3
      000000ABH   SFRSYM    DATA     BYTE      WKTCH
      000000B0H.4 SFRSYM    DATA     BIT       T0
      000000D0H.6 SFRSYM    DATA     BIT       AC
      000000CCH   SFRSYM    DATA     BYTE      P6M0
      000000C9H   SFRSYM    DATA     BYTE      P5M1
      000000C0H   SFRSYM    DATA     BYTE      P4
      000000B0H.5 SFRSYM    DATA     BIT       CLKOUT0
      000000B0H.5 SFRSYM    DATA     BIT       T1
      000000E2H   SFRSYM    DATA     BYTE      P7M0
      000000CBH   SFRSYM    DATA     BYTE      P6M1
      000000C8H   SFRSYM    DATA     BYTE      P5
      000000C6H   SFRSYM    DATA     BYTE      ISP_TRIG
      000000A8H.7 SFRSYM    DATA     BIT       EA
      000000B0H.4 SFRSYM    DATA     BIT       CLKOUT1
      000000A0H.4 SFRSYM    DATA     BIT       SPI_SS_2
LX51 LINKER/LOCATER V4.66.41.0                                                        12/20/2018  14:37:19  PAGE 122


      000000E8H   SFRSYM    DATA     BYTE      P6
      000000E1H   SFRSYM    DATA     BYTE      P7M1
      000000C8H.4 SFRSYM    DATA     BIT       SPI_SS_3
      00000090H.4 SFRSYM    DATA     BIT       SPI_MISO
      00000090H.3 SFRSYM    DATA     BIT       SPI_MOSI
      00000090H.1 SFRSYM    DATA     BIT       CCP0
      000000F8H   SFRSYM    DATA     BYTE      P7
      000000AAH   SFRSYM    DATA     BYTE      WKTCL
      00000090H   SFRSYM    DATA     BIT       CCP1
      000000CEH   SFRSYM    DATA     BYTE      SPCTL
      000000D8H.7 SFRSYM    DATA     BIT       CF
      000000B0H.7 SFRSYM    DATA     BIT       CCP2
      000000F9H   SFRSYM    DATA     BYTE      CH
      000000A2H   SFRSYM    DATA     BYTE      P_SW1
      000000BAH   SFRSYM    DATA     BYTE      P_SW2
      000000A8H.5 SFRSYM    DATA     BIT       EADC
      000000A0H.1 SFRSYM    DATA     BIT       SPI_SCLK_2
      000000A8H   SFRSYM    DATA     BYTE      IE
      000000C0H.3 SFRSYM    DATA     BIT       SPI_SCLK_3
      000000E9H   SFRSYM    DATA     BYTE      CL
      000000C5H   SFRSYM    DATA     BYTE      IAP_CMD
      000000FAH   SFRSYM    DATA     BYTE      CCAP0H
      000000FBH   SFRSYM    DATA     BYTE      CCAP1H
      000000FCH   SFRSYM    DATA     BYTE      CCAP2H
      000000BDH   SFRSYM    DATA     BYTE      ADC_RES
      000000B6H   SFRSYM    DATA     BYTE      IPH2
      000000D8H.6 SFRSYM    DATA     BIT       CR
      000000EAH   SFRSYM    DATA     BYTE      CCAP0L
      000000B0H.7 SFRSYM    DATA     BIT       RD
      000000EBH   SFRSYM    DATA     BYTE      CCAP1L
      000000DAH   SFRSYM    DATA     BYTE      CCAPM0
      000000ECH   SFRSYM    DATA     BYTE      CCAP2L
      000000DBH   SFRSYM    DATA     BYTE      CCAPM1
      000000A8H.4 SFRSYM    DATA     BIT       ES
      000000DCH   SFRSYM    DATA     BYTE      CCAPM2
      000000B8H.5 SFRSYM    DATA     BIT       PADC
      000000A0H.2 SFRSYM    DATA     BIT       SPI_MISO_2
      000000A0H.3 SFRSYM    DATA     BIT       SPI_MOSI_2
      000000B8H   SFRSYM    DATA     BYTE      IP
      000000C0H.1 SFRSYM    DATA     BIT       SPI_MISO_3
      000000C0H   SFRSYM    DATA     BIT       SPI_MOSI_3
      00000098H   SFRSYM    DATA     BIT       RI
      000000B0H.2 SFRSYM    DATA     BIT       INT0
      000000D0H.7 SFRSYM    DATA     BIT       CY
      00000098H.1 SFRSYM    DATA     BIT       TI
      000000B0H.3 SFRSYM    DATA     BIT       INT1
      00000097H   SFRSYM    DATA     BYTE      CLK_DIV
      000000C3H   SFRSYM    DATA     BYTE      IAP_ADDRH
      00000090H   SFRSYM    DATA     BIT       RXD2
      000000C5H   SFRSYM    DATA     BYTE      ISP_CMD
      000000B8H.4 SFRSYM    DATA     BIT       PS
      00000090H.1 SFRSYM    DATA     BIT       TXD2
      00000081H   SFRSYM    DATA     BYTE      SP
      000000D9H   SFRSYM    DATA     BYTE      CMOD
      000000D8H   SFRSYM    DATA     BYTE      CCON
      000000C4H   SFRSYM    DATA     BYTE      IAP_ADDRL
      000000B8H.7 SFRSYM    DATA     BIT       PPCA
      000000D0H.2 SFRSYM    DATA     BIT       OV
      000000B0H.6 SFRSYM    DATA     BIT       WR
      000000A8H.6 SFRSYM    DATA     BIT       ELVD
      00000080H   SFRSYM    DATA     BIT       P00
      00000090H   SFRSYM    DATA     BIT       P10
      00000080H.1 SFRSYM    DATA     BIT       P01
      000000BCH   SFRSYM    DATA     BYTE      ADC_CONTR
      00000099H   SFRSYM    DATA     BYTE      SBUF
LX51 LINKER/LOCATER V4.66.41.0                                                        12/20/2018  14:37:19  PAGE 123


      00000087H   SFRSYM    DATA     BYTE      PCON
      000000A0H   SFRSYM    DATA     BIT       P20
      00000090H.1 SFRSYM    DATA     BIT       P11
      00000080H.2 SFRSYM    DATA     BIT       P02
      000000C3H   SFRSYM    DATA     BYTE      ISP_ADDRH
      000000B0H   SFRSYM    DATA     BIT       P30
      000000A0H.1 SFRSYM    DATA     BIT       P21
      00000090H.2 SFRSYM    DATA     BIT       P12
      00000080H.3 SFRSYM    DATA     BIT       P03
      000000C0H   SFRSYM    DATA     BIT       P40
      000000B0H.1 SFRSYM    DATA     BIT       P31
      000000A0H.2 SFRSYM    DATA     BIT       P22
      00000090H.3 SFRSYM    DATA     BIT       P13
      00000080H.4 SFRSYM    DATA     BIT       P04
      00000098H   SFRSYM    DATA     BYTE      SCON
      0000008FH   SFRSYM    DATA     BYTE      WAKE_CLKO
      000000C8H   SFRSYM    DATA     BIT       P50
      000000C0H.1 SFRSYM    DATA     BIT       P41
      000000B0H.2 SFRSYM    DATA     BIT       P32
      000000A0H.3 SFRSYM    DATA     BIT       P23
      00000090H.4 SFRSYM    DATA     BIT       P14
      00000080H.5 SFRSYM    DATA     BIT       P05
      00000089H   SFRSYM    DATA     BYTE      TMOD
      00000088H   SFRSYM    DATA     BYTE      TCON
      000000C8H.1 SFRSYM    DATA     BIT       P51
      000000C0H.2 SFRSYM    DATA     BIT       P42
      000000B0H.3 SFRSYM    DATA     BIT       P33
      000000A0H.4 SFRSYM    DATA     BIT       P24
      00000090H.5 SFRSYM    DATA     BIT       P15
      00000080H.6 SFRSYM    DATA     BIT       P06
      000000C4H   SFRSYM    DATA     BYTE      ISP_ADDRL
      000000B8H.6 SFRSYM    DATA     BIT       PLVD
      000000C8H.2 SFRSYM    DATA     BIT       P52
      000000C0H.3 SFRSYM    DATA     BIT       P43
      000000B0H.4 SFRSYM    DATA     BIT       P34
      000000A0H.5 SFRSYM    DATA     BIT       P25
      00000090H.6 SFRSYM    DATA     BIT       P16
      00000080H.7 SFRSYM    DATA     BIT       P07
      000000C8H.3 SFRSYM    DATA     BIT       P53
      000000C0H.4 SFRSYM    DATA     BIT       P44
      000000B0H.5 SFRSYM    DATA     BIT       P35
      000000A0H.6 SFRSYM    DATA     BIT       P26
      00000090H.7 SFRSYM    DATA     BIT       P17
      000000C8H.4 SFRSYM    DATA     BIT       P54
      000000C0H.5 SFRSYM    DATA     BIT       P45
      000000B0H.6 SFRSYM    DATA     BIT       P36
      000000A0H.7 SFRSYM    DATA     BIT       P27
      000000C8H.5 SFRSYM    DATA     BIT       P55
      000000C0H.6 SFRSYM    DATA     BIT       P46
      000000B0H.7 SFRSYM    DATA     BIT       P37
      000000C8H.6 SFRSYM    DATA     BIT       P56
      000000C0H.7 SFRSYM    DATA     BIT       P47
      000000C8H.7 SFRSYM    DATA     BIT       P57
      00000088H.1 SFRSYM    DATA     BIT       IE0
      000000A1H   SFRSYM    DATA     BYTE      BUS_SPEED
      00000088H.3 SFRSYM    DATA     BIT       IE1
      000000AFH   SFRSYM    DATA     BYTE      IE2
      000000F0H   SFRSYM    DATA     BYTE      B
      0000008EH   SFRSYM    DATA     BYTE      AUXR
      000000C7H   SFRSYM    DATA     BYTE      IAP_CONTR
      000000E0H   SFRSYM    DATA     BYTE      ACC
      000000A8H.1 SFRSYM    DATA     BIT       ET0
      000000A8H.3 SFRSYM    DATA     BIT       ET1
      00000088H.5 SFRSYM    DATA     BIT       TF0
      00000088H.7 SFRSYM    DATA     BIT       TF1
LX51 LINKER/LOCATER V4.66.41.0                                                        12/20/2018  14:37:19  PAGE 124


      000000B5H   SFRSYM    DATA     BYTE      IP2
      0000008CH   SFRSYM    DATA     BYTE      RL_TH0
      00000098H.2 SFRSYM    DATA     BIT       RB8
      0000008DH   SFRSYM    DATA     BYTE      RL_TH1
      0000008CH   SFRSYM    DATA     BYTE      TH0
      000000A8H   SFRSYM    DATA     BIT       EX0
      00000088H   SFRSYM    DATA     BIT       IT0
      000000D6H   SFRSYM    DATA     BYTE      RL_T2H
      0000008DH   SFRSYM    DATA     BYTE      TH1
      000000A8H.2 SFRSYM    DATA     BIT       EX1
      00000098H.3 SFRSYM    DATA     BIT       TB8
      00000088H.2 SFRSYM    DATA     BIT       IT1
      000000D4H   SFRSYM    DATA     BYTE      RL_T3H
      000000D6H   SFRSYM    DATA     BYTE      TH2
      000000D6H   SFRSYM    DATA     BYTE      T2H
      000000D0H   SFRSYM    DATA     BIT       P
      000000D2H   SFRSYM    DATA     BYTE      RL_T4H
      000000D4H   SFRSYM    DATA     BYTE      TH3
      000000D4H   SFRSYM    DATA     BYTE      T3H
      0000008AH   SFRSYM    DATA     BYTE      RL_TL0
      00000098H.7 SFRSYM    DATA     BIT       SM0
      000000D2H   SFRSYM    DATA     BYTE      TH4
      000000D2H   SFRSYM    DATA     BYTE      T4H
      0000008BH   SFRSYM    DATA     BYTE      RL_TL1
      0000008AH   SFRSYM    DATA     BYTE      TL0
      00000098H.6 SFRSYM    DATA     BIT       SM1
      000000D7H   SFRSYM    DATA     BYTE      RL_T2L
      0000008BH   SFRSYM    DATA     BYTE      TL1
      00000098H.5 SFRSYM    DATA     BIT       SM2
      000000D5H   SFRSYM    DATA     BYTE      RL_T3L
      000000D7H   SFRSYM    DATA     BYTE      TL2
      000000D7H   SFRSYM    DATA     BYTE      T2L
      000000D3H   SFRSYM    DATA     BYTE      RL_T4L
      000000D5H   SFRSYM    DATA     BYTE      TL3
      000000D5H   SFRSYM    DATA     BYTE      T3L
      000000B8H.1 SFRSYM    DATA     BIT       PT0
      000000D3H   SFRSYM    DATA     BYTE      TL4
      000000D3H   SFRSYM    DATA     BYTE      T4L
      000000B8H.3 SFRSYM    DATA     BIT       PT1
      000000D0H.3 SFRSYM    DATA     BIT       RS0
      000000C7H   SFRSYM    DATA     BYTE      ISP_CONTR
      00000088H.4 SFRSYM    DATA     BIT       TR0
      000000D0H.4 SFRSYM    DATA     BIT       RS1
      000000C2H   SFRSYM    DATA     BYTE      IAP_DATA
      00000088H.6 SFRSYM    DATA     BIT       TR1
      000000B8H   SFRSYM    DATA     BIT       PX0
      000000C1H   SFRSYM    DATA     BYTE      WDT_CONTR
      000000B8H.2 SFRSYM    DATA     BIT       PX1
      000000F2H   SFRSYM    DATA     BYTE      PCA_PWM0
      000000F3H   SFRSYM    DATA     BYTE      PCA_PWM1
      000000F4H   SFRSYM    DATA     BYTE      PCA_PWM2
      0000009DH   SFRSYM    DATA     BYTE      P1ASF
      00000083H   SFRSYM    DATA     BYTE      DPH
      000000D1H   SFRSYM    DATA     BYTE      T4T3M
      000000BEH   SFRSYM    DATA     BYTE      ADC_RESL
      00000082H   SFRSYM    DATA     BYTE      DPL
      000000CDH   SFRSYM    DATA     BYTE      SPSTAT
      000000B7H   SFRSYM    DATA     BYTE      IPH
      0000009BH   SFRSYM    DATA     BYTE      S2BUF
      00000097H   SFRSYM    DATA     BYTE      PCON2
      000000ADH   SFRSYM    DATA     BYTE      S3BUF
      00000098H.4 SFRSYM    DATA     BIT       REN
      00000085H   SFRSYM    DATA     BYTE      S4BUF
      0000009AH   SFRSYM    DATA     BYTE      S2CON
      000000ACH   SFRSYM    DATA     BYTE      S3CON
LX51 LINKER/LOCATER V4.66.41.0                                                        12/20/2018  14:37:19  PAGE 125


      000000C2H   SFRSYM    DATA     BYTE      ISP_DATA
      00000084H   SFRSYM    DATA     BYTE      S4CON
      000000B9H   SFRSYM    DATA     BYTE      SADEN
      000000B0H   SFRSYM    DATA     BIT       RXD
      000000A9H   SFRSYM    DATA     BYTE      SADDR
      000000B0H.1 SFRSYM    DATA     BIT       TXD
      000000F0H   SFRSYM    DATA     BIT       B0
      000000F0H.1 SFRSYM    DATA     BIT       B1
      000000C6H   SFRSYM    DATA     BYTE      IAP_TRIG
      000000A2H   SFRSYM    DATA     BYTE      AUXR1
      000000F0H.2 SFRSYM    DATA     BIT       B2
      00000090H.2 SFRSYM    DATA     BIT       SPI_SS
      0000008FH   SFRSYM    DATA     BYTE      AUXR2
      000000F0H.3 SFRSYM    DATA     BIT       B3
      000000F0H.4 SFRSYM    DATA     BIT       B4
      000000D0H.5 SFRSYM    DATA     BIT       F0
      000000F0H.5 SFRSYM    DATA     BIT       B5
      000000D0H.1 SFRSYM    DATA     BIT       F1
      0000008FH   SFRSYM    DATA     BYTE      INT_CLKO
      000000F0H.6 SFRSYM    DATA     BIT       B6
      000000E0H   SFRSYM    DATA     BIT       ACC0
      000000F0H.7 SFRSYM    DATA     BIT       B7
      000000E0H.1 SFRSYM    DATA     BIT       ACC1
      000000E0H.2 SFRSYM    DATA     BIT       ACC2
      000000E0H.3 SFRSYM    DATA     BIT       ACC3
      000000D0H   SFRSYM    DATA     BYTE      PSW
      000000E0H.4 SFRSYM    DATA     BIT       ACC4
      00000090H.5 SFRSYM    DATA     BIT       SPI_SCLK
      000000D8H   SFRSYM    DATA     BIT       CCF0
      000000E0H.5 SFRSYM    DATA     BIT       ACC5
      000000D8H.1 SFRSYM    DATA     BIT       CCF1
      000000E0H.6 SFRSYM    DATA     BIT       ACC6
      000000CFH   SFRSYM    DATA     BYTE      SPDAT
      00000094H   SFRSYM    DATA     BYTE      P0M0

      010076E3H   BLOCK     CODE     ---       LVL=0
      00000007H   SYMBOL    DATA     BYTE      dat
      010076E3H   LINE      CODE     ---       #130
      010076E3H   LINE      CODE     ---       #131
      010076E3H   LINE      CODE     ---       #132
      010076F0H   LINE      CODE     ---       #133
      010076FCH   LINE      CODE     ---       #135
      01007700H   LINE      CODE     ---       #136
      01007700H   LINE      CODE     ---       #137
      01007703H   LINE      CODE     ---       #138
      01007705H   LINE      CODE     ---       #139
      01007705H   LINE      CODE     ---       #140
      ---         BLOCKEND  ---      ---       LVL=0

      010078BAH   BLOCK     CODE     ---       LVL=0
      00000001H   SYMBOL    DATA     ---       puts
      010078BAH   LINE      CODE     ---       #154
      010078BAH   LINE      CODE     ---       #155
      010078BAH   LINE      CODE     ---       #156
      010078CCH   LINE      CODE     ---       #157
      ---         BLOCKEND  ---      ---       LVL=0

      0100756CH   BLOCK     CODE     ---       LVL=0
      00000038H   SYMBOL    DATA     ---       puts
      0100756CH   LINE      CODE     ---       #159
      01007572H   LINE      CODE     ---       #164
      01007579H   LINE      CODE     ---       #165
      01007581H   LINE      CODE     ---       #166
      01007588H   LINE      CODE     ---       #167
      01007591H   LINE      CODE     ---       #168
LX51 LINKER/LOCATER V4.66.41.0                                                        12/20/2018  14:37:19  PAGE 126


      01007598H   LINE      CODE     ---       #169
      0100759BH   LINE      CODE     ---       #170
      ---         BLOCKEND  ---      ---       LVL=0

      010076BDH   BLOCK     CODE     ---       LVL=0
      0000004AH   SYMBOL    DATA     ---       dats
      00000005H   SYMBOL    DATA     BYTE      datsLen
      010076C3H   BLOCK     CODE     NEAR LAB  LVL=1
      00000006H   SYMBOL    DATA     BYTE      loop
      ---         BLOCKEND  ---      ---       LVL=1
      010076BDH   LINE      CODE     ---       #179
      010076C3H   LINE      CODE     ---       #181
      010076C5H   LINE      CODE     ---       #183
      010076CAH   LINE      CODE     ---       #185
      010076DFH   LINE      CODE     ---       #186
      010076E2H   LINE      CODE     ---       #187
      ---         BLOCKEND  ---      ---       LVL=0

      ---         MODULE    ---      ---       DELAY
      0100786CH   PUBLIC    CODE     ---       _delayMs
      010078DDH   PUBLIC    CODE     ---       _delay_ms
      000000D8H.2 SFRSYM    DATA     BIT       CCF2
      000000E0H.7 SFRSYM    DATA     BIT       ACC7
      00000093H   SFRSYM    DATA     BYTE      P0M1
      00000092H   SFRSYM    DATA     BYTE      P1M0
      00000096H   SFRSYM    DATA     BYTE      P2M0
      00000091H   SFRSYM    DATA     BYTE      P1M1
      00000080H   SFRSYM    DATA     BYTE      P0
      000000B2H   SFRSYM    DATA     BYTE      P3M0
      00000095H   SFRSYM    DATA     BYTE      P2M1
      00000090H   SFRSYM    DATA     BYTE      P1
      000000B4H   SFRSYM    DATA     BYTE      P4M0
      000000B1H   SFRSYM    DATA     BYTE      P3M1
      000000A0H   SFRSYM    DATA     BYTE      P2
      000000CAH   SFRSYM    DATA     BYTE      P5M0
      000000B3H   SFRSYM    DATA     BYTE      P4M1
      000000B0H   SFRSYM    DATA     BYTE      P3
      000000ABH   SFRSYM    DATA     BYTE      WKTCH
      000000B0H.4 SFRSYM    DATA     BIT       T0
      000000D0H.6 SFRSYM    DATA     BIT       AC
      000000CCH   SFRSYM    DATA     BYTE      P6M0
      000000C9H   SFRSYM    DATA     BYTE      P5M1
      000000C0H   SFRSYM    DATA     BYTE      P4
      000000B0H.5 SFRSYM    DATA     BIT       CLKOUT0
      000000B0H.5 SFRSYM    DATA     BIT       T1
      000000E2H   SFRSYM    DATA     BYTE      P7M0
      000000CBH   SFRSYM    DATA     BYTE      P6M1
      000000C8H   SFRSYM    DATA     BYTE      P5
      000000C6H   SFRSYM    DATA     BYTE      ISP_TRIG
      000000A8H.7 SFRSYM    DATA     BIT       EA
      000000B0H.4 SFRSYM    DATA     BIT       CLKOUT1
      000000A0H.4 SFRSYM    DATA     BIT       SPI_SS_2
      000000E8H   SFRSYM    DATA     BYTE      P6
      000000E1H   SFRSYM    DATA     BYTE      P7M1
      000000C8H.4 SFRSYM    DATA     BIT       SPI_SS_3
      00000090H.4 SFRSYM    DATA     BIT       SPI_MISO
      00000090H.3 SFRSYM    DATA     BIT       SPI_MOSI
      00000090H.1 SFRSYM    DATA     BIT       CCP0
      000000F8H   SFRSYM    DATA     BYTE      P7
      000000AAH   SFRSYM    DATA     BYTE      WKTCL
      00000090H   SFRSYM    DATA     BIT       CCP1
      000000CEH   SFRSYM    DATA     BYTE      SPCTL
      000000D8H.7 SFRSYM    DATA     BIT       CF
      000000B0H.7 SFRSYM    DATA     BIT       CCP2
      000000F9H   SFRSYM    DATA     BYTE      CH
LX51 LINKER/LOCATER V4.66.41.0                                                        12/20/2018  14:37:19  PAGE 127


      000000A2H   SFRSYM    DATA     BYTE      P_SW1
      000000BAH   SFRSYM    DATA     BYTE      P_SW2
      000000A8H.5 SFRSYM    DATA     BIT       EADC
      000000A0H.1 SFRSYM    DATA     BIT       SPI_SCLK_2
      000000A8H   SFRSYM    DATA     BYTE      IE
      000000C0H.3 SFRSYM    DATA     BIT       SPI_SCLK_3
      000000E9H   SFRSYM    DATA     BYTE      CL
      000000C5H   SFRSYM    DATA     BYTE      IAP_CMD
      000000FAH   SFRSYM    DATA     BYTE      CCAP0H
      000000FBH   SFRSYM    DATA     BYTE      CCAP1H
      000000FCH   SFRSYM    DATA     BYTE      CCAP2H
      000000BDH   SFRSYM    DATA     BYTE      ADC_RES
      000000B6H   SFRSYM    DATA     BYTE      IPH2
      000000D8H.6 SFRSYM    DATA     BIT       CR
      000000EAH   SFRSYM    DATA     BYTE      CCAP0L
      000000B0H.7 SFRSYM    DATA     BIT       RD
      000000EBH   SFRSYM    DATA     BYTE      CCAP1L
      000000DAH   SFRSYM    DATA     BYTE      CCAPM0
      000000ECH   SFRSYM    DATA     BYTE      CCAP2L
      000000DBH   SFRSYM    DATA     BYTE      CCAPM1
      000000A8H.4 SFRSYM    DATA     BIT       ES
      000000DCH   SFRSYM    DATA     BYTE      CCAPM2
      000000B8H.5 SFRSYM    DATA     BIT       PADC
      000000A0H.2 SFRSYM    DATA     BIT       SPI_MISO_2
      000000A0H.3 SFRSYM    DATA     BIT       SPI_MOSI_2
      000000B8H   SFRSYM    DATA     BYTE      IP
      000000C0H.1 SFRSYM    DATA     BIT       SPI_MISO_3
      000000C0H   SFRSYM    DATA     BIT       SPI_MOSI_3
      00000098H   SFRSYM    DATA     BIT       RI
      000000B0H.2 SFRSYM    DATA     BIT       INT0
      000000D0H.7 SFRSYM    DATA     BIT       CY
      00000098H.1 SFRSYM    DATA     BIT       TI
      000000B0H.3 SFRSYM    DATA     BIT       INT1
      00000097H   SFRSYM    DATA     BYTE      CLK_DIV
      000000C3H   SFRSYM    DATA     BYTE      IAP_ADDRH
      00000090H   SFRSYM    DATA     BIT       RXD2
      000000C5H   SFRSYM    DATA     BYTE      ISP_CMD
      000000B8H.4 SFRSYM    DATA     BIT       PS
      00000090H.1 SFRSYM    DATA     BIT       TXD2
      00000081H   SFRSYM    DATA     BYTE      SP
      000000D9H   SFRSYM    DATA     BYTE      CMOD
      000000D8H   SFRSYM    DATA     BYTE      CCON
      000000C4H   SFRSYM    DATA     BYTE      IAP_ADDRL
      000000B8H.7 SFRSYM    DATA     BIT       PPCA
      000000D0H.2 SFRSYM    DATA     BIT       OV
      000000B0H.6 SFRSYM    DATA     BIT       WR
      000000A8H.6 SFRSYM    DATA     BIT       ELVD
      00000080H   SFRSYM    DATA     BIT       P00
      00000090H   SFRSYM    DATA     BIT       P10
      00000080H.1 SFRSYM    DATA     BIT       P01
      000000BCH   SFRSYM    DATA     BYTE      ADC_CONTR
      00000099H   SFRSYM    DATA     BYTE      SBUF
      00000087H   SFRSYM    DATA     BYTE      PCON
      000000A0H   SFRSYM    DATA     BIT       P20
      00000090H.1 SFRSYM    DATA     BIT       P11
      00000080H.2 SFRSYM    DATA     BIT       P02
      000000C3H   SFRSYM    DATA     BYTE      ISP_ADDRH
      000000B0H   SFRSYM    DATA     BIT       P30
      000000A0H.1 SFRSYM    DATA     BIT       P21
      00000090H.2 SFRSYM    DATA     BIT       P12
      00000080H.3 SFRSYM    DATA     BIT       P03
      000000C0H   SFRSYM    DATA     BIT       P40
      000000B0H.1 SFRSYM    DATA     BIT       P31
      000000A0H.2 SFRSYM    DATA     BIT       P22
      00000090H.3 SFRSYM    DATA     BIT       P13
LX51 LINKER/LOCATER V4.66.41.0                                                        12/20/2018  14:37:19  PAGE 128


      00000080H.4 SFRSYM    DATA     BIT       P04
      00000098H   SFRSYM    DATA     BYTE      SCON
      0000008FH   SFRSYM    DATA     BYTE      WAKE_CLKO
      000000C8H   SFRSYM    DATA     BIT       P50
      000000C0H.1 SFRSYM    DATA     BIT       P41
      000000B0H.2 SFRSYM    DATA     BIT       P32
      000000A0H.3 SFRSYM    DATA     BIT       P23
      00000090H.4 SFRSYM    DATA     BIT       P14
      00000080H.5 SFRSYM    DATA     BIT       P05
      00000089H   SFRSYM    DATA     BYTE      TMOD
      00000088H   SFRSYM    DATA     BYTE      TCON
      000000C8H.1 SFRSYM    DATA     BIT       P51
      000000C0H.2 SFRSYM    DATA     BIT       P42
      000000B0H.3 SFRSYM    DATA     BIT       P33
      000000A0H.4 SFRSYM    DATA     BIT       P24
      00000090H.5 SFRSYM    DATA     BIT       P15
      00000080H.6 SFRSYM    DATA     BIT       P06
      000000C4H   SFRSYM    DATA     BYTE      ISP_ADDRL
      000000B8H.6 SFRSYM    DATA     BIT       PLVD
      000000C8H.2 SFRSYM    DATA     BIT       P52
      000000C0H.3 SFRSYM    DATA     BIT       P43
      000000B0H.4 SFRSYM    DATA     BIT       P34
      000000A0H.5 SFRSYM    DATA     BIT       P25
      00000090H.6 SFRSYM    DATA     BIT       P16
      00000080H.7 SFRSYM    DATA     BIT       P07
      000000C8H.3 SFRSYM    DATA     BIT       P53
      000000C0H.4 SFRSYM    DATA     BIT       P44
      000000B0H.5 SFRSYM    DATA     BIT       P35
      000000A0H.6 SFRSYM    DATA     BIT       P26
      00000090H.7 SFRSYM    DATA     BIT       P17
      000000C8H.4 SFRSYM    DATA     BIT       P54
      000000C0H.5 SFRSYM    DATA     BIT       P45
      000000B0H.6 SFRSYM    DATA     BIT       P36
      000000A0H.7 SFRSYM    DATA     BIT       P27
      000000C8H.5 SFRSYM    DATA     BIT       P55
      000000C0H.6 SFRSYM    DATA     BIT       P46
      000000B0H.7 SFRSYM    DATA     BIT       P37
      000000C8H.6 SFRSYM    DATA     BIT       P56
      000000C0H.7 SFRSYM    DATA     BIT       P47
      000000C8H.7 SFRSYM    DATA     BIT       P57
      00000088H.1 SFRSYM    DATA     BIT       IE0
      000000A1H   SFRSYM    DATA     BYTE      BUS_SPEED
      00000088H.3 SFRSYM    DATA     BIT       IE1
      000000AFH   SFRSYM    DATA     BYTE      IE2
      000000F0H   SFRSYM    DATA     BYTE      B
      0000008EH   SFRSYM    DATA     BYTE      AUXR
      000000C7H   SFRSYM    DATA     BYTE      IAP_CONTR
      000000E0H   SFRSYM    DATA     BYTE      ACC
      000000A8H.1 SFRSYM    DATA     BIT       ET0
      000000A8H.3 SFRSYM    DATA     BIT       ET1
      00000088H.5 SFRSYM    DATA     BIT       TF0
      00000088H.7 SFRSYM    DATA     BIT       TF1
      000000B5H   SFRSYM    DATA     BYTE      IP2
      0000008CH   SFRSYM    DATA     BYTE      RL_TH0
      00000098H.2 SFRSYM    DATA     BIT       RB8
      0000008DH   SFRSYM    DATA     BYTE      RL_TH1
      0000008CH   SFRSYM    DATA     BYTE      TH0
      000000A8H   SFRSYM    DATA     BIT       EX0
      00000088H   SFRSYM    DATA     BIT       IT0
      000000D6H   SFRSYM    DATA     BYTE      RL_T2H
      0000008DH   SFRSYM    DATA     BYTE      TH1
      000000A8H.2 SFRSYM    DATA     BIT       EX1
      00000098H.3 SFRSYM    DATA     BIT       TB8
      00000088H.2 SFRSYM    DATA     BIT       IT1
      000000D4H   SFRSYM    DATA     BYTE      RL_T3H
LX51 LINKER/LOCATER V4.66.41.0                                                        12/20/2018  14:37:19  PAGE 129


      000000D6H   SFRSYM    DATA     BYTE      TH2
      000000D6H   SFRSYM    DATA     BYTE      T2H
      000000D0H   SFRSYM    DATA     BIT       P
      000000D2H   SFRSYM    DATA     BYTE      RL_T4H
      000000D4H   SFRSYM    DATA     BYTE      TH3
      000000D4H   SFRSYM    DATA     BYTE      T3H
      0000008AH   SFRSYM    DATA     BYTE      RL_TL0
      00000098H.7 SFRSYM    DATA     BIT       SM0
      000000D2H   SFRSYM    DATA     BYTE      TH4
      000000D2H   SFRSYM    DATA     BYTE      T4H
      0000008BH   SFRSYM    DATA     BYTE      RL_TL1
      0000008AH   SFRSYM    DATA     BYTE      TL0
      00000098H.6 SFRSYM    DATA     BIT       SM1
      000000D7H   SFRSYM    DATA     BYTE      RL_T2L
      0000008BH   SFRSYM    DATA     BYTE      TL1
      00000098H.5 SFRSYM    DATA     BIT       SM2
      000000D5H   SFRSYM    DATA     BYTE      RL_T3L
      000000D7H   SFRSYM    DATA     BYTE      TL2
      000000D7H   SFRSYM    DATA     BYTE      T2L
      000000D3H   SFRSYM    DATA     BYTE      RL_T4L
      000000D5H   SFRSYM    DATA     BYTE      TL3
      000000D5H   SFRSYM    DATA     BYTE      T3L
      000000B8H.1 SFRSYM    DATA     BIT       PT0
      000000D3H   SFRSYM    DATA     BYTE      TL4
      000000D3H   SFRSYM    DATA     BYTE      T4L
      000000B8H.3 SFRSYM    DATA     BIT       PT1
      000000D0H.3 SFRSYM    DATA     BIT       RS0
      000000C7H   SFRSYM    DATA     BYTE      ISP_CONTR
      00000088H.4 SFRSYM    DATA     BIT       TR0
      000000D0H.4 SFRSYM    DATA     BIT       RS1
      000000C2H   SFRSYM    DATA     BYTE      IAP_DATA
      00000088H.6 SFRSYM    DATA     BIT       TR1
      000000B8H   SFRSYM    DATA     BIT       PX0
      000000C1H   SFRSYM    DATA     BYTE      WDT_CONTR
      000000B8H.2 SFRSYM    DATA     BIT       PX1
      000000F2H   SFRSYM    DATA     BYTE      PCA_PWM0
      000000F3H   SFRSYM    DATA     BYTE      PCA_PWM1
      000000F4H   SFRSYM    DATA     BYTE      PCA_PWM2
      0000009DH   SFRSYM    DATA     BYTE      P1ASF
      00000083H   SFRSYM    DATA     BYTE      DPH
      000000D1H   SFRSYM    DATA     BYTE      T4T3M
      000000BEH   SFRSYM    DATA     BYTE      ADC_RESL
      00000082H   SFRSYM    DATA     BYTE      DPL
      000000CDH   SFRSYM    DATA     BYTE      SPSTAT
      000000B7H   SFRSYM    DATA     BYTE      IPH
      0000009BH   SFRSYM    DATA     BYTE      S2BUF
      00000097H   SFRSYM    DATA     BYTE      PCON2
      000000ADH   SFRSYM    DATA     BYTE      S3BUF
      00000098H.4 SFRSYM    DATA     BIT       REN
      00000085H   SFRSYM    DATA     BYTE      S4BUF
      0000009AH   SFRSYM    DATA     BYTE      S2CON
      000000ACH   SFRSYM    DATA     BYTE      S3CON
      000000C2H   SFRSYM    DATA     BYTE      ISP_DATA
      00000084H   SFRSYM    DATA     BYTE      S4CON
      000000B9H   SFRSYM    DATA     BYTE      SADEN
      000000B0H   SFRSYM    DATA     BIT       RXD
      000000A9H   SFRSYM    DATA     BYTE      SADDR
      000000B0H.1 SFRSYM    DATA     BIT       TXD
      000000F0H   SFRSYM    DATA     BIT       B0
      000000F0H.1 SFRSYM    DATA     BIT       B1
      000000C6H   SFRSYM    DATA     BYTE      IAP_TRIG
      000000A2H   SFRSYM    DATA     BYTE      AUXR1
      000000F0H.2 SFRSYM    DATA     BIT       B2
      00000090H.2 SFRSYM    DATA     BIT       SPI_SS
      0000008FH   SFRSYM    DATA     BYTE      AUXR2
LX51 LINKER/LOCATER V4.66.41.0                                                        12/20/2018  14:37:19  PAGE 130


      000000F0H.3 SFRSYM    DATA     BIT       B3
      000000F0H.4 SFRSYM    DATA     BIT       B4
      000000D0H.5 SFRSYM    DATA     BIT       F0
      000000F0H.5 SFRSYM    DATA     BIT       B5
      000000D0H.1 SFRSYM    DATA     BIT       F1
      0000008FH   SFRSYM    DATA     BYTE      INT_CLKO
      000000F0H.6 SFRSYM    DATA     BIT       B6
      000000E0H   SFRSYM    DATA     BIT       ACC0
      000000F0H.7 SFRSYM    DATA     BIT       B7
      000000E0H.1 SFRSYM    DATA     BIT       ACC1
      000000E0H.2 SFRSYM    DATA     BIT       ACC2
      000000E0H.3 SFRSYM    DATA     BIT       ACC3
      000000D0H   SFRSYM    DATA     BYTE      PSW
      000000E0H.4 SFRSYM    DATA     BIT       ACC4
      00000090H.5 SFRSYM    DATA     BIT       SPI_SCLK
      000000D8H   SFRSYM    DATA     BIT       CCF0
      000000E0H.5 SFRSYM    DATA     BIT       ACC5
      000000D8H.1 SFRSYM    DATA     BIT       CCF1
      000000E0H.6 SFRSYM    DATA     BIT       ACC6
      000000CFH   SFRSYM    DATA     BYTE      SPDAT
      00000094H   SFRSYM    DATA     BYTE      P0M0

      010078DDH   BLOCK     CODE     ---       LVL=0
      00000007H   SYMBOL    DATA     BYTE      ms
      010078DDH   BLOCK     CODE     NEAR LAB  LVL=1
      00000004H   SYMBOL    DATA     WORD      i
      ---         BLOCKEND  ---      ---       LVL=1
      010078DDH   LINE      CODE     ---       #31
      010078DDH   LINE      CODE     ---       #32
      010078DDH   LINE      CODE     ---       #34
      010078DDH   LINE      CODE     ---       #35
      010078E1H   LINE      CODE     ---       #36
      010078EAH   LINE      CODE     ---       #37
      010078ECH   LINE      CODE     ---       #38
      ---         BLOCKEND  ---      ---       LVL=0

      0100786CH   BLOCK     CODE     ---       LVL=0
      00000002H   SYMBOL    DATA     WORD      ms
      0100786CH   LINE      CODE     ---       #40
      01007870H   LINE      CODE     ---       #42
      01007880H   LINE      CODE     ---       #43
      ---         BLOCKEND  ---      ---       LVL=0

      ---         MODULE    ---      ---       EEPROM
      00000033H   PUBLIC    DATA     BYTE      ?_coverEEPROM_write_n?BYTE
      01007106H   PUBLIC    CODE     ---       _coverEEPROM_write_n
      0000003AH   PUBLIC    DATA     BYTE      ?_EEPROM_write_n?BYTE
      01007480H   PUBLIC    CODE     ---       _EEPROM_write_n
      01007728H   PUBLIC    CODE     ---       _EEPROM_SectorErase
      0000004FH   PUBLIC    DATA     BYTE      ?_EEPROM_read_n?BYTE
      01007534H   PUBLIC    CODE     ---       _EEPROM_read_n
      010078EDH   PUBLIC    CODE     ---       DisableEEPROM
      000000D8H.2 SFRSYM    DATA     BIT       CCF2
      000000E0H.7 SFRSYM    DATA     BIT       ACC7
      00000093H   SFRSYM    DATA     BYTE      P0M1
      00000092H   SFRSYM    DATA     BYTE      P1M0
      00000096H   SFRSYM    DATA     BYTE      P2M0
      00000091H   SFRSYM    DATA     BYTE      P1M1
      00000080H   SFRSYM    DATA     BYTE      P0
      000000B2H   SFRSYM    DATA     BYTE      P3M0
      00000095H   SFRSYM    DATA     BYTE      P2M1
      00000090H   SFRSYM    DATA     BYTE      P1
      000000B4H   SFRSYM    DATA     BYTE      P4M0
      000000B1H   SFRSYM    DATA     BYTE      P3M1
      000000A0H   SFRSYM    DATA     BYTE      P2
LX51 LINKER/LOCATER V4.66.41.0                                                        12/20/2018  14:37:19  PAGE 131


      000000CAH   SFRSYM    DATA     BYTE      P5M0
      000000B3H   SFRSYM    DATA     BYTE      P4M1
      000000B0H   SFRSYM    DATA     BYTE      P3
      000000ABH   SFRSYM    DATA     BYTE      WKTCH
      000000B0H.4 SFRSYM    DATA     BIT       T0
      000000D0H.6 SFRSYM    DATA     BIT       AC
      000000CCH   SFRSYM    DATA     BYTE      P6M0
      000000C9H   SFRSYM    DATA     BYTE      P5M1
      000000C0H   SFRSYM    DATA     BYTE      P4
      000000B0H.5 SFRSYM    DATA     BIT       CLKOUT0
      000000B0H.5 SFRSYM    DATA     BIT       T1
      000000E2H   SFRSYM    DATA     BYTE      P7M0
      000000CBH   SFRSYM    DATA     BYTE      P6M1
      000000C8H   SFRSYM    DATA     BYTE      P5
      000000C6H   SFRSYM    DATA     BYTE      ISP_TRIG
      000000A8H.7 SFRSYM    DATA     BIT       EA
      000000B0H.4 SFRSYM    DATA     BIT       CLKOUT1
      000000A0H.4 SFRSYM    DATA     BIT       SPI_SS_2
      000000E8H   SFRSYM    DATA     BYTE      P6
      000000E1H   SFRSYM    DATA     BYTE      P7M1
      000000C8H.4 SFRSYM    DATA     BIT       SPI_SS_3
      00000090H.4 SFRSYM    DATA     BIT       SPI_MISO
      00000090H.3 SFRSYM    DATA     BIT       SPI_MOSI
      00000090H.1 SFRSYM    DATA     BIT       CCP0
      000000F8H   SFRSYM    DATA     BYTE      P7
      000000AAH   SFRSYM    DATA     BYTE      WKTCL
      00000090H   SFRSYM    DATA     BIT       CCP1
      000000CEH   SFRSYM    DATA     BYTE      SPCTL
      000000D8H.7 SFRSYM    DATA     BIT       CF
      000000B0H.7 SFRSYM    DATA     BIT       CCP2
      000000F9H   SFRSYM    DATA     BYTE      CH
      000000A2H   SFRSYM    DATA     BYTE      P_SW1
      000000BAH   SFRSYM    DATA     BYTE      P_SW2
      000000A8H.5 SFRSYM    DATA     BIT       EADC
      000000A0H.1 SFRSYM    DATA     BIT       SPI_SCLK_2
      000000A8H   SFRSYM    DATA     BYTE      IE
      000000C0H.3 SFRSYM    DATA     BIT       SPI_SCLK_3
      000000E9H   SFRSYM    DATA     BYTE      CL
      000000C5H   SFRSYM    DATA     BYTE      IAP_CMD
      000000FAH   SFRSYM    DATA     BYTE      CCAP0H
      000000FBH   SFRSYM    DATA     BYTE      CCAP1H
      000000FCH   SFRSYM    DATA     BYTE      CCAP2H
      000000BDH   SFRSYM    DATA     BYTE      ADC_RES
      000000B6H   SFRSYM    DATA     BYTE      IPH2
      000000D8H.6 SFRSYM    DATA     BIT       CR
      000000EAH   SFRSYM    DATA     BYTE      CCAP0L
      000000B0H.7 SFRSYM    DATA     BIT       RD
      000000EBH   SFRSYM    DATA     BYTE      CCAP1L
      000000DAH   SFRSYM    DATA     BYTE      CCAPM0
      000000ECH   SFRSYM    DATA     BYTE      CCAP2L
      000000DBH   SFRSYM    DATA     BYTE      CCAPM1
      000000A8H.4 SFRSYM    DATA     BIT       ES
      000000DCH   SFRSYM    DATA     BYTE      CCAPM2
      000000B8H.5 SFRSYM    DATA     BIT       PADC
      000000A0H.2 SFRSYM    DATA     BIT       SPI_MISO_2
      000000A0H.3 SFRSYM    DATA     BIT       SPI_MOSI_2
      000000B8H   SFRSYM    DATA     BYTE      IP
      000000C0H.1 SFRSYM    DATA     BIT       SPI_MISO_3
      000000C0H   SFRSYM    DATA     BIT       SPI_MOSI_3
      00000098H   SFRSYM    DATA     BIT       RI
      000000B0H.2 SFRSYM    DATA     BIT       INT0
      000000D0H.7 SFRSYM    DATA     BIT       CY
      00000098H.1 SFRSYM    DATA     BIT       TI
      000000B0H.3 SFRSYM    DATA     BIT       INT1
      00000097H   SFRSYM    DATA     BYTE      CLK_DIV
LX51 LINKER/LOCATER V4.66.41.0                                                        12/20/2018  14:37:19  PAGE 132


      000000C3H   SFRSYM    DATA     BYTE      IAP_ADDRH
      00000090H   SFRSYM    DATA     BIT       RXD2
      000000C5H   SFRSYM    DATA     BYTE      ISP_CMD
      000000B8H.4 SFRSYM    DATA     BIT       PS
      00000090H.1 SFRSYM    DATA     BIT       TXD2
      00000081H   SFRSYM    DATA     BYTE      SP
      000000D9H   SFRSYM    DATA     BYTE      CMOD
      000000D8H   SFRSYM    DATA     BYTE      CCON
      000000C4H   SFRSYM    DATA     BYTE      IAP_ADDRL
      000000B8H.7 SFRSYM    DATA     BIT       PPCA
      000000D0H.2 SFRSYM    DATA     BIT       OV
      000000B0H.6 SFRSYM    DATA     BIT       WR
      000000A8H.6 SFRSYM    DATA     BIT       ELVD
      00000080H   SFRSYM    DATA     BIT       P00
      00000090H   SFRSYM    DATA     BIT       P10
      00000080H.1 SFRSYM    DATA     BIT       P01
      000000BCH   SFRSYM    DATA     BYTE      ADC_CONTR
      00000099H   SFRSYM    DATA     BYTE      SBUF
      00000087H   SFRSYM    DATA     BYTE      PCON
      000000A0H   SFRSYM    DATA     BIT       P20
      00000090H.1 SFRSYM    DATA     BIT       P11
      00000080H.2 SFRSYM    DATA     BIT       P02
      000000C3H   SFRSYM    DATA     BYTE      ISP_ADDRH
      000000B0H   SFRSYM    DATA     BIT       P30
      000000A0H.1 SFRSYM    DATA     BIT       P21
      00000090H.2 SFRSYM    DATA     BIT       P12
      00000080H.3 SFRSYM    DATA     BIT       P03
      000000C0H   SFRSYM    DATA     BIT       P40
      000000B0H.1 SFRSYM    DATA     BIT       P31
      000000A0H.2 SFRSYM    DATA     BIT       P22
      00000090H.3 SFRSYM    DATA     BIT       P13
      00000080H.4 SFRSYM    DATA     BIT       P04
      00000098H   SFRSYM    DATA     BYTE      SCON
      0000008FH   SFRSYM    DATA     BYTE      WAKE_CLKO
      000000C8H   SFRSYM    DATA     BIT       P50
      000000C0H.1 SFRSYM    DATA     BIT       P41
      000000B0H.2 SFRSYM    DATA     BIT       P32
      000000A0H.3 SFRSYM    DATA     BIT       P23
      00000090H.4 SFRSYM    DATA     BIT       P14
      00000080H.5 SFRSYM    DATA     BIT       P05
      00000089H   SFRSYM    DATA     BYTE      TMOD
      00000088H   SFRSYM    DATA     BYTE      TCON
      000000C8H.1 SFRSYM    DATA     BIT       P51
      000000C0H.2 SFRSYM    DATA     BIT       P42
      000000B0H.3 SFRSYM    DATA     BIT       P33
      000000A0H.4 SFRSYM    DATA     BIT       P24
      00000090H.5 SFRSYM    DATA     BIT       P15
      00000080H.6 SFRSYM    DATA     BIT       P06
      000000C4H   SFRSYM    DATA     BYTE      ISP_ADDRL
      000000B8H.6 SFRSYM    DATA     BIT       PLVD
      000000C8H.2 SFRSYM    DATA     BIT       P52
      000000C0H.3 SFRSYM    DATA     BIT       P43
      000000B0H.4 SFRSYM    DATA     BIT       P34
      000000A0H.5 SFRSYM    DATA     BIT       P25
      00000090H.6 SFRSYM    DATA     BIT       P16
      00000080H.7 SFRSYM    DATA     BIT       P07
      000000C8H.3 SFRSYM    DATA     BIT       P53
      000000C0H.4 SFRSYM    DATA     BIT       P44
      000000B0H.5 SFRSYM    DATA     BIT       P35
      000000A0H.6 SFRSYM    DATA     BIT       P26
      00000090H.7 SFRSYM    DATA     BIT       P17
      000000C8H.4 SFRSYM    DATA     BIT       P54
      000000C0H.5 SFRSYM    DATA     BIT       P45
      000000B0H.6 SFRSYM    DATA     BIT       P36
      000000A0H.7 SFRSYM    DATA     BIT       P27
LX51 LINKER/LOCATER V4.66.41.0                                                        12/20/2018  14:37:19  PAGE 133


      000000C8H.5 SFRSYM    DATA     BIT       P55
      000000C0H.6 SFRSYM    DATA     BIT       P46
      000000B0H.7 SFRSYM    DATA     BIT       P37
      000000C8H.6 SFRSYM    DATA     BIT       P56
      000000C0H.7 SFRSYM    DATA     BIT       P47
      000000C8H.7 SFRSYM    DATA     BIT       P57
      00000088H.1 SFRSYM    DATA     BIT       IE0
      000000A1H   SFRSYM    DATA     BYTE      BUS_SPEED
      00000088H.3 SFRSYM    DATA     BIT       IE1
      000000AFH   SFRSYM    DATA     BYTE      IE2
      000000F0H   SFRSYM    DATA     BYTE      B
      0000008EH   SFRSYM    DATA     BYTE      AUXR
      000000C7H   SFRSYM    DATA     BYTE      IAP_CONTR
      000000E0H   SFRSYM    DATA     BYTE      ACC
      000000A8H.1 SFRSYM    DATA     BIT       ET0
      000000A8H.3 SFRSYM    DATA     BIT       ET1
      00000088H.5 SFRSYM    DATA     BIT       TF0
      00000088H.7 SFRSYM    DATA     BIT       TF1
      000000B5H   SFRSYM    DATA     BYTE      IP2
      0000008CH   SFRSYM    DATA     BYTE      RL_TH0
      00000098H.2 SFRSYM    DATA     BIT       RB8
      0000008DH   SFRSYM    DATA     BYTE      RL_TH1
      0000008CH   SFRSYM    DATA     BYTE      TH0
      000000A8H   SFRSYM    DATA     BIT       EX0
      00000088H   SFRSYM    DATA     BIT       IT0
      000000D6H   SFRSYM    DATA     BYTE      RL_T2H
      0000008DH   SFRSYM    DATA     BYTE      TH1
      000000A8H.2 SFRSYM    DATA     BIT       EX1
      00000098H.3 SFRSYM    DATA     BIT       TB8
      00000088H.2 SFRSYM    DATA     BIT       IT1
      000000D4H   SFRSYM    DATA     BYTE      RL_T3H
      000000D6H   SFRSYM    DATA     BYTE      TH2
      000000D6H   SFRSYM    DATA     BYTE      T2H
      000000D0H   SFRSYM    DATA     BIT       P
      000000D2H   SFRSYM    DATA     BYTE      RL_T4H
      000000D4H   SFRSYM    DATA     BYTE      TH3
      000000D4H   SFRSYM    DATA     BYTE      T3H
      0000008AH   SFRSYM    DATA     BYTE      RL_TL0
      00000098H.7 SFRSYM    DATA     BIT       SM0
      000000D2H   SFRSYM    DATA     BYTE      TH4
      000000D2H   SFRSYM    DATA     BYTE      T4H
      0000008BH   SFRSYM    DATA     BYTE      RL_TL1
      0000008AH   SFRSYM    DATA     BYTE      TL0
      00000098H.6 SFRSYM    DATA     BIT       SM1
      000000D7H   SFRSYM    DATA     BYTE      RL_T2L
      0000008BH   SFRSYM    DATA     BYTE      TL1
      00000098H.5 SFRSYM    DATA     BIT       SM2
      000000D5H   SFRSYM    DATA     BYTE      RL_T3L
      000000D7H   SFRSYM    DATA     BYTE      TL2
      000000D7H   SFRSYM    DATA     BYTE      T2L
      000000D3H   SFRSYM    DATA     BYTE      RL_T4L
      000000D5H   SFRSYM    DATA     BYTE      TL3
      000000D5H   SFRSYM    DATA     BYTE      T3L
      000000B8H.1 SFRSYM    DATA     BIT       PT0
      000000D3H   SFRSYM    DATA     BYTE      TL4
      000000D3H   SFRSYM    DATA     BYTE      T4L
      000000B8H.3 SFRSYM    DATA     BIT       PT1
      000000D0H.3 SFRSYM    DATA     BIT       RS0
      000000C7H   SFRSYM    DATA     BYTE      ISP_CONTR
      00000088H.4 SFRSYM    DATA     BIT       TR0
      000000D0H.4 SFRSYM    DATA     BIT       RS1
      000000C2H   SFRSYM    DATA     BYTE      IAP_DATA
      00000088H.6 SFRSYM    DATA     BIT       TR1
      000000B8H   SFRSYM    DATA     BIT       PX0
      000000C1H   SFRSYM    DATA     BYTE      WDT_CONTR
LX51 LINKER/LOCATER V4.66.41.0                                                        12/20/2018  14:37:19  PAGE 134


      000000B8H.2 SFRSYM    DATA     BIT       PX1
      000000F2H   SFRSYM    DATA     BYTE      PCA_PWM0
      000000F3H   SFRSYM    DATA     BYTE      PCA_PWM1
      000000F4H   SFRSYM    DATA     BYTE      PCA_PWM2
      0000009DH   SFRSYM    DATA     BYTE      P1ASF
      00000083H   SFRSYM    DATA     BYTE      DPH
      000000D1H   SFRSYM    DATA     BYTE      T4T3M
      000000BEH   SFRSYM    DATA     BYTE      ADC_RESL
      00000082H   SFRSYM    DATA     BYTE      DPL
      000000CDH   SFRSYM    DATA     BYTE      SPSTAT
      000000B7H   SFRSYM    DATA     BYTE      IPH
      0000009BH   SFRSYM    DATA     BYTE      S2BUF
      00000097H   SFRSYM    DATA     BYTE      PCON2
      000000ADH   SFRSYM    DATA     BYTE      S3BUF
      00000098H.4 SFRSYM    DATA     BIT       REN
      00000085H   SFRSYM    DATA     BYTE      S4BUF
      0000009AH   SFRSYM    DATA     BYTE      S2CON
      000000ACH   SFRSYM    DATA     BYTE      S3CON
      000000C2H   SFRSYM    DATA     BYTE      ISP_DATA
      00000084H   SFRSYM    DATA     BYTE      S4CON
      000000B9H   SFRSYM    DATA     BYTE      SADEN
      000000B0H   SFRSYM    DATA     BIT       RXD
      000000A9H   SFRSYM    DATA     BYTE      SADDR
      000000B0H.1 SFRSYM    DATA     BIT       TXD
      000000F0H   SFRSYM    DATA     BIT       B0
      000000F0H.1 SFRSYM    DATA     BIT       B1
      000000C6H   SFRSYM    DATA     BYTE      IAP_TRIG
      000000A2H   SFRSYM    DATA     BYTE      AUXR1
      000000F0H.2 SFRSYM    DATA     BIT       B2
      00000090H.2 SFRSYM    DATA     BIT       SPI_SS
      0000008FH   SFRSYM    DATA     BYTE      AUXR2
      000000F0H.3 SFRSYM    DATA     BIT       B3
      000000F0H.4 SFRSYM    DATA     BIT       B4
      000000D0H.5 SFRSYM    DATA     BIT       F0
      000000F0H.5 SFRSYM    DATA     BIT       B5
      000000D0H.1 SFRSYM    DATA     BIT       F1
      0000008FH   SFRSYM    DATA     BYTE      INT_CLKO
      000000F0H.6 SFRSYM    DATA     BIT       B6
      000000E0H   SFRSYM    DATA     BIT       ACC0
      000000F0H.7 SFRSYM    DATA     BIT       B7
      000000E0H.1 SFRSYM    DATA     BIT       ACC1
      000000E0H.2 SFRSYM    DATA     BIT       ACC2
      000000E0H.3 SFRSYM    DATA     BIT       ACC3
      000000D0H   SFRSYM    DATA     BYTE      PSW
      000000E0H.4 SFRSYM    DATA     BIT       ACC4
      00000090H.5 SFRSYM    DATA     BIT       SPI_SCLK
      000000D8H   SFRSYM    DATA     BIT       CCF0
      000000E0H.5 SFRSYM    DATA     BIT       ACC5
      000000D8H.1 SFRSYM    DATA     BIT       CCF1
      000000E0H.6 SFRSYM    DATA     BIT       ACC6
      000000CFH   SFRSYM    DATA     BYTE      SPDAT
      00000094H   SFRSYM    DATA     BYTE      P0M0
      0100794CH   SYMBOL    CONST    ---       _?ix1000

      010078EDH   BLOCK     CODE     ---       LVL=0
      010078EDH   LINE      CODE     ---       #17
      010078EDH   LINE      CODE     ---       #18
      010078EDH   LINE      CODE     ---       #19
      010078F0H   LINE      CODE     ---       #20
      010078F2H   LINE      CODE     ---       #21
      010078F4H   LINE      CODE     ---       #22
      010078F7H   LINE      CODE     ---       #23
      010078FAH   LINE      CODE     ---       #24
      ---         BLOCKEND  ---      ---       LVL=0

LX51 LINKER/LOCATER V4.66.41.0                                                        12/20/2018  14:37:19  PAGE 135


      01007534H   BLOCK     CODE     ---       LVL=0
      00000004H   SYMBOL    DATA     WORD      EE_address
      00000001H   SYMBOL    DATA     ---       DataAddress
      00000054H   SYMBOL    DATA     WORD      number
      01007534H   LINE      CODE     ---       #36
      01007538H   LINE      CODE     ---       #37
      01007538H   LINE      CODE     ---       #39
      0100753BH   LINE      CODE     ---       #40
      0100753EH   LINE      CODE     ---       #42
      0100753EH   LINE      CODE     ---       #43
      01007540H   LINE      CODE     ---       #44
      01007544H   LINE      CODE     ---       #45
      0100754AH   LINE      CODE     ---       #48
      0100754BH   LINE      CODE     ---       #49
      01007550H   LINE      CODE     ---       #50
      01007555H   LINE      CODE     ---       #51
      0100755CH   LINE      CODE     ---       #52
      01007569H   LINE      CODE     ---       #54
      ---         BLOCKEND  ---      ---       LVL=0

      01007728H   BLOCK     CODE     ---       LVL=0
      00000004H   SYMBOL    DATA     WORD      EE_address
      01007728H   LINE      CODE     ---       #67
      0100772CH   LINE      CODE     ---       #68
      0100772CH   LINE      CODE     ---       #69
      0100772EH   LINE      CODE     ---       #72
      01007730H   LINE      CODE     ---       #73
      01007734H   LINE      CODE     ---       #74
      01007737H   LINE      CODE     ---       #75
      0100773AH   LINE      CODE     ---       #76
      01007740H   LINE      CODE     ---       #77
      01007741H   LINE      CODE     ---       #78
      01007744H   LINE      CODE     ---       #79
      01007746H   LINE      CODE     ---       #80
      ---         BLOCKEND  ---      ---       LVL=0

      01007480H   BLOCK     CODE     ---       LVL=0
      00000004H   SYMBOL    DATA     WORD      EE_address
      00000001H   SYMBOL    DATA     ---       DataAddress
      0000003FH   SYMBOL    DATA     WORD      number
      01007480H   LINE      CODE     ---       #91
      01007484H   LINE      CODE     ---       #92
      01007484H   LINE      CODE     ---       #93
      01007486H   LINE      CODE     ---       #95
      01007489H   LINE      CODE     ---       #96
      0100748CH   LINE      CODE     ---       #98
      0100748CH   LINE      CODE     ---       #99
      0100748EH   LINE      CODE     ---       #100
      01007492H   LINE      CODE     ---       #101
      01007497H   LINE      CODE     ---       #102
      0100749DH   LINE      CODE     ---       #103
      0100749EH   LINE      CODE     ---       #104
      010074A3H   LINE      CODE     ---       #105
      010074AAH   LINE      CODE     ---       #106
      010074B7H   LINE      CODE     ---       #108
      010074BAH   LINE      CODE     ---       #109
      010074BCH   LINE      CODE     ---       #110
      ---         BLOCKEND  ---      ---       LVL=0

      01007106H   BLOCK     CODE     ---       LVL=0
      00000033H   SYMBOL    DATA     WORD      EE_address
      00000035H   SYMBOL    DATA     ---       DataAddress
      00000038H   SYMBOL    DATA     WORD      number
      01007110H   BLOCK     CODE     NEAR LAB  LVL=1
      02000292H   SYMBOL    XDATA    ---       datsTemp
LX51 LINKER/LOCATER V4.66.41.0                                                        12/20/2018  14:37:19  PAGE 136


      ---         BLOCKEND  ---      ---       LVL=1
      01007106H   LINE      CODE     ---       #122
      01007110H   LINE      CODE     ---       #124
      01007123H   LINE      CODE     ---       #126
      01007135H   LINE      CODE     ---       #127
      0100713AH   LINE      CODE     ---       #129
      01007155H   LINE      CODE     ---       #131
      ---         BLOCKEND  ---      ---       LVL=0

      ---         MODULE    ---      ---       PARS_METHOD
      00000046H   PUBLIC    DATA     BYTE      ?_memmem?BYTE
      01006DE8H   PUBLIC    CODE     ---       _memmem

      01006DE8H   BLOCK     CODE     ---       LVL=0
      00000046H   SYMBOL    DATA     ---       start
      00000049H   SYMBOL    DATA     BYTE      s_len
      0000004AH   SYMBOL    DATA     ---       find
      0000004DH   SYMBOL    DATA     BYTE      f_len
      01006DF0H   BLOCK     CODE     NEAR LAB  LVL=1
      0000004EH   SYMBOL    DATA     BYTE      len
      0000004FH   SYMBOL    DATA     ---       p
      00000052H   SYMBOL    DATA     ---       q
      ---         BLOCKEND  ---      ---       LVL=1
      01006DE8H   LINE      CODE     ---       #4
      01006DF0H   LINE      CODE     ---       #6
      01006DF3H   LINE      CODE     ---       #7
      01006DF9H   LINE      CODE     ---       #8
      01006E02H   LINE      CODE     ---       #10
      01006E21H   LINE      CODE     ---       #12
      01006E47H   LINE      CODE     ---       #14
      01006E49H   LINE      CODE     ---       #15
      01006E5AH   LINE      CODE     ---       #16
      01006E5AH   LINE      CODE     ---       #18
      01006E63H   LINE      CODE     ---       #19
      01006E66H   LINE      CODE     ---       #20
      01006E68H   LINE      CODE     ---       #22
      01006E6EH   LINE      CODE     ---       #23
      ---         BLOCKEND  ---      ---       LVL=0

      ---         MODULE    ---      ---       ?C_STARTUP
      01000000H   PUBLIC    CODE     ---       ?C_STARTUP

      ---         MODULE    ---      ---       ?C?COPY
      010036B7H   PUBLIC    CODE     ---       ?C?COPY

      ---         MODULE    ---      ---       ?C?CLDPTR
      010036DDH   PUBLIC    CODE     ---       ?C?CLDPTR

      ---         MODULE    ---      ---       ?C?CLDOPTR
      010036F6H   PUBLIC    CODE     ---       ?C?CLDOPTR

      ---         MODULE    ---      ---       ?C?CSTPTR
      01003723H   PUBLIC    CODE     ---       ?C?CSTPTR

      ---         MODULE    ---      ---       ?C?CSTOPTR
      01003735H   PUBLIC    CODE     ---       ?C?CSTOPTR

      ---         MODULE    ---      ---       ?C?IMUL
      01003757H   PUBLIC    CODE     ---       ?C?IMUL

      ---         MODULE    ---      ---       ?C?UIDIV
      01003769H   PUBLIC    CODE     ---       ?C?UIDIV

      ---         MODULE    ---      ---       ?C?LMUL
      010037BEH   PUBLIC    CODE     ---       ?C?LMUL
LX51 LINKER/LOCATER V4.66.41.0                                                        12/20/2018  14:37:19  PAGE 137



      ---         MODULE    ---      ---       ?C?ULCMP
      0100380DH   PUBLIC    CODE     ---       ?C?ULCMP

      ---         MODULE    ---      ---       ?C?ULSHR
      0100381EH   PUBLIC    CODE     ---       ?C?ULSHR

      ---         MODULE    ---      ---       ?C?LSHL
      01003831H   PUBLIC    CODE     ---       ?C?LSHL

      ---         MODULE    ---      ---       ?C?OFFXADD
      01003844H   PUBLIC    CODE     ---       ?C?OFFXADD

      ---         MODULE    ---      ---       ?C?CCASE
      01003850H   PUBLIC    CODE     ---       ?C?CCASE

      ---         MODULE    ---      ---       ?C?ICALL
      01003876H   PUBLIC    CODE     ---       ?C?ICALL
      0100387AH   PUBLIC    CODE     ---       ?C?ICALL2

      ---         MODULE    ---      ---       PRINTF
      00000038H   PUBLIC    DATA     ---       ?_PRINTF517?BYTE
      00000038H   PUBLIC    DATA     ---       ?_PRINTF?BYTE
      00000038H   PUBLIC    DATA     ---       ?_SPRINTF517?BYTE
      00000038H   PUBLIC    DATA     ---       ?_SPRINTF?BYTE
      010046C5H   PUBLIC    CODE     ---       _PRINTF
      010046C5H   PUBLIC    CODE     ---       _PRINTF517
      010046BFH   PUBLIC    CODE     ---       _SPRINTF
      010046BFH   PUBLIC    CODE     ---       _SPRINTF517

      ---         MODULE    ---      ---       ?C?MEMCMP
      01003A02H   PUBLIC    CODE     ---       ?C?MEMCMP

      ---         MODULE    ---      ---       ?C?MEMSET
      01003A26H   PUBLIC    CODE     ---       ?C?MEMSET

      ---         MODULE    ---      ---       ?C_INIT
      01006C09H   PUBLIC    CODE     ---       ?C_START

      ---         MODULE    ---      ---       ?C?PLDIIDATA
      01003A52H   PUBLIC    CODE     ---       ?C?PLDIIDATA

      ---         MODULE    ---      ---       PUTCHAR
      01007670H   PUBLIC    CODE     ---       _PUTCHAR

Program Size: data=152.3 xdata=1841 const=135 code=31050
LX51 RUN COMPLETE.  0 WARNING(S),  0 ERROR(S)
